ARM GAS  C:\Users\sdysart\AppData\Local\Temp\cc55wdyV.s 			page 1


   1              		.syntax unified
   2              		.cpu cortex-m3
   3              		.fpu softvfp
   4              		.eabi_attribute 20, 1
   5              		.eabi_attribute 21, 1
   6              		.eabi_attribute 23, 3
   7              		.eabi_attribute 24, 1
   8              		.eabi_attribute 25, 1
   9              		.eabi_attribute 26, 1
  10              		.eabi_attribute 30, 1
  11              		.eabi_attribute 34, 1
  12              		.eabi_attribute 18, 4
  13              		.thumb
  14              		.syntax unified
  15              		.file	"main.c"
  16              		.text
  17              	.Ltext0:
  18              		.cfi_sections	.debug_frame
  19              		.section	.text.isr_halfsec,"ax",%progbits
  20              		.align	2
  21              		.global	isr_halfsec
  22              		.thumb
  23              		.thumb_func
  24              		.type	isr_halfsec, %function
  25              	isr_halfsec:
  26              	.LFB64:
  27              		.file 1 "main.c"
   1:main.c        **** /*Included header files*/
   2:main.c        **** #include "project.h"
   3:main.c        **** 
   4:main.c        **** /*Definitions*/
   5:main.c        **** #define CLOCK_FREQ 1000000
   6:main.c        **** #define FREQ(x) (CLOCK_FREQ/x)-1
   7:main.c        **** #define ONE_FREQ 41000
   8:main.c        **** #define ZERO_FREQ 37000
   9:main.c        **** #define AUDIBLE_FREQ 12000
  10:main.c        **** #define DEFAULT_FREQ MIN_FREQ
  11:main.c        **** 
  12:main.c        **** #define BIT_0_MASK 0x01
  13:main.c        **** #define BIT_1_MASK 0x02
  14:main.c        **** #define BIT_2_MASK 0x04
  15:main.c        **** #define BIT_3_MASK 0x08
  16:main.c        **** #define BIT_4_MASK 0x10
  17:main.c        **** #define BIT_5_MASK 0x20
  18:main.c        **** #define BIT_6_MASK 0x40
  19:main.c        **** #define BIT_7_MASK 0x80
  20:main.c        **** 
  21:main.c        **** #define ZERO 0x0
  22:main.c        **** #define ONE 0x1
  23:main.c        **** #define DATA_LENGTH 4
  24:main.c        **** #define DECODE_VALUE 0x01
  25:main.c        **** //
  26:main.c        **** #define PREFIX_BIT_LENGTH 6
  27:main.c        **** #define PREFIX_MESSAGE 0xFF
  28:main.c        **** 
  29:main.c        **** /*Function Prototypes*/
  30:main.c        **** int Data(unsigned int hex_value, int bT);
ARM GAS  C:\Users\sdysart\AppData\Local\Temp\cc55wdyV.s 			page 2


  31:main.c        **** int Decode(unsigned int hex_value, int bT);
  32:main.c        **** int PreFix(unsigned int hex_value, int prefixCount);
  33:main.c        **** CY_ISR_PROTO(isr_halfsec); // High F Interrupts
  34:main.c        **** //CY_ISR_PROTO(isr_msec); // High F  Alternating Interrupts
  35:main.c        **** 
  36:main.c        **** /*Global Variables*/
  37:main.c        **** static int bitTime = 0;
  38:main.c        **** static int prefixTime = 0;
  39:main.c        **** static int alternating = 0;
  40:main.c        **** 
  41:main.c        **** int main(void)
  42:main.c        **** {
  43:main.c        ****     CyGlobalIntEnable; /* Enable global interrupts. */
  44:main.c        ****     
  45:main.c        ****     /*Block initializations*/
  46:main.c        ****     PWM_Modulator_Start();
  47:main.c        **** //    PWM_Alternating_Start();
  48:main.c        **** //    PWM_Alternating_Timer_Start();
  49:main.c        ****     PWM_1_Start();
  50:main.c        ****     PWM_2_Start();
  51:main.c        ****     PWM_3_Start();
  52:main.c        ****     PWM_Switch_Timer_Start();
  53:main.c        ****     isr_halfsec_StartEx(isr_halfsec);
  54:main.c        **** //    isr_msec_StartEx(isr_msec);
  55:main.c        ****     
  56:main.c        ****     /*Variable initializations*/
  57:main.c        ****     int bitCase = 0;
  58:main.c        ****     int data_turn = 0;
  59:main.c        ****     unsigned int data_to_be_sent = ONE;
  60:main.c        ****     
  61:main.c        ****     // Set PWM to ONE_FREQ
  62:main.c        ****     PWM_1_WritePeriod(FREQ(AUDIBLE_FREQ));
  63:main.c        ****     PWM_1_WriteCompare((FREQ(AUDIBLE_FREQ))/2); // Sets pulse width to half
  64:main.c        ****     
  65:main.c        ****     // Set PWM to ONE_FREQ
  66:main.c        ****     PWM_2_WritePeriod(FREQ(ONE_FREQ));
  67:main.c        ****     PWM_2_WriteCompare((FREQ(ONE_FREQ))/2); // Sets pulse width to half
  68:main.c        ****     
  69:main.c        ****         // Set PWM to ONE_FREQ
  70:main.c        ****     PWM_3_WritePeriod(FREQ(ZERO_FREQ));
  71:main.c        ****     PWM_3_WriteCompare((FREQ(ZERO_FREQ))/2); // Sets pulse width to half
  72:main.c        **** 
  73:main.c        **** 
  74:main.c        ****     
  75:main.c        ****     for(;;)
  76:main.c        ****     {
  77:main.c        ****         switch(bitTime){
  78:main.c        ****             // ENCODE
  79:main.c        ****             case 0:
  80:main.c        ****                 bitCase = PreFix(PREFIX_MESSAGE , prefixTime);
  81:main.c        ****                 break; 
  82:main.c        ****             // DATA
  83:main.c        ****             case 1:
  84:main.c        ****             case 2:
  85:main.c        ****             case 3:
  86:main.c        ****             case 4:
  87:main.c        ****                 bitCase = Data(data_to_be_sent, bitTime); 
ARM GAS  C:\Users\sdysart\AppData\Local\Temp\cc55wdyV.s 			page 3


  88:main.c        ****                 break; 
  89:main.c        ****             // DECODE
  90:main.c        ****             case 5:    
  91:main.c        ****             case 6:
  92:main.c        ****             case 7:    
  93:main.c        ****             case 8:
  94:main.c        ****             case 9:
  95:main.c        ****             case 10:
  96:main.c        ****             case 11:
  97:main.c        ****             case 12:
  98:main.c        ****                 bitCase = Decode(DECODE_VALUE, bitTime);
  99:main.c        ****                 break;
 100:main.c        ****             case 13:
 101:main.c        ****                 bitTime = 0;
 102:main.c        ****                 //encode used to transmit 7 1's for the prefix 
 103:main.c        ****                 //reset here to be ready for case 0 
 104:main.c        ****                 prefixTime = 0;
 105:main.c        ****                 data_turn++;
 106:main.c        ****                 data_to_be_sent <<= 1;
 107:main.c        ****                 //Once data to be sent can't be contained in a nibble, reset to 0x1
 108:main.c        ****                 if (data_turn == DATA_LENGTH) {
 109:main.c        ****                     data_turn = 0;
 110:main.c        ****                     data_to_be_sent = ONE;
 111:main.c        ****                 }
 112:main.c        ****                 PWM_Modulator_Stop();
 113:main.c        ****                 // Turn High Voltage off while delaying
 114:main.c        ****                 PWM_Switch_Timer_Stop();
 115:main.c        ****                 // Turn High Voltage Back On
 116:main.c        ****                 HighVoltage_Write(0);
 117:main.c        ****                 CyDelay(3000);
 118:main.c        ****                 HighVoltage_Write(1);
 119:main.c        ****                 PWM_Modulator_Start();
 120:main.c        ****                 PWM_Switch_Timer_Start();
 121:main.c        ****                 break;
 122:main.c        ****             default:
 123:main.c        ****                 break; 
 124:main.c        ****          } //end switch(bitTime) 
 125:main.c        ****         
 126:main.c        ****         if(bitCase == ONE){
 127:main.c        ****             PWM_Modulator_WritePeriod(FREQ(ONE_FREQ));
 128:main.c        ****             PWM_Modulator_WriteCompare((FREQ(ONE_FREQ))/2); // Sets pulse width
 129:main.c        ****         }else if(bitCase == ZERO){
 130:main.c        ****             PWM_Modulator_WritePeriod(FREQ(ZERO_FREQ));
 131:main.c        ****             PWM_Modulator_WriteCompare((FREQ(ZERO_FREQ))/2); // Sets pulse width
 132:main.c        ****         }
 133:main.c        ****         
 134:main.c        ****     }//end for(;;)
 135:main.c        ****     
 136:main.c        **** }//end main()
 137:main.c        **** 
 138:main.c        **** 
 139:main.c        **** // Interrupt triggered on a 0.5s timer timeout
 140:main.c        **** // Will increment prefixTime counter for the 1st 8 bits
 141:main.c        **** // Then move on to incrementing the message bit counter
 142:main.c        **** CY_ISR(isr_halfsec)
 143:main.c        **** {
  28              		.loc 1 143 0
ARM GAS  C:\Users\sdysart\AppData\Local\Temp\cc55wdyV.s 			page 4


  29              		.cfi_startproc
  30              		@ args = 0, pretend = 0, frame = 0
  31              		@ frame_needed = 0, uses_anonymous_args = 0
  32              		@ link register save eliminated.
 144:main.c        ****     if((bitTime == 0) && (prefixTime <= PREFIX_BIT_LENGTH)){
  33              		.loc 1 144 0
  34 0000 094B     		ldr	r3, .L4
  35 0002 1B68     		ldr	r3, [r3]
  36 0004 3BB9     		cbnz	r3, .L2
  37              		.loc 1 144 0 is_stmt 0 discriminator 1
  38 0006 084A     		ldr	r2, .L4
  39 0008 5268     		ldr	r2, [r2, #4]
  40 000a 062A     		cmp	r2, #6
  41 000c 03DC     		bgt	.L2
 145:main.c        ****         prefixTime++;
  42              		.loc 1 145 0 is_stmt 1
  43 000e 0132     		adds	r2, r2, #1
  44 0010 054B     		ldr	r3, .L4
  45 0012 5A60     		str	r2, [r3, #4]
  46 0014 7047     		bx	lr
  47              	.L2:
 146:main.c        ****     }
 147:main.c        ****     else if(prefixTime > PREFIX_BIT_LENGTH){
  48              		.loc 1 147 0
  49 0016 044A     		ldr	r2, .L4
  50 0018 5268     		ldr	r2, [r2, #4]
  51 001a 062A     		cmp	r2, #6
  52 001c 02DD     		ble	.L1
 148:main.c        ****         bitTime++;
  53              		.loc 1 148 0
  54 001e 0133     		adds	r3, r3, #1
  55 0020 014A     		ldr	r2, .L4
  56 0022 1360     		str	r3, [r2]
  57              	.L1:
  58 0024 7047     		bx	lr
  59              	.L5:
  60 0026 00BF     		.align	2
  61              	.L4:
  62 0028 00000000 		.word	.LANCHOR0
  63              		.cfi_endproc
  64              	.LFE64:
  65              		.size	isr_halfsec, .-isr_halfsec
  66              		.section	.text.Data,"ax",%progbits
  67              		.align	2
  68              		.global	Data
  69              		.thumb
  70              		.thumb_func
  71              		.type	Data, %function
  72              	Data:
  73              	.LFB65:
 149:main.c        ****     }
 150:main.c        **** }//end CY_ISR(isr_halfsec)
 151:main.c        **** 
 152:main.c        **** 
 153:main.c        **** // Interrupt triggered on a 1 ms timer timeout
 154:main.c        **** // Will change between 30k and 45k every 1 ms
 155:main.c        **** //CY_ISR(isr_msec)
ARM GAS  C:\Users\sdysart\AppData\Local\Temp\cc55wdyV.s 			page 5


 156:main.c        **** //{
 157:main.c        **** //    if(alternating == 1){
 158:main.c        **** //        alternating = 0;
 159:main.c        **** //    }else{
 160:main.c        **** //        alternating = 1;
 161:main.c        **** //    }
 162:main.c        **** //    if(alternating == 1){
 163:main.c        **** //        PWM_Alternating_WritePeriod(FREQ(ONE_FREQ));
 164:main.c        **** //        PWM_Alternating_WriteCompare((FREQ(ONE_FREQ))/2); // Sets pulse width
 165:main.c        **** //    }else if(alternating == 0){
 166:main.c        **** //        PWM_Alternating_WritePeriod(FREQ(ZERO_FREQ));
 167:main.c        **** //        PWM_Alternating_WriteCompare((FREQ(ZERO_FREQ))/2); // Sets pulse width
 168:main.c        **** //    }
 169:main.c        **** //}//end CY_ISR(isr_msec)
 170:main.c        **** 
 171:main.c        **** /*
 172:main.c        ****  * function: int Data(unsigned int hex_value, int bT)
 173:main.c        ****  * parameters: hex_value - a four bit value specifying what data you want to send
 174:main.c        ****  *             bT - the current bit time
 175:main.c        ****  * returns: bitCase - a high or low signal to be sent to an output pin
 176:main.c        ****  * description: This function takes in a hex value and sends it out a bit at a time as a high or
 177:main.c        ****  *  low signal depending on the bit time. Used only to set desired data nibble.
 178:main.c        ****  */
 179:main.c        **** int Data(unsigned int hex_value, int bT)
 180:main.c        **** {
  74              		.loc 1 180 0
  75              		.cfi_startproc
  76              		@ args = 0, pretend = 0, frame = 0
  77              		@ frame_needed = 0, uses_anonymous_args = 0
  78              		@ link register save eliminated.
  79              	.LVL0:
 181:main.c        ****     int bitCase;
 182:main.c        ****     switch(bT){
  80              		.loc 1 182 0
  81 0000 0139     		subs	r1, r1, #1
  82              	.LVL1:
  83 0002 0329     		cmp	r1, #3
  84 0004 0ED8     		bhi	.L7
  85 0006 DFE801F0 		tbb	[pc, r1]
  86              	.L9:
  87 000a 02       		.byte	(.L8-.L9)/2
  88 000b 05       		.byte	(.L10-.L9)/2
  89 000c 08       		.byte	(.L11-.L9)/2
  90 000d 0B       		.byte	(.L12-.L9)/2
  91              		.p2align 1
  92              	.L8:
 183:main.c        ****         case 1:
 184:main.c        ****             bitCase = (hex_value & BIT_3_MASK) >> 3;
  93              		.loc 1 184 0
  94 000e C0F3C003 		ubfx	r3, r0, #3, #1
  95              	.LVL2:
 185:main.c        ****             break; 
  96              		.loc 1 185 0
  97 0012 07E0     		b	.L7
  98              	.LVL3:
  99              	.L10:
 186:main.c        ****         case 2:
ARM GAS  C:\Users\sdysart\AppData\Local\Temp\cc55wdyV.s 			page 6


 187:main.c        ****             bitCase = (hex_value & BIT_2_MASK) >> 2;
 100              		.loc 1 187 0
 101 0014 C0F38003 		ubfx	r3, r0, #2, #1
 102              	.LVL4:
 188:main.c        ****             break; 
 103              		.loc 1 188 0
 104 0018 04E0     		b	.L7
 105              	.LVL5:
 106              	.L11:
 189:main.c        ****         case 3:
 190:main.c        ****             bitCase = (hex_value & BIT_1_MASK) >> 1;
 107              		.loc 1 190 0
 108 001a C0F34003 		ubfx	r3, r0, #1, #1
 109              	.LVL6:
 191:main.c        ****             break; 
 110              		.loc 1 191 0
 111 001e 01E0     		b	.L7
 112              	.LVL7:
 113              	.L12:
 192:main.c        ****         case 4:
 193:main.c        ****             bitCase = (hex_value & BIT_0_MASK);
 114              		.loc 1 193 0
 115 0020 00F00103 		and	r3, r0, #1
 116              	.LVL8:
 117              	.L7:
 194:main.c        ****             break;
 195:main.c        ****         default:
 196:main.c        ****             break;
 197:main.c        ****     } //end switch(bT)
 198:main.c        ****     return bitCase;
 199:main.c        **** }//end Data()
 118              		.loc 1 199 0
 119 0024 1846     		mov	r0, r3
 120              	.LVL9:
 121 0026 7047     		bx	lr
 122              		.cfi_endproc
 123              	.LFE65:
 124              		.size	Data, .-Data
 125              		.section	.text.Decode,"ax",%progbits
 126              		.align	2
 127              		.global	Decode
 128              		.thumb
 129              		.thumb_func
 130              		.type	Decode, %function
 131              	Decode:
 132              	.LFB66:
 200:main.c        **** 
 201:main.c        **** 
 202:main.c        **** /*
 203:main.c        ****  * function: int Decode(unsigned int hex_value, int bT)
 204:main.c        ****  * parameters: hex_value - an 8 bit (1 byte) value specifying what data you want to send
 205:main.c        ****  *             bT - the current bit time
 206:main.c        ****  * returns: bitCase - a high or low signal to be sent to an output pin
 207:main.c        ****  * description: This function takes in a hex value and sends it out a bit at a time as a high or
 208:main.c        ****  *  low signal depending on the bit time. Used only to set desired decode encryption.
 209:main.c        ****  */
 210:main.c        **** int Decode(unsigned int hex_value, int bT)
ARM GAS  C:\Users\sdysart\AppData\Local\Temp\cc55wdyV.s 			page 7


 211:main.c        **** {
 133              		.loc 1 211 0
 134              		.cfi_startproc
 135              		@ args = 0, pretend = 0, frame = 0
 136              		@ frame_needed = 0, uses_anonymous_args = 0
 137              		@ link register save eliminated.
 138              	.LVL10:
 212:main.c        ****     int bitCase;
 213:main.c        ****     switch(bT){
 139              		.loc 1 213 0
 140 0000 0539     		subs	r1, r1, #5
 141              	.LVL11:
 142 0002 0729     		cmp	r1, #7
 143 0004 1CD8     		bhi	.L14
 144 0006 DFE801F0 		tbb	[pc, r1]
 145              	.L16:
 146 000a 04       		.byte	(.L15-.L16)/2
 147 000b 07       		.byte	(.L17-.L16)/2
 148 000c 0A       		.byte	(.L18-.L16)/2
 149 000d 0D       		.byte	(.L19-.L16)/2
 150 000e 10       		.byte	(.L20-.L16)/2
 151 000f 13       		.byte	(.L21-.L16)/2
 152 0010 16       		.byte	(.L22-.L16)/2
 153 0011 19       		.byte	(.L23-.L16)/2
 154              		.p2align 1
 155              	.L15:
 214:main.c        ****         case 5:
 215:main.c        ****             bitCase = (hex_value & BIT_7_MASK) >> 7;
 156              		.loc 1 215 0
 157 0012 C0F3C013 		ubfx	r3, r0, #7, #1
 158              	.LVL12:
 216:main.c        ****             break;
 159              		.loc 1 216 0
 160 0016 13E0     		b	.L14
 161              	.LVL13:
 162              	.L17:
 217:main.c        ****         case 6:
 218:main.c        ****             bitCase = (hex_value & BIT_6_MASK) >> 6;
 163              		.loc 1 218 0
 164 0018 C0F38013 		ubfx	r3, r0, #6, #1
 165              	.LVL14:
 219:main.c        ****             break; 
 166              		.loc 1 219 0
 167 001c 10E0     		b	.L14
 168              	.LVL15:
 169              	.L18:
 220:main.c        ****         case 7:
 221:main.c        ****             bitCase = (hex_value & BIT_5_MASK) >> 5;
 170              		.loc 1 221 0
 171 001e C0F34013 		ubfx	r3, r0, #5, #1
 172              	.LVL16:
 222:main.c        ****             break; 
 173              		.loc 1 222 0
 174 0022 0DE0     		b	.L14
 175              	.LVL17:
 176              	.L19:
 223:main.c        ****         case 8:
ARM GAS  C:\Users\sdysart\AppData\Local\Temp\cc55wdyV.s 			page 8


 224:main.c        ****             bitCase = (hex_value & BIT_4_MASK) >> 4;
 177              		.loc 1 224 0
 178 0024 C0F30013 		ubfx	r3, r0, #4, #1
 179              	.LVL18:
 225:main.c        ****             break;
 180              		.loc 1 225 0
 181 0028 0AE0     		b	.L14
 182              	.LVL19:
 183              	.L20:
 226:main.c        ****         case 9:
 227:main.c        ****             bitCase = (hex_value & BIT_3_MASK) >> 3;
 184              		.loc 1 227 0
 185 002a C0F3C003 		ubfx	r3, r0, #3, #1
 186              	.LVL20:
 228:main.c        ****             break; 
 187              		.loc 1 228 0
 188 002e 07E0     		b	.L14
 189              	.LVL21:
 190              	.L21:
 229:main.c        ****         case 10:
 230:main.c        ****             bitCase = (hex_value & BIT_2_MASK) >> 2;
 191              		.loc 1 230 0
 192 0030 C0F38003 		ubfx	r3, r0, #2, #1
 193              	.LVL22:
 231:main.c        ****             break; 
 194              		.loc 1 231 0
 195 0034 04E0     		b	.L14
 196              	.LVL23:
 197              	.L22:
 232:main.c        ****         case 11:
 233:main.c        ****             bitCase = (hex_value & BIT_1_MASK) >> 1;
 198              		.loc 1 233 0
 199 0036 C0F34003 		ubfx	r3, r0, #1, #1
 200              	.LVL24:
 234:main.c        ****             break; 
 201              		.loc 1 234 0
 202 003a 01E0     		b	.L14
 203              	.LVL25:
 204              	.L23:
 235:main.c        ****         case 12:
 236:main.c        ****             bitCase = (hex_value & BIT_0_MASK);
 205              		.loc 1 236 0
 206 003c 00F00103 		and	r3, r0, #1
 207              	.LVL26:
 208              	.L14:
 237:main.c        ****             break;
 238:main.c        ****         default:
 239:main.c        ****             break;
 240:main.c        ****     } //end switch(bT)
 241:main.c        ****     return bitCase;
 242:main.c        **** }//end Decode()
 209              		.loc 1 242 0
 210 0040 1846     		mov	r0, r3
 211              	.LVL27:
 212 0042 7047     		bx	lr
 213              		.cfi_endproc
 214              	.LFE66:
ARM GAS  C:\Users\sdysart\AppData\Local\Temp\cc55wdyV.s 			page 9


 215              		.size	Decode, .-Decode
 216              		.section	.text.PreFix,"ax",%progbits
 217              		.align	2
 218              		.global	PreFix
 219              		.thumb
 220              		.thumb_func
 221              		.type	PreFix, %function
 222              	PreFix:
 223              	.LFB67:
 243:main.c        **** 
 244:main.c        **** 
 245:main.c        **** /*
 246:main.c        ****  * function: int PreFix(unsigned int hex_value, int bT)
 247:main.c        ****  * parameters: hex_value - an 8 bit (1 byte) value specifying what data you want to send
 248:main.c        ****  *             bT - the current bit time
 249:main.c        ****  * returns: bitCase - a high or low signal to be sent to an output pin
 250:main.c        ****  * description: This function takes in a hex value and sends it out a bit at a time as a high or
 251:main.c        ****  *  low signal depending on the bit time. Used only to set desired decode encryption.
 252:main.c        ****  */
 253:main.c        **** int PreFix(unsigned int hex_value, int prefixCount)
 254:main.c        **** {   
 224              		.loc 1 254 0
 225              		.cfi_startproc
 226              		@ args = 0, pretend = 0, frame = 0
 227              		@ frame_needed = 0, uses_anonymous_args = 0
 228              		@ link register save eliminated.
 229              	.LVL28:
 255:main.c        ****     int prefixBit;
 256:main.c        ****     
 257:main.c        ****     switch(prefixCount){
 230              		.loc 1 257 0
 231 0000 0729     		cmp	r1, #7
 232 0002 1CD8     		bhi	.L25
 233 0004 DFE801F0 		tbb	[pc, r1]
 234              	.L27:
 235 0008 04       		.byte	(.L26-.L27)/2
 236 0009 07       		.byte	(.L28-.L27)/2
 237 000a 0A       		.byte	(.L29-.L27)/2
 238 000b 0D       		.byte	(.L30-.L27)/2
 239 000c 10       		.byte	(.L31-.L27)/2
 240 000d 13       		.byte	(.L32-.L27)/2
 241 000e 16       		.byte	(.L33-.L27)/2
 242 000f 19       		.byte	(.L34-.L27)/2
 243              		.p2align 1
 244              	.L26:
 258:main.c        ****         case 0:
 259:main.c        ****            prefixBit = (hex_value & BIT_7_MASK) >> 7;
 245              		.loc 1 259 0
 246 0010 C0F3C013 		ubfx	r3, r0, #7, #1
 247              	.LVL29:
 260:main.c        ****             break;
 248              		.loc 1 260 0
 249 0014 13E0     		b	.L25
 250              	.LVL30:
 251              	.L28:
 261:main.c        ****         case 1:
 262:main.c        ****             prefixBit = (hex_value & BIT_6_MASK) >> 6;
ARM GAS  C:\Users\sdysart\AppData\Local\Temp\cc55wdyV.s 			page 10


 252              		.loc 1 262 0
 253 0016 C0F38013 		ubfx	r3, r0, #6, #1
 254              	.LVL31:
 263:main.c        ****             break; 
 255              		.loc 1 263 0
 256 001a 10E0     		b	.L25
 257              	.LVL32:
 258              	.L29:
 264:main.c        ****         case 2:
 265:main.c        ****             prefixBit = (hex_value & BIT_5_MASK) >> 5;
 259              		.loc 1 265 0
 260 001c C0F34013 		ubfx	r3, r0, #5, #1
 261              	.LVL33:
 266:main.c        ****             break; 
 262              		.loc 1 266 0
 263 0020 0DE0     		b	.L25
 264              	.LVL34:
 265              	.L30:
 267:main.c        ****         case 3:
 268:main.c        ****             prefixBit = (hex_value & BIT_4_MASK) >> 4;
 266              		.loc 1 268 0
 267 0022 C0F30013 		ubfx	r3, r0, #4, #1
 268              	.LVL35:
 269:main.c        ****             break;
 269              		.loc 1 269 0
 270 0026 0AE0     		b	.L25
 271              	.LVL36:
 272              	.L31:
 270:main.c        ****         case 4:
 271:main.c        ****             prefixBit = (hex_value & BIT_3_MASK) >> 3;
 273              		.loc 1 271 0
 274 0028 C0F3C003 		ubfx	r3, r0, #3, #1
 275              	.LVL37:
 272:main.c        ****             break; 
 276              		.loc 1 272 0
 277 002c 07E0     		b	.L25
 278              	.LVL38:
 279              	.L32:
 273:main.c        ****         case 5:
 274:main.c        ****             prefixBit = (hex_value & BIT_2_MASK) >> 2;
 280              		.loc 1 274 0
 281 002e C0F38003 		ubfx	r3, r0, #2, #1
 282              	.LVL39:
 275:main.c        ****             break; 
 283              		.loc 1 275 0
 284 0032 04E0     		b	.L25
 285              	.LVL40:
 286              	.L33:
 276:main.c        ****         case 6:
 277:main.c        ****             prefixBit = (hex_value & BIT_1_MASK) >> 1;
 287              		.loc 1 277 0
 288 0034 C0F34003 		ubfx	r3, r0, #1, #1
 289              	.LVL41:
 278:main.c        ****             break; 
 290              		.loc 1 278 0
 291 0038 01E0     		b	.L25
 292              	.LVL42:
ARM GAS  C:\Users\sdysart\AppData\Local\Temp\cc55wdyV.s 			page 11


 293              	.L34:
 279:main.c        ****         case 7:
 280:main.c        ****             prefixBit = (hex_value & BIT_0_MASK);
 294              		.loc 1 280 0
 295 003a 00F00103 		and	r3, r0, #1
 296              	.LVL43:
 297              	.L25:
 281:main.c        ****             break;
 282:main.c        ****         default:
 283:main.c        ****             break;
 284:main.c        ****  
 285:main.c        ****     }
 286:main.c        ****     
 287:main.c        ****     return prefixBit; 
 288:main.c        **** 
 289:main.c        **** }
 298              		.loc 1 289 0
 299 003e 1846     		mov	r0, r3
 300              	.LVL44:
 301 0040 7047     		bx	lr
 302              		.cfi_endproc
 303              	.LFE67:
 304              		.size	PreFix, .-PreFix
 305 0042 00BF     		.section	.text.main,"ax",%progbits
 306              		.align	2
 307              		.global	main
 308              		.thumb
 309              		.thumb_func
 310              		.type	main, %function
 311              	main:
 312              	.LFB63:
  42:main.c        ****     CyGlobalIntEnable; /* Enable global interrupts. */
 313              		.loc 1 42 0
 314              		.cfi_startproc
 315              		@ args = 0, pretend = 0, frame = 0
 316              		@ frame_needed = 0, uses_anonymous_args = 0
 317 0000 70B5     		push	{r4, r5, r6, lr}
 318              		.cfi_def_cfa_offset 16
 319              		.cfi_offset 4, -16
 320              		.cfi_offset 5, -12
 321              		.cfi_offset 6, -8
 322              		.cfi_offset 14, -4
  43:main.c        ****     
 323              		.loc 1 43 0
 324              		.syntax unified
 325              	@ 43 "main.c" 1
 326 0002 62B6     		CPSIE   i
 327              	@ 0 "" 2
  46:main.c        **** //    PWM_Alternating_Start();
 328              		.loc 1 46 0
 329              		.thumb
 330              		.syntax unified
 331 0004 FFF7FEFF 		bl	PWM_Modulator_Start
 332              	.LVL45:
  49:main.c        ****     PWM_2_Start();
 333              		.loc 1 49 0
 334 0008 FFF7FEFF 		bl	PWM_1_Start
ARM GAS  C:\Users\sdysart\AppData\Local\Temp\cc55wdyV.s 			page 12


 335              	.LVL46:
  50:main.c        ****     PWM_3_Start();
 336              		.loc 1 50 0
 337 000c FFF7FEFF 		bl	PWM_2_Start
 338              	.LVL47:
  51:main.c        ****     PWM_Switch_Timer_Start();
 339              		.loc 1 51 0
 340 0010 FFF7FEFF 		bl	PWM_3_Start
 341              	.LVL48:
  52:main.c        ****     isr_halfsec_StartEx(isr_halfsec);
 342              		.loc 1 52 0
 343 0014 FFF7FEFF 		bl	PWM_Switch_Timer_Start
 344              	.LVL49:
  53:main.c        **** //    isr_msec_StartEx(isr_msec);
 345              		.loc 1 53 0
 346 0018 3148     		ldr	r0, .L48
 347 001a FFF7FEFF 		bl	isr_halfsec_StartEx
 348              	.LVL50:
  62:main.c        ****     PWM_1_WriteCompare((FREQ(AUDIBLE_FREQ))/2); // Sets pulse width to half
 349              		.loc 1 62 0
 350 001e 5220     		movs	r0, #82
 351 0020 FFF7FEFF 		bl	PWM_1_WritePeriod
 352              	.LVL51:
  63:main.c        ****     
 353              		.loc 1 63 0
 354 0024 2920     		movs	r0, #41
 355 0026 FFF7FEFF 		bl	PWM_1_WriteCompare
 356              	.LVL52:
  66:main.c        ****     PWM_2_WriteCompare((FREQ(ONE_FREQ))/2); // Sets pulse width to half
 357              		.loc 1 66 0
 358 002a 1720     		movs	r0, #23
 359 002c FFF7FEFF 		bl	PWM_2_WritePeriod
 360              	.LVL53:
  67:main.c        ****     
 361              		.loc 1 67 0
 362 0030 0B20     		movs	r0, #11
 363 0032 FFF7FEFF 		bl	PWM_2_WriteCompare
 364              	.LVL54:
  70:main.c        ****     PWM_3_WriteCompare((FREQ(ZERO_FREQ))/2); // Sets pulse width to half
 365              		.loc 1 70 0
 366 0036 1A20     		movs	r0, #26
 367 0038 FFF7FEFF 		bl	PWM_3_WritePeriod
 368              	.LVL55:
  71:main.c        **** 
 369              		.loc 1 71 0
 370 003c 0D20     		movs	r0, #13
 371 003e FFF7FEFF 		bl	PWM_3_WriteCompare
 372              	.LVL56:
  59:main.c        ****     
 373              		.loc 1 59 0
 374 0042 0126     		movs	r6, #1
  58:main.c        ****     unsigned int data_to_be_sent = ONE;
 375              		.loc 1 58 0
 376 0044 0025     		movs	r5, #0
  57:main.c        ****     int data_turn = 0;
 377              		.loc 1 57 0
 378 0046 2C46     		mov	r4, r5
ARM GAS  C:\Users\sdysart\AppData\Local\Temp\cc55wdyV.s 			page 13


 379              	.LVL57:
 380              	.L36:
  77:main.c        ****             // ENCODE
 381              		.loc 1 77 0
 382 0048 264B     		ldr	r3, .L48+4
 383 004a 1968     		ldr	r1, [r3]
 384 004c 0D29     		cmp	r1, #13
 385 004e 35D8     		bhi	.L37
 386 0050 DFE801F0 		tbb	[pc, r1]
 387              	.L39:
 388 0054 07       		.byte	(.L38-.L39)/2
 389 0055 0E       		.byte	(.L40-.L39)/2
 390 0056 0E       		.byte	(.L40-.L39)/2
 391 0057 0E       		.byte	(.L40-.L39)/2
 392 0058 0E       		.byte	(.L40-.L39)/2
 393 0059 13       		.byte	(.L41-.L39)/2
 394 005a 13       		.byte	(.L41-.L39)/2
 395 005b 13       		.byte	(.L41-.L39)/2
 396 005c 13       		.byte	(.L41-.L39)/2
 397 005d 13       		.byte	(.L41-.L39)/2
 398 005e 13       		.byte	(.L41-.L39)/2
 399 005f 13       		.byte	(.L41-.L39)/2
 400 0060 13       		.byte	(.L41-.L39)/2
 401 0061 18       		.byte	(.L42-.L39)/2
 402              		.p2align 1
 403              	.L38:
  80:main.c        ****                 break; 
 404              		.loc 1 80 0
 405 0062 204B     		ldr	r3, .L48+4
 406 0064 5968     		ldr	r1, [r3, #4]
 407 0066 FF20     		movs	r0, #255
 408 0068 FFF7FEFF 		bl	PreFix
 409              	.LVL58:
 410 006c 0446     		mov	r4, r0
 411              	.LVL59:
  81:main.c        ****             // DATA
 412              		.loc 1 81 0
 413 006e 25E0     		b	.L37
 414              	.LVL60:
 415              	.L40:
  87:main.c        ****                 break; 
 416              		.loc 1 87 0
 417 0070 3046     		mov	r0, r6
 418 0072 FFF7FEFF 		bl	Data
 419              	.LVL61:
 420 0076 0446     		mov	r4, r0
 421              	.LVL62:
  88:main.c        ****             // DECODE
 422              		.loc 1 88 0
 423 0078 20E0     		b	.L37
 424              	.LVL63:
 425              	.L41:
  98:main.c        ****                 break;
 426              		.loc 1 98 0
 427 007a 0120     		movs	r0, #1
 428 007c FFF7FEFF 		bl	Decode
 429              	.LVL64:
ARM GAS  C:\Users\sdysart\AppData\Local\Temp\cc55wdyV.s 			page 14


 430 0080 0446     		mov	r4, r0
 431              	.LVL65:
  99:main.c        ****             case 13:
 432              		.loc 1 99 0
 433 0082 1BE0     		b	.L37
 434              	.LVL66:
 435              	.L42:
 101:main.c        ****                 //encode used to transmit 7 1's for the prefix 
 436              		.loc 1 101 0
 437 0084 174B     		ldr	r3, .L48+4
 438 0086 0022     		movs	r2, #0
 439 0088 1A60     		str	r2, [r3]
 104:main.c        ****                 data_turn++;
 440              		.loc 1 104 0
 441 008a 5A60     		str	r2, [r3, #4]
 105:main.c        ****                 data_to_be_sent <<= 1;
 442              		.loc 1 105 0
 443 008c 0135     		adds	r5, r5, #1
 444              	.LVL67:
 106:main.c        ****                 //Once data to be sent can't be contained in a nibble, reset to 0x1
 445              		.loc 1 106 0
 446 008e 7600     		lsls	r6, r6, #1
 447              	.LVL68:
 108:main.c        ****                     data_turn = 0;
 448              		.loc 1 108 0
 449 0090 042D     		cmp	r5, #4
 450 0092 01D1     		bne	.L43
 110:main.c        ****                 }
 451              		.loc 1 110 0
 452 0094 0126     		movs	r6, #1
 453              	.LVL69:
 109:main.c        ****                     data_to_be_sent = ONE;
 454              		.loc 1 109 0
 455 0096 1546     		mov	r5, r2
 456              	.LVL70:
 457              	.L43:
 112:main.c        ****                 // Turn High Voltage off while delaying
 458              		.loc 1 112 0
 459 0098 FFF7FEFF 		bl	PWM_Modulator_Stop
 460              	.LVL71:
 114:main.c        ****                 // Turn High Voltage Back On
 461              		.loc 1 114 0
 462 009c FFF7FEFF 		bl	PWM_Switch_Timer_Stop
 463              	.LVL72:
 116:main.c        ****                 CyDelay(3000);
 464              		.loc 1 116 0
 465 00a0 0020     		movs	r0, #0
 466 00a2 FFF7FEFF 		bl	HighVoltage_Write
 467              	.LVL73:
 117:main.c        ****                 HighVoltage_Write(1);
 468              		.loc 1 117 0
 469 00a6 40F6B830 		movw	r0, #3000
 470 00aa FFF7FEFF 		bl	CyDelay
 471              	.LVL74:
 118:main.c        ****                 PWM_Modulator_Start();
 472              		.loc 1 118 0
 473 00ae 0120     		movs	r0, #1
ARM GAS  C:\Users\sdysart\AppData\Local\Temp\cc55wdyV.s 			page 15


 474 00b0 FFF7FEFF 		bl	HighVoltage_Write
 475              	.LVL75:
 119:main.c        ****                 PWM_Switch_Timer_Start();
 476              		.loc 1 119 0
 477 00b4 FFF7FEFF 		bl	PWM_Modulator_Start
 478              	.LVL76:
 120:main.c        ****                 break;
 479              		.loc 1 120 0
 480 00b8 FFF7FEFF 		bl	PWM_Switch_Timer_Start
 481              	.LVL77:
 482              	.L37:
 126:main.c        ****             PWM_Modulator_WritePeriod(FREQ(ONE_FREQ));
 483              		.loc 1 126 0
 484 00bc 012C     		cmp	r4, #1
 485 00be 06D1     		bne	.L44
 127:main.c        ****             PWM_Modulator_WriteCompare((FREQ(ONE_FREQ))/2); // Sets pulse width
 486              		.loc 1 127 0
 487 00c0 1720     		movs	r0, #23
 488 00c2 FFF7FEFF 		bl	PWM_Modulator_WritePeriod
 489              	.LVL78:
 128:main.c        ****         }else if(bitCase == ZERO){
 490              		.loc 1 128 0
 491 00c6 0B20     		movs	r0, #11
 492 00c8 FFF7FEFF 		bl	PWM_Modulator_WriteCompare
 493              	.LVL79:
 494 00cc BCE7     		b	.L36
 495              	.L44:
 129:main.c        ****             PWM_Modulator_WritePeriod(FREQ(ZERO_FREQ));
 496              		.loc 1 129 0
 497 00ce 002C     		cmp	r4, #0
 498 00d0 BAD1     		bne	.L36
 130:main.c        ****             PWM_Modulator_WriteCompare((FREQ(ZERO_FREQ))/2); // Sets pulse width
 499              		.loc 1 130 0
 500 00d2 1A20     		movs	r0, #26
 501 00d4 FFF7FEFF 		bl	PWM_Modulator_WritePeriod
 502              	.LVL80:
 131:main.c        ****         }
 503              		.loc 1 131 0
 504 00d8 0D20     		movs	r0, #13
 505 00da FFF7FEFF 		bl	PWM_Modulator_WriteCompare
 506              	.LVL81:
 507 00de B3E7     		b	.L36
 508              	.L49:
 509              		.align	2
 510              	.L48:
 511 00e0 00000000 		.word	isr_halfsec
 512 00e4 00000000 		.word	.LANCHOR0
 513              		.cfi_endproc
 514              	.LFE63:
 515              		.size	main, .-main
 516              		.bss
 517              		.align	2
 518              		.set	.LANCHOR0,. + 0
 519              		.type	bitTime, %object
 520              		.size	bitTime, 4
 521              	bitTime:
 522 0000 00000000 		.space	4
ARM GAS  C:\Users\sdysart\AppData\Local\Temp\cc55wdyV.s 			page 16


 523              		.type	prefixTime, %object
 524              		.size	prefixTime, 4
 525              	prefixTime:
 526 0004 00000000 		.space	4
 527              		.text
 528              	.Letext0:
 529              		.file 2 "c:\\program files (x86)\\cypress\\psoc creator\\4.1\\psoc creator\\import\\gnu\\arm\\5.4.
 530              		.file 3 "c:\\program files (x86)\\cypress\\psoc creator\\4.1\\psoc creator\\import\\gnu\\arm\\5.4.
 531              		.file 4 "Generated_Source\\PSoC5/PWM_Modulator.h"
 532              		.file 5 "Generated_Source\\PSoC5/PWM_1.h"
 533              		.file 6 "Generated_Source\\PSoC5/PWM_2.h"
 534              		.file 7 "Generated_Source\\PSoC5/PWM_3.h"
 535              		.file 8 "Generated_Source\\PSoC5/PWM_Switch_Timer.h"
 536              		.file 9 "Generated_Source\\PSoC5/isr_halfsec.h"
 537              		.file 10 "Generated_Source\\PSoC5/HighVoltage.h"
 538              		.file 11 "Generated_Source\\PSoC5/CyLib.h"
 539              		.file 12 "Generated_Source\\PSoC5/core_cm3.h"