ARM GAS  C:\Users\ipfajard\AppData\Local\Temp\cciiijgr.s 			page 1


   1              		.syntax unified
   2              		.cpu cortex-m3
   3              		.fpu softvfp
   4              		.eabi_attribute 20, 1
   5              		.eabi_attribute 21, 1
   6              		.eabi_attribute 23, 3
   7              		.eabi_attribute 24, 1
   8              		.eabi_attribute 25, 1
   9              		.eabi_attribute 26, 1
  10              		.eabi_attribute 30, 1
  11              		.eabi_attribute 34, 1
  12              		.eabi_attribute 18, 4
  13              		.thumb
  14              		.syntax unified
  15              		.file	"main.c"
  16              		.text
  17              	.Ltext0:
  18              		.cfi_sections	.debug_frame
  19              		.section	.text.isr_sec,"ax",%progbits
  20              		.align	2
  21              		.global	isr_sec
  22              		.thumb
  23              		.thumb_func
  24              		.type	isr_sec, %function
  25              	isr_sec:
  26              	.LFB65:
  27              		.file 1 "main.c"
   1:main.c        **** /*****************************************************************************
   2:main.c        **** * File Name: main.c
   3:main.c        **** *
   4:main.c        **** * Created: 5/16/18
   5:main.c        **** * Revised: 5/17/18
   6:main.c        **** * Revised by: Stephanie Salazar
   7:main.c        **** *
   8:main.c        **** * Description: 
   9:main.c        **** *  This project communicates via UART in Full duplex mode. The UART has
  10:main.c        **** * receiver(RX) and transmitter(TX)]. The data received by RX is used for
  11:main.c        **** * FSK transmission. 
  12:main.c        **** *
  13:main.c        **** *  This code has been modified from PSoC's UART_Full_Duplex example code.
  14:main.c        **** *  This code example project demonstrates how to communicate between 
  15:main.c        **** *  the PC and UART component in Full duplex mode. The UART has receiver(RX) and 
  16:main.c        **** *  transmitter(TX) part. The data received by RX is looped back to the TX.
  17:main.c        **** *
  18:main.c        **** *******************************************************************************
  19:main.c        **** * Copyright (2017), Cypress Semiconductor Corporation. All rights reserved.
  20:main.c        **** *******************************************************************************
  21:main.c        **** *
  22:main.c        **** * Related Document: 
  23:main.c        **** * CE210741_UART_Full_Duplex_and_printf_Support_with_PSoC_3_4_5LP.pdf
  24:main.c        **** *
  25:main.c        **** * Hardware Dependency: See 
  26:main.c        **** * CE210741_UART_Full_Duplex_and_printf_Support_with_PSoC_3_4_5LP.pdf
  27:main.c        **** *
  28:main.c        **** *******************************************************************************
  29:main.c        **** */
  30:main.c        **** 
ARM GAS  C:\Users\ipfajard\AppData\Local\Temp\cciiijgr.s 			page 2


  31:main.c        **** #include <project.h>
  32:main.c        **** #include <stdio.h>
  33:main.c        **** #include "stdlib.h"
  34:main.c        **** 
  35:main.c        **** /***************************************
  36:main.c        **** * Conditional Compilation Parameters
  37:main.c        **** ***************************************/
  38:main.c        **** #define UART    ENABLED
  39:main.c        **** 
  40:main.c        **** /* Character LCD String Length */
  41:main.c        **** #define LINE_STR_LENGTH     (20u)
  42:main.c        **** /* Change data size for sending longer data (n-1) */
  43:main.c        **** #define DATA_SIZE           (7u)
  44:main.c        **** /* Change max crabs to correlate with data size 2^(n) - 1 */
  45:main.c        **** #define MAX_CRABS           (15)
  46:main.c        **** /* Error used for user error */
  47:main.c        **** #define ERROR               (333u)
  48:main.c        **** 
  49:main.c        **** /*Definitions*/
  50:main.c        **** #define CLOCK_FREQ 1000000
  51:main.c        **** #define FREQ(x) (CLOCK_FREQ/x)-1
  52:main.c        **** 
  53:main.c        **** /*PWM Frequencies*/
  54:main.c        **** #define ONE_FREQ     42000
  55:main.c        **** #define ZERO_FREQ    37000
  56:main.c        **** #define AUDIBLE_FREQ 12000
  57:main.c        **** 
  58:main.c        **** #define BIT_0_MASK 0x01
  59:main.c        **** #define BIT_1_MASK 0x02
  60:main.c        **** #define BIT_2_MASK 0x04
  61:main.c        **** #define BIT_3_MASK 0x08
  62:main.c        **** #define BIT_4_MASK 0x10
  63:main.c        **** #define BIT_5_MASK 0x20
  64:main.c        **** #define BIT_6_MASK 0x40
  65:main.c        **** #define BIT_7_MASK 0x80
  66:main.c        **** 
  67:main.c        **** #define ZERO              0x0
  68:main.c        **** #define ONE               0x1
  69:main.c        **** #define TRUE              0x1
  70:main.c        **** #define FALSE             0x0
  71:main.c        **** #define ENABLED           1u
  72:main.c        **** #define DISABLED          0u
  73:main.c        **** #define DATA_LENGTH       4
  74:main.c        **** #define DECODE_VALUE      0x01
  75:main.c        **** #define PREFIX_BIT_LENGTH 6
  76:main.c        **** #define PREFIX_MESSAGE    0xFF
  77:main.c        **** #define FiveSecs 5000
  78:main.c        **** 
  79:main.c        **** /*Function Prototypes*/
  80:main.c        **** int Data(unsigned int hex_value, int bT);
  81:main.c        **** int Decode(unsigned int hex_value, int bT);
  82:main.c        **** int PreFix(unsigned int hex_value, int prefixCount);
  83:main.c        **** CY_ISR_PROTO(isr_sec); // High F Interrupt
  84:main.c        **** CY_ISR_PROTO(watchDogCheck); //reset watchDog timer before reset
  85:main.c        **** CY_ISR_PROTO(RxIsr); // High F Interrupt
  86:main.c        **** 
  87:main.c        **** /*Global Variables*/
ARM GAS  C:\Users\ipfajard\AppData\Local\Temp\cciiijgr.s 			page 3


  88:main.c        **** int error = 0; // flag for input error
  89:main.c        **** int i = 2; // to iterate through data array
  90:main.c        **** uint16 count;
  91:main.c        **** char8 lineStr[LINE_STR_LENGTH];
  92:main.c        **** char8 data[LINE_STR_LENGTH];
  93:main.c        **** uint8 newDataflag = 0;
  94:main.c        **** static int bitTime = 0;
  95:main.c        **** static int prefixTime = 0;
  96:main.c        **** 
  97:main.c        **** /* UART Global Variables */
  98:main.c        **** uint8 errorStatus = 0u;
  99:main.c        **** uint8 crabsToSend = 1;
 100:main.c        **** 
 101:main.c        **** 
 102:main.c        **** 
 103:main.c        **** 
 104:main.c        **** 
 105:main.c        **** /*******************************************************************************
 106:main.c        **** * Function Name: main()
 107:main.c        **** *******************************************************************************/
 108:main.c        **** int main()
 109:main.c        **** {
 110:main.c        ****     /*Variable initializations*/
 111:main.c        ****     int bitCase = 0;
 112:main.c        ****     int data_turn = 0;
 113:main.c        **** 
 114:main.c        **** #if(UART == ENABLED)
 115:main.c        ****     isr_rx_StartEx(RxIsr);
 116:main.c        **** #endif /* INTERRUPT_CODE_ENABLED == ENABLED */
 117:main.c        ****     
 118:main.c        ****     /* Enable global interrupts. */
 119:main.c        ****     CyGlobalIntEnable;   
 120:main.c        **** 
 121:main.c        ****     
 122:main.c        ****     CyGlobalIntEnable;
 123:main.c        ****     checkWatchDogTimer_Start();
 124:main.c        ****     watchDogCheck_StartEx(watchDogCheck);
 125:main.c        ****     
 126:main.c        ****     /*Block initializations*/
 127:main.c        ****     UART_Start(); 
 128:main.c        ****     LCD_Start();
 129:main.c        ****     PWM_Modulator_Start();
 130:main.c        ****     PWM_1_Start();
 131:main.c        ****     PWM_2_Start();
 132:main.c        ****     PWM_3_Start();
 133:main.c        ****     PWM_Switch_Timer_Start();
 134:main.c        ****     isr_sec_StartEx(isr_sec);
 135:main.c        ****     
 136:main.c        ****     // Set PWM to AUDIBLE_FREQ
 137:main.c        ****     PWM_1_WritePeriod(FREQ(AUDIBLE_FREQ));
 138:main.c        ****     PWM_1_WriteCompare((FREQ(AUDIBLE_FREQ))/2); // Sets pulse width to half
 139:main.c        ****     
 140:main.c        ****     // Set PWM to ONE_FREQ
 141:main.c        ****     PWM_2_WritePeriod(FREQ(ONE_FREQ));
 142:main.c        ****     PWM_2_WriteCompare((FREQ(ONE_FREQ))/2); // Sets pulse width to half
 143:main.c        ****     
 144:main.c        ****     // Set PWM to ZERO_FREQ
ARM GAS  C:\Users\ipfajard\AppData\Local\Temp\cciiijgr.s 			page 4


 145:main.c        ****     PWM_3_WritePeriod(FREQ(ZERO_FREQ));
 146:main.c        ****     PWM_3_WriteCompare((FREQ(ZERO_FREQ))/2); // Sets pulse width to half
 147:main.c        ****     
 148:main.c        ****     /* Clear LCD line. */
 149:main.c        ****     LCD_Position(0u, 0u);
 150:main.c        ****     LCD_PrintString("                    ");
 151:main.c        **** 
 152:main.c        ****     /* Output string on LCD. */
 153:main.c        ****     LCD_Position(0u, 0u);
 154:main.c        ****     LCD_PrintString("Hello");
 155:main.c        **** 
 156:main.c        ****     for(;;)
 157:main.c        ****     {
 158:main.c        ****         if(errorStatus != 0u)
 159:main.c        ****         {
 160:main.c        ****             /* Clear error status */
 161:main.c        ****             errorStatus = 0u;
 162:main.c        ****         }
 163:main.c        ****         switch(bitTime){
 164:main.c        ****             // ENCODE
 165:main.c        ****             case 0:
 166:main.c        ****                 bitCase = PreFix(PREFIX_MESSAGE , prefixTime);
 167:main.c        ****                 break; 
 168:main.c        ****             // DATA
 169:main.c        ****             case 1:
 170:main.c        ****             case 2:
 171:main.c        ****             case 3:
 172:main.c        ****             case 4:
 173:main.c        ****                 //rxData is data received from UART
 174:main.c        ****                 bitCase = Data(crabsToSend, bitTime); 
 175:main.c        ****                 break; 
 176:main.c        ****             // DECODE
 177:main.c        ****             case 5:    
 178:main.c        ****             case 6:
 179:main.c        ****             case 7:    
 180:main.c        ****             case 8:
 181:main.c        ****             case 9:
 182:main.c        ****             case 10:
 183:main.c        ****             case 11:
 184:main.c        ****             case 12:
 185:main.c        ****                 bitCase = Decode(DECODE_VALUE, bitTime);
 186:main.c        ****                 break;
 187:main.c        ****             case 13:
 188:main.c        ****                 // Turn sending off until new data
 189:main.c        ****                 newDataflag = 0;
 190:main.c        ****                 //encode used to transmit 7 1's for the prefix 
 191:main.c        ****                 //reset here to be ready for case 0 
 192:main.c        ****                 prefixTime = 0;
 193:main.c        ****                 data_turn++;
 194:main.c        ****                 
 195:main.c        **** #if(UART == ENABLED)
 196:main.c        ****                 if (data_turn == DATA_LENGTH) {
 197:main.c        ****                     data_turn = 0;
 198:main.c        ****                 }
 199:main.c        ****                 crabsToSend <<= 1; 
 200:main.c        **** #else 
 201:main.c        ****                 //Once data to be sent can't be contained in a nibble, reset to 0x1
ARM GAS  C:\Users\ipfajard\AppData\Local\Temp\cciiijgr.s 			page 5


 202:main.c        ****                 if (data_turn == DATA_LENGTH) {
 203:main.c        ****                     data_turn = 0;
 204:main.c        ****                     crabsToSend = ONE;
 205:main.c        ****                 }
 206:main.c        **** #endif /* UART == ENABLED */
 207:main.c        **** 
 208:main.c        ****                 PWM_Modulator_Stop();
 209:main.c        ****                 // Turn High Voltage off while delaying
 210:main.c        ****                 PWM_Switch_Timer_Stop();
 211:main.c        ****                 // Turn High Voltage Back On
 212:main.c        ****                 HighVoltage_Write(0);
 213:main.c        ****                 CyDelay(20);
 214:main.c        ****                 SignalBase_Write(0);
 215:main.c        **** 
 216:main.c        **** #if(UART == ENABLED)
 217:main.c        ****                 /* Wait for new data before sending out data */
 218:main.c        ****                 while(newDataflag == 0){
 219:main.c        ****                 }
 220:main.c        **** #else 
 221:main.c        ****                 /* Delay in ms and send data after without waiting for UART */
 222:main.c        ****                 CyDelay(1000);
 223:main.c        **** #endif /* UART == ENABLED */
 224:main.c        **** 
 225:main.c        ****                 /* New data: Turn on circuitry and begin transmission */
 226:main.c        ****                 HighVoltage_Write(1);
 227:main.c        ****                 CyDelay(20); // Give voltage booster time to charge up
 228:main.c        ****                 SignalBase_Write(1);
 229:main.c        ****                 /* Reset PWM blocks and bitTime for new transmission */
 230:main.c        ****                 bitTime = 0; 
 231:main.c        ****                 PWM_Modulator_Start();
 232:main.c        ****                 PWM_Switch_Timer_Start();
 233:main.c        ****                 break;
 234:main.c        ****             default:
 235:main.c        ****                 break; 
 236:main.c        ****          } //end switch(bitTime) 
 237:main.c        ****         
 238:main.c        ****         /* Send out frequency depending on bit is 1 or 0 */
 239:main.c        ****         if(bitCase == ONE){
 240:main.c        ****             PWM_Modulator_WritePeriod(FREQ(ONE_FREQ));
 241:main.c        ****             PWM_Modulator_WriteCompare((FREQ(ONE_FREQ))/2); // Sets pulse width
 242:main.c        ****         }else if(bitCase == ZERO){
 243:main.c        ****             PWM_Modulator_WritePeriod(FREQ(ZERO_FREQ));
 244:main.c        ****             PWM_Modulator_WriteCompare((FREQ(ZERO_FREQ))/2); // Sets pulse width
 245:main.c        ****         }
 246:main.c        ****         
 247:main.c        ****        
 248:main.c        ****        
 249:main.c        ****     }
 250:main.c        **** }
 251:main.c        **** /*******************************************************************************
 252:main.c        **** * Function Name: isr_sec
 253:main.c        **** ********************************************************************************
 254:main.c        **** *
 255:main.c        **** * Summary:
 256:main.c        **** * Interrupt triggered on a 0.1s timer timeout
 257:main.c        **** * Will increment prefixTime counter for the 1st 8 bits
 258:main.c        **** * Then move on to incrementing the message bit counter
ARM GAS  C:\Users\ipfajard\AppData\Local\Temp\cciiijgr.s 			page 6


 259:main.c        **** *
 260:main.c        **** * Parameters:
 261:main.c        **** *  None.
 262:main.c        **** *
 263:main.c        **** * Return:
 264:main.c        **** *  None.
 265:main.c        **** *
 266:main.c        **** *******************************************************************************/
 267:main.c        **** CY_ISR(isr_sec)
 268:main.c        **** {
  28              		.loc 1 268 0
  29              		.cfi_startproc
  30              		@ args = 0, pretend = 0, frame = 0
  31              		@ frame_needed = 0, uses_anonymous_args = 0
  32              		@ link register save eliminated.
 269:main.c        ****     if((bitTime == 0) && (prefixTime <= PREFIX_BIT_LENGTH)){
  33              		.loc 1 269 0
  34 0000 094B     		ldr	r3, .L4
  35 0002 1B68     		ldr	r3, [r3]
  36 0004 3BB9     		cbnz	r3, .L2
  37              		.loc 1 269 0 is_stmt 0 discriminator 1
  38 0006 084A     		ldr	r2, .L4
  39 0008 5268     		ldr	r2, [r2, #4]
  40 000a 062A     		cmp	r2, #6
  41 000c 03DC     		bgt	.L2
 270:main.c        ****         prefixTime++;
  42              		.loc 1 270 0 is_stmt 1
  43 000e 0132     		adds	r2, r2, #1
  44 0010 054B     		ldr	r3, .L4
  45 0012 5A60     		str	r2, [r3, #4]
  46 0014 7047     		bx	lr
  47              	.L2:
 271:main.c        ****     }
 272:main.c        ****     else if(prefixTime > PREFIX_BIT_LENGTH){
  48              		.loc 1 272 0
  49 0016 044A     		ldr	r2, .L4
  50 0018 5268     		ldr	r2, [r2, #4]
  51 001a 062A     		cmp	r2, #6
  52 001c 02DD     		ble	.L1
 273:main.c        ****         bitTime++;
  53              		.loc 1 273 0
  54 001e 0133     		adds	r3, r3, #1
  55 0020 014A     		ldr	r2, .L4
  56 0022 1360     		str	r3, [r2]
  57              	.L1:
  58 0024 7047     		bx	lr
  59              	.L5:
  60 0026 00BF     		.align	2
  61              	.L4:
  62 0028 00000000 		.word	.LANCHOR0
  63              		.cfi_endproc
  64              	.LFE65:
  65              		.size	isr_sec, .-isr_sec
  66              		.section	.text.watchDogCheck,"ax",%progbits
  67              		.align	2
  68              		.global	watchDogCheck
  69              		.thumb
ARM GAS  C:\Users\ipfajard\AppData\Local\Temp\cciiijgr.s 			page 7


  70              		.thumb_func
  71              		.type	watchDogCheck, %function
  72              	watchDogCheck:
  73              	.LFB66:
 274:main.c        ****     }
 275:main.c        **** }//end CY_ISR(isr_sec)
 276:main.c        **** /*******************************************************************************
 277:main.c        **** * Function Name: watchDogCheck
 278:main.c        **** ********************************************************************************
 279:main.c        **** *
 280:main.c        **** * Summary:
 281:main.c        **** * Reset watchDog timer every 2.1ms
 282:main.c        **** * Watchdog should reset system between 12 - 24ms
 283:main.c        **** * Should not get triggered if system experiencing drift 
 284:main.c        **** *
 285:main.c        **** * Parameters:
 286:main.c        **** *  None.
 287:main.c        **** *
 288:main.c        **** * Return:
 289:main.c        **** *  None.
 290:main.c        **** *
 291:main.c        **** *******************************************************************************/
 292:main.c        **** CY_ISR_PROTO(watchDogCheck){
  74              		.loc 1 292 0
  75              		.cfi_startproc
  76              		@ args = 0, pretend = 0, frame = 0
  77              		@ frame_needed = 0, uses_anonymous_args = 0
  78 0000 08B5     		push	{r3, lr}
  79              		.cfi_def_cfa_offset 8
  80              		.cfi_offset 3, -8
  81              		.cfi_offset 14, -4
 293:main.c        ****     
 294:main.c        ****     CyWdtClear(); 
  82              		.loc 1 294 0
  83 0002 FFF7FEFF 		bl	CyWdtClear
  84              	.LVL0:
  85 0006 08BD     		pop	{r3, pc}
  86              		.cfi_endproc
  87              	.LFE66:
  88              		.size	watchDogCheck, .-watchDogCheck
  89              		.section	.text.RxIsr,"ax",%progbits
  90              		.align	2
  91              		.global	RxIsr
  92              		.thumb
  93              		.thumb_func
  94              		.type	RxIsr, %function
  95              	RxIsr:
  96              	.LFB67:
 295:main.c        ****         
 296:main.c        **** 
 297:main.c        **** }
 298:main.c        **** 
 299:main.c        **** /*******************************************************************************
 300:main.c        **** * Function Name: RxIsr
 301:main.c        **** ********************************************************************************
 302:main.c        **** *
 303:main.c        **** * Summary:
ARM GAS  C:\Users\ipfajard\AppData\Local\Temp\cciiijgr.s 			page 8


 304:main.c        **** *  Interrupt Service Routine for RX portion of the UART taken from
 305:main.c        **** *  example code and edited for storing data to send
 306:main.c        **** *
 307:main.c        **** * Parameters:
 308:main.c        **** *  None.
 309:main.c        **** *
 310:main.c        **** * Return:
 311:main.c        **** *  None.
 312:main.c        **** *
 313:main.c        **** *******************************************************************************/
 314:main.c        **** CY_ISR(RxIsr)
 315:main.c        **** {
  97              		.loc 1 315 0
  98              		.cfi_startproc
  99              		@ args = 0, pretend = 0, frame = 0
 100              		@ frame_needed = 0, uses_anonymous_args = 0
 101 0000 38B5     		push	{r3, r4, r5, lr}
 102              		.cfi_def_cfa_offset 16
 103              		.cfi_offset 3, -16
 104              		.cfi_offset 4, -12
 105              		.cfi_offset 5, -8
 106              		.cfi_offset 14, -4
 316:main.c        ****     uint8 rxStatus;         
 317:main.c        ****     newDataflag = 1;
 107              		.loc 1 317 0
 108 0002 0122     		movs	r2, #1
 109 0004 1A4B     		ldr	r3, .L13
 110 0006 1A72     		strb	r2, [r3, #8]
 111              	.L11:
 318:main.c        ****     do
 319:main.c        ****     {
 320:main.c        ****         /* Read receiver status register */
 321:main.c        ****         rxStatus = UART_RXSTATUS_REG;
 112              		.loc 1 321 0
 113 0008 1A4B     		ldr	r3, .L13+4
 114 000a 1B78     		ldrb	r3, [r3]	@ zero_extendqisi2
 115 000c DBB2     		uxtb	r3, r3
 116              	.LVL1:
 322:main.c        **** 
 323:main.c        ****         if((rxStatus & (UART_RX_STS_BREAK      | UART_RX_STS_PAR_ERROR |
 117              		.loc 1 323 0
 118 000e 13F01E0F 		tst	r3, #30
 119 0012 05D0     		beq	.L9
 324:main.c        ****                         UART_RX_STS_STOP_ERROR | UART_RX_STS_OVERRUN)) != 0u)
 325:main.c        ****         {
 326:main.c        ****             /* ERROR handling. */
 327:main.c        ****             errorStatus |= rxStatus & ( UART_RX_STS_BREAK      | UART_RX_STS_PAR_ERROR | 
 120              		.loc 1 327 0
 121 0014 1648     		ldr	r0, .L13
 122 0016 03F01E02 		and	r2, r3, #30
 123 001a 417A     		ldrb	r1, [r0, #9]	@ zero_extendqisi2
 124 001c 0A43     		orrs	r2, r2, r1
 125 001e 4272     		strb	r2, [r0, #9]
 126              	.L9:
 127 0020 03F02003 		and	r3, r3, #32
 128              	.LVL2:
 328:main.c        ****                                         UART_RX_STS_STOP_ERROR | UART_RX_STS_OVERRUN);
ARM GAS  C:\Users\ipfajard\AppData\Local\Temp\cciiijgr.s 			page 9


 329:main.c        ****         }
 330:main.c        ****         
 331:main.c        ****         if((rxStatus & UART_RX_STS_FIFO_NOTEMPTY) != 0u)
 129              		.loc 1 331 0
 130 0024 03F0FF04 		and	r4, r3, #255
 131 0028 F3B1     		cbz	r3, .L10
 332:main.c        ****         {
 333:main.c        ****             /* Read data from the RX data register */
 334:main.c        ****             crabsToSend = UART_RXDATA_REG;
 132              		.loc 1 334 0
 133 002a 134B     		ldr	r3, .L13+8
 134 002c 1B78     		ldrb	r3, [r3]	@ zero_extendqisi2
 135 002e DBB2     		uxtb	r3, r3
 136 0030 124A     		ldr	r2, .L13+12
 137 0032 1370     		strb	r3, [r2]
 335:main.c        ****             if(errorStatus == 0u)
 138              		.loc 1 335 0
 139 0034 0E4A     		ldr	r2, .L13
 140 0036 527A     		ldrb	r2, [r2, #9]	@ zero_extendqisi2
 141 0038 B2B9     		cbnz	r2, .L10
 336:main.c        ****             {
 337:main.c        ****                 /* Send data backward */
 338:main.c        ****                 UART_TXDATA_REG = crabsToSend;
 142              		.loc 1 338 0
 143 003a 114A     		ldr	r2, .L13+16
 144 003c 1370     		strb	r3, [r2]
 339:main.c        ****                 /* Clear LCD line. */
 340:main.c        ****                 LCD_Position(0u, 0u);
 145              		.loc 1 340 0
 146 003e 0021     		movs	r1, #0
 147 0040 0846     		mov	r0, r1
 148 0042 FFF7FEFF 		bl	LCD_Position
 149              	.LVL3:
 341:main.c        ****                 sprintf(data,"Crabs: %d", crabsToSend);
 150              		.loc 1 341 0
 151 0046 0F4D     		ldr	r5, .L13+20
 152 0048 0C4B     		ldr	r3, .L13+12
 153 004a 1A78     		ldrb	r2, [r3]	@ zero_extendqisi2
 154 004c 0E49     		ldr	r1, .L13+24
 155 004e 2846     		mov	r0, r5
 156 0050 FFF7FEFF 		bl	sprintf
 157              	.LVL4:
 342:main.c        ****                 LCD_PrintString("             ");
 158              		.loc 1 342 0
 159 0054 0D48     		ldr	r0, .L13+28
 160 0056 FFF7FEFF 		bl	LCD_PrintString
 161              	.LVL5:
 343:main.c        **** 
 344:main.c        ****                 /* Output string on LCD. */
 345:main.c        ****                 LCD_Position(0u, 0u);
 162              		.loc 1 345 0
 163 005a 0021     		movs	r1, #0
 164 005c 0846     		mov	r0, r1
 165 005e FFF7FEFF 		bl	LCD_Position
 166              	.LVL6:
 346:main.c        ****                 LCD_PrintString(data);
 167              		.loc 1 346 0
ARM GAS  C:\Users\ipfajard\AppData\Local\Temp\cciiijgr.s 			page 10


 168 0062 2846     		mov	r0, r5
 169 0064 FFF7FEFF 		bl	LCD_PrintString
 170              	.LVL7:
 171              	.L10:
 347:main.c        ****             }
 348:main.c        ****         }
 349:main.c        ****     }while((rxStatus & UART_RX_STS_FIFO_NOTEMPTY) != 0u);
 172              		.loc 1 349 0
 173 0068 002C     		cmp	r4, #0
 174 006a CDD1     		bne	.L11
 350:main.c        **** }
 175              		.loc 1 350 0
 176 006c 38BD     		pop	{r3, r4, r5, pc}
 177              	.L14:
 178 006e 00BF     		.align	2
 179              	.L13:
 180 0070 00000000 		.word	.LANCHOR0
 181 0074 6C640040 		.word	1073767532
 182 0078 48650040 		.word	1073767752
 183 007c 00000000 		.word	.LANCHOR1
 184 0080 4B650040 		.word	1073767755
 185 0084 00000000 		.word	data
 186 0088 00000000 		.word	.LC0
 187 008c 0C000000 		.word	.LC1
 188              		.cfi_endproc
 189              	.LFE67:
 190              		.size	RxIsr, .-RxIsr
 191              		.section	.text.Data,"ax",%progbits
 192              		.align	2
 193              		.global	Data
 194              		.thumb
 195              		.thumb_func
 196              		.type	Data, %function
 197              	Data:
 198              	.LFB68:
 351:main.c        ****     
 352:main.c        **** 
 353:main.c        **** 
 354:main.c        **** /*
 355:main.c        ****  * function: int Data(unsigned int hex_value, int bT)
 356:main.c        ****  * parameters: hex_value - a four bit value specifying what data you want to send
 357:main.c        ****  *             bT - the current bit time
 358:main.c        ****  * returns: bitCase - a high or low signal to be sent to an output pin
 359:main.c        ****  * description: This function takes in a hex value and sends it out a bit at a time as a high or
 360:main.c        ****  *  low signal depending on the bit time. Used only to set desired data nibble.
 361:main.c        ****  */
 362:main.c        **** int Data(unsigned int hex_value, int bT)
 363:main.c        **** {
 199              		.loc 1 363 0
 200              		.cfi_startproc
 201              		@ args = 0, pretend = 0, frame = 0
 202              		@ frame_needed = 0, uses_anonymous_args = 0
 203              		@ link register save eliminated.
 204              	.LVL8:
 364:main.c        ****     int bitCase;
 365:main.c        ****     switch(bT){
 205              		.loc 1 365 0
ARM GAS  C:\Users\ipfajard\AppData\Local\Temp\cciiijgr.s 			page 11


 206 0000 0139     		subs	r1, r1, #1
 207              	.LVL9:
 208 0002 0329     		cmp	r1, #3
 209 0004 0ED8     		bhi	.L16
 210 0006 DFE801F0 		tbb	[pc, r1]
 211              	.L18:
 212 000a 02       		.byte	(.L17-.L18)/2
 213 000b 05       		.byte	(.L19-.L18)/2
 214 000c 08       		.byte	(.L20-.L18)/2
 215 000d 0B       		.byte	(.L21-.L18)/2
 216              		.p2align 1
 217              	.L17:
 366:main.c        ****         case 1:
 367:main.c        ****             bitCase = (hex_value & BIT_3_MASK) >> 3;
 218              		.loc 1 367 0
 219 000e C0F3C003 		ubfx	r3, r0, #3, #1
 220              	.LVL10:
 368:main.c        ****             break; 
 221              		.loc 1 368 0
 222 0012 07E0     		b	.L16
 223              	.LVL11:
 224              	.L19:
 369:main.c        ****         case 2:
 370:main.c        ****             bitCase = (hex_value & BIT_2_MASK) >> 2;
 225              		.loc 1 370 0
 226 0014 C0F38003 		ubfx	r3, r0, #2, #1
 227              	.LVL12:
 371:main.c        ****             break; 
 228              		.loc 1 371 0
 229 0018 04E0     		b	.L16
 230              	.LVL13:
 231              	.L20:
 372:main.c        ****         case 3:
 373:main.c        ****             bitCase = (hex_value & BIT_1_MASK) >> 1;
 232              		.loc 1 373 0
 233 001a C0F34003 		ubfx	r3, r0, #1, #1
 234              	.LVL14:
 374:main.c        ****             break; 
 235              		.loc 1 374 0
 236 001e 01E0     		b	.L16
 237              	.LVL15:
 238              	.L21:
 375:main.c        ****         case 4:
 376:main.c        ****             bitCase = (hex_value & BIT_0_MASK);
 239              		.loc 1 376 0
 240 0020 00F00103 		and	r3, r0, #1
 241              	.LVL16:
 242              	.L16:
 377:main.c        ****             break;
 378:main.c        ****         default:
 379:main.c        ****             break;
 380:main.c        ****     } //end switch(bT)
 381:main.c        ****     return bitCase;
 382:main.c        **** }//end Data()
 243              		.loc 1 382 0
 244 0024 1846     		mov	r0, r3
 245              	.LVL17:
ARM GAS  C:\Users\ipfajard\AppData\Local\Temp\cciiijgr.s 			page 12


 246 0026 7047     		bx	lr
 247              		.cfi_endproc
 248              	.LFE68:
 249              		.size	Data, .-Data
 250              		.section	.text.Decode,"ax",%progbits
 251              		.align	2
 252              		.global	Decode
 253              		.thumb
 254              		.thumb_func
 255              		.type	Decode, %function
 256              	Decode:
 257              	.LFB69:
 383:main.c        **** 
 384:main.c        **** 
 385:main.c        **** /*
 386:main.c        ****  * function: int Decode(unsigned int hex_value, int bT)
 387:main.c        ****  * parameters: hex_value - an 8 bit (1 byte) value specifying what data you want to send
 388:main.c        ****  *             bT - the current bit time
 389:main.c        ****  * returns: bitCase - a high or low signal to be sent to an output pin
 390:main.c        ****  * description: This function takes in a hex value and sends it out a bit at a time as a high or
 391:main.c        ****  *  low signal depending on the bit time. Used only to set desired decode encryption.
 392:main.c        ****  */
 393:main.c        **** int Decode(unsigned int hex_value, int bT)
 394:main.c        **** {
 258              		.loc 1 394 0
 259              		.cfi_startproc
 260              		@ args = 0, pretend = 0, frame = 0
 261              		@ frame_needed = 0, uses_anonymous_args = 0
 262              		@ link register save eliminated.
 263              	.LVL18:
 395:main.c        ****     int bitCase;
 396:main.c        ****     switch(bT){
 264              		.loc 1 396 0
 265 0000 0539     		subs	r1, r1, #5
 266              	.LVL19:
 267 0002 0729     		cmp	r1, #7
 268 0004 1CD8     		bhi	.L23
 269 0006 DFE801F0 		tbb	[pc, r1]
 270              	.L25:
 271 000a 04       		.byte	(.L24-.L25)/2
 272 000b 07       		.byte	(.L26-.L25)/2
 273 000c 0A       		.byte	(.L27-.L25)/2
 274 000d 0D       		.byte	(.L28-.L25)/2
 275 000e 10       		.byte	(.L29-.L25)/2
 276 000f 13       		.byte	(.L30-.L25)/2
 277 0010 16       		.byte	(.L31-.L25)/2
 278 0011 19       		.byte	(.L32-.L25)/2
 279              		.p2align 1
 280              	.L24:
 397:main.c        ****         case 5:
 398:main.c        ****             bitCase = (hex_value & BIT_7_MASK) >> 7;
 281              		.loc 1 398 0
 282 0012 C0F3C013 		ubfx	r3, r0, #7, #1
 283              	.LVL20:
 399:main.c        ****             break;
 284              		.loc 1 399 0
 285 0016 13E0     		b	.L23
ARM GAS  C:\Users\ipfajard\AppData\Local\Temp\cciiijgr.s 			page 13


 286              	.LVL21:
 287              	.L26:
 400:main.c        ****         case 6:
 401:main.c        ****             bitCase = (hex_value & BIT_6_MASK) >> 6;
 288              		.loc 1 401 0
 289 0018 C0F38013 		ubfx	r3, r0, #6, #1
 290              	.LVL22:
 402:main.c        ****             break; 
 291              		.loc 1 402 0
 292 001c 10E0     		b	.L23
 293              	.LVL23:
 294              	.L27:
 403:main.c        ****         case 7:
 404:main.c        ****             bitCase = (hex_value & BIT_5_MASK) >> 5;
 295              		.loc 1 404 0
 296 001e C0F34013 		ubfx	r3, r0, #5, #1
 297              	.LVL24:
 405:main.c        ****             break; 
 298              		.loc 1 405 0
 299 0022 0DE0     		b	.L23
 300              	.LVL25:
 301              	.L28:
 406:main.c        ****         case 8:
 407:main.c        ****             bitCase = (hex_value & BIT_4_MASK) >> 4;
 302              		.loc 1 407 0
 303 0024 C0F30013 		ubfx	r3, r0, #4, #1
 304              	.LVL26:
 408:main.c        ****             break;
 305              		.loc 1 408 0
 306 0028 0AE0     		b	.L23
 307              	.LVL27:
 308              	.L29:
 409:main.c        ****         case 9:
 410:main.c        ****             bitCase = (hex_value & BIT_3_MASK) >> 3;
 309              		.loc 1 410 0
 310 002a C0F3C003 		ubfx	r3, r0, #3, #1
 311              	.LVL28:
 411:main.c        ****             break; 
 312              		.loc 1 411 0
 313 002e 07E0     		b	.L23
 314              	.LVL29:
 315              	.L30:
 412:main.c        ****         case 10:
 413:main.c        ****             bitCase = (hex_value & BIT_2_MASK) >> 2;
 316              		.loc 1 413 0
 317 0030 C0F38003 		ubfx	r3, r0, #2, #1
 318              	.LVL30:
 414:main.c        ****             break; 
 319              		.loc 1 414 0
 320 0034 04E0     		b	.L23
 321              	.LVL31:
 322              	.L31:
 415:main.c        ****         case 11:
 416:main.c        ****             bitCase = (hex_value & BIT_1_MASK) >> 1;
 323              		.loc 1 416 0
 324 0036 C0F34003 		ubfx	r3, r0, #1, #1
 325              	.LVL32:
ARM GAS  C:\Users\ipfajard\AppData\Local\Temp\cciiijgr.s 			page 14


 417:main.c        ****             break; 
 326              		.loc 1 417 0
 327 003a 01E0     		b	.L23
 328              	.LVL33:
 329              	.L32:
 418:main.c        ****         case 12:
 419:main.c        ****             bitCase = (hex_value & BIT_0_MASK);
 330              		.loc 1 419 0
 331 003c 00F00103 		and	r3, r0, #1
 332              	.LVL34:
 333              	.L23:
 420:main.c        ****             break;
 421:main.c        ****         default:
 422:main.c        ****             break;
 423:main.c        ****     } //end switch(bT)
 424:main.c        ****     return bitCase;
 425:main.c        **** }//end Decode()
 334              		.loc 1 425 0
 335 0040 1846     		mov	r0, r3
 336              	.LVL35:
 337 0042 7047     		bx	lr
 338              		.cfi_endproc
 339              	.LFE69:
 340              		.size	Decode, .-Decode
 341              		.section	.text.PreFix,"ax",%progbits
 342              		.align	2
 343              		.global	PreFix
 344              		.thumb
 345              		.thumb_func
 346              		.type	PreFix, %function
 347              	PreFix:
 348              	.LFB70:
 426:main.c        **** 
 427:main.c        **** 
 428:main.c        **** /*
 429:main.c        ****  * function: int PreFix(unsigned int hex_value, int bT)
 430:main.c        ****  * parameters: hex_value - an 8 bit (1 byte) value specifying what data you want to send
 431:main.c        ****  *             bT - the current bit time
 432:main.c        ****  * returns: bitCase - a high or low signal to be sent to an output pin
 433:main.c        ****  * description: This function takes in a hex value and sends it out a bit at a time as a high or
 434:main.c        ****  *  low signal depending on the bit time. Used only to set desired decode encryption.
 435:main.c        ****  */
 436:main.c        **** int PreFix(unsigned int hex_value, int prefixCount)
 437:main.c        **** {   
 349              		.loc 1 437 0
 350              		.cfi_startproc
 351              		@ args = 0, pretend = 0, frame = 0
 352              		@ frame_needed = 0, uses_anonymous_args = 0
 353              		@ link register save eliminated.
 354              	.LVL36:
 438:main.c        ****     int prefixBit;
 439:main.c        ****     
 440:main.c        ****     switch(prefixCount){
 355              		.loc 1 440 0
 356 0000 0729     		cmp	r1, #7
 357 0002 1CD8     		bhi	.L34
 358 0004 DFE801F0 		tbb	[pc, r1]
ARM GAS  C:\Users\ipfajard\AppData\Local\Temp\cciiijgr.s 			page 15


 359              	.L36:
 360 0008 04       		.byte	(.L35-.L36)/2
 361 0009 07       		.byte	(.L37-.L36)/2
 362 000a 0A       		.byte	(.L38-.L36)/2
 363 000b 0D       		.byte	(.L39-.L36)/2
 364 000c 10       		.byte	(.L40-.L36)/2
 365 000d 13       		.byte	(.L41-.L36)/2
 366 000e 16       		.byte	(.L42-.L36)/2
 367 000f 19       		.byte	(.L43-.L36)/2
 368              		.p2align 1
 369              	.L35:
 441:main.c        ****         case 0:
 442:main.c        ****            prefixBit = (hex_value & BIT_7_MASK) >> 7;
 370              		.loc 1 442 0
 371 0010 C0F3C013 		ubfx	r3, r0, #7, #1
 372              	.LVL37:
 443:main.c        ****             break;
 373              		.loc 1 443 0
 374 0014 13E0     		b	.L34
 375              	.LVL38:
 376              	.L37:
 444:main.c        ****         case 1:
 445:main.c        ****             prefixBit = (hex_value & BIT_6_MASK) >> 6;
 377              		.loc 1 445 0
 378 0016 C0F38013 		ubfx	r3, r0, #6, #1
 379              	.LVL39:
 446:main.c        ****             break; 
 380              		.loc 1 446 0
 381 001a 10E0     		b	.L34
 382              	.LVL40:
 383              	.L38:
 447:main.c        ****         case 2:
 448:main.c        ****             prefixBit = (hex_value & BIT_5_MASK) >> 5;
 384              		.loc 1 448 0
 385 001c C0F34013 		ubfx	r3, r0, #5, #1
 386              	.LVL41:
 449:main.c        ****             break; 
 387              		.loc 1 449 0
 388 0020 0DE0     		b	.L34
 389              	.LVL42:
 390              	.L39:
 450:main.c        ****         case 3:
 451:main.c        ****             prefixBit = (hex_value & BIT_4_MASK) >> 4;
 391              		.loc 1 451 0
 392 0022 C0F30013 		ubfx	r3, r0, #4, #1
 393              	.LVL43:
 452:main.c        ****             break;
 394              		.loc 1 452 0
 395 0026 0AE0     		b	.L34
 396              	.LVL44:
 397              	.L40:
 453:main.c        ****         case 4:
 454:main.c        ****             prefixBit = (hex_value & BIT_3_MASK) >> 3;
 398              		.loc 1 454 0
 399 0028 C0F3C003 		ubfx	r3, r0, #3, #1
 400              	.LVL45:
 455:main.c        ****             break; 
ARM GAS  C:\Users\ipfajard\AppData\Local\Temp\cciiijgr.s 			page 16


 401              		.loc 1 455 0
 402 002c 07E0     		b	.L34
 403              	.LVL46:
 404              	.L41:
 456:main.c        ****         case 5:
 457:main.c        ****             prefixBit = (hex_value & BIT_2_MASK) >> 2;
 405              		.loc 1 457 0
 406 002e C0F38003 		ubfx	r3, r0, #2, #1
 407              	.LVL47:
 458:main.c        ****             break; 
 408              		.loc 1 458 0
 409 0032 04E0     		b	.L34
 410              	.LVL48:
 411              	.L42:
 459:main.c        ****         case 6:
 460:main.c        ****             prefixBit = (hex_value & BIT_1_MASK) >> 1;
 412              		.loc 1 460 0
 413 0034 C0F34003 		ubfx	r3, r0, #1, #1
 414              	.LVL49:
 461:main.c        ****             break; 
 415              		.loc 1 461 0
 416 0038 01E0     		b	.L34
 417              	.LVL50:
 418              	.L43:
 462:main.c        ****         case 7:
 463:main.c        ****             prefixBit = (hex_value & BIT_0_MASK);
 419              		.loc 1 463 0
 420 003a 00F00103 		and	r3, r0, #1
 421              	.LVL51:
 422              	.L34:
 464:main.c        ****             break;
 465:main.c        ****         default:
 466:main.c        ****             break;
 467:main.c        ****  
 468:main.c        ****     }
 469:main.c        ****     
 470:main.c        ****     return prefixBit; 
 471:main.c        **** 
 472:main.c        **** }
 423              		.loc 1 472 0
 424 003e 1846     		mov	r0, r3
 425              	.LVL52:
 426 0040 7047     		bx	lr
 427              		.cfi_endproc
 428              	.LFE70:
 429              		.size	PreFix, .-PreFix
 430 0042 00BF     		.section	.text.main,"ax",%progbits
 431              		.align	2
 432              		.global	main
 433              		.thumb
 434              		.thumb_func
 435              		.type	main, %function
 436              	main:
 437              	.LFB64:
 109:main.c        ****     /*Variable initializations*/
 438              		.loc 1 109 0
 439              		.cfi_startproc
ARM GAS  C:\Users\ipfajard\AppData\Local\Temp\cciiijgr.s 			page 17


 440              		@ args = 0, pretend = 0, frame = 0
 441              		@ frame_needed = 0, uses_anonymous_args = 0
 442 0000 38B5     		push	{r3, r4, r5, lr}
 443              		.cfi_def_cfa_offset 16
 444              		.cfi_offset 3, -16
 445              		.cfi_offset 4, -12
 446              		.cfi_offset 5, -8
 447              		.cfi_offset 14, -4
 448              	.LVL53:
 115:main.c        **** #endif /* INTERRUPT_CODE_ENABLED == ENABLED */
 449              		.loc 1 115 0
 450 0002 5048     		ldr	r0, .L59
 451 0004 FFF7FEFF 		bl	isr_rx_StartEx
 452              	.LVL54:
 119:main.c        **** 
 453              		.loc 1 119 0
 454              		.syntax unified
 455              	@ 119 "main.c" 1
 456 0008 62B6     		CPSIE   i
 457              	@ 0 "" 2
 122:main.c        ****     checkWatchDogTimer_Start();
 458              		.loc 1 122 0
 459              	@ 122 "main.c" 1
 460 000a 62B6     		CPSIE   i
 461              	@ 0 "" 2
 123:main.c        ****     watchDogCheck_StartEx(watchDogCheck);
 462              		.loc 1 123 0
 463              		.thumb
 464              		.syntax unified
 465 000c FFF7FEFF 		bl	checkWatchDogTimer_Start
 466              	.LVL55:
 124:main.c        ****     
 467              		.loc 1 124 0
 468 0010 4D48     		ldr	r0, .L59+4
 469 0012 FFF7FEFF 		bl	watchDogCheck_StartEx
 470              	.LVL56:
 127:main.c        ****     LCD_Start();
 471              		.loc 1 127 0
 472 0016 FFF7FEFF 		bl	UART_Start
 473              	.LVL57:
 128:main.c        ****     PWM_Modulator_Start();
 474              		.loc 1 128 0
 475 001a FFF7FEFF 		bl	LCD_Start
 476              	.LVL58:
 129:main.c        ****     PWM_1_Start();
 477              		.loc 1 129 0
 478 001e FFF7FEFF 		bl	PWM_Modulator_Start
 479              	.LVL59:
 130:main.c        ****     PWM_2_Start();
 480              		.loc 1 130 0
 481 0022 FFF7FEFF 		bl	PWM_1_Start
 482              	.LVL60:
 131:main.c        ****     PWM_3_Start();
 483              		.loc 1 131 0
 484 0026 FFF7FEFF 		bl	PWM_2_Start
 485              	.LVL61:
 132:main.c        ****     PWM_Switch_Timer_Start();
ARM GAS  C:\Users\ipfajard\AppData\Local\Temp\cciiijgr.s 			page 18


 486              		.loc 1 132 0
 487 002a FFF7FEFF 		bl	PWM_3_Start
 488              	.LVL62:
 133:main.c        ****     isr_sec_StartEx(isr_sec);
 489              		.loc 1 133 0
 490 002e FFF7FEFF 		bl	PWM_Switch_Timer_Start
 491              	.LVL63:
 134:main.c        ****     
 492              		.loc 1 134 0
 493 0032 4648     		ldr	r0, .L59+8
 494 0034 FFF7FEFF 		bl	isr_sec_StartEx
 495              	.LVL64:
 137:main.c        ****     PWM_1_WriteCompare((FREQ(AUDIBLE_FREQ))/2); // Sets pulse width to half
 496              		.loc 1 137 0
 497 0038 5220     		movs	r0, #82
 498 003a FFF7FEFF 		bl	PWM_1_WritePeriod
 499              	.LVL65:
 138:main.c        ****     
 500              		.loc 1 138 0
 501 003e 2920     		movs	r0, #41
 502 0040 FFF7FEFF 		bl	PWM_1_WriteCompare
 503              	.LVL66:
 141:main.c        ****     PWM_2_WriteCompare((FREQ(ONE_FREQ))/2); // Sets pulse width to half
 504              		.loc 1 141 0
 505 0044 1620     		movs	r0, #22
 506 0046 FFF7FEFF 		bl	PWM_2_WritePeriod
 507              	.LVL67:
 142:main.c        ****     
 508              		.loc 1 142 0
 509 004a 0B20     		movs	r0, #11
 510 004c FFF7FEFF 		bl	PWM_2_WriteCompare
 511              	.LVL68:
 145:main.c        ****     PWM_3_WriteCompare((FREQ(ZERO_FREQ))/2); // Sets pulse width to half
 512              		.loc 1 145 0
 513 0050 1A20     		movs	r0, #26
 514 0052 FFF7FEFF 		bl	PWM_3_WritePeriod
 515              	.LVL69:
 146:main.c        ****     
 516              		.loc 1 146 0
 517 0056 0D20     		movs	r0, #13
 518 0058 FFF7FEFF 		bl	PWM_3_WriteCompare
 519              	.LVL70:
 149:main.c        ****     LCD_PrintString("                    ");
 520              		.loc 1 149 0
 521 005c 0021     		movs	r1, #0
 522 005e 0846     		mov	r0, r1
 523 0060 FFF7FEFF 		bl	LCD_Position
 524              	.LVL71:
 150:main.c        **** 
 525              		.loc 1 150 0
 526 0064 3A48     		ldr	r0, .L59+12
 527 0066 FFF7FEFF 		bl	LCD_PrintString
 528              	.LVL72:
 153:main.c        ****     LCD_PrintString("Hello");
 529              		.loc 1 153 0
 530 006a 0021     		movs	r1, #0
 531 006c 0846     		mov	r0, r1
ARM GAS  C:\Users\ipfajard\AppData\Local\Temp\cciiijgr.s 			page 19


 532 006e FFF7FEFF 		bl	LCD_Position
 533              	.LVL73:
 154:main.c        **** 
 534              		.loc 1 154 0
 535 0072 3848     		ldr	r0, .L59+16
 536 0074 FFF7FEFF 		bl	LCD_PrintString
 537              	.LVL74:
 112:main.c        **** 
 538              		.loc 1 112 0
 539 0078 0025     		movs	r5, #0
 111:main.c        ****     int data_turn = 0;
 540              		.loc 1 111 0
 541 007a 2C46     		mov	r4, r5
 542              	.LVL75:
 543              	.L45:
 158:main.c        ****         {
 544              		.loc 1 158 0
 545 007c 364B     		ldr	r3, .L59+20
 546 007e 5B7A     		ldrb	r3, [r3, #9]	@ zero_extendqisi2
 547 0080 13B1     		cbz	r3, .L46
 161:main.c        ****         }
 548              		.loc 1 161 0
 549 0082 0022     		movs	r2, #0
 550 0084 344B     		ldr	r3, .L59+20
 551 0086 5A72     		strb	r2, [r3, #9]
 552              	.L46:
 163:main.c        ****             // ENCODE
 553              		.loc 1 163 0
 554 0088 334B     		ldr	r3, .L59+20
 555 008a 1968     		ldr	r1, [r3]
 556 008c 0D29     		cmp	r1, #13
 557 008e 47D8     		bhi	.L47
 558 0090 DFE801F0 		tbb	[pc, r1]
 559              	.L49:
 560 0094 07       		.byte	(.L48-.L49)/2
 561 0095 0E       		.byte	(.L50-.L49)/2
 562 0096 0E       		.byte	(.L50-.L49)/2
 563 0097 0E       		.byte	(.L50-.L49)/2
 564 0098 0E       		.byte	(.L50-.L49)/2
 565 0099 14       		.byte	(.L51-.L49)/2
 566 009a 14       		.byte	(.L51-.L49)/2
 567 009b 14       		.byte	(.L51-.L49)/2
 568 009c 14       		.byte	(.L51-.L49)/2
 569 009d 14       		.byte	(.L51-.L49)/2
 570 009e 14       		.byte	(.L51-.L49)/2
 571 009f 14       		.byte	(.L51-.L49)/2
 572 00a0 14       		.byte	(.L51-.L49)/2
 573 00a1 19       		.byte	(.L52-.L49)/2
 574              		.p2align 1
 575              	.L48:
 166:main.c        ****                 break; 
 576              		.loc 1 166 0
 577 00a2 2D4B     		ldr	r3, .L59+20
 578 00a4 5968     		ldr	r1, [r3, #4]
 579 00a6 FF20     		movs	r0, #255
 580 00a8 FFF7FEFF 		bl	PreFix
 581              	.LVL76:
ARM GAS  C:\Users\ipfajard\AppData\Local\Temp\cciiijgr.s 			page 20


 582 00ac 0446     		mov	r4, r0
 583              	.LVL77:
 167:main.c        ****             // DATA
 584              		.loc 1 167 0
 585 00ae 37E0     		b	.L47
 586              	.LVL78:
 587              	.L50:
 174:main.c        ****                 break; 
 588              		.loc 1 174 0
 589 00b0 2A4B     		ldr	r3, .L59+24
 590 00b2 1878     		ldrb	r0, [r3]	@ zero_extendqisi2
 591 00b4 FFF7FEFF 		bl	Data
 592              	.LVL79:
 593 00b8 0446     		mov	r4, r0
 594              	.LVL80:
 175:main.c        ****             // DECODE
 595              		.loc 1 175 0
 596 00ba 31E0     		b	.L47
 597              	.LVL81:
 598              	.L51:
 185:main.c        ****                 break;
 599              		.loc 1 185 0
 600 00bc 0120     		movs	r0, #1
 601 00be FFF7FEFF 		bl	Decode
 602              	.LVL82:
 603 00c2 0446     		mov	r4, r0
 604              	.LVL83:
 186:main.c        ****             case 13:
 605              		.loc 1 186 0
 606 00c4 2CE0     		b	.L47
 607              	.LVL84:
 608              	.L52:
 189:main.c        ****                 //encode used to transmit 7 1's for the prefix 
 609              		.loc 1 189 0
 610 00c6 244B     		ldr	r3, .L59+20
 611 00c8 0022     		movs	r2, #0
 612 00ca 1A72     		strb	r2, [r3, #8]
 192:main.c        ****                 data_turn++;
 613              		.loc 1 192 0
 614 00cc 5A60     		str	r2, [r3, #4]
 193:main.c        ****                 
 615              		.loc 1 193 0
 616 00ce 0135     		adds	r5, r5, #1
 617              	.LVL85:
 196:main.c        ****                     data_turn = 0;
 618              		.loc 1 196 0
 619 00d0 042D     		cmp	r5, #4
 620 00d2 00D1     		bne	.L53
 197:main.c        ****                 }
 621              		.loc 1 197 0
 622 00d4 1546     		mov	r5, r2
 623              	.LVL86:
 624              	.L53:
 199:main.c        **** #else 
 625              		.loc 1 199 0
 626 00d6 214A     		ldr	r2, .L59+24
 627 00d8 1378     		ldrb	r3, [r2]	@ zero_extendqisi2
ARM GAS  C:\Users\ipfajard\AppData\Local\Temp\cciiijgr.s 			page 21


 628 00da 5B00     		lsls	r3, r3, #1
 629 00dc 1370     		strb	r3, [r2]
 208:main.c        ****                 // Turn High Voltage off while delaying
 630              		.loc 1 208 0
 631 00de FFF7FEFF 		bl	PWM_Modulator_Stop
 632              	.LVL87:
 210:main.c        ****                 // Turn High Voltage Back On
 633              		.loc 1 210 0
 634 00e2 FFF7FEFF 		bl	PWM_Switch_Timer_Stop
 635              	.LVL88:
 212:main.c        ****                 CyDelay(20);
 636              		.loc 1 212 0
 637 00e6 0020     		movs	r0, #0
 638 00e8 FFF7FEFF 		bl	HighVoltage_Write
 639              	.LVL89:
 213:main.c        ****                 SignalBase_Write(0);
 640              		.loc 1 213 0
 641 00ec 1420     		movs	r0, #20
 642 00ee FFF7FEFF 		bl	CyDelay
 643              	.LVL90:
 214:main.c        **** 
 644              		.loc 1 214 0
 645 00f2 0020     		movs	r0, #0
 646 00f4 FFF7FEFF 		bl	SignalBase_Write
 647              	.LVL91:
 648              	.L54:
 218:main.c        ****                 }
 649              		.loc 1 218 0 discriminator 1
 650 00f8 174B     		ldr	r3, .L59+20
 651 00fa 1B7A     		ldrb	r3, [r3, #8]	@ zero_extendqisi2
 652 00fc 002B     		cmp	r3, #0
 653 00fe FBD0     		beq	.L54
 226:main.c        ****                 CyDelay(20); // Give voltage booster time to charge up
 654              		.loc 1 226 0
 655 0100 0120     		movs	r0, #1
 656 0102 FFF7FEFF 		bl	HighVoltage_Write
 657              	.LVL92:
 227:main.c        ****                 SignalBase_Write(1);
 658              		.loc 1 227 0
 659 0106 1420     		movs	r0, #20
 660 0108 FFF7FEFF 		bl	CyDelay
 661              	.LVL93:
 228:main.c        ****                 /* Reset PWM blocks and bitTime for new transmission */
 662              		.loc 1 228 0
 663 010c 0120     		movs	r0, #1
 664 010e FFF7FEFF 		bl	SignalBase_Write
 665              	.LVL94:
 230:main.c        ****                 PWM_Modulator_Start();
 666              		.loc 1 230 0
 667 0112 0022     		movs	r2, #0
 668 0114 104B     		ldr	r3, .L59+20
 669 0116 1A60     		str	r2, [r3]
 231:main.c        ****                 PWM_Switch_Timer_Start();
 670              		.loc 1 231 0
 671 0118 FFF7FEFF 		bl	PWM_Modulator_Start
 672              	.LVL95:
 232:main.c        ****                 break;
ARM GAS  C:\Users\ipfajard\AppData\Local\Temp\cciiijgr.s 			page 22


 673              		.loc 1 232 0
 674 011c FFF7FEFF 		bl	PWM_Switch_Timer_Start
 675              	.LVL96:
 676              	.L47:
 239:main.c        ****             PWM_Modulator_WritePeriod(FREQ(ONE_FREQ));
 677              		.loc 1 239 0
 678 0120 012C     		cmp	r4, #1
 679 0122 06D1     		bne	.L55
 240:main.c        ****             PWM_Modulator_WriteCompare((FREQ(ONE_FREQ))/2); // Sets pulse width
 680              		.loc 1 240 0
 681 0124 1620     		movs	r0, #22
 682 0126 FFF7FEFF 		bl	PWM_Modulator_WritePeriod
 683              	.LVL97:
 241:main.c        ****         }else if(bitCase == ZERO){
 684              		.loc 1 241 0
 685 012a 0B20     		movs	r0, #11
 686 012c FFF7FEFF 		bl	PWM_Modulator_WriteCompare
 687              	.LVL98:
 688 0130 A4E7     		b	.L45
 689              	.L55:
 242:main.c        ****             PWM_Modulator_WritePeriod(FREQ(ZERO_FREQ));
 690              		.loc 1 242 0
 691 0132 002C     		cmp	r4, #0
 692 0134 A2D1     		bne	.L45
 243:main.c        ****             PWM_Modulator_WriteCompare((FREQ(ZERO_FREQ))/2); // Sets pulse width
 693              		.loc 1 243 0
 694 0136 1A20     		movs	r0, #26
 695 0138 FFF7FEFF 		bl	PWM_Modulator_WritePeriod
 696              	.LVL99:
 244:main.c        ****         }
 697              		.loc 1 244 0
 698 013c 0D20     		movs	r0, #13
 699 013e FFF7FEFF 		bl	PWM_Modulator_WriteCompare
 700              	.LVL100:
 701 0142 9BE7     		b	.L45
 702              	.L60:
 703              		.align	2
 704              	.L59:
 705 0144 00000000 		.word	RxIsr
 706 0148 00000000 		.word	watchDogCheck
 707 014c 00000000 		.word	isr_sec
 708 0150 1C000000 		.word	.LC2
 709 0154 34000000 		.word	.LC3
 710 0158 00000000 		.word	.LANCHOR0
 711 015c 00000000 		.word	.LANCHOR1
 712              		.cfi_endproc
 713              	.LFE64:
 714              		.size	main, .-main
 715              		.global	crabsToSend
 716              		.global	errorStatus
 717              		.global	newDataflag
 718              		.comm	data,20,4
 719              		.comm	lineStr,20,4
 720              		.comm	count,2,2
 721              		.global	i
 722              		.global	error
 723              		.data
ARM GAS  C:\Users\ipfajard\AppData\Local\Temp\cciiijgr.s 			page 23


 724              		.align	2
 725              		.set	.LANCHOR1,. + 0
 726              		.type	crabsToSend, %object
 727              		.size	crabsToSend, 1
 728              	crabsToSend:
 729 0000 01       		.byte	1
 730 0001 000000   		.space	3
 731              		.type	i, %object
 732              		.size	i, 4
 733              	i:
 734 0004 02000000 		.word	2
 735              		.section	.rodata.str1.4,"aMS",%progbits,1
 736              		.align	2
 737              	.LC0:
 738 0000 43726162 		.ascii	"Crabs: %d\000"
 738      733A2025 
 738      6400
 739 000a 0000     		.space	2
 740              	.LC1:
 741 000c 20202020 		.ascii	"             \000"
 741      20202020 
 741      20202020 
 741      2000
 742 001a 0000     		.space	2
 743              	.LC2:
 744 001c 20202020 		.ascii	"                    \000"
 744      20202020 
 744      20202020 
 744      20202020 
 744      20202020 
 745 0031 000000   		.space	3
 746              	.LC3:
 747 0034 48656C6C 		.ascii	"Hello\000"
 747      6F00
 748              		.bss
 749              		.align	2
 750              		.set	.LANCHOR0,. + 0
 751              		.type	bitTime, %object
 752              		.size	bitTime, 4
 753              	bitTime:
 754 0000 00000000 		.space	4
 755              		.type	prefixTime, %object
 756              		.size	prefixTime, 4
 757              	prefixTime:
 758 0004 00000000 		.space	4
 759              		.type	newDataflag, %object
 760              		.size	newDataflag, 1
 761              	newDataflag:
 762 0008 00       		.space	1
 763              		.type	errorStatus, %object
 764              		.size	errorStatus, 1
 765              	errorStatus:
 766 0009 00       		.space	1
 767 000a 0000     		.space	2
 768              		.type	error, %object
 769              		.size	error, 4
 770              	error:
ARM GAS  C:\Users\ipfajard\AppData\Local\Temp\cciiijgr.s 			page 24


 771 000c 00000000 		.space	4
 772              		.text
 773              	.Letext0:
 774              		.file 2 "c:\\program files (x86)\\cypress\\psoc creator\\4.1\\psoc creator\\import\\gnu\\arm\\5.4.
 775              		.file 3 "c:\\program files (x86)\\cypress\\psoc creator\\4.1\\psoc creator\\import\\gnu\\arm\\5.4.
 776              		.file 4 "Generated_Source\\PSoC5/cytypes.h"
 777              		.file 5 "Generated_Source\\PSoC5/core_cm3.h"
 778              		.file 6 "Generated_Source\\PSoC5/CyLib.h"
 779              		.file 7 "Generated_Source\\PSoC5/LCD.h"
 780              		.file 8 "c:\\program files (x86)\\cypress\\psoc creator\\4.1\\psoc creator\\import\\gnu\\arm\\5.4.
 781              		.file 9 "Generated_Source\\PSoC5/isr_rx.h"
 782              		.file 10 "Generated_Source\\PSoC5/checkWatchDogTimer.h"
 783              		.file 11 "Generated_Source\\PSoC5/watchDogCheck.h"
 784              		.file 12 "Generated_Source\\PSoC5/UART.h"
 785              		.file 13 "Generated_Source\\PSoC5/PWM_Modulator.h"
 786              		.file 14 "Generated_Source\\PSoC5/PWM_1.h"
 787              		.file 15 "Generated_Source\\PSoC5/PWM_2.h"
 788              		.file 16 "Generated_Source\\PSoC5/PWM_3.h"
 789              		.file 17 "Generated_Source\\PSoC5/PWM_Switch_Timer.h"
 790              		.file 18 "Generated_Source\\PSoC5/isr_sec.h"
 791              		.file 19 "Generated_Source\\PSoC5/HighVoltage.h"
 792              		.file 20 "Generated_Source\\PSoC5/SignalBase.h"