ARM GAS  C:\Users\sdysart\AppData\Local\Temp\ccgFZeFa.s 			page 1


   1              		.syntax unified
   2              		.cpu cortex-m3
   3              		.fpu softvfp
   4              		.eabi_attribute 20, 1
   5              		.eabi_attribute 21, 1
   6              		.eabi_attribute 23, 3
   7              		.eabi_attribute 24, 1
   8              		.eabi_attribute 25, 1
   9              		.eabi_attribute 26, 1
  10              		.eabi_attribute 30, 1
  11              		.eabi_attribute 34, 1
  12              		.eabi_attribute 18, 4
  13              		.thumb
  14              		.syntax unified
  15              		.file	"main.c"
  16              		.text
  17              	.Ltext0:
  18              		.cfi_sections	.debug_frame
  19              		.section	.text.Bit_Timer,"ax",%progbits
  20              		.align	2
  21              		.global	Bit_Timer
  22              		.thumb
  23              		.thumb_func
  24              		.type	Bit_Timer, %function
  25              	Bit_Timer:
  26              	.LFB65:
  27              		.file 1 "main.c"
   1:main.c        **** /* ========================================
   2:main.c        ****  * Smart Crab Trap
   3:main.c        ****  * FSK RX 
   4:main.c        ****  * Edited by: Stephanie Salazar
   5:main.c        ****  * Revision: 5/10/18
   6:main.c        ****  * Function: This project takes in a signal from an outside source
   7:main.c        ****  * and reads the data within the signal. This code waits for a pre-fix
   8:main.c        ****  * of 0xFF and then reads the next 4 bits as the data and confirms
   9:main.c        ****  * the message with a post-fix of 0x01. The data is display on an LCD display.
  10:main.c        ****  * ========================================
  11:main.c        **** */
  12:main.c        **** 
  13:main.c        **** #include "project.h"
  14:main.c        **** #include <stdio.h>
  15:main.c        **** #include "LCD_Char.h"
  16:main.c        **** 
  17:main.c        **** #define ARRAY_SIZE 12
  18:main.c        **** #define COUNT      100
  19:main.c        **** #define ACCURACY   70
  20:main.c        **** 
  21:main.c        **** /*Function Prototypes*/
  22:main.c        **** void Display(void);
  23:main.c        **** 
  24:main.c        **** // Interrupt for switching bits 100 ms
  25:main.c        **** CY_ISR_PROTO(Bit_Timer);
  26:main.c        **** 
  27:main.c        **** // Global Variables
  28:main.c        **** static uint16 levelCounter = 0; // Timer counter to debounce bit
  29:main.c        **** static uint8 zeroCount = 0; // 0 count used in timer counter debounce
  30:main.c        **** static uint16 oneCount = 0; // 1 count used in timer counter debounce
ARM GAS  C:\Users\sdysart\AppData\Local\Temp\ccgFZeFa.s 			page 2


  31:main.c        **** static uint8 currentBit = 0; // x/10 bit decision for 500 ms bit
  32:main.c        **** static uint8 dataCount = 0; // which bit of data we are looking at
  33:main.c        **** static uint8 data = 0; // 4 bits of data
  34:main.c        **** static uint8 crabs = 0; // 4 bits of data transferred from data variable
  35:main.c        **** static uint8 dataFlag = 0; // Flag to start looking for data
  36:main.c        **** static uint8 decodeFlag = 0; // Flag to start looking for post-fix
  37:main.c        **** 
  38:main.c        **** // LCD String Variables
  39:main.c        **** char OutputString[ARRAY_SIZE];
  40:main.c        **** char display[ARRAY_SIZE];
  41:main.c        **** 
  42:main.c        **** // FLAGS for turning on messages on LCD screen
  43:main.c        **** static uint8 lcdFlagEncode = 0; // Turns on pre-fix message
  44:main.c        **** static uint8 lcdFlagData = 0; // Displays data 
  45:main.c        **** static uint8 lcdFlagDecode = 0; // good or bad postfix
  46:main.c        **** static uint8 decodeWrong = 0;
  47:main.c        **** 
  48:main.c        **** 
  49:main.c        **** int main(void)
  50:main.c        **** {
  51:main.c        ****     /* Enable global interrupts. */
  52:main.c        ****     CyGlobalIntEnable; 
  53:main.c        **** 
  54:main.c        ****     /* initialization/startup code here */
  55:main.c        ****     PWM_Recon_Start();
  56:main.c        ****     //BPF_Comp_Start();
  57:main.c        ****     Shift_Reg_Start();
  58:main.c        ****     Out_Comp_Start();
  59:main.c        ****     Bit_Timer_Start();
  60:main.c        ****     Timer_ISR_StartEx(Bit_Timer);
  61:main.c        ****     LCD_Char_Start();
  62:main.c        **** 
  63:main.c        ****     // Displays Loading Message before receiving pre-fix=
  64:main.c        ****     sprintf(display, "counting crabs...");
  65:main.c        ****     LCD_Char_Position(0u,0u); // Resets cursor to top of LCD Screen
  66:main.c        ****     LCD_Char_PrintString(display);
  67:main.c        **** 
  68:main.c        ****     for(;;)
  69:main.c        ****     {
  70:main.c        ****         Display();
  71:main.c        ****     } // end of for(;;)
  72:main.c        **** } // end of main()
  73:main.c        **** 
  74:main.c        **** 
  75:main.c        **** //Bit length = 100 ms
  76:main.c        **** //timer period = 10 ms
  77:main.c        **** //will check bit 10 times, to debounce
  78:main.c        **** CY_ISR(Bit_Timer){
  28              		.loc 1 78 0
  29              		.cfi_startproc
  30              		@ args = 0, pretend = 0, frame = 0
  31              		@ frame_needed = 0, uses_anonymous_args = 0
  32 0000 08B5     		push	{r3, lr}
  33              		.cfi_def_cfa_offset 8
  34              		.cfi_offset 3, -8
  35              		.cfi_offset 14, -4
  79:main.c        ****     levelCounter++;
ARM GAS  C:\Users\sdysart\AppData\Local\Temp\ccgFZeFa.s 			page 3


  36              		.loc 1 79 0
  37 0002 344A     		ldr	r2, .L12
  38 0004 1388     		ldrh	r3, [r2]
  39 0006 0133     		adds	r3, r3, #1
  40 0008 1380     		strh	r3, [r2]	@ movhi
  80:main.c        ****     
  81:main.c        ****     // Count whether bit is currently 1 or 0
  82:main.c        ****     if(Out_Comp_GetCompare() != 0){
  41              		.loc 1 82 0
  42 000a FFF7FEFF 		bl	Out_Comp_GetCompare
  43              	.LVL0:
  44 000e 20B1     		cbz	r0, .L2
  83:main.c        ****         oneCount++;
  45              		.loc 1 83 0
  46 0010 304A     		ldr	r2, .L12
  47 0012 5388     		ldrh	r3, [r2, #2]
  48 0014 0133     		adds	r3, r3, #1
  49 0016 5380     		strh	r3, [r2, #2]	@ movhi
  50 0018 03E0     		b	.L3
  51              	.L2:
  84:main.c        ****     }else{
  85:main.c        ****         zeroCount++;
  52              		.loc 1 85 0
  53 001a 2E4A     		ldr	r2, .L12
  54 001c 1379     		ldrb	r3, [r2, #4]	@ zero_extendqisi2
  55 001e 0133     		adds	r3, r3, #1
  56 0020 1371     		strb	r3, [r2, #4]
  57              	.L3:
  86:main.c        ****     }
  87:main.c        ****     
  88:main.c        ****     // Debouncing
  89:main.c        ****     if(levelCounter == COUNT){
  58              		.loc 1 89 0
  59 0022 2C4B     		ldr	r3, .L12
  60 0024 1B88     		ldrh	r3, [r3]
  61 0026 642B     		cmp	r3, #100
  62 0028 52D1     		bne	.L1
  90:main.c        ****         if(oneCount >= ACCURACY){ // 1 bit must be 7/10 = 1 
  63              		.loc 1 90 0
  64 002a 2A4B     		ldr	r3, .L12
  65 002c 5B88     		ldrh	r3, [r3, #2]
  66 002e 452B     		cmp	r3, #69
  67 0030 05D9     		bls	.L5
  91:main.c        ****             currentBit = 0x01;
  68              		.loc 1 91 0
  69 0032 284B     		ldr	r3, .L12
  70 0034 0122     		movs	r2, #1
  71 0036 5A71     		strb	r2, [r3, #5]
  92:main.c        ****             oneCount = 0;
  72              		.loc 1 92 0
  73 0038 0022     		movs	r2, #0
  74 003a 5A80     		strh	r2, [r3, #2]	@ movhi
  75 003c 03E0     		b	.L6
  76              	.L5:
  93:main.c        ****         
  94:main.c        ****         }else{ // if oneCount <= 7, bit is 0
  95:main.c        ****             currentBit = 0x00; 
ARM GAS  C:\Users\sdysart\AppData\Local\Temp\ccgFZeFa.s 			page 4


  77              		.loc 1 95 0
  78 003e 254B     		ldr	r3, .L12
  79 0040 0022     		movs	r2, #0
  80 0042 5A71     		strb	r2, [r3, #5]
  96:main.c        ****             zeroCount = 0; 
  81              		.loc 1 96 0
  82 0044 1A71     		strb	r2, [r3, #4]
  83              	.L6:
  97:main.c        ****         }
  98:main.c        ****         dataCount++; // Keep track of what bit we are on
  84              		.loc 1 98 0
  85 0046 234B     		ldr	r3, .L12
  86 0048 9A79     		ldrb	r2, [r3, #6]	@ zero_extendqisi2
  87 004a 0132     		adds	r2, r2, #1
  88 004c D2B2     		uxtb	r2, r2
  89 004e 9A71     		strb	r2, [r3, #6]
  99:main.c        ****         levelCounter = 0; // Reset timer bit debouncer  
  90              		.loc 1 99 0
  91 0050 0021     		movs	r1, #0
  92 0052 1980     		strh	r1, [r3]	@ movhi
 100:main.c        ****         
 101:main.c        ****         //Look for pre-fix
 102:main.c        ****         data = data << 1; // Shift data over to store next bit
  93              		.loc 1 102 0
  94 0054 D979     		ldrb	r1, [r3, #7]	@ zero_extendqisi2
  95 0056 4900     		lsls	r1, r1, #1
  96 0058 C9B2     		uxtb	r1, r1
 103:main.c        ****         data = data | currentBit;
  97              		.loc 1 103 0
  98 005a 5879     		ldrb	r0, [r3, #5]	@ zero_extendqisi2
  99 005c 0143     		orrs	r1, r1, r0
 100 005e D971     		strb	r1, [r3, #7]
 104:main.c        ****         // Check if data is prefix(oxFF) but we are not looking for data or decode
 105:main.c        ****         if((data == 0xff) && (dataFlag == 0) && (decodeFlag == 0)){ 
 101              		.loc 1 105 0
 102 0060 FF29     		cmp	r1, #255
 103 0062 0FD1     		bne	.L7
 104              		.loc 1 105 0 is_stmt 0 discriminator 1
 105 0064 1B7A     		ldrb	r3, [r3, #8]	@ zero_extendqisi2
 106 0066 6BB9     		cbnz	r3, .L7
 107              		.loc 1 105 0 discriminator 2
 108 0068 1A4B     		ldr	r3, .L12
 109 006a 5B7A     		ldrb	r3, [r3, #9]	@ zero_extendqisi2
 110 006c 53B9     		cbnz	r3, .L7
 106:main.c        ****             Count_Out_Write(1);
 111              		.loc 1 106 0 is_stmt 1
 112 006e 0120     		movs	r0, #1
 113 0070 FFF7FEFF 		bl	Count_Out_Write
 114              	.LVL1:
 107:main.c        ****             dataCount = 0;
 115              		.loc 1 107 0
 116 0074 174B     		ldr	r3, .L12
 117 0076 0022     		movs	r2, #0
 118 0078 9A71     		strb	r2, [r3, #6]
 108:main.c        ****             data = 0x00;
 119              		.loc 1 108 0
 120 007a DA71     		strb	r2, [r3, #7]
ARM GAS  C:\Users\sdysart\AppData\Local\Temp\ccgFZeFa.s 			page 5


 109:main.c        ****             dataFlag = 1; //Start looking for data
 121              		.loc 1 109 0
 122 007c 0122     		movs	r2, #1
 123 007e 1A72     		strb	r2, [r3, #8]
 110:main.c        ****             lcdFlagEncode = 1; //Display pre-fix on lcd
 124              		.loc 1 110 0
 125 0080 9A72     		strb	r2, [r3, #10]
 126 0082 0EE0     		b	.L8
 127              	.L7:
 111:main.c        **** 
 112:main.c        ****         
 113:main.c        ****         // Look for 4 bits of data
 114:main.c        ****         }else if((dataFlag == 1) && (dataCount > 3)){
 128              		.loc 1 114 0
 129 0084 134B     		ldr	r3, .L12
 130 0086 1B7A     		ldrb	r3, [r3, #8]	@ zero_extendqisi2
 131 0088 012B     		cmp	r3, #1
 132 008a 0AD1     		bne	.L8
 133              		.loc 1 114 0 is_stmt 0 discriminator 1
 134 008c 032A     		cmp	r2, #3
 135 008e 08D9     		bls	.L8
 115:main.c        ****             crabs = data;
 136              		.loc 1 115 0 is_stmt 1
 137 0090 104B     		ldr	r3, .L12
 138 0092 D972     		strb	r1, [r3, #11]
 116:main.c        ****             data = 0; //Restart data for decode
 139              		.loc 1 116 0
 140 0094 0022     		movs	r2, #0
 141 0096 DA71     		strb	r2, [r3, #7]
 117:main.c        ****             dataCount = 0; 
 142              		.loc 1 117 0
 143 0098 9A71     		strb	r2, [r3, #6]
 118:main.c        ****             lcdFlagEncode = 0; //Turn off encode message
 144              		.loc 1 118 0
 145 009a 9A72     		strb	r2, [r3, #10]
 119:main.c        ****             lcdFlagData = 1; //Display data
 146              		.loc 1 119 0
 147 009c 0122     		movs	r2, #1
 148 009e 1A73     		strb	r2, [r3, #12]
 120:main.c        ****             decodeFlag = 1; //Now go to decode stage
 149              		.loc 1 120 0
 150 00a0 5A72     		strb	r2, [r3, #9]
 151              	.L8:
 121:main.c        ****         }
 122:main.c        ****         
 123:main.c        ****         // Check for 8 bits of post-fix
 124:main.c        ****         if(decodeFlag == 1 && (dataCount > 7)){
 152              		.loc 1 124 0
 153 00a2 0C4B     		ldr	r3, .L12
 154 00a4 5B7A     		ldrb	r3, [r3, #9]	@ zero_extendqisi2
 155 00a6 012B     		cmp	r3, #1
 156 00a8 12D1     		bne	.L1
 157              		.loc 1 124 0 is_stmt 0 discriminator 1
 158 00aa 0A4B     		ldr	r3, .L12
 159 00ac 9B79     		ldrb	r3, [r3, #6]	@ zero_extendqisi2
 160 00ae 072B     		cmp	r3, #7
 161 00b0 0ED9     		bls	.L1
ARM GAS  C:\Users\sdysart\AppData\Local\Temp\ccgFZeFa.s 			page 6


 125:main.c        ****             // Correct postfix is 0x01
 126:main.c        ****             if(data == 0x01){
 162              		.loc 1 126 0 is_stmt 1
 163 00b2 084B     		ldr	r3, .L12
 164 00b4 DB79     		ldrb	r3, [r3, #7]	@ zero_extendqisi2
 165 00b6 012B     		cmp	r3, #1
 166 00b8 03D1     		bne	.L9
 127:main.c        ****              lcdFlagDecode = 1; // lcd flag for "good" post-fix
 167              		.loc 1 127 0
 168 00ba 0122     		movs	r2, #1
 169 00bc 054B     		ldr	r3, .L12
 170 00be 5A73     		strb	r2, [r3, #13]
 171 00c0 02E0     		b	.L10
 172              	.L9:
 128:main.c        ****             }else{
 129:main.c        ****                 decodeWrong = 1; // lcd flag for "bad" post-fix
 173              		.loc 1 129 0
 174 00c2 0122     		movs	r2, #1
 175 00c4 034B     		ldr	r3, .L12
 176 00c6 9A73     		strb	r2, [r3, #14]
 177              	.L10:
 130:main.c        ****             }
 131:main.c        ****             decodeFlag = 0;
 178              		.loc 1 131 0
 179 00c8 024B     		ldr	r3, .L12
 180 00ca 0022     		movs	r2, #0
 181 00cc 5A72     		strb	r2, [r3, #9]
 132:main.c        ****             dataFlag = 0; //Don't want to check for data anymore
 182              		.loc 1 132 0
 183 00ce 1A72     		strb	r2, [r3, #8]
 184              	.L1:
 185 00d0 08BD     		pop	{r3, pc}
 186              	.L13:
 187 00d2 00BF     		.align	2
 188              	.L12:
 189 00d4 00000000 		.word	.LANCHOR0
 190              		.cfi_endproc
 191              	.LFE65:
 192              		.size	Bit_Timer, .-Bit_Timer
 193              		.section	.text.Display,"ax",%progbits
 194              		.align	2
 195              		.global	Display
 196              		.thumb
 197              		.thumb_func
 198              		.type	Display, %function
 199              	Display:
 200              	.LFB66:
 133:main.c        ****         }
 134:main.c        ****     } // end of if(levelCounter == 10)
 135:main.c        **** } // end of CY_ISR(HighF_LevelCount)
 136:main.c        **** 
 137:main.c        **** 
 138:main.c        **** //// Transition time = 10ms
 139:main.c        **** //CY_ISR(Bit_Transition){
 140:main.c        **** //} // end of CY_ISR(Bit_Transistion)
 141:main.c        **** 
 142:main.c        **** /*
ARM GAS  C:\Users\sdysart\AppData\Local\Temp\ccgFZeFa.s 			page 7


 143:main.c        ****  * function: void Display(void)
 144:main.c        ****  * parameters: void
 145:main.c        ****  * returns: void
 146:main.c        ****  * description: Displays current data on LCD display depending
 147:main.c        ****  * on what flags are set
 148:main.c        ****  */
 149:main.c        **** void Display()
 150:main.c        **** {
 201              		.loc 1 150 0
 202              		.cfi_startproc
 203              		@ args = 0, pretend = 0, frame = 8
 204              		@ frame_needed = 0, uses_anonymous_args = 0
 205 0000 30B5     		push	{r4, r5, lr}
 206              		.cfi_def_cfa_offset 12
 207              		.cfi_offset 4, -12
 208              		.cfi_offset 5, -8
 209              		.cfi_offset 14, -4
 210 0002 83B0     		sub	sp, sp, #12
 211              		.cfi_def_cfa_offset 24
 151:main.c        ****     // LCD Screen Messages
 152:main.c        ****     // If encode is received, display message
 153:main.c        ****     if(lcdFlagEncode == 1){
 212              		.loc 1 153 0
 213 0004 294B     		ldr	r3, .L20
 214 0006 9B7A     		ldrb	r3, [r3, #10]	@ zero_extendqisi2
 215 0008 012B     		cmp	r3, #1
 216 000a 09D1     		bne	.L15
 154:main.c        ****         LCD_Char_ClearDisplay();
 217              		.loc 1 154 0
 218 000c 0120     		movs	r0, #1
 219 000e FFF7FEFF 		bl	LCD_Char_WriteControl
 220              	.LVL2:
 155:main.c        ****         LCD_Char_PrintString("0xFF pre-fix");
 221              		.loc 1 155 0
 222 0012 2748     		ldr	r0, .L20+4
 223 0014 FFF7FEFF 		bl	LCD_Char_PrintString
 224              	.LVL3:
 156:main.c        ****         lcdFlagEncode = 0; 
 225              		.loc 1 156 0
 226 0018 0022     		movs	r2, #0
 227 001a 244B     		ldr	r3, .L20
 228 001c 9A72     		strb	r2, [r3, #10]
 229 001e 42E0     		b	.L14
 230              	.L15:
 157:main.c        ****     // When 4 bits are received, data will display at top of screen
 158:main.c        ****     }else if(lcdFlagData == 1){
 231              		.loc 1 158 0
 232 0020 224B     		ldr	r3, .L20
 233 0022 1B7B     		ldrb	r3, [r3, #12]	@ zero_extendqisi2
 234 0024 012B     		cmp	r3, #1
 235 0026 17D1     		bne	.L17
 159:main.c        ****         sprintf(OutputString, "%i", crabs);
 236              		.loc 1 159 0
 237 0028 204C     		ldr	r4, .L20
 238 002a 224D     		ldr	r5, .L20+8
 239 002c E27A     		ldrb	r2, [r4, #11]	@ zero_extendqisi2
 240 002e 2249     		ldr	r1, .L20+12
ARM GAS  C:\Users\sdysart\AppData\Local\Temp\ccgFZeFa.s 			page 8


 241 0030 2846     		mov	r0, r5
 242 0032 FFF7FEFF 		bl	sprintf
 243              	.LVL4:
 160:main.c        ****         LCD_Char_ClearDisplay();
 244              		.loc 1 160 0
 245 0036 0120     		movs	r0, #1
 246 0038 FFF7FEFF 		bl	LCD_Char_WriteControl
 247              	.LVL5:
 161:main.c        ****         LCD_Char_Position(0u,0u);
 248              		.loc 1 161 0
 249 003c 0021     		movs	r1, #0
 250 003e 0846     		mov	r0, r1
 251 0040 FFF7FEFF 		bl	LCD_Char_Position
 252              	.LVL6:
 162:main.c        ****         LCD_Char_PrintString(OutputString);
 253              		.loc 1 162 0
 254 0044 2846     		mov	r0, r5
 255 0046 FFF7FEFF 		bl	LCD_Char_PrintString
 256              	.LVL7:
 163:main.c        ****         LCD_Char_PrintString(" crabs");
 257              		.loc 1 163 0
 258 004a 1C48     		ldr	r0, .L20+16
 259 004c FFF7FEFF 		bl	LCD_Char_PrintString
 260              	.LVL8:
 164:main.c        ****         dataFlag = 0;
 261              		.loc 1 164 0
 262 0050 0023     		movs	r3, #0
 263 0052 2372     		strb	r3, [r4, #8]
 165:main.c        ****         lcdFlagData = 0;
 264              		.loc 1 165 0
 265 0054 2373     		strb	r3, [r4, #12]
 266 0056 26E0     		b	.L14
 267              	.L17:
 166:main.c        ****     // Postfix will display good or bad below data on screen
 167:main.c        ****     }else if(lcdFlagDecode == 1){
 268              		.loc 1 167 0
 269 0058 144B     		ldr	r3, .L20
 270 005a 5B7B     		ldrb	r3, [r3, #13]	@ zero_extendqisi2
 271 005c 012B     		cmp	r3, #1
 272 005e 11D1     		bne	.L18
 273              	.LBB2:
 168:main.c        ****         LCD_Char_Position(1u,0u);
 274              		.loc 1 168 0
 275 0060 0021     		movs	r1, #0
 276 0062 0120     		movs	r0, #1
 277 0064 FFF7FEFF 		bl	LCD_Char_Position
 278              	.LVL9:
 169:main.c        ****         char8 displayG[] = "good";
 279              		.loc 1 169 0
 280 0068 154B     		ldr	r3, .L20+20
 281 006a 93E80300 		ldmia	r3, {r0, r1}
 282 006e 0090     		str	r0, [sp]
 283 0070 8DF80410 		strb	r1, [sp, #4]
 170:main.c        ****         LCD_Char_PrintString(displayG);
 284              		.loc 1 170 0
 285 0074 6846     		mov	r0, sp
 286 0076 FFF7FEFF 		bl	LCD_Char_PrintString
ARM GAS  C:\Users\sdysart\AppData\Local\Temp\ccgFZeFa.s 			page 9


 287              	.LVL10:
 171:main.c        ****         dataFlag = 0;
 288              		.loc 1 171 0
 289 007a 0C4B     		ldr	r3, .L20
 290 007c 0022     		movs	r2, #0
 291 007e 1A72     		strb	r2, [r3, #8]
 172:main.c        ****         lcdFlagDecode = 0;
 292              		.loc 1 172 0
 293 0080 5A73     		strb	r2, [r3, #13]
 294              	.LBE2:
 295 0082 10E0     		b	.L14
 296              	.L18:
 173:main.c        ****     }else if(decodeWrong == 1){
 297              		.loc 1 173 0
 298 0084 094B     		ldr	r3, .L20
 299 0086 9B7B     		ldrb	r3, [r3, #14]	@ zero_extendqisi2
 300 0088 012B     		cmp	r3, #1
 301 008a 0CD1     		bne	.L14
 302              	.LBB3:
 174:main.c        ****         LCD_Char_Position(1u,0u);
 303              		.loc 1 174 0
 304 008c 0021     		movs	r1, #0
 305 008e 0120     		movs	r0, #1
 306 0090 FFF7FEFF 		bl	LCD_Char_Position
 307              	.LVL11:
 175:main.c        ****         char8 displayB[] = "bad";
 308              		.loc 1 175 0
 309 0094 02A8     		add	r0, sp, #8
 310 0096 0B4B     		ldr	r3, .L20+24
 311 0098 40F8083D 		str	r3, [r0, #-8]!
 176:main.c        ****         LCD_Char_PrintString(displayB);
 312              		.loc 1 176 0
 313 009c FFF7FEFF 		bl	LCD_Char_PrintString
 314              	.LVL12:
 177:main.c        ****         decodeWrong = 0;
 315              		.loc 1 177 0
 316 00a0 0022     		movs	r2, #0
 317 00a2 024B     		ldr	r3, .L20
 318 00a4 9A73     		strb	r2, [r3, #14]
 319              	.L14:
 320              	.LBE3:
 178:main.c        ****     }
 179:main.c        **** }//end Display()
 321              		.loc 1 179 0
 322 00a6 03B0     		add	sp, sp, #12
 323              		.cfi_def_cfa_offset 12
 324              		@ sp needed
 325 00a8 30BD     		pop	{r4, r5, pc}
 326              	.L21:
 327 00aa 00BF     		.align	2
 328              	.L20:
 329 00ac 00000000 		.word	.LANCHOR0
 330 00b0 00000000 		.word	.LC0
 331 00b4 00000000 		.word	OutputString
 332 00b8 10000000 		.word	.LC1
 333 00bc 14000000 		.word	.LC2
 334 00c0 1C000000 		.word	.LC3
ARM GAS  C:\Users\sdysart\AppData\Local\Temp\ccgFZeFa.s 			page 10


 335 00c4 62616400 		.word	6578530
 336              		.cfi_endproc
 337              	.LFE66:
 338              		.size	Display, .-Display
 339              		.section	.text.main,"ax",%progbits
 340              		.align	2
 341              		.global	main
 342              		.thumb
 343              		.thumb_func
 344              		.type	main, %function
 345              	main:
 346              	.LFB64:
  50:main.c        ****     /* Enable global interrupts. */
 347              		.loc 1 50 0
 348              		.cfi_startproc
 349              		@ Volatile: function does not return.
 350              		@ args = 0, pretend = 0, frame = 0
 351              		@ frame_needed = 0, uses_anonymous_args = 0
 352 0000 08B5     		push	{r3, lr}
 353              		.cfi_def_cfa_offset 8
 354              		.cfi_offset 3, -8
 355              		.cfi_offset 14, -4
  52:main.c        **** 
 356              		.loc 1 52 0
 357              		.syntax unified
 358              	@ 52 "main.c" 1
 359 0002 62B6     		CPSIE   i
 360              	@ 0 "" 2
  55:main.c        ****     //BPF_Comp_Start();
 361              		.loc 1 55 0
 362              		.thumb
 363              		.syntax unified
 364 0004 FFF7FEFF 		bl	PWM_Recon_Start
 365              	.LVL13:
  57:main.c        ****     Out_Comp_Start();
 366              		.loc 1 57 0
 367 0008 FFF7FEFF 		bl	Shift_Reg_Start
 368              	.LVL14:
  58:main.c        ****     Bit_Timer_Start();
 369              		.loc 1 58 0
 370 000c FFF7FEFF 		bl	Out_Comp_Start
 371              	.LVL15:
  59:main.c        ****     Timer_ISR_StartEx(Bit_Timer);
 372              		.loc 1 59 0
 373 0010 FFF7FEFF 		bl	Bit_Timer_Start
 374              	.LVL16:
  60:main.c        ****     LCD_Char_Start();
 375              		.loc 1 60 0
 376 0014 0B48     		ldr	r0, .L25
 377 0016 FFF7FEFF 		bl	Timer_ISR_StartEx
 378              	.LVL17:
  61:main.c        **** 
 379              		.loc 1 61 0
 380 001a FFF7FEFF 		bl	LCD_Char_Start
 381              	.LVL18:
  64:main.c        ****     LCD_Char_Position(0u,0u); // Resets cursor to top of LCD Screen
 382              		.loc 1 64 0
ARM GAS  C:\Users\sdysart\AppData\Local\Temp\ccgFZeFa.s 			page 11


 383 001e 0A4D     		ldr	r5, .L25+4
 384 0020 0A4C     		ldr	r4, .L25+8
 385 0022 0FCC     		ldmia	r4!, {r0, r1, r2, r3}
 386 0024 2860     		str	r0, [r5]	@ unaligned
 387 0026 6960     		str	r1, [r5, #4]	@ unaligned
 388 0028 AA60     		str	r2, [r5, #8]	@ unaligned
 389 002a EB60     		str	r3, [r5, #12]	@ unaligned
 390 002c 2388     		ldrh	r3, [r4]	@ unaligned
 391 002e 2B82     		strh	r3, [r5, #16]	@ unaligned
  65:main.c        ****     LCD_Char_PrintString(display);
 392              		.loc 1 65 0
 393 0030 0021     		movs	r1, #0
 394 0032 0846     		mov	r0, r1
 395 0034 FFF7FEFF 		bl	LCD_Char_Position
 396              	.LVL19:
  66:main.c        **** 
 397              		.loc 1 66 0
 398 0038 2846     		mov	r0, r5
 399 003a FFF7FEFF 		bl	LCD_Char_PrintString
 400              	.LVL20:
 401              	.L23:
  70:main.c        ****     } // end of for(;;)
 402              		.loc 1 70 0 discriminator 1
 403 003e FFF7FEFF 		bl	Display
 404              	.LVL21:
 405 0042 FCE7     		b	.L23
 406              	.L26:
 407              		.align	2
 408              	.L25:
 409 0044 00000000 		.word	Bit_Timer
 410 0048 00000000 		.word	display
 411 004c 24000000 		.word	.LC4
 412              		.cfi_endproc
 413              	.LFE64:
 414              		.size	main, .-main
 415              		.comm	display,12,4
 416              		.comm	OutputString,12,4
 417              		.section	.rodata.str1.4,"aMS",%progbits,1
 418              		.align	2
 419              	.LC0:
 420 0000 30784646 		.ascii	"0xFF pre-fix\000"
 420      20707265 
 420      2D666978 
 420      00
 421 000d 000000   		.space	3
 422              	.LC1:
 423 0010 256900   		.ascii	"%i\000"
 424 0013 00       		.space	1
 425              	.LC2:
 426 0014 20637261 		.ascii	" crabs\000"
 426      627300
 427 001b 00       		.space	1
 428              	.LC3:
 429 001c 676F6F64 		.ascii	"good\000"
 429      00
 430 0021 000000   		.space	3
 431              	.LC4:
ARM GAS  C:\Users\sdysart\AppData\Local\Temp\ccgFZeFa.s 			page 12


 432 0024 636F756E 		.ascii	"counting crabs...\000"
 432      74696E67 
 432      20637261 
 432      62732E2E 
 432      2E00
 433              		.bss
 434              		.align	1
 435              		.set	.LANCHOR0,. + 0
 436              		.type	levelCounter, %object
 437              		.size	levelCounter, 2
 438              	levelCounter:
 439 0000 0000     		.space	2
 440              		.type	oneCount, %object
 441              		.size	oneCount, 2
 442              	oneCount:
 443 0002 0000     		.space	2
 444              		.type	zeroCount, %object
 445              		.size	zeroCount, 1
 446              	zeroCount:
 447 0004 00       		.space	1
 448              		.type	currentBit, %object
 449              		.size	currentBit, 1
 450              	currentBit:
 451 0005 00       		.space	1
 452              		.type	dataCount, %object
 453              		.size	dataCount, 1
 454              	dataCount:
 455 0006 00       		.space	1
 456              		.type	data, %object
 457              		.size	data, 1
 458              	data:
 459 0007 00       		.space	1
 460              		.type	dataFlag, %object
 461              		.size	dataFlag, 1
 462              	dataFlag:
 463 0008 00       		.space	1
 464              		.type	decodeFlag, %object
 465              		.size	decodeFlag, 1
 466              	decodeFlag:
 467 0009 00       		.space	1
 468              		.type	lcdFlagEncode, %object
 469              		.size	lcdFlagEncode, 1
 470              	lcdFlagEncode:
 471 000a 00       		.space	1
 472              		.type	crabs, %object
 473              		.size	crabs, 1
 474              	crabs:
 475 000b 00       		.space	1
 476              		.type	lcdFlagData, %object
 477              		.size	lcdFlagData, 1
 478              	lcdFlagData:
 479 000c 00       		.space	1
 480              		.type	lcdFlagDecode, %object
 481              		.size	lcdFlagDecode, 1
 482              	lcdFlagDecode:
 483 000d 00       		.space	1
 484              		.type	decodeWrong, %object
ARM GAS  C:\Users\sdysart\AppData\Local\Temp\ccgFZeFa.s 			page 13


 485              		.size	decodeWrong, 1
 486              	decodeWrong:
 487 000e 00       		.space	1
 488              		.text
 489              	.Letext0:
 490              		.file 2 "c:\\program files (x86)\\cypress\\psoc creator\\4.1\\psoc creator\\import\\gnu\\arm\\5.4.
 491              		.file 3 "c:\\program files (x86)\\cypress\\psoc creator\\4.1\\psoc creator\\import\\gnu\\arm\\5.4.
 492              		.file 4 "Generated_Source\\PSoC5/cytypes.h"
 493              		.file 5 "Generated_Source\\PSoC5/core_cm3.h"
 494              		.file 6 "Generated_Source\\PSoC5/Out_Comp.h"
 495              		.file 7 "Generated_Source\\PSoC5/Count_Out.h"
 496              		.file 8 "Generated_Source\\PSoC5/LCD_Char.h"
 497              		.file 9 "c:\\program files (x86)\\cypress\\psoc creator\\4.1\\psoc creator\\import\\gnu\\arm\\5.4.
 498              		.file 10 "Generated_Source\\PSoC5/PWM_Recon.h"
 499              		.file 11 "Generated_Source\\PSoC5/Shift_Reg.h"
 500              		.file 12 "Generated_Source\\PSoC5/Bit_Timer.h"
 501              		.file 13 "Generated_Source\\PSoC5/Timer_ISR.h"