ARM GAS  C:\Users\sdysart\AppData\Local\Temp\ccVYafZh.s 			page 1


   1              		.syntax unified
   2              		.cpu cortex-m3
   3              		.fpu softvfp
   4              		.eabi_attribute 20, 1
   5              		.eabi_attribute 21, 1
   6              		.eabi_attribute 23, 3
   7              		.eabi_attribute 24, 1
   8              		.eabi_attribute 25, 1
   9              		.eabi_attribute 26, 1
  10              		.eabi_attribute 30, 6
  11              		.eabi_attribute 34, 1
  12              		.eabi_attribute 18, 4
  13              		.thumb
  14              		.syntax unified
  15              		.file	"main.c"
  16              		.text
  17              	.Ltext0:
  18              		.cfi_sections	.debug_frame
  19              		.syntax unified
  20              		.global _printf_float
  21              		.thumb
  22              		.syntax unified
  23              		.global	parity
  24              		.section	.rodata
  25              		.align	2
  26              	.LC0:
  27 0000 4E6F6E65 		.ascii	"None\000"
  27      00
  28 0005 000000   		.align	2
  29              	.LC1:
  30 0008 4F646400 		.ascii	"Odd\000"
  31              		.align	2
  32              	.LC2:
  33 000c 4576656E 		.ascii	"Even\000"
  33      00
  34 0011 000000   		.align	2
  35              	.LC3:
  36 0014 4D61726B 		.ascii	"Mark\000"
  36      00
  37 0019 000000   		.align	2
  38              	.LC4:
  39 001c 53706163 		.ascii	"Space\000"
  39      6500
  40              		.data
  41              		.align	2
  42              		.type	parity, %object
  43              		.size	parity, 20
  44              	parity:
  45 0000 00000000 		.word	.LC0
  46 0004 08000000 		.word	.LC1
  47 0008 0C000000 		.word	.LC2
  48 000c 14000000 		.word	.LC3
  49 0010 1C000000 		.word	.LC4
  50              		.global	stop
  51              		.section	.rodata
  52 0022 0000     		.align	2
  53              	.LC5:
ARM GAS  C:\Users\sdysart\AppData\Local\Temp\ccVYafZh.s 			page 2


  54 0024 3100     		.ascii	"1\000"
  55 0026 0000     		.align	2
  56              	.LC6:
  57 0028 312E3500 		.ascii	"1.5\000"
  58              		.align	2
  59              	.LC7:
  60 002c 3200     		.ascii	"2\000"
  61              		.data
  62              		.align	2
  63              		.type	stop, %object
  64              		.size	stop, 12
  65              	stop:
  66 0014 24000000 		.word	.LC5
  67 0018 28000000 		.word	.LC6
  68 001c 2C000000 		.word	.LC7
  69              		.section	.rodata
  70 002e 0000     		.align	2
  71              	.LC8:
  72 0030 20202020 		.ascii	"                    \000"
  72      20202020 
  72      20202020 
  72      20202020 
  72      20202020 
  73 0045 000000   		.align	2
  74              	.LC9:
  75 0048 42523A25 		.ascii	"BR:%4ld %d%c%s\000"
  75      346C6420 
  75      25642563 
  75      257300
  76 0057 00       		.align	2
  77              	.LC10:
  78 0058 4F4E00   		.ascii	"ON\000"
  79 005b 00       		.align	2
  80              	.LC11:
  81 005c 4F464600 		.ascii	"OFF\000"
  82              		.align	2
  83              	.LC12:
  84 0060 4454523A 		.ascii	"DTR:%s,RTS:%s\000"
  84      25732C52 
  84      54533A25 
  84      7300
  85              		.section	.text.main,"ax",%progbits
  86              		.align	2
  87              		.global	main
  88              		.thumb
  89              		.thumb_func
  90              		.type	main, %function
  91              	main:
  92              	.LFB64:
  93              		.file 1 "main.c"
   1:main.c        **** /*******************************************************************************
   2:main.c        **** * File Name: main.c
   3:main.c        **** *
   4:main.c        **** * Version: 2.0
   5:main.c        **** *
   6:main.c        **** * Description:
   7:main.c        **** *   The component is enumerated as a Virtual Com port. Receives data from the 
ARM GAS  C:\Users\sdysart\AppData\Local\Temp\ccVYafZh.s 			page 3


   8:main.c        **** *   hyper terminal, then sends back the received data.
   9:main.c        **** *   For PSoC3/PSoC5LP, the LCD shows the line settings.
  10:main.c        **** *
  11:main.c        **** * Related Document:
  12:main.c        **** *  Universal Serial Bus Specification Revision 2.0
  13:main.c        **** *  Universal Serial Bus Class Definitions for Communications Devices
  14:main.c        **** *  Revision 1.2
  15:main.c        **** *
  16:main.c        **** ********************************************************************************
  17:main.c        **** * Copyright 2015, Cypress Semiconductor Corporation. All rights reserved.
  18:main.c        **** * This software is owned by Cypress Semiconductor Corporation and is protected
  19:main.c        **** * by and subject to worldwide patent and copyright laws and treaties.
  20:main.c        **** * Therefore, you may use this software only as provided in the license agreement
  21:main.c        **** * accompanying the software package from which you obtained this software.
  22:main.c        **** * CYPRESS AND ITS SUPPLIERS MAKE NO WARRANTY OF ANY KIND, EXPRESS OR IMPLIED,
  23:main.c        **** * WITH REGARD TO THIS SOFTWARE, INCLUDING, BUT NOT LIMITED TO, NONINFRINGEMENT,
  24:main.c        **** * IMPLIED WARRANTIES OF MERCHANTABILITY AND FITNESS FOR A PARTICULAR PURPOSE.
  25:main.c        **** *******************************************************************************/
  26:main.c        **** 
  27:main.c        **** #include <project.h>
  28:main.c        **** #include "stdio.h"
  29:main.c        **** 
  30:main.c        **** #if defined (__GNUC__)
  31:main.c        ****     /* Add an explicit reference to the floating point printf library */
  32:main.c        ****     /* to allow usage of the floating point conversion specifiers. */
  33:main.c        ****     /* This is not linked in by default with the newlib-nano library. */
  34:main.c        ****     asm (".global _printf_float");
  35:main.c        **** #endif
  36:main.c        **** 
  37:main.c        **** #define USBFS_DEVICE    (0u)
  38:main.c        **** 
  39:main.c        **** /* The buffer size is equal to the maximum packet size of the IN and OUT bulk
  40:main.c        **** * endpoints.
  41:main.c        **** */
  42:main.c        **** #define USBUART_BUFFER_SIZE (64u)
  43:main.c        **** #define LINE_STR_LENGTH     (20u)
  44:main.c        **** 
  45:main.c        **** char8* parity[] = {"None", "Odd", "Even", "Mark", "Space"};
  46:main.c        **** char8* stop[]   = {"1", "1.5", "2"};
  47:main.c        **** 
  48:main.c        **** 
  49:main.c        **** /*******************************************************************************
  50:main.c        **** * Function Name: main
  51:main.c        **** ********************************************************************************
  52:main.c        **** *
  53:main.c        **** * Summary:
  54:main.c        **** *  The main function performs the following actions:
  55:main.c        **** *   1. Waits until VBUS becomes valid and starts the USBFS component which is
  56:main.c        **** *      enumerated as virtual Com port.
  57:main.c        **** *   2. Waits until the device is enumerated by the host.
  58:main.c        **** *   3. Waits for data coming from the hyper terminal and sends it back.
  59:main.c        **** *   4. PSoC3/PSoC5LP: the LCD shows the line settings.
  60:main.c        **** *
  61:main.c        **** * Parameters:
  62:main.c        **** *  None.
  63:main.c        **** *
  64:main.c        **** * Return:
ARM GAS  C:\Users\sdysart\AppData\Local\Temp\ccVYafZh.s 			page 4


  65:main.c        **** *  None.
  66:main.c        **** *
  67:main.c        **** *******************************************************************************/
  68:main.c        **** int main()
  69:main.c        **** {
  94              		.loc 1 69 0
  95              		.cfi_startproc
  96              		@ args = 0, pretend = 0, frame = 88
  97              		@ frame_needed = 1, uses_anonymous_args = 0
  98 0000 F0B5     		push	{r4, r5, r6, r7, lr}
  99              		.cfi_def_cfa_offset 20
 100              		.cfi_offset 4, -20
 101              		.cfi_offset 5, -16
 102              		.cfi_offset 6, -12
 103              		.cfi_offset 7, -8
 104              		.cfi_offset 14, -4
 105 0002 99B0     		sub	sp, sp, #100
 106              		.cfi_def_cfa_offset 120
 107 0004 02AF     		add	r7, sp, #8
 108              		.cfi_def_cfa 7, 112
  70:main.c        ****     uint16 count;
  71:main.c        ****     uint8 buffer[USBUART_BUFFER_SIZE];
  72:main.c        ****     
  73:main.c        **** #if (CY_PSOC3 || CY_PSOC5LP)
  74:main.c        ****     uint8 state;
  75:main.c        ****     char8 lineStr[LINE_STR_LENGTH];
  76:main.c        ****     
  77:main.c        ****     LCD_Start();
 109              		.loc 1 77 0
 110 0006 FFF7FEFF 		bl	LCD_Start
  78:main.c        **** #endif /* (CY_PSOC3 || CY_PSOC5LP) */
  79:main.c        ****     
  80:main.c        ****     CyGlobalIntEnable;
 111              		.loc 1 80 0
 112              		.syntax unified
 113              	@ 80 "main.c" 1
 114 000a 62B6     		CPSIE   i
 115              	@ 0 "" 2
  81:main.c        **** 
  82:main.c        ****     /* Start USBFS operation with 5-V operation. */
  83:main.c        ****     USBUART_Start(USBFS_DEVICE, USBUART_5V_OPERATION);
 116              		.loc 1 83 0
 117              		.thumb
 118              		.syntax unified
 119 000c 0121     		movs	r1, #1
 120 000e 0020     		movs	r0, #0
 121 0010 FFF7FEFF 		bl	USBUART_Start
 122              	.L12:
  84:main.c        ****     
  85:main.c        ****     for(;;)
  86:main.c        ****     {
  87:main.c        ****         /* Host can send double SET_INTERFACE request. */
  88:main.c        ****         if (0u != USBUART_IsConfigurationChanged())
 123              		.loc 1 88 0
 124 0014 FFF7FEFF 		bl	USBUART_IsConfigurationChanged
 125 0018 0346     		mov	r3, r0
 126 001a 002B     		cmp	r3, #0
ARM GAS  C:\Users\sdysart\AppData\Local\Temp\ccVYafZh.s 			page 5


 127 001c 06D0     		beq	.L2
  89:main.c        ****         {
  90:main.c        ****             /* Initialize IN endpoints when device is configured. */
  91:main.c        ****             if (0u != USBUART_GetConfiguration())
 128              		.loc 1 91 0
 129 001e FFF7FEFF 		bl	USBUART_GetConfiguration
 130 0022 0346     		mov	r3, r0
 131 0024 002B     		cmp	r3, #0
 132 0026 01D0     		beq	.L2
  92:main.c        ****             {
  93:main.c        ****                 /* Enumeration is done, enable OUT endpoint to receive data 
  94:main.c        ****                  * from host. */
  95:main.c        ****                 USBUART_CDC_Init();
 133              		.loc 1 95 0
 134 0028 FFF7FEFF 		bl	USBUART_CDC_Init
 135              	.L2:
  96:main.c        ****             }
  97:main.c        ****         }
  98:main.c        **** 
  99:main.c        ****         /* Service USB CDC when device is configured. */
 100:main.c        ****         if (0u != USBUART_GetConfiguration())
 136              		.loc 1 100 0
 137 002c FFF7FEFF 		bl	USBUART_GetConfiguration
 138 0030 0346     		mov	r3, r0
 139 0032 002B     		cmp	r3, #0
 140 0034 EED0     		beq	.L12
 101:main.c        ****         {
 102:main.c        ****             /* Check for input data from host. */
 103:main.c        ****             if (0u != USBUART_DataIsReady())
 141              		.loc 1 103 0
 142 0036 FFF7FEFF 		bl	USBUART_DataIsReady
 143 003a 0346     		mov	r3, r0
 144 003c 002B     		cmp	r3, #0
 145 003e 3DD0     		beq	.L4
 104:main.c        ****             {
 105:main.c        ****                 /* Read received data and re-enable OUT endpoint. */
 106:main.c        ****                 count = USBUART_GetAll(buffer);
 146              		.loc 1 106 0
 147 0040 07F11403 		add	r3, r7, #20
 148 0044 1846     		mov	r0, r3
 149 0046 FFF7FEFF 		bl	USBUART_GetAll
 150 004a 0346     		mov	r3, r0
 151 004c A7F85430 		strh	r3, [r7, #84]	@ movhi
 107:main.c        ****                 
 108:main.c        ****                 sprintf(lineStr,buffer);
 152              		.loc 1 108 0
 153 0050 07F11402 		add	r2, r7, #20
 154 0054 3B46     		mov	r3, r7
 155 0056 1146     		mov	r1, r2
 156 0058 1846     		mov	r0, r3
 157 005a FFF7FEFF 		bl	sprintf
 109:main.c        **** 
 110:main.c        ****                     /* Clear LCD line. */
 111:main.c        ****                     LCD_Position(0u, 0u);
 158              		.loc 1 111 0
 159 005e 0021     		movs	r1, #0
 160 0060 0020     		movs	r0, #0
ARM GAS  C:\Users\sdysart\AppData\Local\Temp\ccVYafZh.s 			page 6


 161 0062 FFF7FEFF 		bl	LCD_Position
 112:main.c        ****                     LCD_PrintString(lineStr);
 162              		.loc 1 112 0
 163 0066 3B46     		mov	r3, r7
 164 0068 1846     		mov	r0, r3
 165 006a FFF7FEFF 		bl	LCD_PrintString
 113:main.c        **** 
 114:main.c        ****                 if (0u != count)
 166              		.loc 1 114 0
 167 006e B7F85430 		ldrh	r3, [r7, #84]
 168 0072 002B     		cmp	r3, #0
 169 0074 22D0     		beq	.L4
 115:main.c        ****                 {
 116:main.c        ****                     /* Wait until component is ready to send data to host. */
 117:main.c        ****                     while (0u == USBUART_CDCIsReady())
 170              		.loc 1 117 0
 171 0076 00BF     		nop
 172              	.L5:
 173              		.loc 1 117 0 is_stmt 0 discriminator 1
 174 0078 FFF7FEFF 		bl	USBUART_CDCIsReady
 175 007c 0346     		mov	r3, r0
 176 007e 002B     		cmp	r3, #0
 177 0080 FAD0     		beq	.L5
 118:main.c        ****                     {
 119:main.c        ****                     }
 120:main.c        **** 
 121:main.c        ****                     /* Send data back to host. */
 122:main.c        ****                     USBUART_PutData(buffer, count);
 178              		.loc 1 122 0 is_stmt 1
 179 0082 B7F85420 		ldrh	r2, [r7, #84]
 180 0086 07F11403 		add	r3, r7, #20
 181 008a 1146     		mov	r1, r2
 182 008c 1846     		mov	r0, r3
 183 008e FFF7FEFF 		bl	USBUART_PutData
 123:main.c        **** 
 124:main.c        **** 
 125:main.c        ****                     /* If the last sent packet is exactly the maximum packet 
 126:main.c        ****                     *  size, it is followed by a zero-length packet to assure
 127:main.c        ****                     *  that the end of the segment is properly identified by 
 128:main.c        ****                     *  the terminal.
 129:main.c        ****                     */
 130:main.c        ****                     if (USBUART_BUFFER_SIZE == count)
 184              		.loc 1 130 0
 185 0092 B7F85430 		ldrh	r3, [r7, #84]
 186 0096 402B     		cmp	r3, #64
 187 0098 10D1     		bne	.L4
 131:main.c        ****                     {
 132:main.c        ****                         /* Wait until component is ready to send data to PC. */
 133:main.c        ****                         while (0u == USBUART_CDCIsReady())
 188              		.loc 1 133 0
 189 009a 00BF     		nop
 190              	.L6:
 191              		.loc 1 133 0 is_stmt 0 discriminator 1
 192 009c FFF7FEFF 		bl	USBUART_CDCIsReady
 193 00a0 0346     		mov	r3, r0
 194 00a2 002B     		cmp	r3, #0
 195 00a4 FAD0     		beq	.L6
ARM GAS  C:\Users\sdysart\AppData\Local\Temp\ccVYafZh.s 			page 7


 134:main.c        ****                         {
 135:main.c        ****                         }
 136:main.c        ****                         
 137:main.c        ****                         /* Clear LCD line. */
 138:main.c        ****                         LCD_Position(1u, 0u);
 196              		.loc 1 138 0 is_stmt 1
 197 00a6 0021     		movs	r1, #0
 198 00a8 0120     		movs	r0, #1
 199 00aa FFF7FEFF 		bl	LCD_Position
 139:main.c        ****                         LCD_PrintString("                    ");
 200              		.loc 1 139 0
 201 00ae 3B48     		ldr	r0, .L13
 202 00b0 FFF7FEFF 		bl	LCD_PrintString
 140:main.c        **** 
 141:main.c        ****                         /* Send zero-length packet to PC. */
 142:main.c        ****                         USBUART_PutData(NULL, 0u);
 203              		.loc 1 142 0
 204 00b4 0021     		movs	r1, #0
 205 00b6 0020     		movs	r0, #0
 206 00b8 FFF7FEFF 		bl	USBUART_PutData
 207              	.L4:
 143:main.c        ****                     }
 144:main.c        ****                 }
 145:main.c        ****             }
 146:main.c        **** 
 147:main.c        **** 
 148:main.c        ****         #if (CY_PSOC3 || CY_PSOC5LP)
 149:main.c        ****             /* Check for Line settings change. */
 150:main.c        ****             state = USBUART_IsLineChanged();
 208              		.loc 1 150 0
 209 00bc FFF7FEFF 		bl	USBUART_IsLineChanged
 210 00c0 0346     		mov	r3, r0
 211 00c2 87F85730 		strb	r3, [r7, #87]
 151:main.c        ****             if (0u != state)
 212              		.loc 1 151 0
 213 00c6 97F85730 		ldrb	r3, [r7, #87]	@ zero_extendqisi2
 214 00ca 002B     		cmp	r3, #0
 215 00cc A2D0     		beq	.L12
 152:main.c        ****             {
 153:main.c        ****                 /* Output on LCD Line Coding settings. */
 154:main.c        ****                 if (0u != (state & USBUART_LINE_CODING_CHANGED))
 216              		.loc 1 154 0
 217 00ce 97F85730 		ldrb	r3, [r7, #87]	@ zero_extendqisi2
 218 00d2 03F00103 		and	r3, r3, #1
 219 00d6 002B     		cmp	r3, #0
 220 00d8 2DD0     		beq	.L7
 155:main.c        ****                 {                  
 156:main.c        ****                     /* Get string to output. */
 157:main.c        ****                     sprintf(lineStr,"BR:%4ld %d%c%s", USBUART_GetDTERate(),\
 221              		.loc 1 157 0
 222 00da FFF7FEFF 		bl	USBUART_GetDTERate
 223 00de 0546     		mov	r5, r0
 158:main.c        ****                                    (uint16) USBUART_GetDataBits(),\
 224              		.loc 1 158 0
 225 00e0 FFF7FEFF 		bl	USBUART_GetDataBits
 226 00e4 0346     		mov	r3, r0
 157:main.c        ****                                    (uint16) USBUART_GetDataBits(),\
ARM GAS  C:\Users\sdysart\AppData\Local\Temp\ccVYafZh.s 			page 8


 227              		.loc 1 157 0
 228 00e6 1E46     		mov	r6, r3
 159:main.c        ****                                    parity[(uint16) USBUART_GetParityType()][0],\
 229              		.loc 1 159 0
 230 00e8 FFF7FEFF 		bl	USBUART_GetParityType
 231 00ec 0346     		mov	r3, r0
 232 00ee 1A46     		mov	r2, r3
 233 00f0 2B4B     		ldr	r3, .L13+4
 234 00f2 53F82230 		ldr	r3, [r3, r2, lsl #2]
 235 00f6 1B78     		ldrb	r3, [r3]	@ zero_extendqisi2
 157:main.c        ****                                    (uint16) USBUART_GetDataBits(),\
 236              		.loc 1 157 0
 237 00f8 1C46     		mov	r4, r3
 160:main.c        ****                                    stop[(uint16) USBUART_GetCharFormat()]);
 238              		.loc 1 160 0
 239 00fa FFF7FEFF 		bl	USBUART_GetCharFormat
 240 00fe 0346     		mov	r3, r0
 157:main.c        ****                                    (uint16) USBUART_GetDataBits(),\
 241              		.loc 1 157 0
 242 0100 1A46     		mov	r2, r3
 243 0102 284B     		ldr	r3, .L13+8
 244 0104 53F82230 		ldr	r3, [r3, r2, lsl #2]
 245 0108 3846     		mov	r0, r7
 246 010a 0193     		str	r3, [sp, #4]
 247 010c 0094     		str	r4, [sp]
 248 010e 3346     		mov	r3, r6
 249 0110 2A46     		mov	r2, r5
 250 0112 2549     		ldr	r1, .L13+12
 251 0114 FFF7FEFF 		bl	sprintf
 161:main.c        **** 
 162:main.c        ****                     /* Clear LCD line. */
 163:main.c        ****                     LCD_Position(0u, 0u);
 252              		.loc 1 163 0
 253 0118 0021     		movs	r1, #0
 254 011a 0020     		movs	r0, #0
 255 011c FFF7FEFF 		bl	LCD_Position
 164:main.c        ****                     LCD_PrintString("                    ");
 256              		.loc 1 164 0
 257 0120 1E48     		ldr	r0, .L13
 258 0122 FFF7FEFF 		bl	LCD_PrintString
 165:main.c        **** 
 166:main.c        ****                     /* Output string on LCD. */
 167:main.c        ****                     LCD_Position(0u, 0u);
 259              		.loc 1 167 0
 260 0126 0021     		movs	r1, #0
 261 0128 0020     		movs	r0, #0
 262 012a FFF7FEFF 		bl	LCD_Position
 168:main.c        ****                     LCD_PrintString(lineStr);
 263              		.loc 1 168 0
 264 012e 3B46     		mov	r3, r7
 265 0130 1846     		mov	r0, r3
 266 0132 FFF7FEFF 		bl	LCD_PrintString
 267              	.L7:
 169:main.c        ****                 }
 170:main.c        **** 
 171:main.c        ****                 /* Output on LCD Line Control settings. */
 172:main.c        ****                 if (0u != (state & USBUART_LINE_CONTROL_CHANGED))
ARM GAS  C:\Users\sdysart\AppData\Local\Temp\ccVYafZh.s 			page 9


 268              		.loc 1 172 0
 269 0136 97F85730 		ldrb	r3, [r7, #87]	@ zero_extendqisi2
 270 013a 03F00203 		and	r3, r3, #2
 271 013e 002B     		cmp	r3, #0
 272 0140 3FF468AF 		beq	.L12
 173:main.c        ****                 {                   
 174:main.c        ****                     /* Get string to output. */
 175:main.c        ****                     state = USBUART_GetLineControl();
 273              		.loc 1 175 0
 274 0144 FFF7FEFF 		bl	USBUART_GetLineControl
 275 0148 0346     		mov	r3, r0
 276 014a 87F85730 		strb	r3, [r7, #87]
 176:main.c        ****                     sprintf(lineStr,"DTR:%s,RTS:%s",  (0u != (state & USBUART_LINE_CONTROL_DTR)) ? 
 277              		.loc 1 176 0
 278 014e 97F85730 		ldrb	r3, [r7, #87]	@ zero_extendqisi2
 279 0152 03F00103 		and	r3, r3, #1
 280 0156 002B     		cmp	r3, #0
 281 0158 01D0     		beq	.L8
 282              		.loc 1 176 0 is_stmt 0 discriminator 1
 283 015a 144A     		ldr	r2, .L13+16
 284 015c 00E0     		b	.L9
 285              	.L8:
 286              		.loc 1 176 0 discriminator 2
 287 015e 144A     		ldr	r2, .L13+20
 288              	.L9:
 177:main.c        ****                                                       (0u != (state & USBUART_LINE_CONTROL_RTS)) ? 
 289              		.loc 1 177 0 is_stmt 1 discriminator 4
 290 0160 97F85730 		ldrb	r3, [r7, #87]	@ zero_extendqisi2
 291 0164 03F00203 		and	r3, r3, #2
 176:main.c        ****                     sprintf(lineStr,"DTR:%s,RTS:%s",  (0u != (state & USBUART_LINE_CONTROL_DTR)) ? 
 292              		.loc 1 176 0 discriminator 4
 293 0168 002B     		cmp	r3, #0
 294 016a 01D0     		beq	.L10
 176:main.c        ****                     sprintf(lineStr,"DTR:%s,RTS:%s",  (0u != (state & USBUART_LINE_CONTROL_DTR)) ? 
 295              		.loc 1 176 0 is_stmt 0 discriminator 5
 296 016c 0F4B     		ldr	r3, .L13+16
 297 016e 00E0     		b	.L11
 298              	.L10:
 176:main.c        ****                     sprintf(lineStr,"DTR:%s,RTS:%s",  (0u != (state & USBUART_LINE_CONTROL_DTR)) ? 
 299              		.loc 1 176 0 discriminator 6
 300 0170 0F4B     		ldr	r3, .L13+20
 301              	.L11:
 176:main.c        ****                     sprintf(lineStr,"DTR:%s,RTS:%s",  (0u != (state & USBUART_LINE_CONTROL_DTR)) ? 
 302              		.loc 1 176 0 discriminator 8
 303 0172 3846     		mov	r0, r7
 304 0174 0F49     		ldr	r1, .L13+24
 305 0176 FFF7FEFF 		bl	sprintf
 178:main.c        **** 
 179:main.c        ****                     /* Clear LCD line. */
 180:main.c        ****                     LCD_Position(1u, 0u);
 306              		.loc 1 180 0 is_stmt 1 discriminator 8
 307 017a 0021     		movs	r1, #0
 308 017c 0120     		movs	r0, #1
 309 017e FFF7FEFF 		bl	LCD_Position
 181:main.c        ****                     LCD_PrintString("                    ");
 310              		.loc 1 181 0 discriminator 8
 311 0182 0648     		ldr	r0, .L13
ARM GAS  C:\Users\sdysart\AppData\Local\Temp\ccVYafZh.s 			page 10


 312 0184 FFF7FEFF 		bl	LCD_PrintString
 182:main.c        **** 
 183:main.c        ****                     /* Output string on LCD. */
 184:main.c        ****                     LCD_Position(1u, 0u);
 313              		.loc 1 184 0 discriminator 8
 314 0188 0021     		movs	r1, #0
 315 018a 0120     		movs	r0, #1
 316 018c FFF7FEFF 		bl	LCD_Position
 185:main.c        ****                     LCD_PrintString(lineStr);
 317              		.loc 1 185 0 discriminator 8
 318 0190 3B46     		mov	r3, r7
 319 0192 1846     		mov	r0, r3
 320 0194 FFF7FEFF 		bl	LCD_PrintString
 186:main.c        ****                 }
 187:main.c        ****             }
 188:main.c        ****         #endif /* (CY_PSOC3 || CY_PSOC5LP) */
 189:main.c        ****         }
 190:main.c        ****     }
 321              		.loc 1 190 0 discriminator 8
 322 0198 3CE7     		b	.L12
 323              	.L14:
 324 019a 00BF     		.align	2
 325              	.L13:
 326 019c 30000000 		.word	.LC8
 327 01a0 00000000 		.word	parity
 328 01a4 00000000 		.word	stop
 329 01a8 48000000 		.word	.LC9
 330 01ac 58000000 		.word	.LC10
 331 01b0 5C000000 		.word	.LC11
 332 01b4 60000000 		.word	.LC12
 333              		.cfi_endproc
 334              	.LFE64:
 335              		.size	main, .-main
 336              		.text
 337              	.Letext0:
 338              		.file 2 "c:\\program files (x86)\\cypress\\psoc creator\\4.1\\psoc creator\\import\\gnu\\arm\\5.4.
 339              		.file 3 "c:\\program files (x86)\\cypress\\psoc creator\\4.1\\psoc creator\\import\\gnu\\arm\\5.4.
 340              		.file 4 "Generated_Source\\PSoC5/cytypes.h"
 341              		.file 5 "Generated_Source\\PSoC5/core_cm3.h"