ARM GAS  C:\Users\sdysart\AppData\Local\Temp\ccn1Numh.s 			page 1


   1              		.syntax unified
   2              		.cpu cortex-m3
   3              		.fpu softvfp
   4              		.eabi_attribute 20, 1
   5              		.eabi_attribute 21, 1
   6              		.eabi_attribute 23, 3
   7              		.eabi_attribute 24, 1
   8              		.eabi_attribute 25, 1
   9              		.eabi_attribute 26, 1
  10              		.eabi_attribute 30, 1
  11              		.eabi_attribute 34, 1
  12              		.eabi_attribute 18, 4
  13              		.thumb
  14              		.syntax unified
  15              		.file	"main.c"
  16              		.text
  17              	.Ltext0:
  18              		.cfi_sections	.debug_frame
  19              		.syntax unified
  20              		.global _printf_float
  21              		.thumb
  22              		.syntax unified
  23              		.section	.text.RxIsr,"ax",%progbits
  24              		.align	2
  25              		.global	RxIsr
  26              		.thumb
  27              		.thumb_func
  28              		.type	RxIsr, %function
  29              	RxIsr:
  30              	.LFB64:
  31              		.file 1 "main.c"
   1:main.c        **** /*****************************************************************************
   2:main.c        **** * File Name: main.c
   3:main.c        **** *
   4:main.c        **** * Version: 1.10
   5:main.c        **** *
   6:main.c        **** * Description: 
   7:main.c        **** *  This code example project demonstrates how to communicate between 
   8:main.c        **** *  the PC and UART component in Full duplex mode. The UART has receiver(RX) and 
   9:main.c        **** *  transmitter(TX) part. The data received by RX is looped back to the TX.
  10:main.c        **** *
  11:main.c        **** * Related Document: 
  12:main.c        **** * CE210741_UART_Full_Duplex_and_printf_Support_with_PSoC_3_4_5LP.pdf
  13:main.c        **** *
  14:main.c        **** * Hardware Dependency: See 
  15:main.c        **** * CE210741_UART_Full_Duplex_and_printf_Support_with_PSoC_3_4_5LP.pdf
  16:main.c        **** *
  17:main.c        **** *******************************************************************************
  18:main.c        **** * Copyright (2017), Cypress Semiconductor Corporation. All rights reserved.
  19:main.c        **** *******************************************************************************
  20:main.c        **** * This software, including source code, documentation and related materials
  21:main.c        **** * (“Software”), is owned by Cypress Semiconductor Corporation or one of its
  22:main.c        **** * subsidiaries (“Cypress”) and is protected by and subject to worldwide patent
  23:main.c        **** * protection (United States and foreign), United States copyright laws and
  24:main.c        **** * international treaty provisions. Therefore, you may use this Software only
  25:main.c        **** * as provided in the license agreement accompanying the software package from
  26:main.c        **** * which you obtained this Software (“EULA”).
ARM GAS  C:\Users\sdysart\AppData\Local\Temp\ccn1Numh.s 			page 2


  27:main.c        **** *
  28:main.c        **** * If no EULA applies, Cypress hereby grants you a personal, non-exclusive,
  29:main.c        **** * non-transferable license to copy, modify, and compile the Software source
  30:main.c        **** * code solely for use in connection with Cypress’s integrated circuit products.
  31:main.c        **** * Any reproduction, modification, translation, compilation, or representation
  32:main.c        **** * of this Software except as specified above is prohibited without the express
  33:main.c        **** * written permission of Cypress.
  34:main.c        **** *
  35:main.c        **** * Disclaimer: THIS SOFTWARE IS PROVIDED AS-IS, WITH NO WARRANTY OF ANY KIND, 
  36:main.c        **** * EXPRESS OR IMPLIED, INCLUDING, BUT NOT LIMITED TO, NONINFRINGEMENT, IMPLIED 
  37:main.c        **** * WARRANTIES OF MERCHANTABILITY AND FITNESS FOR A PARTICULAR PURPOSE. Cypress 
  38:main.c        **** * reserves the right to make changes to the Software without notice. Cypress 
  39:main.c        **** * does not assume any liability arising out of the application or use of the 
  40:main.c        **** * Software or any product or circuit described in the Software. Cypress does 
  41:main.c        **** * not authorize its products for use in any products where a malfunction or 
  42:main.c        **** * failure of the Cypress product may reasonably be expected to result in 
  43:main.c        **** * significant property damage, injury or death (“High Risk Product”). By 
  44:main.c        **** * including Cypress’s product in a High Risk Product, the manufacturer of such 
  45:main.c        **** * system or application assumes all risk of such use and in doing so agrees to 
  46:main.c        **** * indemnify Cypress against all liability. 
  47:main.c        **** *******************************************************************************/
  48:main.c        **** 
  49:main.c        **** #include <project.h>
  50:main.c        **** #include <stdio.h>
  51:main.c        **** #include "common.h"
  52:main.c        **** #include "stdlib.h"
  53:main.c        **** 
  54:main.c        **** #define LINE_STR_LENGTH     (20u)
  55:main.c        **** 
  56:main.c        **** 
  57:main.c        **** /* Add an explicit reference to the floating point printf library to allow
  58:main.c        **** the usage of floating point conversion specifier */
  59:main.c        **** #if defined (__GNUC__)
  60:main.c        ****     asm (".global _printf_float");
  61:main.c        **** #endif
  62:main.c        **** 
  63:main.c        **** uint8 errorStatus = 0u;
  64:main.c        **** char8 data[LINE_STR_LENGTH];
  65:main.c        **** 
  66:main.c        **** 
  67:main.c        **** /*******************************************************************************
  68:main.c        **** * Function Name: RxIsr
  69:main.c        **** ********************************************************************************
  70:main.c        **** *
  71:main.c        **** * Summary:
  72:main.c        **** *  Interrupt Service Routine for RX portion of the UART
  73:main.c        **** *
  74:main.c        **** * Parameters:
  75:main.c        **** *  None.
  76:main.c        **** *
  77:main.c        **** * Return:
  78:main.c        **** *  None.
  79:main.c        **** *
  80:main.c        **** *******************************************************************************/
  81:main.c        **** CY_ISR(RxIsr)
  82:main.c        **** {
  32              		.loc 1 82 0
ARM GAS  C:\Users\sdysart\AppData\Local\Temp\ccn1Numh.s 			page 3


  33              		.cfi_startproc
  34              		@ args = 0, pretend = 0, frame = 0
  35              		@ frame_needed = 0, uses_anonymous_args = 0
  36 0000 70B5     		push	{r4, r5, r6, lr}
  37              		.cfi_def_cfa_offset 16
  38              		.cfi_offset 4, -16
  39              		.cfi_offset 5, -12
  40              		.cfi_offset 6, -8
  41              		.cfi_offset 14, -4
  42              	.L4:
  83:main.c        ****     uint8 rxStatus;         
  84:main.c        ****     uint8 rxData;           
  85:main.c        ****     
  86:main.c        ****     do
  87:main.c        ****     {
  88:main.c        ****         /* Read receiver status register */
  89:main.c        ****         rxStatus = UART_RXSTATUS_REG;
  43              		.loc 1 89 0
  44 0002 184B     		ldr	r3, .L6
  45 0004 1B78     		ldrb	r3, [r3]	@ zero_extendqisi2
  46 0006 DBB2     		uxtb	r3, r3
  47              	.LVL0:
  90:main.c        **** 
  91:main.c        ****         if((rxStatus & (UART_RX_STS_BREAK      | UART_RX_STS_PAR_ERROR |
  48              		.loc 1 91 0
  49 0008 13F01E0F 		tst	r3, #30
  50 000c 05D0     		beq	.L2
  92:main.c        ****                         UART_RX_STS_STOP_ERROR | UART_RX_STS_OVERRUN)) != 0u)
  93:main.c        ****         {
  94:main.c        ****             /* ERROR handling. */
  95:main.c        ****             errorStatus |= rxStatus & ( UART_RX_STS_BREAK      | UART_RX_STS_PAR_ERROR | 
  51              		.loc 1 95 0
  52 000e 1648     		ldr	r0, .L6+4
  53 0010 03F01E02 		and	r2, r3, #30
  54 0014 0178     		ldrb	r1, [r0]	@ zero_extendqisi2
  55 0016 0A43     		orrs	r2, r2, r1
  56 0018 0270     		strb	r2, [r0]
  57              	.L2:
  58 001a 03F02003 		and	r3, r3, #32
  59              	.LVL1:
  96:main.c        ****                                         UART_RX_STS_STOP_ERROR | UART_RX_STS_OVERRUN);
  97:main.c        ****         }
  98:main.c        ****         
  99:main.c        ****         if((rxStatus & UART_RX_STS_FIFO_NOTEMPTY) != 0u)
  60              		.loc 1 99 0
  61 001e 03F0FF04 		and	r4, r3, #255
  62 0022 DBB1     		cbz	r3, .L3
 100:main.c        ****         {
 101:main.c        ****             /* Read data from the RX data register */
 102:main.c        ****             rxData = UART_RXDATA_REG;
  63              		.loc 1 102 0
  64 0024 114B     		ldr	r3, .L6+8
  65 0026 1A78     		ldrb	r2, [r3]	@ zero_extendqisi2
  66 0028 D5B2     		uxtb	r5, r2
  67              	.LVL2:
 103:main.c        ****             if(errorStatus == 0u)
  68              		.loc 1 103 0
ARM GAS  C:\Users\sdysart\AppData\Local\Temp\ccn1Numh.s 			page 4


  69 002a 0F4B     		ldr	r3, .L6+4
  70 002c 1B78     		ldrb	r3, [r3]	@ zero_extendqisi2
  71 002e ABB9     		cbnz	r3, .L3
 104:main.c        ****             {
 105:main.c        ****                 /* Send data backward */
 106:main.c        ****                 UART_TXDATA_REG = rxData;
  72              		.loc 1 106 0
  73 0030 0F4B     		ldr	r3, .L6+12
  74 0032 1D70     		strb	r5, [r3]
 107:main.c        ****                 /* Clear LCD line. */
 108:main.c        ****                 LCD_Position(0u, 0u);
  75              		.loc 1 108 0
  76 0034 0021     		movs	r1, #0
  77 0036 0846     		mov	r0, r1
  78 0038 FFF7FEFF 		bl	LCD_Position
  79              	.LVL3:
 109:main.c        ****                 sprintf(data,"Crabs: %d", rxData);
  80              		.loc 1 109 0
  81 003c 0D4E     		ldr	r6, .L6+16
  82 003e 2A46     		mov	r2, r5
  83 0040 0D49     		ldr	r1, .L6+20
  84 0042 3046     		mov	r0, r6
  85 0044 FFF7FEFF 		bl	sprintf
  86              	.LVL4:
 110:main.c        ****                 LCD_PrintString("             ");
  87              		.loc 1 110 0
  88 0048 0C48     		ldr	r0, .L6+24
  89 004a FFF7FEFF 		bl	LCD_PrintString
  90              	.LVL5:
 111:main.c        **** 
 112:main.c        ****                 /* Output string on LCD. */
 113:main.c        ****                 LCD_Position(0u, 0u);
  91              		.loc 1 113 0
  92 004e 0021     		movs	r1, #0
  93 0050 0846     		mov	r0, r1
  94 0052 FFF7FEFF 		bl	LCD_Position
  95              	.LVL6:
 114:main.c        ****                 LCD_PrintString(data);
  96              		.loc 1 114 0
  97 0056 3046     		mov	r0, r6
  98 0058 FFF7FEFF 		bl	LCD_PrintString
  99              	.LVL7:
 100              	.L3:
 115:main.c        ****             }
 116:main.c        ****         }
 117:main.c        ****     }while((rxStatus & UART_RX_STS_FIFO_NOTEMPTY) != 0u);
 101              		.loc 1 117 0
 102 005c 002C     		cmp	r4, #0
 103 005e D0D1     		bne	.L4
 118:main.c        **** 
 119:main.c        **** }
 104              		.loc 1 119 0
 105 0060 70BD     		pop	{r4, r5, r6, pc}
 106              	.L7:
 107 0062 00BF     		.align	2
 108              	.L6:
 109 0064 69650040 		.word	1073767785
ARM GAS  C:\Users\sdysart\AppData\Local\Temp\ccn1Numh.s 			page 5


 110 0068 00000000 		.word	.LANCHOR0
 111 006c 48650040 		.word	1073767752
 112 0070 4B650040 		.word	1073767755
 113 0074 00000000 		.word	data
 114 0078 00000000 		.word	.LC0
 115 007c 0C000000 		.word	.LC1
 116              		.cfi_endproc
 117              	.LFE64:
 118              		.size	RxIsr, .-RxIsr
 119              		.section	.text.main,"ax",%progbits
 120              		.align	2
 121              		.global	main
 122              		.thumb
 123              		.thumb_func
 124              		.type	main, %function
 125              	main:
 126              	.LFB65:
 120:main.c        ****     
 121:main.c        **** 
 122:main.c        **** /*******************************************************************************
 123:main.c        **** * Function Name: main()
 124:main.c        **** ********************************************************************************
 125:main.c        **** * Summary:
 126:main.c        **** *  Main function for the project.
 127:main.c        **** *
 128:main.c        **** * Theory:
 129:main.c        **** *  The function starts UART and interrupt components.
 130:main.c        **** *
 131:main.c        **** *******************************************************************************/
 132:main.c        **** int main()
 133:main.c        **** {
 127              		.loc 1 133 0
 128              		.cfi_startproc
 129              		@ args = 0, pretend = 0, frame = 0
 130              		@ frame_needed = 0, uses_anonymous_args = 0
 131 0000 08B5     		push	{r3, lr}
 132              		.cfi_def_cfa_offset 8
 133              		.cfi_offset 3, -8
 134              		.cfi_offset 14, -4
 135              	.LVL8:
 134:main.c        ****     uint8 button = 0u;
 135:main.c        ****     uint8 buttonPre = 0u;
 136:main.c        ****     
 137:main.c        **** 
 138:main.c        ****     UART_Start();           /* Start communication component */
 136              		.loc 1 138 0
 137 0002 FFF7FEFF 		bl	UART_Start
 138              	.LVL9:
 139:main.c        ****     UART_PutString("UART Full Duplex and printf() support Code Example Project \r\n");
 139              		.loc 1 139 0
 140 0006 0F48     		ldr	r0, .L12
 141 0008 FFF7FEFF 		bl	UART_PutString
 142              	.LVL10:
 140:main.c        **** 
 141:main.c        **** #if(INTERRUPT_CODE_ENABLED == ENABLED)
 142:main.c        ****     isr_rx_StartEx(RxIsr);
 143              		.loc 1 142 0
ARM GAS  C:\Users\sdysart\AppData\Local\Temp\ccn1Numh.s 			page 6


 144 000c 0E48     		ldr	r0, .L12+4
 145 000e FFF7FEFF 		bl	isr_rx_StartEx
 146              	.LVL11:
 143:main.c        **** #endif /* INTERRUPT_CODE_ENABLED == ENABLED */
 144:main.c        ****     
 145:main.c        ****     CyGlobalIntEnable;      /* Enable global interrupts. */
 147              		.loc 1 145 0
 148              		.syntax unified
 149              	@ 145 "main.c" 1
 150 0012 62B6     		CPSIE   i
 151              	@ 0 "" 2
 146:main.c        ****     /*Block initializations*/
 147:main.c        ****     LCD_Start();
 152              		.loc 1 147 0
 153              		.thumb
 154              		.syntax unified
 155 0014 FFF7FEFF 		bl	LCD_Start
 156              	.LVL12:
 148:main.c        ****     
 149:main.c        ****     /* Clear LCD line. */
 150:main.c        ****     LCD_Position(0u, 0u);
 157              		.loc 1 150 0
 158 0018 0021     		movs	r1, #0
 159 001a 0846     		mov	r0, r1
 160 001c FFF7FEFF 		bl	LCD_Position
 161              	.LVL13:
 151:main.c        ****     LCD_PrintString("                    ");
 162              		.loc 1 151 0
 163 0020 0A48     		ldr	r0, .L12+8
 164 0022 FFF7FEFF 		bl	LCD_PrintString
 165              	.LVL14:
 152:main.c        **** 
 153:main.c        ****     /* Output string on LCD. */
 154:main.c        ****     LCD_Position(0u, 0u);
 166              		.loc 1 154 0
 167 0026 0021     		movs	r1, #0
 168 0028 0846     		mov	r0, r1
 169 002a FFF7FEFF 		bl	LCD_Position
 170              	.LVL15:
 155:main.c        ****     LCD_PrintString("Hello");
 171              		.loc 1 155 0
 172 002e 0848     		ldr	r0, .L12+12
 173 0030 FFF7FEFF 		bl	LCD_PrintString
 174              	.LVL16:
 175              	.L9:
 156:main.c        **** 
 157:main.c        ****     
 158:main.c        **** 
 159:main.c        ****     for(;;)
 160:main.c        ****     {
 161:main.c        ****         if(errorStatus != 0u)
 176              		.loc 1 161 0
 177 0034 074B     		ldr	r3, .L12+16
 178 0036 1B78     		ldrb	r3, [r3]	@ zero_extendqisi2
 179 0038 002B     		cmp	r3, #0
 180 003a FBD0     		beq	.L9
 162:main.c        ****         {
ARM GAS  C:\Users\sdysart\AppData\Local\Temp\ccn1Numh.s 			page 7


 163:main.c        ****             /* Clear error status */
 164:main.c        ****             errorStatus = 0u;
 181              		.loc 1 164 0
 182 003c 0022     		movs	r2, #0
 183 003e 054B     		ldr	r3, .L12+16
 184 0040 1A70     		strb	r2, [r3]
 185 0042 F7E7     		b	.L9
 186              	.L13:
 187              		.align	2
 188              	.L12:
 189 0044 1C000000 		.word	.LC2
 190 0048 00000000 		.word	RxIsr
 191 004c 5C000000 		.word	.LC3
 192 0050 74000000 		.word	.LC4
 193 0054 00000000 		.word	.LANCHOR0
 194              		.cfi_endproc
 195              	.LFE65:
 196              		.size	main, .-main
 197              		.comm	data,20,4
 198              		.global	errorStatus
 199              		.section	.rodata.str1.4,"aMS",%progbits,1
 200              		.align	2
 201              	.LC0:
 202 0000 43726162 		.ascii	"Crabs: %d\000"
 202      733A2025 
 202      6400
 203 000a 0000     		.space	2
 204              	.LC1:
 205 000c 20202020 		.ascii	"             \000"
 205      20202020 
 205      20202020 
 205      2000
 206 001a 0000     		.space	2
 207              	.LC2:
 208 001c 55415254 		.ascii	"UART Full Duplex and printf() support Code Example "
 208      2046756C 
 208      6C204475 
 208      706C6578 
 208      20616E64 
 209 004f 50726F6A 		.ascii	"Project \015\012\000"
 209      65637420 
 209      0D0A00
 210 005a 0000     		.space	2
 211              	.LC3:
 212 005c 20202020 		.ascii	"                    \000"
 212      20202020 
 212      20202020 
 212      20202020 
 212      20202020 
 213 0071 000000   		.space	3
 214              	.LC4:
 215 0074 48656C6C 		.ascii	"Hello\000"
 215      6F00
 216              		.bss
 217              		.set	.LANCHOR0,. + 0
 218              		.type	errorStatus, %object
 219              		.size	errorStatus, 1
ARM GAS  C:\Users\sdysart\AppData\Local\Temp\ccn1Numh.s 			page 8


 220              	errorStatus:
 221 0000 00       		.space	1
 222              		.text
 223              	.Letext0:
 224              		.file 2 "c:\\program files (x86)\\cypress\\psoc creator\\4.1\\psoc creator\\import\\gnu\\arm\\5.4.
 225              		.file 3 "c:\\program files (x86)\\cypress\\psoc creator\\4.1\\psoc creator\\import\\gnu\\arm\\5.4.
 226              		.file 4 "Generated_Source\\PSoC5/cytypes.h"
 227              		.file 5 "Generated_Source\\PSoC5/core_cm3.h"
 228              		.file 6 "Generated_Source\\PSoC5/LCD.h"
 229              		.file 7 "c:\\program files (x86)\\cypress\\psoc creator\\4.1\\psoc creator\\import\\gnu\\arm\\5.4.
 230              		.file 8 "Generated_Source\\PSoC5/UART.h"
 231              		.file 9 "Generated_Source\\PSoC5/isr_rx.h"