ARM GAS  C:\Users\User\AppData\Local\Temp\ccb68437.s 			page 1


   1              		.cpu cortex-m0
   2              		.fpu softvfp
   3              		.eabi_attribute 20, 1
   4              		.eabi_attribute 21, 1
   5              		.eabi_attribute 23, 3
   6              		.eabi_attribute 24, 1
   7              		.eabi_attribute 25, 1
   8              		.eabi_attribute 26, 1
   9              		.eabi_attribute 30, 4
  10              		.eabi_attribute 34, 0
  11              		.eabi_attribute 18, 4
  12              		.code	16
  13              		.file	"ADC_1.c"
  14              		.text
  15              	.Ltext0:
  16              		.cfi_sections	.debug_frame
  17              		.section	.text.ADC_1_Init,"ax",%progbits
  18              		.align	1
  19              		.global	ADC_1_Init
  20              		.code	16
  21              		.thumb_func
  22              		.type	ADC_1_Init, %function
  23              	ADC_1_Init:
  24              	.LFB1:
  25              		.file 1 ".\\Generated_Source\\PSoC4\\ADC_1.c"
   1:.\Generated_Source\PSoC4/ADC_1.c **** /*******************************************************************************
   2:.\Generated_Source\PSoC4/ADC_1.c **** * File Name: ADC_1.c
   3:.\Generated_Source\PSoC4/ADC_1.c **** * Version 2.30
   4:.\Generated_Source\PSoC4/ADC_1.c **** *
   5:.\Generated_Source\PSoC4/ADC_1.c **** * Description:
   6:.\Generated_Source\PSoC4/ADC_1.c **** *  This file provides the source code to the API for the Sequencing Successive
   7:.\Generated_Source\PSoC4/ADC_1.c **** *  Approximation ADC Component Component.
   8:.\Generated_Source\PSoC4/ADC_1.c **** *
   9:.\Generated_Source\PSoC4/ADC_1.c **** * Note:
  10:.\Generated_Source\PSoC4/ADC_1.c **** *
  11:.\Generated_Source\PSoC4/ADC_1.c **** ********************************************************************************
  12:.\Generated_Source\PSoC4/ADC_1.c **** * Copyright 2008-2015, Cypress Semiconductor Corporation.  All rights reserved.
  13:.\Generated_Source\PSoC4/ADC_1.c **** * You may use this file only in accordance with the license, terms, conditions,
  14:.\Generated_Source\PSoC4/ADC_1.c **** * disclaimers, and limitations in the end user license agreement accompanying
  15:.\Generated_Source\PSoC4/ADC_1.c **** * the software package with which this file was provided.
  16:.\Generated_Source\PSoC4/ADC_1.c **** *******************************************************************************/
  17:.\Generated_Source\PSoC4/ADC_1.c **** 
  18:.\Generated_Source\PSoC4/ADC_1.c **** #include "ADC_1.h"
  19:.\Generated_Source\PSoC4/ADC_1.c **** 
  20:.\Generated_Source\PSoC4/ADC_1.c **** 
  21:.\Generated_Source\PSoC4/ADC_1.c **** /***************************************
  22:.\Generated_Source\PSoC4/ADC_1.c **** * Global data allocation
  23:.\Generated_Source\PSoC4/ADC_1.c **** ***************************************/
  24:.\Generated_Source\PSoC4/ADC_1.c **** uint8 ADC_1_initVar = 0u;
  25:.\Generated_Source\PSoC4/ADC_1.c **** volatile int16 ADC_1_offset[ADC_1_TOTAL_CHANNELS_NUM];
  26:.\Generated_Source\PSoC4/ADC_1.c **** volatile int32 ADC_1_countsPer10Volt[ADC_1_TOTAL_CHANNELS_NUM];   /* Gain compensation */
  27:.\Generated_Source\PSoC4/ADC_1.c **** 
  28:.\Generated_Source\PSoC4/ADC_1.c **** 
  29:.\Generated_Source\PSoC4/ADC_1.c **** /***************************************
  30:.\Generated_Source\PSoC4/ADC_1.c **** * Local data allocation
  31:.\Generated_Source\PSoC4/ADC_1.c **** ***************************************/
  32:.\Generated_Source\PSoC4/ADC_1.c **** /* Channels configuration generated by customiser */
ARM GAS  C:\Users\User\AppData\Local\Temp\ccb68437.s 			page 2


  33:.\Generated_Source\PSoC4/ADC_1.c **** static const uint32 CYCODE ADC_1_channelsConfig[] = { 0x00000701u };
  34:.\Generated_Source\PSoC4/ADC_1.c **** 
  35:.\Generated_Source\PSoC4/ADC_1.c **** 
  36:.\Generated_Source\PSoC4/ADC_1.c **** /*******************************************************************************
  37:.\Generated_Source\PSoC4/ADC_1.c **** * Function Name: ADC_1_Start
  38:.\Generated_Source\PSoC4/ADC_1.c **** ********************************************************************************
  39:.\Generated_Source\PSoC4/ADC_1.c **** *
  40:.\Generated_Source\PSoC4/ADC_1.c **** * Summary:
  41:.\Generated_Source\PSoC4/ADC_1.c **** *  Performs all required initialization for this component
  42:.\Generated_Source\PSoC4/ADC_1.c **** *  and enables the power. The power will be set to the appropriate
  43:.\Generated_Source\PSoC4/ADC_1.c **** *  power based on the clock frequency.
  44:.\Generated_Source\PSoC4/ADC_1.c **** *
  45:.\Generated_Source\PSoC4/ADC_1.c **** * Parameters:
  46:.\Generated_Source\PSoC4/ADC_1.c **** *  None.
  47:.\Generated_Source\PSoC4/ADC_1.c **** *
  48:.\Generated_Source\PSoC4/ADC_1.c **** * Return:
  49:.\Generated_Source\PSoC4/ADC_1.c **** *  None.
  50:.\Generated_Source\PSoC4/ADC_1.c **** *
  51:.\Generated_Source\PSoC4/ADC_1.c **** * Global variables:
  52:.\Generated_Source\PSoC4/ADC_1.c **** *  The ADC_1_initVar variable is used to indicate when/if initial
  53:.\Generated_Source\PSoC4/ADC_1.c **** *  configuration of this component has happened. The variable is initialized to
  54:.\Generated_Source\PSoC4/ADC_1.c **** *  zero and set to 1 the first time ADC_Start() is called. This allows for
  55:.\Generated_Source\PSoC4/ADC_1.c **** *  component Re-Start without re-initialization in all subsequent calls to the
  56:.\Generated_Source\PSoC4/ADC_1.c **** *  ADC_1_Start() routine.
  57:.\Generated_Source\PSoC4/ADC_1.c **** *  If re-initialization of the component is required the variable should be set
  58:.\Generated_Source\PSoC4/ADC_1.c **** *  to zero before call of ADC_1_Start() routine, or the user may call
  59:.\Generated_Source\PSoC4/ADC_1.c **** *  ADC_1_Init() and ADC_1_Enable() as done in the
  60:.\Generated_Source\PSoC4/ADC_1.c **** *  ADC_1_Start() routine.
  61:.\Generated_Source\PSoC4/ADC_1.c **** *
  62:.\Generated_Source\PSoC4/ADC_1.c **** *******************************************************************************/
  63:.\Generated_Source\PSoC4/ADC_1.c **** void ADC_1_Start(void)
  64:.\Generated_Source\PSoC4/ADC_1.c **** {
  65:.\Generated_Source\PSoC4/ADC_1.c ****     /* If not Initialized then initialize all required hardware and software */
  66:.\Generated_Source\PSoC4/ADC_1.c ****     if(ADC_1_initVar == 0u)
  67:.\Generated_Source\PSoC4/ADC_1.c ****     {
  68:.\Generated_Source\PSoC4/ADC_1.c ****         ADC_1_Init();
  69:.\Generated_Source\PSoC4/ADC_1.c ****         ADC_1_initVar = 1u;
  70:.\Generated_Source\PSoC4/ADC_1.c ****     }
  71:.\Generated_Source\PSoC4/ADC_1.c ****     ADC_1_Enable();
  72:.\Generated_Source\PSoC4/ADC_1.c **** }
  73:.\Generated_Source\PSoC4/ADC_1.c **** 
  74:.\Generated_Source\PSoC4/ADC_1.c **** 
  75:.\Generated_Source\PSoC4/ADC_1.c **** /*******************************************************************************
  76:.\Generated_Source\PSoC4/ADC_1.c **** * Function Name: ADC_1_Init
  77:.\Generated_Source\PSoC4/ADC_1.c **** ********************************************************************************
  78:.\Generated_Source\PSoC4/ADC_1.c **** *
  79:.\Generated_Source\PSoC4/ADC_1.c **** * Summary:
  80:.\Generated_Source\PSoC4/ADC_1.c **** *  Initialize component's parameters to the parameters set by user in the
  81:.\Generated_Source\PSoC4/ADC_1.c **** *  customizer of the component placed onto schematic. Usually called in
  82:.\Generated_Source\PSoC4/ADC_1.c **** *  ADC_1_Start().
  83:.\Generated_Source\PSoC4/ADC_1.c **** *
  84:.\Generated_Source\PSoC4/ADC_1.c **** * Parameters:
  85:.\Generated_Source\PSoC4/ADC_1.c **** *  None.
  86:.\Generated_Source\PSoC4/ADC_1.c **** *
  87:.\Generated_Source\PSoC4/ADC_1.c **** * Return:
  88:.\Generated_Source\PSoC4/ADC_1.c **** *  None.
  89:.\Generated_Source\PSoC4/ADC_1.c **** *
ARM GAS  C:\Users\User\AppData\Local\Temp\ccb68437.s 			page 3


  90:.\Generated_Source\PSoC4/ADC_1.c **** * Global variables:
  91:.\Generated_Source\PSoC4/ADC_1.c **** *  The ADC_1_offset variable is initialized.
  92:.\Generated_Source\PSoC4/ADC_1.c **** *
  93:.\Generated_Source\PSoC4/ADC_1.c **** *******************************************************************************/
  94:.\Generated_Source\PSoC4/ADC_1.c **** void ADC_1_Init(void)
  95:.\Generated_Source\PSoC4/ADC_1.c **** {
  26              		.loc 1 95 0
  27              		.cfi_startproc
  28 0000 70B5     		push	{r4, r5, r6, lr}
  29              		.cfi_def_cfa_offset 16
  30              		.cfi_offset 4, -16
  31              		.cfi_offset 5, -12
  32              		.cfi_offset 6, -8
  33              		.cfi_offset 14, -4
  96:.\Generated_Source\PSoC4/ADC_1.c ****     uint32 chNum;
  97:.\Generated_Source\PSoC4/ADC_1.c ****     uint32 tmpRegVal;
  98:.\Generated_Source\PSoC4/ADC_1.c ****     int32 counts;
  99:.\Generated_Source\PSoC4/ADC_1.c **** 
 100:.\Generated_Source\PSoC4/ADC_1.c ****     #if(ADC_1_TOTAL_CHANNELS_NUM > 1u)
 101:.\Generated_Source\PSoC4/ADC_1.c ****         static const uint8 CYCODE ADC_1_InputsPlacement[] =
 102:.\Generated_Source\PSoC4/ADC_1.c ****         {
 103:.\Generated_Source\PSoC4/ADC_1.c ****             (uint8)(ADC_1_cy_psoc4_sarmux_8__CH_0_PORT << 4u) |
 104:.\Generated_Source\PSoC4/ADC_1.c ****             (uint8)ADC_1_cy_psoc4_sarmux_8__CH_0_PIN
 105:.\Generated_Source\PSoC4/ADC_1.c ****             ,(uint8)(ADC_1_cy_psoc4_sarmux_8__CH_1_PORT << 4u) |
 106:.\Generated_Source\PSoC4/ADC_1.c ****              (uint8)ADC_1_cy_psoc4_sarmux_8__CH_1_PIN
 107:.\Generated_Source\PSoC4/ADC_1.c ****             #if(ADC_1_TOTAL_CHANNELS_NUM > 2u)
 108:.\Generated_Source\PSoC4/ADC_1.c ****                 ,(uint8)(ADC_1_cy_psoc4_sarmux_8__CH_2_PORT << 4u) |
 109:.\Generated_Source\PSoC4/ADC_1.c ****                  (uint8)ADC_1_cy_psoc4_sarmux_8__CH_2_PIN
 110:.\Generated_Source\PSoC4/ADC_1.c ****             #endif /* End ADC_1_TOTAL_CHANNELS_NUM > 2u */
 111:.\Generated_Source\PSoC4/ADC_1.c ****             #if(ADC_1_TOTAL_CHANNELS_NUM > 3u)
 112:.\Generated_Source\PSoC4/ADC_1.c ****                 ,(uint8)(ADC_1_cy_psoc4_sarmux_8__CH_3_PORT << 4u) |
 113:.\Generated_Source\PSoC4/ADC_1.c ****                  (uint8)ADC_1_cy_psoc4_sarmux_8__CH_3_PIN
 114:.\Generated_Source\PSoC4/ADC_1.c ****             #endif /* End ADC_1_TOTAL_CHANNELS_NUM > 3u */
 115:.\Generated_Source\PSoC4/ADC_1.c ****             #if(ADC_1_TOTAL_CHANNELS_NUM > 4u)
 116:.\Generated_Source\PSoC4/ADC_1.c ****                 ,(uint8)(ADC_1_cy_psoc4_sarmux_8__CH_4_PORT << 4u) |
 117:.\Generated_Source\PSoC4/ADC_1.c ****                  (uint8)ADC_1_cy_psoc4_sarmux_8__CH_4_PIN
 118:.\Generated_Source\PSoC4/ADC_1.c ****             #endif /* End ADC_1_TOTAL_CHANNELS_NUM > 4u */
 119:.\Generated_Source\PSoC4/ADC_1.c ****             #if(ADC_1_TOTAL_CHANNELS_NUM > 5u)
 120:.\Generated_Source\PSoC4/ADC_1.c ****                 ,(uint8)(ADC_1_cy_psoc4_sarmux_8__CH_5_PORT << 4u) |
 121:.\Generated_Source\PSoC4/ADC_1.c ****                  (uint8)ADC_1_cy_psoc4_sarmux_8__CH_5_PIN
 122:.\Generated_Source\PSoC4/ADC_1.c ****             #endif /* End ADC_1_TOTAL_CHANNELS_NUM > 5u */
 123:.\Generated_Source\PSoC4/ADC_1.c ****             #if(ADC_1_TOTAL_CHANNELS_NUM > 6u)
 124:.\Generated_Source\PSoC4/ADC_1.c ****                 ,(uint8)(ADC_1_cy_psoc4_sarmux_8__CH_6_PORT << 4u) |
 125:.\Generated_Source\PSoC4/ADC_1.c ****                  (uint8)ADC_1_cy_psoc4_sarmux_8__CH_6_PIN
 126:.\Generated_Source\PSoC4/ADC_1.c ****             #endif /* End ADC_1_TOTAL_CHANNELS_NUM > 6u */
 127:.\Generated_Source\PSoC4/ADC_1.c ****             #if(ADC_1_TOTAL_CHANNELS_NUM > 7u)
 128:.\Generated_Source\PSoC4/ADC_1.c ****                 ,(uint8)(ADC_1_cy_psoc4_sarmux_8__CH_7_PORT << 4u) |
 129:.\Generated_Source\PSoC4/ADC_1.c ****                  (uint8)ADC_1_cy_psoc4_sarmux_8__CH_7_PIN
 130:.\Generated_Source\PSoC4/ADC_1.c ****             #endif /* End ADC_1_TOTAL_CHANNELS_NUM > 7u */
 131:.\Generated_Source\PSoC4/ADC_1.c ****             #if(ADC_1_TOTAL_CHANNELS_NUM > 8u)
 132:.\Generated_Source\PSoC4/ADC_1.c ****                 ,(uint8)(ADC_1_cy_psoc4_sarmux_8__CH_8_PORT << 4u) |
 133:.\Generated_Source\PSoC4/ADC_1.c ****                  (uint8)ADC_1_cy_psoc4_sarmux_8__CH_8_PIN
 134:.\Generated_Source\PSoC4/ADC_1.c ****             #endif /* End ADC_1_TOTAL_CHANNELS_NUM > 8u */
 135:.\Generated_Source\PSoC4/ADC_1.c ****             #if(ADC_1_TOTAL_CHANNELS_NUM > 9u)
 136:.\Generated_Source\PSoC4/ADC_1.c ****                 ,(uint8)(ADC_1_cy_psoc4_sarmux_8__CH_9_PORT << 4u) |
 137:.\Generated_Source\PSoC4/ADC_1.c ****                  (uint8)ADC_1_cy_psoc4_sarmux_8__CH_9_PIN
 138:.\Generated_Source\PSoC4/ADC_1.c ****             #endif /* End ADC_1_TOTAL_CHANNELS_NUM > 9u */
ARM GAS  C:\Users\User\AppData\Local\Temp\ccb68437.s 			page 4


 139:.\Generated_Source\PSoC4/ADC_1.c ****             #if(ADC_1_TOTAL_CHANNELS_NUM > 10u)
 140:.\Generated_Source\PSoC4/ADC_1.c ****                 ,(uint8)(ADC_1_cy_psoc4_sarmux_8__CH_10_PORT << 4u) |
 141:.\Generated_Source\PSoC4/ADC_1.c ****                  (uint8)ADC_1_cy_psoc4_sarmux_8__CH_10_PIN
 142:.\Generated_Source\PSoC4/ADC_1.c ****             #endif /* End ADC_1_TOTAL_CHANNELS_NUM > 10u */
 143:.\Generated_Source\PSoC4/ADC_1.c ****             #if(ADC_1_TOTAL_CHANNELS_NUM > 11u)
 144:.\Generated_Source\PSoC4/ADC_1.c ****                 ,(uint8)(ADC_1_cy_psoc4_sarmux_8__CH_11_PORT << 4u) |
 145:.\Generated_Source\PSoC4/ADC_1.c ****                  (uint8)ADC_1_cy_psoc4_sarmux_8__CH_11_PIN
 146:.\Generated_Source\PSoC4/ADC_1.c ****             #endif /* End ADC_1_TOTAL_CHANNELS_NUM > 11u */
 147:.\Generated_Source\PSoC4/ADC_1.c ****             #if(ADC_1_TOTAL_CHANNELS_NUM > 12u)
 148:.\Generated_Source\PSoC4/ADC_1.c ****                 ,(uint8)(ADC_1_cy_psoc4_sarmux_8__CH_12_PORT << 4u) |
 149:.\Generated_Source\PSoC4/ADC_1.c ****                  (uint8)ADC_1_cy_psoc4_sarmux_8__CH_12_PIN
 150:.\Generated_Source\PSoC4/ADC_1.c ****             #endif /* End ADC_1_TOTAL_CHANNELS_NUM > 12u */
 151:.\Generated_Source\PSoC4/ADC_1.c ****             #if(ADC_1_TOTAL_CHANNELS_NUM > 13u)
 152:.\Generated_Source\PSoC4/ADC_1.c ****                 ,(uint8)(ADC_1_cy_psoc4_sarmux_8__CH_13_PORT << 4u) |
 153:.\Generated_Source\PSoC4/ADC_1.c ****                  (uint8)ADC_1_cy_psoc4_sarmux_8__CH_13_PIN
 154:.\Generated_Source\PSoC4/ADC_1.c ****             #endif /* End ADC_1_TOTAL_CHANNELS_NUM > 13u */
 155:.\Generated_Source\PSoC4/ADC_1.c ****             #if(ADC_1_TOTAL_CHANNELS_NUM > 14u)
 156:.\Generated_Source\PSoC4/ADC_1.c ****                 ,(uint8)(ADC_1_cy_psoc4_sarmux_8__CH_14_PORT << 4u) |
 157:.\Generated_Source\PSoC4/ADC_1.c ****                  (uint8)ADC_1_cy_psoc4_sarmux_8__CH_14_PIN
 158:.\Generated_Source\PSoC4/ADC_1.c ****             #endif /* End ADC_1_TOTAL_CHANNELS_NUM > 14u */
 159:.\Generated_Source\PSoC4/ADC_1.c ****             #if(ADC_1_TOTAL_CHANNELS_NUM > 15u)
 160:.\Generated_Source\PSoC4/ADC_1.c ****                 ,(uint8)(ADC_1_cy_psoc4_sarmux_8__CH_15_PORT << 4u) |
 161:.\Generated_Source\PSoC4/ADC_1.c ****                  (uint8)ADC_1_cy_psoc4_sarmux_8__CH_15_PIN
 162:.\Generated_Source\PSoC4/ADC_1.c ****             #endif /* End ADC_1_TOTAL_CHANNELS_NUM > 15u */
 163:.\Generated_Source\PSoC4/ADC_1.c ****             #if(ADC_1_TOTAL_CHANNELS_NUM > 16u)
 164:.\Generated_Source\PSoC4/ADC_1.c ****                 ,(uint8)(ADC_1_cy_psoc4_sarmux_8__CH_16_PORT << 4u) |
 165:.\Generated_Source\PSoC4/ADC_1.c ****                  (uint8)ADC_1_cy_psoc4_sarmux_8__CH_16_PIN
 166:.\Generated_Source\PSoC4/ADC_1.c ****             #endif /* End ADC_1_TOTAL_CHANNELS_NUM > 16u */
 167:.\Generated_Source\PSoC4/ADC_1.c ****         };
 168:.\Generated_Source\PSoC4/ADC_1.c ****     #endif /* End ADC_1_TOTAL_CHANNELS_NUM > 1u */
 169:.\Generated_Source\PSoC4/ADC_1.c **** 
 170:.\Generated_Source\PSoC4/ADC_1.c ****     #if(ADC_1_IRQ_REMOVE == 0u)
 171:.\Generated_Source\PSoC4/ADC_1.c ****         /* Start and set interrupt vector */
 172:.\Generated_Source\PSoC4/ADC_1.c ****         CyIntSetPriority(ADC_1_INTC_NUMBER, ADC_1_INTC_PRIOR_NUMBER);
  34              		.loc 1 172 0
  35 0002 0E20     		mov	r0, #14
  36 0004 0321     		mov	r1, #3
  37 0006 FFF7FEFF 		bl	CyIntSetPriority
  38              	.LVL0:
 173:.\Generated_Source\PSoC4/ADC_1.c ****         (void)CyIntSetVector(ADC_1_INTC_NUMBER, &ADC_1_ISR);
  39              		.loc 1 173 0
  40 000a 0E20     		mov	r0, #14
  41 000c 1F49     		ldr	r1, .L5
  42 000e FFF7FEFF 		bl	CyIntSetVector
  43              	.LVL1:
 174:.\Generated_Source\PSoC4/ADC_1.c ****     #endif   /* End ADC_1_IRQ_REMOVE */
 175:.\Generated_Source\PSoC4/ADC_1.c **** 
 176:.\Generated_Source\PSoC4/ADC_1.c ****     /* Init SAR and MUX registers */
 177:.\Generated_Source\PSoC4/ADC_1.c ****     ADC_1_SAR_CHAN_EN_REG = ADC_1_DEFAULT_EN_CHANNELS;
  44              		.loc 1 177 0
  45 0012 0122     		mov	r2, #1
  46 0014 1E4B     		ldr	r3, .L5+4
  47 0016 1A60     		str	r2, [r3]
 178:.\Generated_Source\PSoC4/ADC_1.c ****     ADC_1_SAR_CTRL_REG |= ADC_1_DEFAULT_CTRL_REG_CFG | 
 179:.\Generated_Source\PSoC4/ADC_1.c ****         /* Enable the SAR internal pump when global pump is enabled */
 180:.\Generated_Source\PSoC4/ADC_1.c ****         (((ADC_1_PUMP_CTRL_REG & ADC_1_PUMP_CTRL_ENABLED) != 0u) ? 
  48              		.loc 1 180 0
ARM GAS  C:\Users\User\AppData\Local\Temp\ccb68437.s 			page 5


  49 0018 1E4B     		ldr	r3, .L5+8
  50 001a 1B68     		ldr	r3, [r3]
 178:.\Generated_Source\PSoC4/ADC_1.c ****     ADC_1_SAR_CTRL_REG |= ADC_1_DEFAULT_CTRL_REG_CFG | 
  51              		.loc 1 178 0
  52 001c 002B     		cmp	r3, #0
  53 001e 01DB     		blt	.L3
  54 0020 1D49     		ldr	r1, .L5+12
  55 0022 00E0     		b	.L2
  56              	.L3:
  57 0024 1D49     		ldr	r1, .L5+16
  58              	.L2:
 178:.\Generated_Source\PSoC4/ADC_1.c ****     ADC_1_SAR_CTRL_REG |= ADC_1_DEFAULT_CTRL_REG_CFG | 
  59              		.loc 1 178 0 is_stmt 0 discriminator 4
  60 0026 1E4A     		ldr	r2, .L5+20
 181:.\Generated_Source\PSoC4/ADC_1.c ****         ADC_1_BOOSTPUMP_EN : 0u);
 182:.\Generated_Source\PSoC4/ADC_1.c ****     ADC_1_SAR_SAMPLE_CTRL_REG = ADC_1_DEFAULT_SAMPLE_CTRL_REG_CFG;
 183:.\Generated_Source\PSoC4/ADC_1.c ****     ADC_1_SAR_RANGE_THRES_REG = ADC_1_DEFAULT_RANGE_THRES_REG_CFG;
 184:.\Generated_Source\PSoC4/ADC_1.c ****     ADC_1_SAR_RANGE_COND_REG  = ADC_1_COMPARE_MODE;
 185:.\Generated_Source\PSoC4/ADC_1.c ****     ADC_1_SAR_SAMPLE_TIME01_REG = ADC_1_DEFAULT_SAMPLE_TIME01_REG_CFG;
 186:.\Generated_Source\PSoC4/ADC_1.c ****     ADC_1_SAR_SAMPLE_TIME23_REG = ADC_1_DEFAULT_SAMPLE_TIME23_REG_CFG;
 187:.\Generated_Source\PSoC4/ADC_1.c ****     
 188:.\Generated_Source\PSoC4/ADC_1.c ****     /* Connect Vm to VSSA when even one channel is single-ended or multiple channels configured */
 189:.\Generated_Source\PSoC4/ADC_1.c ****     #if(ADC_1_DEFAULT_MUX_SWITCH0 != 0u)
 190:.\Generated_Source\PSoC4/ADC_1.c ****         ADC_1_MUX_SWITCH0_REG |= ADC_1_DEFAULT_MUX_SWITCH0;
 191:.\Generated_Source\PSoC4/ADC_1.c ****         /* Set MUX_HW_CTRL_VSSA in MUX_SWITCH_HW_CTRL when multiple channels enabled */
 192:.\Generated_Source\PSoC4/ADC_1.c ****         #if(ADC_1_TOTAL_CHANNELS_NUM > 1u)
 193:.\Generated_Source\PSoC4/ADC_1.c ****             ADC_1_MUX_SWITCH_HW_CTRL_REG |= ADC_1_DEFAULT_MUX_SWITCH0;
 194:.\Generated_Source\PSoC4/ADC_1.c ****         #endif /* ADC_1_TOTAL_CHANNELS_NUM > 1u */
 195:.\Generated_Source\PSoC4/ADC_1.c ****     #endif /*ADC_1_CHANNELS_MODE !=0 */
 196:.\Generated_Source\PSoC4/ADC_1.c **** 
 197:.\Generated_Source\PSoC4/ADC_1.c ****     ADC_1_SAR_SATURATE_INTR_MASK_REG = 0u;
 198:.\Generated_Source\PSoC4/ADC_1.c ****     ADC_1_SAR_RANGE_INTR_MASK_REG = 0u;
 199:.\Generated_Source\PSoC4/ADC_1.c ****     ADC_1_SAR_INTR_MASK_REG = ADC_1_SAR_INTR_MASK;
  61              		.loc 1 199 0 is_stmt 1 discriminator 4
  62 0028 0120     		mov	r0, #1
 178:.\Generated_Source\PSoC4/ADC_1.c ****     ADC_1_SAR_CTRL_REG |= ADC_1_DEFAULT_CTRL_REG_CFG | 
  63              		.loc 1 178 0 discriminator 4
  64 002a 1368     		ldr	r3, [r2]
 200:.\Generated_Source\PSoC4/ADC_1.c **** 
 201:.\Generated_Source\PSoC4/ADC_1.c ****     #if(ADC_1_CY_SAR_IP_VER == ADC_1_CY_SAR_IP_VER0)
 202:.\Generated_Source\PSoC4/ADC_1.c ****         ADC_1_ANA_TRIM_REG = ADC_1_TRIM_COEF;
  65              		.loc 1 202 0 discriminator 4
  66 002c 0224     		mov	r4, #2
 178:.\Generated_Source\PSoC4/ADC_1.c ****         /* Enable the SAR internal pump when global pump is enabled */
  67              		.loc 1 178 0 discriminator 4
  68 002e 0B43     		orr	r3, r1
  69 0030 1360     		str	r3, [r2]
 182:.\Generated_Source\PSoC4/ADC_1.c ****     ADC_1_SAR_RANGE_THRES_REG = ADC_1_DEFAULT_RANGE_THRES_REG_CFG;
  70              		.loc 1 182 0 discriminator 4
  71 0032 1C4A     		ldr	r2, .L5+24
  72 0034 1C4B     		ldr	r3, .L5+28
 197:.\Generated_Source\PSoC4/ADC_1.c ****     ADC_1_SAR_RANGE_INTR_MASK_REG = 0u;
  73              		.loc 1 197 0 discriminator 4
  74 0036 1D49     		ldr	r1, .L5+32
 182:.\Generated_Source\PSoC4/ADC_1.c ****     ADC_1_SAR_RANGE_THRES_REG = ADC_1_DEFAULT_RANGE_THRES_REG_CFG;
  75              		.loc 1 182 0 discriminator 4
  76 0038 1A60     		str	r2, [r3]
ARM GAS  C:\Users\User\AppData\Local\Temp\ccb68437.s 			page 6


 183:.\Generated_Source\PSoC4/ADC_1.c ****     ADC_1_SAR_RANGE_COND_REG  = ADC_1_COMPARE_MODE;
  77              		.loc 1 183 0 discriminator 4
  78 003a 1D4A     		ldr	r2, .L5+36
  79 003c 1D4B     		ldr	r3, .L5+40
 203:.\Generated_Source\PSoC4/ADC_1.c ****     #endif /* (ADC_1_CY_SAR_IP_VER == ADC_1_CY_SAR_IP_VER0) */
 204:.\Generated_Source\PSoC4/ADC_1.c **** 
 205:.\Generated_Source\PSoC4/ADC_1.c ****     /* Read and modify default configuration based on characterization */
 206:.\Generated_Source\PSoC4/ADC_1.c ****     tmpRegVal = ADC_1_SAR_DFT_CTRL_REG;
  80              		.loc 1 206 0 discriminator 4
  81 003e 1E4D     		ldr	r5, .L5+44
 183:.\Generated_Source\PSoC4/ADC_1.c ****     ADC_1_SAR_RANGE_COND_REG  = ADC_1_COMPARE_MODE;
  82              		.loc 1 183 0 discriminator 4
  83 0040 1A60     		str	r2, [r3]
 184:.\Generated_Source\PSoC4/ADC_1.c ****     ADC_1_SAR_SAMPLE_TIME01_REG = ADC_1_DEFAULT_SAMPLE_TIME01_REG_CFG;
  84              		.loc 1 184 0 discriminator 4
  85 0042 8022     		mov	r2, #128
  86 0044 1D4B     		ldr	r3, .L5+48
  87 0046 D205     		lsl	r2, r2, #23
  88 0048 1A60     		str	r2, [r3]
 185:.\Generated_Source\PSoC4/ADC_1.c ****     ADC_1_SAR_SAMPLE_TIME23_REG = ADC_1_DEFAULT_SAMPLE_TIME23_REG_CFG;
  89              		.loc 1 185 0 discriminator 4
  90 004a 1D4B     		ldr	r3, .L5+52
  91 004c 1D4A     		ldr	r2, .L5+56
 207:.\Generated_Source\PSoC4/ADC_1.c ****     tmpRegVal &= (uint32)~ADC_1_DCEN;
 208:.\Generated_Source\PSoC4/ADC_1.c ****     
 209:.\Generated_Source\PSoC4/ADC_1.c ****     #if(ADC_1_CY_SAR_IP_VER == ADC_1_CY_SAR_IP_VER0)
 210:.\Generated_Source\PSoC4/ADC_1.c ****         #if(ADC_1_NOMINAL_CLOCK_FREQ > (ADC_1_MAX_FREQUENCY / 2))
 211:.\Generated_Source\PSoC4/ADC_1.c ****             tmpRegVal |= ADC_1_SEL_CSEL_DFT_CHAR;
 212:.\Generated_Source\PSoC4/ADC_1.c ****         #else  /* clock speed < 9 Mhz */
 213:.\Generated_Source\PSoC4/ADC_1.c ****             tmpRegVal |= ADC_1_DLY_INC;
 214:.\Generated_Source\PSoC4/ADC_1.c ****         #endif /* clock speed > 9 Mhz */
 215:.\Generated_Source\PSoC4/ADC_1.c ****     #else
 216:.\Generated_Source\PSoC4/ADC_1.c ****         #if ((ADC_1_DEFAULT_VREF_SEL == ADC_1__INTERNAL1024) || \
 217:.\Generated_Source\PSoC4/ADC_1.c ****              (ADC_1_DEFAULT_VREF_SEL == ADC_1__INTERNALVREF))
 218:.\Generated_Source\PSoC4/ADC_1.c ****             tmpRegVal |= ADC_1_DLY_INC;
 219:.\Generated_Source\PSoC4/ADC_1.c ****         #else
 220:.\Generated_Source\PSoC4/ADC_1.c ****             tmpRegVal |= ADC_1_DCEN;
 221:.\Generated_Source\PSoC4/ADC_1.c ****             tmpRegVal &= (uint32)~ADC_1_DLY_INC;
 222:.\Generated_Source\PSoC4/ADC_1.c ****         #endif /* ((ADC_1_DEFAULT_VREF_SEL == ADC_1__INTERNAL1024) || \
 223:.\Generated_Source\PSoC4/ADC_1.c ****                    (ADC_1_DEFAULT_VREF_SEL == ADC_1__INTERNALVREF)) */
 224:.\Generated_Source\PSoC4/ADC_1.c ****     #endif /* (ADC_1_CY_SAR_IP_VER == ADC_1_CY_SAR_IP_VER0) */
 225:.\Generated_Source\PSoC4/ADC_1.c ****     
 226:.\Generated_Source\PSoC4/ADC_1.c ****     ADC_1_SAR_DFT_CTRL_REG = tmpRegVal;
 227:.\Generated_Source\PSoC4/ADC_1.c **** 
 228:.\Generated_Source\PSoC4/ADC_1.c ****     #if(ADC_1_MAX_RESOLUTION != ADC_1_RESOLUTION_12)
 229:.\Generated_Source\PSoC4/ADC_1.c ****         ADC_1_WOUNDING_REG = ADC_1_ALT_WOUNDING;
 230:.\Generated_Source\PSoC4/ADC_1.c ****     #endif /* ADC_1_MAX_RESOLUTION != ADC_1_RESOLUTION_12 */
 231:.\Generated_Source\PSoC4/ADC_1.c **** 
 232:.\Generated_Source\PSoC4/ADC_1.c ****     for(chNum = 0u; chNum < ADC_1_TOTAL_CHANNELS_NUM; chNum++)
 233:.\Generated_Source\PSoC4/ADC_1.c ****     {
 234:.\Generated_Source\PSoC4/ADC_1.c ****         tmpRegVal = (ADC_1_channelsConfig[chNum] & ADC_1_CHANNEL_CONFIG_MASK);
 235:.\Generated_Source\PSoC4/ADC_1.c ****         #if(ADC_1_TOTAL_CHANNELS_NUM > 1u)
 236:.\Generated_Source\PSoC4/ADC_1.c ****             tmpRegVal |= ADC_1_InputsPlacement[chNum];
 237:.\Generated_Source\PSoC4/ADC_1.c ****         #endif /* End ADC_1_TOTAL_CHANNELS_NUM > 1u */
 238:.\Generated_Source\PSoC4/ADC_1.c ****         
 239:.\Generated_Source\PSoC4/ADC_1.c ****         
 240:.\Generated_Source\PSoC4/ADC_1.c ****         /* When the part is limited to 10-bit then the SUB_RESOLUTION bit
ARM GAS  C:\Users\User\AppData\Local\Temp\ccb68437.s 			page 7


 241:.\Generated_Source\PSoC4/ADC_1.c ****         *  will be ignored and the RESOLUTION bit selects between 10-bit
 242:.\Generated_Source\PSoC4/ADC_1.c ****         *  (0) and 8-bit (1) resolution.
 243:.\Generated_Source\PSoC4/ADC_1.c ****         */
 244:.\Generated_Source\PSoC4/ADC_1.c ****         #if((ADC_1_MAX_RESOLUTION != ADC_1_RESOLUTION_12) && \
 245:.\Generated_Source\PSoC4/ADC_1.c ****             (ADC_1_ALT_WOUNDING == ADC_1_WOUNDING_10BIT))
 246:.\Generated_Source\PSoC4/ADC_1.c ****             tmpRegVal &= (uint32)(~ADC_1_ALT_RESOLUTION_ON);
 247:.\Generated_Source\PSoC4/ADC_1.c ****         #endif /* ADC_1_MAX_RESOLUTION != ADC_1_RESOLUTION_12 */
 248:.\Generated_Source\PSoC4/ADC_1.c **** 
 249:.\Generated_Source\PSoC4/ADC_1.c ****         #if(ADC_1_INJ_CHANNEL_ENABLED)
 250:.\Generated_Source\PSoC4/ADC_1.c ****         if(chNum < ADC_1_SEQUENCED_CHANNELS_NUM)
 251:.\Generated_Source\PSoC4/ADC_1.c ****         #endif /* ADC_1_INJ_CHANNEL_ENABLED */
 252:.\Generated_Source\PSoC4/ADC_1.c ****         {
 253:.\Generated_Source\PSoC4/ADC_1.c ****             CY_SET_REG32((reg32 *)(ADC_1_SAR_CHAN_CONFIG_IND + (uint32)(chNum << 2)), tmpRegVal);
 254:.\Generated_Source\PSoC4/ADC_1.c **** 
 255:.\Generated_Source\PSoC4/ADC_1.c ****             if((ADC_1_channelsConfig[chNum] & ADC_1_IS_SATURATE_EN_MASK) != 0u)
 256:.\Generated_Source\PSoC4/ADC_1.c ****             {
 257:.\Generated_Source\PSoC4/ADC_1.c ****                 ADC_1_SAR_SATURATE_INTR_MASK_REG |= (uint16)((uint16)1 << chNum);
 258:.\Generated_Source\PSoC4/ADC_1.c ****             }
 259:.\Generated_Source\PSoC4/ADC_1.c **** 
 260:.\Generated_Source\PSoC4/ADC_1.c ****             if((ADC_1_channelsConfig[chNum] & ADC_1_IS_RANGE_CTRL_EN_MASK) != 0u)
 261:.\Generated_Source\PSoC4/ADC_1.c ****             {
 262:.\Generated_Source\PSoC4/ADC_1.c ****                 ADC_1_SAR_RANGE_INTR_MASK_REG |= (uint16)((uint16)1 << chNum);
 263:.\Generated_Source\PSoC4/ADC_1.c ****             }
 264:.\Generated_Source\PSoC4/ADC_1.c ****         }
 265:.\Generated_Source\PSoC4/ADC_1.c ****         #if(ADC_1_INJ_CHANNEL_ENABLED)
 266:.\Generated_Source\PSoC4/ADC_1.c ****             else
 267:.\Generated_Source\PSoC4/ADC_1.c ****             {
 268:.\Generated_Source\PSoC4/ADC_1.c ****                 CY_SET_REG32(ADC_1_SAR_INJ_CHAN_CONFIG_PTR, tmpRegVal | ADC_1_INJ_TAILGATING);
 269:.\Generated_Source\PSoC4/ADC_1.c **** 
 270:.\Generated_Source\PSoC4/ADC_1.c ****                 if((ADC_1_channelsConfig[chNum] & ADC_1_IS_SATURATE_EN_MASK) != 0u)
 271:.\Generated_Source\PSoC4/ADC_1.c ****                 {
 272:.\Generated_Source\PSoC4/ADC_1.c ****                     ADC_1_SAR_INTR_MASK_REG |= ADC_1_INJ_SATURATE_MASK;
 273:.\Generated_Source\PSoC4/ADC_1.c ****                 }
 274:.\Generated_Source\PSoC4/ADC_1.c **** 
 275:.\Generated_Source\PSoC4/ADC_1.c ****                 if((ADC_1_channelsConfig[chNum] & ADC_1_IS_RANGE_CTRL_EN_MASK) != 0u)
 276:.\Generated_Source\PSoC4/ADC_1.c ****                 {
 277:.\Generated_Source\PSoC4/ADC_1.c ****                     ADC_1_SAR_INTR_MASK_REG |= ADC_1_INJ_RANGE_MASK;
 278:.\Generated_Source\PSoC4/ADC_1.c ****                 }
 279:.\Generated_Source\PSoC4/ADC_1.c ****             }
 280:.\Generated_Source\PSoC4/ADC_1.c ****         #endif /* ADC_1_INJ_CHANNEL_ENABLED */
 281:.\Generated_Source\PSoC4/ADC_1.c **** 
 282:.\Generated_Source\PSoC4/ADC_1.c ****         if((ADC_1_channelsConfig[chNum] & ADC_1_ALT_RESOLUTION_ON) != 0u)
 283:.\Generated_Source\PSoC4/ADC_1.c ****         {
 284:.\Generated_Source\PSoC4/ADC_1.c ****                counts = (int32)ADC_1_DEFAULT_MAX_WRK_ALT;
 285:.\Generated_Source\PSoC4/ADC_1.c ****         }
 286:.\Generated_Source\PSoC4/ADC_1.c ****         else
 287:.\Generated_Source\PSoC4/ADC_1.c ****         {
 288:.\Generated_Source\PSoC4/ADC_1.c ****                counts = (int32)ADC_1_SAR_WRK_MAX_12BIT;
 289:.\Generated_Source\PSoC4/ADC_1.c ****         }
 290:.\Generated_Source\PSoC4/ADC_1.c **** 
 291:.\Generated_Source\PSoC4/ADC_1.c ****         if((ADC_1_channelsConfig[chNum] & ADC_1_DIFFERENTIAL_EN) == 0u)
 292:.\Generated_Source\PSoC4/ADC_1.c ****         {
 293:.\Generated_Source\PSoC4/ADC_1.c ****             #if((ADC_1_DEFAULT_SE_RESULT_FORMAT_SEL == ADC_1__FSIGNED) && \
 294:.\Generated_Source\PSoC4/ADC_1.c ****                 (ADC_1_DEFAULT_NEG_INPUT_SEL == ADC_1__VREF))
 295:.\Generated_Source\PSoC4/ADC_1.c ****                 /* Set offset to the minus half scale to convert results to unsigned format */
 296:.\Generated_Source\PSoC4/ADC_1.c ****                 ADC_1_offset[chNum] = (int16)(counts / -2);
 297:.\Generated_Source\PSoC4/ADC_1.c ****             #else
ARM GAS  C:\Users\User\AppData\Local\Temp\ccb68437.s 			page 8


 298:.\Generated_Source\PSoC4/ADC_1.c ****                 ADC_1_offset[chNum] = 0;
 299:.\Generated_Source\PSoC4/ADC_1.c ****             #endif /* end DEFAULT_SE_RESULT_FORMAT_SEL == ADC_1__FSIGNED */
 300:.\Generated_Source\PSoC4/ADC_1.c ****         }
 301:.\Generated_Source\PSoC4/ADC_1.c ****         else    /* Differential channel */
 302:.\Generated_Source\PSoC4/ADC_1.c ****         {
 303:.\Generated_Source\PSoC4/ADC_1.c ****             #if(ADC_1_DEFAULT_DIFF_RESULT_FORMAT_SEL == ADC_1__FUNSIGNED)
 304:.\Generated_Source\PSoC4/ADC_1.c ****                 /* Set offset to the half scale to convert results to signed format */
 305:.\Generated_Source\PSoC4/ADC_1.c ****                 ADC_1_offset[chNum] = (int16)(counts / 2);
 306:.\Generated_Source\PSoC4/ADC_1.c ****             #else
 307:.\Generated_Source\PSoC4/ADC_1.c ****                 ADC_1_offset[chNum] = 0;
 308:.\Generated_Source\PSoC4/ADC_1.c ****             #endif /* end ADC_1_DEFAULT_DIFF_RESULT_FORMAT_SEL == ADC_1__FUNSIGNED */
 309:.\Generated_Source\PSoC4/ADC_1.c ****         }
 310:.\Generated_Source\PSoC4/ADC_1.c ****         /* Calculate gain in counts per 10 volts with rounding */
 311:.\Generated_Source\PSoC4/ADC_1.c ****         ADC_1_countsPer10Volt[chNum] = (int16)(((counts * ADC_1_10MV_COUNTS) +
 312:.\Generated_Source\PSoC4/ADC_1.c ****                             ADC_1_DEFAULT_VREF_MV_VALUE) / (ADC_1_DEFAULT_VREF_MV_VALUE * 2));
 313:.\Generated_Source\PSoC4/ADC_1.c ****     }
 314:.\Generated_Source\PSoC4/ADC_1.c **** }
  92              		.loc 1 314 0 discriminator 4
  93              		@ sp needed
 185:.\Generated_Source\PSoC4/ADC_1.c ****     ADC_1_SAR_SAMPLE_TIME23_REG = ADC_1_DEFAULT_SAMPLE_TIME23_REG_CFG;
  94              		.loc 1 185 0 discriminator 4
  95 004e 1360     		str	r3, [r2]
 186:.\Generated_Source\PSoC4/ADC_1.c ****     
  96              		.loc 1 186 0 discriminator 4
  97 0050 1D4A     		ldr	r2, .L5+60
  98 0052 1360     		str	r3, [r2]
 197:.\Generated_Source\PSoC4/ADC_1.c ****     ADC_1_SAR_RANGE_INTR_MASK_REG = 0u;
  99              		.loc 1 197 0 discriminator 4
 100 0054 0022     		mov	r2, #0
 198:.\Generated_Source\PSoC4/ADC_1.c ****     ADC_1_SAR_INTR_MASK_REG = ADC_1_SAR_INTR_MASK;
 101              		.loc 1 198 0 discriminator 4
 102 0056 1D4B     		ldr	r3, .L5+64
 197:.\Generated_Source\PSoC4/ADC_1.c ****     ADC_1_SAR_RANGE_INTR_MASK_REG = 0u;
 103              		.loc 1 197 0 discriminator 4
 104 0058 0A60     		str	r2, [r1]
 198:.\Generated_Source\PSoC4/ADC_1.c ****     ADC_1_SAR_INTR_MASK_REG = ADC_1_SAR_INTR_MASK;
 105              		.loc 1 198 0 discriminator 4
 106 005a 1A60     		str	r2, [r3]
 199:.\Generated_Source\PSoC4/ADC_1.c **** 
 107              		.loc 1 199 0 discriminator 4
 108 005c 1C4B     		ldr	r3, .L5+68
 109 005e 1860     		str	r0, [r3]
 202:.\Generated_Source\PSoC4/ADC_1.c ****     #endif /* (ADC_1_CY_SAR_IP_VER == ADC_1_CY_SAR_IP_VER0) */
 110              		.loc 1 202 0 discriminator 4
 111 0060 1C4B     		ldr	r3, .L5+72
 112 0062 1C60     		str	r4, [r3]
 206:.\Generated_Source\PSoC4/ADC_1.c ****     tmpRegVal &= (uint32)~ADC_1_DCEN;
 113              		.loc 1 206 0 discriminator 4
 114 0064 2E68     		ldr	r6, [r5]
 115              	.LVL2:
 207:.\Generated_Source\PSoC4/ADC_1.c ****     
 116              		.loc 1 207 0 discriminator 4
 117 0066 1C4B     		ldr	r3, .L5+76
 118 0068 3340     		and	r3, r6
 119              	.LVL3:
 213:.\Generated_Source\PSoC4/ADC_1.c ****         #endif /* clock speed > 9 Mhz */
 120              		.loc 1 213 0 discriminator 4
ARM GAS  C:\Users\User\AppData\Local\Temp\ccb68437.s 			page 9


 121 006a 0343     		orr	r3, r0
 122              	.LVL4:
 226:.\Generated_Source\PSoC4/ADC_1.c **** 
 123              		.loc 1 226 0 discriminator 4
 124 006c 2B60     		str	r3, [r5]
 229:.\Generated_Source\PSoC4/ADC_1.c ****     #endif /* ADC_1_MAX_RESOLUTION != ADC_1_RESOLUTION_12 */
 125              		.loc 1 229 0 discriminator 4
 126 006e 1B4B     		ldr	r3, .L5+80
 127              	.LVL5:
 128 0070 1C60     		str	r4, [r3]
 129              	.LVL6:
 253:.\Generated_Source\PSoC4/ADC_1.c **** 
 130              		.loc 1 253 0 discriminator 4
 131 0072 E024     		mov	r4, #224
 132 0074 1A4B     		ldr	r3, .L5+84
 133 0076 E400     		lsl	r4, r4, #3
 134 0078 1C60     		str	r4, [r3]
 257:.\Generated_Source\PSoC4/ADC_1.c ****             }
 135              		.loc 1 257 0 discriminator 4
 136 007a 0B68     		ldr	r3, [r1]
 137 007c 0343     		orr	r3, r0
 138 007e 0B60     		str	r3, [r1]
 139              	.LVL7:
 307:.\Generated_Source\PSoC4/ADC_1.c ****             #endif /* end ADC_1_DEFAULT_DIFF_RESULT_FORMAT_SEL == ADC_1__FUNSIGNED */
 140              		.loc 1 307 0 discriminator 4
 141 0080 184B     		ldr	r3, .L5+88
 142 0082 1A80     		strh	r2, [r3]
 311:.\Generated_Source\PSoC4/ADC_1.c ****                             ADC_1_DEFAULT_VREF_MV_VALUE) / (ADC_1_DEFAULT_VREF_MV_VALUE * 2));
 143              		.loc 1 311 0 discriminator 4
 144 0084 184A     		ldr	r2, .L5+92
 145 0086 194B     		ldr	r3, .L5+96
 146 0088 1A60     		str	r2, [r3]
 147              	.LVL8:
 148              		.loc 1 314 0 discriminator 4
 149 008a 70BD     		pop	{r4, r5, r6, pc}
 150              	.L6:
 151              		.align	2
 152              	.L5:
 153 008c 00000000 		.word	ADC_1_ISR
 154 0090 20001A40 		.word	1075445792
 155 0094 80031A40 		.word	1075446656
 156 0098 40020053 		.word	1392509504
 157 009c 40021053 		.word	1393558080
 158 00a0 00001A40 		.word	1075445760
 159 00a4 2C000080 		.word	-2147483604
 160 00a8 04001A40 		.word	1075445764
 161 00ac 28021A40 		.word	1075446312
 162 00b0 0000FF07 		.word	134152192
 163 00b4 18001A40 		.word	1075445784
 164 00b8 30001A40 		.word	1075445808
 165 00bc 1C001A40 		.word	1075445788
 166 00c0 02000200 		.word	131074
 167 00c4 10001A40 		.word	1075445776
 168 00c8 14001A40 		.word	1075445780
 169 00cc 38021A40 		.word	1075446328
 170 00d0 18021A40 		.word	1075446296
 171 00d4 000F1A40 		.word	1075449600
ARM GAS  C:\Users\User\AppData\Local\Temp\ccb68437.s 			page 10


 172 00d8 FFFFFFDF 		.word	-536870913
 173 00dc 040F1A40 		.word	1075449604
 174 00e0 80001A40 		.word	1075445888
 175 00e4 00000000 		.word	ADC_1_offset
 176 00e8 E2040000 		.word	1250
 177 00ec 00000000 		.word	ADC_1_countsPer10Volt
 178              		.cfi_endproc
 179              	.LFE1:
 180              		.size	ADC_1_Init, .-ADC_1_Init
 181              		.section	.text.ADC_1_Enable,"ax",%progbits
 182              		.align	1
 183              		.global	ADC_1_Enable
 184              		.code	16
 185              		.thumb_func
 186              		.type	ADC_1_Enable, %function
 187              	ADC_1_Enable:
 188              	.LFB2:
 315:.\Generated_Source\PSoC4/ADC_1.c **** 
 316:.\Generated_Source\PSoC4/ADC_1.c **** /*******************************************************************************
 317:.\Generated_Source\PSoC4/ADC_1.c **** * Function Name: ADC_SAR_1_Enable
 318:.\Generated_Source\PSoC4/ADC_1.c **** ********************************************************************************
 319:.\Generated_Source\PSoC4/ADC_1.c **** *
 320:.\Generated_Source\PSoC4/ADC_1.c **** * Summary:
 321:.\Generated_Source\PSoC4/ADC_1.c **** *  Enables the clock and analog power for SAR ADC.
 322:.\Generated_Source\PSoC4/ADC_1.c **** *
 323:.\Generated_Source\PSoC4/ADC_1.c **** * Parameters:
 324:.\Generated_Source\PSoC4/ADC_1.c **** *  None.
 325:.\Generated_Source\PSoC4/ADC_1.c **** *
 326:.\Generated_Source\PSoC4/ADC_1.c **** * Return:
 327:.\Generated_Source\PSoC4/ADC_1.c **** *  None.
 328:.\Generated_Source\PSoC4/ADC_1.c **** *
 329:.\Generated_Source\PSoC4/ADC_1.c **** *******************************************************************************/
 330:.\Generated_Source\PSoC4/ADC_1.c **** void ADC_1_Enable(void)
 331:.\Generated_Source\PSoC4/ADC_1.c **** {
 189              		.loc 1 331 0
 190              		.cfi_startproc
 191 0000 08B5     		push	{r3, lr}
 192              		.cfi_def_cfa_offset 8
 193              		.cfi_offset 3, -8
 194              		.cfi_offset 14, -4
 332:.\Generated_Source\PSoC4/ADC_1.c ****     if (0u == (ADC_1_SAR_CTRL_REG & ADC_1_ENABLE))
 195              		.loc 1 332 0
 196 0002 064B     		ldr	r3, .L9
 197 0004 1A68     		ldr	r2, [r3]
 198 0006 002A     		cmp	r2, #0
 199 0008 07DB     		blt	.L7
 200              	.LBB4:
 201              	.LBB5:
 333:.\Generated_Source\PSoC4/ADC_1.c ****     {
 334:.\Generated_Source\PSoC4/ADC_1.c ****         #if(ADC_1_CY_SAR_IP_VER != ADC_1_CY_SAR_IP_VER0)
 335:.\Generated_Source\PSoC4/ADC_1.c **** 
 336:.\Generated_Source\PSoC4/ADC_1.c ****             while (0u != (ADC_1_SAR_STATUS_REG & ADC_1_STATUS_BUSY))
 337:.\Generated_Source\PSoC4/ADC_1.c ****             {
 338:.\Generated_Source\PSoC4/ADC_1.c ****                 /* wait for SAR to go idle to avoid deadlock */
 339:.\Generated_Source\PSoC4/ADC_1.c ****             }
 340:.\Generated_Source\PSoC4/ADC_1.c ****         #endif /* (ADC_1_CY_SAR_IP_VER != ADC_1_CY_SAR_IP_VER0) */
 341:.\Generated_Source\PSoC4/ADC_1.c ****         
ARM GAS  C:\Users\User\AppData\Local\Temp\ccb68437.s 			page 11


 342:.\Generated_Source\PSoC4/ADC_1.c ****         ADC_1_SAR_CTRL_REG |= ADC_1_ENABLE;
 202              		.loc 1 342 0
 203 000a 8021     		mov	r1, #128
 204 000c 1A68     		ldr	r2, [r3]
 205 000e 0906     		lsl	r1, r1, #24
 206 0010 0A43     		orr	r2, r1
 207 0012 1A60     		str	r2, [r3]
 343:.\Generated_Source\PSoC4/ADC_1.c ****         
 344:.\Generated_Source\PSoC4/ADC_1.c ****         /* The block is ready to use 10 us after the enable signal is set high. */
 345:.\Generated_Source\PSoC4/ADC_1.c ****         CyDelayUs(ADC_1_10US_DELAY);         
 208              		.loc 1 345 0
 209 0014 0A20     		mov	r0, #10
 210 0016 FFF7FEFF 		bl	CyDelayUs
 211              	.LVL9:
 212              	.L7:
 213              	.LBE5:
 214              	.LBE4:
 346:.\Generated_Source\PSoC4/ADC_1.c ****     }
 347:.\Generated_Source\PSoC4/ADC_1.c **** }
 215              		.loc 1 347 0
 216              		@ sp needed
 217 001a 08BD     		pop	{r3, pc}
 218              	.L10:
 219              		.align	2
 220              	.L9:
 221 001c 00001A40 		.word	1075445760
 222              		.cfi_endproc
 223              	.LFE2:
 224              		.size	ADC_1_Enable, .-ADC_1_Enable
 225              		.section	.text.ADC_1_Start,"ax",%progbits
 226              		.align	1
 227              		.global	ADC_1_Start
 228              		.code	16
 229              		.thumb_func
 230              		.type	ADC_1_Start, %function
 231              	ADC_1_Start:
 232              	.LFB0:
  64:.\Generated_Source\PSoC4/ADC_1.c ****     /* If not Initialized then initialize all required hardware and software */
 233              		.loc 1 64 0
 234              		.cfi_startproc
 235 0000 10B5     		push	{r4, lr}
 236              		.cfi_def_cfa_offset 8
 237              		.cfi_offset 4, -8
 238              		.cfi_offset 14, -4
  66:.\Generated_Source\PSoC4/ADC_1.c ****     {
 239              		.loc 1 66 0
 240 0002 054C     		ldr	r4, .L13
 241 0004 2378     		ldrb	r3, [r4]
 242 0006 002B     		cmp	r3, #0
 243 0008 03D1     		bne	.L12
  68:.\Generated_Source\PSoC4/ADC_1.c ****         ADC_1_initVar = 1u;
 244              		.loc 1 68 0
 245 000a FFF7FEFF 		bl	ADC_1_Init
 246              	.LVL10:
  69:.\Generated_Source\PSoC4/ADC_1.c ****     }
 247              		.loc 1 69 0
 248 000e 0123     		mov	r3, #1
ARM GAS  C:\Users\User\AppData\Local\Temp\ccb68437.s 			page 12


 249 0010 2370     		strb	r3, [r4]
 250              	.L12:
  71:.\Generated_Source\PSoC4/ADC_1.c **** }
 251              		.loc 1 71 0
 252 0012 FFF7FEFF 		bl	ADC_1_Enable
 253              	.LVL11:
  72:.\Generated_Source\PSoC4/ADC_1.c **** 
 254              		.loc 1 72 0
 255              		@ sp needed
 256 0016 10BD     		pop	{r4, pc}
 257              	.L14:
 258              		.align	2
 259              	.L13:
 260 0018 00000000 		.word	.LANCHOR0
 261              		.cfi_endproc
 262              	.LFE0:
 263              		.size	ADC_1_Start, .-ADC_1_Start
 264              		.section	.text.ADC_1_Stop,"ax",%progbits
 265              		.align	1
 266              		.global	ADC_1_Stop
 267              		.code	16
 268              		.thumb_func
 269              		.type	ADC_1_Stop, %function
 270              	ADC_1_Stop:
 271              	.LFB3:
 348:.\Generated_Source\PSoC4/ADC_1.c **** 
 349:.\Generated_Source\PSoC4/ADC_1.c **** 
 350:.\Generated_Source\PSoC4/ADC_1.c **** /*******************************************************************************
 351:.\Generated_Source\PSoC4/ADC_1.c **** * Function Name: ADC_1_Stop
 352:.\Generated_Source\PSoC4/ADC_1.c **** ********************************************************************************
 353:.\Generated_Source\PSoC4/ADC_1.c **** *
 354:.\Generated_Source\PSoC4/ADC_1.c **** * Summary:
 355:.\Generated_Source\PSoC4/ADC_1.c **** *  This function stops ADC conversions and puts the ADC into its lowest power
 356:.\Generated_Source\PSoC4/ADC_1.c **** *  mode.
 357:.\Generated_Source\PSoC4/ADC_1.c **** *
 358:.\Generated_Source\PSoC4/ADC_1.c **** * Parameters:
 359:.\Generated_Source\PSoC4/ADC_1.c **** *  None.
 360:.\Generated_Source\PSoC4/ADC_1.c **** *
 361:.\Generated_Source\PSoC4/ADC_1.c **** * Return:
 362:.\Generated_Source\PSoC4/ADC_1.c **** *  None.
 363:.\Generated_Source\PSoC4/ADC_1.c **** *
 364:.\Generated_Source\PSoC4/ADC_1.c **** *******************************************************************************/
 365:.\Generated_Source\PSoC4/ADC_1.c **** void ADC_1_Stop(void)
 366:.\Generated_Source\PSoC4/ADC_1.c **** {
 272              		.loc 1 366 0
 273              		.cfi_startproc
 367:.\Generated_Source\PSoC4/ADC_1.c ****     ADC_1_SAR_CTRL_REG &= (uint32)~ADC_1_ENABLE;
 274              		.loc 1 367 0
 275 0000 024A     		ldr	r2, .L16
 368:.\Generated_Source\PSoC4/ADC_1.c **** }
 276              		.loc 1 368 0
 277              		@ sp needed
 367:.\Generated_Source\PSoC4/ADC_1.c ****     ADC_1_SAR_CTRL_REG &= (uint32)~ADC_1_ENABLE;
 278              		.loc 1 367 0
 279 0002 1368     		ldr	r3, [r2]
 280 0004 5B00     		lsl	r3, r3, #1
 281 0006 5B08     		lsr	r3, r3, #1
ARM GAS  C:\Users\User\AppData\Local\Temp\ccb68437.s 			page 13


 282 0008 1360     		str	r3, [r2]
 283              		.loc 1 368 0
 284 000a 7047     		bx	lr
 285              	.L17:
 286              		.align	2
 287              	.L16:
 288 000c 00001A40 		.word	1075445760
 289              		.cfi_endproc
 290              	.LFE3:
 291              		.size	ADC_1_Stop, .-ADC_1_Stop
 292              		.section	.text.ADC_1_StartConvert,"ax",%progbits
 293              		.align	1
 294              		.global	ADC_1_StartConvert
 295              		.code	16
 296              		.thumb_func
 297              		.type	ADC_1_StartConvert, %function
 298              	ADC_1_StartConvert:
 299              	.LFB4:
 369:.\Generated_Source\PSoC4/ADC_1.c **** 
 370:.\Generated_Source\PSoC4/ADC_1.c **** 
 371:.\Generated_Source\PSoC4/ADC_1.c **** /*******************************************************************************
 372:.\Generated_Source\PSoC4/ADC_1.c **** * Function Name: ADC_1_StartConvert
 373:.\Generated_Source\PSoC4/ADC_1.c **** ********************************************************************************
 374:.\Generated_Source\PSoC4/ADC_1.c **** *
 375:.\Generated_Source\PSoC4/ADC_1.c **** * Summary:
 376:.\Generated_Source\PSoC4/ADC_1.c **** *  Description:
 377:.\Generated_Source\PSoC4/ADC_1.c **** *  For free running mode, this API starts the conversion process and it
 378:.\Generated_Source\PSoC4/ADC_1.c **** *  runs continuously.
 379:.\Generated_Source\PSoC4/ADC_1.c **** *
 380:.\Generated_Source\PSoC4/ADC_1.c **** *  In a triggered mode, this routine triggers every conversion by
 381:.\Generated_Source\PSoC4/ADC_1.c **** *  writing into the FW_TRIGGER bit in SAR_START_CTRL reg. In triggered mode,
 382:.\Generated_Source\PSoC4/ADC_1.c **** *  every conversion has to start by this API.
 383:.\Generated_Source\PSoC4/ADC_1.c **** *
 384:.\Generated_Source\PSoC4/ADC_1.c **** * Parameters:
 385:.\Generated_Source\PSoC4/ADC_1.c **** *  None.
 386:.\Generated_Source\PSoC4/ADC_1.c **** *
 387:.\Generated_Source\PSoC4/ADC_1.c **** * Return:
 388:.\Generated_Source\PSoC4/ADC_1.c **** *  None.
 389:.\Generated_Source\PSoC4/ADC_1.c **** *
 390:.\Generated_Source\PSoC4/ADC_1.c **** *******************************************************************************/
 391:.\Generated_Source\PSoC4/ADC_1.c **** void ADC_1_StartConvert(void)
 392:.\Generated_Source\PSoC4/ADC_1.c **** {
 300              		.loc 1 392 0
 301              		.cfi_startproc
 393:.\Generated_Source\PSoC4/ADC_1.c ****     #if(ADC_1_DEFAULT_SAMPLE_MODE_SEL == ADC_1__FREERUNNING)
 394:.\Generated_Source\PSoC4/ADC_1.c ****         ADC_1_SAR_SAMPLE_CTRL_REG |= ADC_1_CONTINUOUS_EN;
 302              		.loc 1 394 0
 303 0000 8021     		mov	r1, #128
 304 0002 034A     		ldr	r2, .L19
 305 0004 4902     		lsl	r1, r1, #9
 306 0006 1368     		ldr	r3, [r2]
 395:.\Generated_Source\PSoC4/ADC_1.c ****     #else /* Firmware trigger */
 396:.\Generated_Source\PSoC4/ADC_1.c ****         ADC_1_SAR_START_CTRL_REG = ADC_1_FW_TRIGGER;
 397:.\Generated_Source\PSoC4/ADC_1.c ****     #endif /* End ADC_1_DEFAULT_SAMPLE_MODE == ADC_1__FREERUNNING */
 398:.\Generated_Source\PSoC4/ADC_1.c **** 
 399:.\Generated_Source\PSoC4/ADC_1.c **** }
 307              		.loc 1 399 0
ARM GAS  C:\Users\User\AppData\Local\Temp\ccb68437.s 			page 14


 308              		@ sp needed
 394:.\Generated_Source\PSoC4/ADC_1.c ****     #else /* Firmware trigger */
 309              		.loc 1 394 0
 310 0008 0B43     		orr	r3, r1
 311 000a 1360     		str	r3, [r2]
 312              		.loc 1 399 0
 313 000c 7047     		bx	lr
 314              	.L20:
 315 000e C046     		.align	2
 316              	.L19:
 317 0010 04001A40 		.word	1075445764
 318              		.cfi_endproc
 319              	.LFE4:
 320              		.size	ADC_1_StartConvert, .-ADC_1_StartConvert
 321              		.section	.text.ADC_1_StopConvert,"ax",%progbits
 322              		.align	1
 323              		.global	ADC_1_StopConvert
 324              		.code	16
 325              		.thumb_func
 326              		.type	ADC_1_StopConvert, %function
 327              	ADC_1_StopConvert:
 328              	.LFB5:
 400:.\Generated_Source\PSoC4/ADC_1.c **** 
 401:.\Generated_Source\PSoC4/ADC_1.c **** 
 402:.\Generated_Source\PSoC4/ADC_1.c **** /*******************************************************************************
 403:.\Generated_Source\PSoC4/ADC_1.c **** * Function Name: ADC_1_StopConvert
 404:.\Generated_Source\PSoC4/ADC_1.c **** ********************************************************************************
 405:.\Generated_Source\PSoC4/ADC_1.c **** *
 406:.\Generated_Source\PSoC4/ADC_1.c **** * Summary:
 407:.\Generated_Source\PSoC4/ADC_1.c **** *  Forces the ADC to stop all conversions.
 408:.\Generated_Source\PSoC4/ADC_1.c **** *
 409:.\Generated_Source\PSoC4/ADC_1.c **** * Parameters:
 410:.\Generated_Source\PSoC4/ADC_1.c **** *  None.
 411:.\Generated_Source\PSoC4/ADC_1.c **** *
 412:.\Generated_Source\PSoC4/ADC_1.c **** * Return:
 413:.\Generated_Source\PSoC4/ADC_1.c **** *  None.
 414:.\Generated_Source\PSoC4/ADC_1.c **** *
 415:.\Generated_Source\PSoC4/ADC_1.c **** *******************************************************************************/
 416:.\Generated_Source\PSoC4/ADC_1.c **** void ADC_1_StopConvert(void)
 417:.\Generated_Source\PSoC4/ADC_1.c **** {
 329              		.loc 1 417 0
 330              		.cfi_startproc
 418:.\Generated_Source\PSoC4/ADC_1.c ****     #if(ADC_1_DEFAULT_SAMPLE_MODE_SEL == ADC_1__FREERUNNING)
 419:.\Generated_Source\PSoC4/ADC_1.c ****         ADC_1_SAR_SAMPLE_CTRL_REG &= (uint32)(~ADC_1_CONTINUOUS_EN);
 331              		.loc 1 419 0
 332 0000 024A     		ldr	r2, .L22
 333 0002 034B     		ldr	r3, .L22+4
 334 0004 1168     		ldr	r1, [r2]
 420:.\Generated_Source\PSoC4/ADC_1.c ****     #endif /* ADC_1_DEFAULT_SAMPLE_MODE == ADC_1__FREERUNNING */
 421:.\Generated_Source\PSoC4/ADC_1.c **** }
 335              		.loc 1 421 0
 336              		@ sp needed
 419:.\Generated_Source\PSoC4/ADC_1.c ****     #endif /* ADC_1_DEFAULT_SAMPLE_MODE == ADC_1__FREERUNNING */
 337              		.loc 1 419 0
 338 0006 0B40     		and	r3, r1
 339 0008 1360     		str	r3, [r2]
 340              		.loc 1 421 0
ARM GAS  C:\Users\User\AppData\Local\Temp\ccb68437.s 			page 15


 341 000a 7047     		bx	lr
 342              	.L23:
 343              		.align	2
 344              	.L22:
 345 000c 04001A40 		.word	1075445764
 346 0010 FFFFFEFF 		.word	-65537
 347              		.cfi_endproc
 348              	.LFE5:
 349              		.size	ADC_1_StopConvert, .-ADC_1_StopConvert
 350              		.section	.text.ADC_1_IsEndConversion,"ax",%progbits
 351              		.align	1
 352              		.global	ADC_1_IsEndConversion
 353              		.code	16
 354              		.thumb_func
 355              		.type	ADC_1_IsEndConversion, %function
 356              	ADC_1_IsEndConversion:
 357              	.LFB6:
 422:.\Generated_Source\PSoC4/ADC_1.c **** 
 423:.\Generated_Source\PSoC4/ADC_1.c **** 
 424:.\Generated_Source\PSoC4/ADC_1.c **** /*******************************************************************************
 425:.\Generated_Source\PSoC4/ADC_1.c **** * Function Name: ADC_1_IsEndConversion
 426:.\Generated_Source\PSoC4/ADC_1.c **** ********************************************************************************
 427:.\Generated_Source\PSoC4/ADC_1.c **** *
 428:.\Generated_Source\PSoC4/ADC_1.c **** * Summary:
 429:.\Generated_Source\PSoC4/ADC_1.c **** *  Description: Checks for ADC end of conversion for the case one
 430:.\Generated_Source\PSoC4/ADC_1.c **** *  channel and end of scan for the case of multiple channels. It acts
 431:.\Generated_Source\PSoC4/ADC_1.c **** *  as a software version of the EOC. This function provides the
 432:.\Generated_Source\PSoC4/ADC_1.c **** *  programmer with two options. In one mode this function
 433:.\Generated_Source\PSoC4/ADC_1.c **** *  immediately returns with the conversion status. In the other mode,
 434:.\Generated_Source\PSoC4/ADC_1.c **** *  the function does not return (blocking) until the conversion has
 435:.\Generated_Source\PSoC4/ADC_1.c **** *  completed.
 436:.\Generated_Source\PSoC4/ADC_1.c **** *
 437:.\Generated_Source\PSoC4/ADC_1.c **** * Parameters:
 438:.\Generated_Source\PSoC4/ADC_1.c **** *  ADC_RETURN_STATUS        -> Immediately returns conversion result status
 439:.\Generated_Source\PSoC4/ADC_1.c **** *  ADC_WAIT_FOR_RESULT      -> Does not return until ADC complete
 440:.\Generated_Source\PSoC4/ADC_1.c **** *  ADC_RETURN_STATUS_INJ    -> Immediately returns conversion result status
 441:.\Generated_Source\PSoC4/ADC_1.c **** *                              for injection channel
 442:.\Generated_Source\PSoC4/ADC_1.c **** *  ADC_WAIT_FOR_RESULT_INJ  -> Does not return until ADC completes injection
 443:.\Generated_Source\PSoC4/ADC_1.c **** *                              channel conversion
 444:.\Generated_Source\PSoC4/ADC_1.c **** *
 445:.\Generated_Source\PSoC4/ADC_1.c **** * Return:
 446:.\Generated_Source\PSoC4/ADC_1.c **** *  If a non-zero value is returned, the last conversion or scan has completed.
 447:.\Generated_Source\PSoC4/ADC_1.c **** *  If the returned value is zero, the ADC is still in the process of a scan.
 448:.\Generated_Source\PSoC4/ADC_1.c **** *
 449:.\Generated_Source\PSoC4/ADC_1.c **** *******************************************************************************/
 450:.\Generated_Source\PSoC4/ADC_1.c **** uint32 ADC_1_IsEndConversion(uint32 retMode)
 451:.\Generated_Source\PSoC4/ADC_1.c **** {
 358              		.loc 1 451 0
 359              		.cfi_startproc
 360              	.LVL12:
 361 0000 10B5     		push	{r4, lr}
 362              		.cfi_def_cfa_offset 8
 363              		.cfi_offset 4, -8
 364              		.cfi_offset 14, -4
 365              		.loc 1 451 0
 366 0002 041C     		mov	r4, r0
 452:.\Generated_Source\PSoC4/ADC_1.c ****     uint32 status = 0u;
ARM GAS  C:\Users\User\AppData\Local\Temp\ccb68437.s 			page 16


 367              		.loc 1 452 0
 368 0004 0020     		mov	r0, #0
 369              	.LVL13:
 453:.\Generated_Source\PSoC4/ADC_1.c **** 
 454:.\Generated_Source\PSoC4/ADC_1.c ****     if((retMode & (ADC_1_RETURN_STATUS | ADC_1_WAIT_FOR_RESULT)) != 0u)
 370              		.loc 1 454 0
 371 0006 A307     		lsl	r3, r4, #30
 372 0008 0AD0     		beq	.L29
 373              	.LVL14:
 374              	.L27:
 455:.\Generated_Source\PSoC4/ADC_1.c ****     {
 456:.\Generated_Source\PSoC4/ADC_1.c ****         do
 457:.\Generated_Source\PSoC4/ADC_1.c ****         {
 458:.\Generated_Source\PSoC4/ADC_1.c ****             status = ADC_1_SAR_INTR_REG & ADC_1_EOS_MASK;
 375              		.loc 1 458 0 discriminator 2
 376 000a 0122     		mov	r2, #1
 377 000c 0549     		ldr	r1, .L31
 378 000e 0B68     		ldr	r3, [r1]
 379 0010 1340     		and	r3, r2
 380 0012 181E     		sub	r0, r3, #0
 381              	.LVL15:
 459:.\Generated_Source\PSoC4/ADC_1.c ****         }while((status == 0u) && ((retMode & ADC_1_WAIT_FOR_RESULT) != 0u));
 382              		.loc 1 459 0 discriminator 2
 383 0014 02D1     		bne	.L26
 384              		.loc 1 459 0 is_stmt 0 discriminator 1
 385 0016 A307     		lsl	r3, r4, #30
 386 0018 F7D4     		bmi	.L27
 387 001a 01E0     		b	.L29
 388              	.L26:
 460:.\Generated_Source\PSoC4/ADC_1.c **** 
 461:.\Generated_Source\PSoC4/ADC_1.c ****         if(status != 0u)
 462:.\Generated_Source\PSoC4/ADC_1.c ****         {
 463:.\Generated_Source\PSoC4/ADC_1.c ****             /* Clear EOS bit */
 464:.\Generated_Source\PSoC4/ADC_1.c ****             ADC_1_SAR_INTR_REG = ADC_1_EOS_MASK;
 389              		.loc 1 464 0 is_stmt 1
 390 001c 101C     		mov	r0, r2
 391              	.LVL16:
 392 001e 0A60     		str	r2, [r1]
 393              	.LVL17:
 394              	.L29:
 465:.\Generated_Source\PSoC4/ADC_1.c ****         }
 466:.\Generated_Source\PSoC4/ADC_1.c ****     }
 467:.\Generated_Source\PSoC4/ADC_1.c **** 
 468:.\Generated_Source\PSoC4/ADC_1.c ****     #if(ADC_1_INJ_CHANNEL_ENABLED)
 469:.\Generated_Source\PSoC4/ADC_1.c ****         if((retMode & (ADC_1_RETURN_STATUS_INJ | ADC_1_WAIT_FOR_RESULT_INJ)) != 0u)
 470:.\Generated_Source\PSoC4/ADC_1.c ****         {
 471:.\Generated_Source\PSoC4/ADC_1.c ****             do
 472:.\Generated_Source\PSoC4/ADC_1.c ****             {
 473:.\Generated_Source\PSoC4/ADC_1.c ****                 status |= ADC_1_SAR_INTR_REG & ADC_1_INJ_EOC_MASK;
 474:.\Generated_Source\PSoC4/ADC_1.c ****             }while(((status & ADC_1_INJ_EOC_MASK) == 0u) &&
 475:.\Generated_Source\PSoC4/ADC_1.c ****                    ((retMode & ADC_1_WAIT_FOR_RESULT_INJ) != 0u));
 476:.\Generated_Source\PSoC4/ADC_1.c **** 
 477:.\Generated_Source\PSoC4/ADC_1.c ****             if((status & ADC_1_INJ_EOC_MASK) != 0u)
 478:.\Generated_Source\PSoC4/ADC_1.c ****             {
 479:.\Generated_Source\PSoC4/ADC_1.c ****                 /* Clear Injection EOS bit */
 480:.\Generated_Source\PSoC4/ADC_1.c ****                 ADC_1_SAR_INTR_REG = ADC_1_INJ_EOC_MASK;
 481:.\Generated_Source\PSoC4/ADC_1.c ****             }
ARM GAS  C:\Users\User\AppData\Local\Temp\ccb68437.s 			page 17


 482:.\Generated_Source\PSoC4/ADC_1.c ****         }
 483:.\Generated_Source\PSoC4/ADC_1.c ****     #endif /* ADC_1_INJ_CHANNEL_ENABLED */
 484:.\Generated_Source\PSoC4/ADC_1.c **** 
 485:.\Generated_Source\PSoC4/ADC_1.c ****     return (status);
 486:.\Generated_Source\PSoC4/ADC_1.c **** }
 395              		.loc 1 486 0
 396              		@ sp needed
 397              	.LVL18:
 398 0020 10BD     		pop	{r4, pc}
 399              	.L32:
 400 0022 C046     		.align	2
 401              	.L31:
 402 0024 10021A40 		.word	1075446288
 403              		.cfi_endproc
 404              	.LFE6:
 405              		.size	ADC_1_IsEndConversion, .-ADC_1_IsEndConversion
 406              		.section	.text.ADC_1_GetResult16,"ax",%progbits
 407              		.align	1
 408              		.global	ADC_1_GetResult16
 409              		.code	16
 410              		.thumb_func
 411              		.type	ADC_1_GetResult16, %function
 412              	ADC_1_GetResult16:
 413              	.LFB7:
 487:.\Generated_Source\PSoC4/ADC_1.c **** 
 488:.\Generated_Source\PSoC4/ADC_1.c **** 
 489:.\Generated_Source\PSoC4/ADC_1.c **** /*******************************************************************************
 490:.\Generated_Source\PSoC4/ADC_1.c **** * Function Name: ADC_1_GetResult16
 491:.\Generated_Source\PSoC4/ADC_1.c **** ********************************************************************************
 492:.\Generated_Source\PSoC4/ADC_1.c **** *
 493:.\Generated_Source\PSoC4/ADC_1.c **** * Summary:
 494:.\Generated_Source\PSoC4/ADC_1.c **** *  Gets the data available in the SAR DATA register.
 495:.\Generated_Source\PSoC4/ADC_1.c **** *
 496:.\Generated_Source\PSoC4/ADC_1.c **** * Parameters:
 497:.\Generated_Source\PSoC4/ADC_1.c **** *  chan: The ADC channel in which to return the result. The first channel
 498:.\Generated_Source\PSoC4/ADC_1.c **** *  is 0 and the injection channel if enabled is the number of valid channels.
 499:.\Generated_Source\PSoC4/ADC_1.c **** *
 500:.\Generated_Source\PSoC4/ADC_1.c **** * Return:
 501:.\Generated_Source\PSoC4/ADC_1.c **** *  Returns converted data as a signed 16-bit integer
 502:.\Generated_Source\PSoC4/ADC_1.c **** *
 503:.\Generated_Source\PSoC4/ADC_1.c **** *******************************************************************************/
 504:.\Generated_Source\PSoC4/ADC_1.c **** int16 ADC_1_GetResult16(uint32 chan)
 505:.\Generated_Source\PSoC4/ADC_1.c **** {
 414              		.loc 1 505 0
 415              		.cfi_startproc
 416              	.LVL19:
 506:.\Generated_Source\PSoC4/ADC_1.c ****     uint32 result;
 507:.\Generated_Source\PSoC4/ADC_1.c **** 
 508:.\Generated_Source\PSoC4/ADC_1.c ****     /* Halt CPU in debug mode if channel is out of valid range */
 509:.\Generated_Source\PSoC4/ADC_1.c ****     CYASSERT(chan < ADC_1_TOTAL_CHANNELS_NUM);
 510:.\Generated_Source\PSoC4/ADC_1.c **** 
 511:.\Generated_Source\PSoC4/ADC_1.c ****     if(chan < ADC_1_SEQUENCED_CHANNELS_NUM)
 512:.\Generated_Source\PSoC4/ADC_1.c ****     {
 513:.\Generated_Source\PSoC4/ADC_1.c ****         result = CY_GET_REG32((reg32 *)(ADC_1_SAR_CHAN_RESULT_IND + (uint32)(chan << 2u))) &
 514:.\Generated_Source\PSoC4/ADC_1.c ****                 ADC_1_RESULT_MASK;
 515:.\Generated_Source\PSoC4/ADC_1.c ****     }
 516:.\Generated_Source\PSoC4/ADC_1.c ****     else
ARM GAS  C:\Users\User\AppData\Local\Temp\ccb68437.s 			page 18


 517:.\Generated_Source\PSoC4/ADC_1.c ****     {
 518:.\Generated_Source\PSoC4/ADC_1.c ****         #if(ADC_1_INJ_CHANNEL_ENABLED)
 519:.\Generated_Source\PSoC4/ADC_1.c ****             result = ADC_1_SAR_INJ_RESULT_REG & ADC_1_RESULT_MASK;
 520:.\Generated_Source\PSoC4/ADC_1.c ****         #else
 521:.\Generated_Source\PSoC4/ADC_1.c ****             result = 0u;
 417              		.loc 1 521 0
 418 0000 0023     		mov	r3, #0
 511:.\Generated_Source\PSoC4/ADC_1.c ****     {
 419              		.loc 1 511 0
 420 0002 9842     		cmp	r0, r3
 421 0004 02D1     		bne	.L34
 513:.\Generated_Source\PSoC4/ADC_1.c ****                 ADC_1_RESULT_MASK;
 422              		.loc 1 513 0
 423 0006 024B     		ldr	r3, .L36
 424 0008 1B68     		ldr	r3, [r3]
 425 000a 9BB2     		uxth	r3, r3
 426              	.LVL20:
 427              	.L34:
 522:.\Generated_Source\PSoC4/ADC_1.c ****         #endif /* ADC_1_INJ_CHANNEL_ENABLED */
 523:.\Generated_Source\PSoC4/ADC_1.c ****     }
 524:.\Generated_Source\PSoC4/ADC_1.c **** 
 525:.\Generated_Source\PSoC4/ADC_1.c ****     return ( (int16)result );
 428              		.loc 1 525 0
 429 000c 18B2     		sxth	r0, r3
 430              	.LVL21:
 526:.\Generated_Source\PSoC4/ADC_1.c **** }
 431              		.loc 1 526 0
 432              		@ sp needed
 433 000e 7047     		bx	lr
 434              	.L37:
 435              		.align	2
 436              	.L36:
 437 0010 80011A40 		.word	1075446144
 438              		.cfi_endproc
 439              	.LFE7:
 440              		.size	ADC_1_GetResult16, .-ADC_1_GetResult16
 441              		.section	.text.ADC_1_SetChanMask,"ax",%progbits
 442              		.align	1
 443              		.global	ADC_1_SetChanMask
 444              		.code	16
 445              		.thumb_func
 446              		.type	ADC_1_SetChanMask, %function
 447              	ADC_1_SetChanMask:
 448              	.LFB8:
 527:.\Generated_Source\PSoC4/ADC_1.c **** 
 528:.\Generated_Source\PSoC4/ADC_1.c **** 
 529:.\Generated_Source\PSoC4/ADC_1.c **** /*******************************************************************************
 530:.\Generated_Source\PSoC4/ADC_1.c **** * Function Name: ADC_1_SetChanMask
 531:.\Generated_Source\PSoC4/ADC_1.c **** ********************************************************************************
 532:.\Generated_Source\PSoC4/ADC_1.c **** *
 533:.\Generated_Source\PSoC4/ADC_1.c **** * Summary:
 534:.\Generated_Source\PSoC4/ADC_1.c **** *  Sets the channel enable mask.
 535:.\Generated_Source\PSoC4/ADC_1.c **** *
 536:.\Generated_Source\PSoC4/ADC_1.c **** * Parameters:
 537:.\Generated_Source\PSoC4/ADC_1.c **** *  mask: Sets which channels that will be
 538:.\Generated_Source\PSoC4/ADC_1.c **** *  scanned. Setting bits for channels that do not exist will have no
 539:.\Generated_Source\PSoC4/ADC_1.c **** *  effect. For example, if only 6 channels were enabled, setting a
ARM GAS  C:\Users\User\AppData\Local\Temp\ccb68437.s 			page 19


 540:.\Generated_Source\PSoC4/ADC_1.c **** *  mask of 0x0103 would only enable the last two channels (0 and 1).
 541:.\Generated_Source\PSoC4/ADC_1.c **** *  This API will not enable the injection channel.
 542:.\Generated_Source\PSoC4/ADC_1.c **** *  Examples: If the component is setup to sequence through 8
 543:.\Generated_Source\PSoC4/ADC_1.c **** *  channels, a mask of 0x000F would enable channels 0, 1, 2, and 3.
 544:.\Generated_Source\PSoC4/ADC_1.c **** *
 545:.\Generated_Source\PSoC4/ADC_1.c **** * Return:
 546:.\Generated_Source\PSoC4/ADC_1.c **** *  None.
 547:.\Generated_Source\PSoC4/ADC_1.c **** *
 548:.\Generated_Source\PSoC4/ADC_1.c **** *******************************************************************************/
 549:.\Generated_Source\PSoC4/ADC_1.c **** void ADC_1_SetChanMask(uint32 mask)
 550:.\Generated_Source\PSoC4/ADC_1.c **** {
 449              		.loc 1 550 0
 450              		.cfi_startproc
 451              	.LVL22:
 551:.\Generated_Source\PSoC4/ADC_1.c ****     ADC_1_SAR_CHAN_EN_REG = mask & ADC_1_MAX_CHANNELS_EN_MASK;
 452              		.loc 1 551 0
 453 0000 0123     		mov	r3, #1
 454 0002 1840     		and	r0, r3
 455              	.LVL23:
 456 0004 014B     		ldr	r3, .L39
 552:.\Generated_Source\PSoC4/ADC_1.c **** }
 457              		.loc 1 552 0
 458              		@ sp needed
 551:.\Generated_Source\PSoC4/ADC_1.c ****     ADC_1_SAR_CHAN_EN_REG = mask & ADC_1_MAX_CHANNELS_EN_MASK;
 459              		.loc 1 551 0
 460 0006 1860     		str	r0, [r3]
 461              		.loc 1 552 0
 462 0008 7047     		bx	lr
 463              	.L40:
 464 000a C046     		.align	2
 465              	.L39:
 466 000c 20001A40 		.word	1075445792
 467              		.cfi_endproc
 468              	.LFE8:
 469              		.size	ADC_1_SetChanMask, .-ADC_1_SetChanMask
 470              		.section	.text.ADC_1_SetLowLimit,"ax",%progbits
 471              		.align	1
 472              		.global	ADC_1_SetLowLimit
 473              		.code	16
 474              		.thumb_func
 475              		.type	ADC_1_SetLowLimit, %function
 476              	ADC_1_SetLowLimit:
 477              	.LFB9:
 553:.\Generated_Source\PSoC4/ADC_1.c **** 
 554:.\Generated_Source\PSoC4/ADC_1.c **** #if(ADC_1_INJ_CHANNEL_ENABLED)
 555:.\Generated_Source\PSoC4/ADC_1.c **** 
 556:.\Generated_Source\PSoC4/ADC_1.c **** 
 557:.\Generated_Source\PSoC4/ADC_1.c ****     /*******************************************************************************
 558:.\Generated_Source\PSoC4/ADC_1.c ****     * Function Name: ADC_1_EnableInjection
 559:.\Generated_Source\PSoC4/ADC_1.c ****     ********************************************************************************
 560:.\Generated_Source\PSoC4/ADC_1.c ****     *
 561:.\Generated_Source\PSoC4/ADC_1.c ****     * Summary:
 562:.\Generated_Source\PSoC4/ADC_1.c ****     *  Enables the injection channel for the next scan only.
 563:.\Generated_Source\PSoC4/ADC_1.c ****     *
 564:.\Generated_Source\PSoC4/ADC_1.c ****     * Parameters:
 565:.\Generated_Source\PSoC4/ADC_1.c ****     *  None.
 566:.\Generated_Source\PSoC4/ADC_1.c ****     *
ARM GAS  C:\Users\User\AppData\Local\Temp\ccb68437.s 			page 20


 567:.\Generated_Source\PSoC4/ADC_1.c ****     * Return:
 568:.\Generated_Source\PSoC4/ADC_1.c ****     *  None.
 569:.\Generated_Source\PSoC4/ADC_1.c ****     *
 570:.\Generated_Source\PSoC4/ADC_1.c ****     *******************************************************************************/
 571:.\Generated_Source\PSoC4/ADC_1.c ****     void ADC_1_EnableInjection(void)
 572:.\Generated_Source\PSoC4/ADC_1.c ****     {
 573:.\Generated_Source\PSoC4/ADC_1.c ****         ADC_1_SAR_INJ_CHAN_CONFIG_REG |= ADC_1_INJ_CHAN_EN;
 574:.\Generated_Source\PSoC4/ADC_1.c ****     }
 575:.\Generated_Source\PSoC4/ADC_1.c **** 
 576:.\Generated_Source\PSoC4/ADC_1.c **** #endif /* ADC_1_INJ_CHANNEL_ENABLED */
 577:.\Generated_Source\PSoC4/ADC_1.c **** 
 578:.\Generated_Source\PSoC4/ADC_1.c **** 
 579:.\Generated_Source\PSoC4/ADC_1.c **** /*******************************************************************************
 580:.\Generated_Source\PSoC4/ADC_1.c **** * Function Name: ADC_1_SetLowLimit
 581:.\Generated_Source\PSoC4/ADC_1.c **** ********************************************************************************
 582:.\Generated_Source\PSoC4/ADC_1.c **** *
 583:.\Generated_Source\PSoC4/ADC_1.c **** * Summary:
 584:.\Generated_Source\PSoC4/ADC_1.c **** *  Sets the low limit parameter for a limit condition.
 585:.\Generated_Source\PSoC4/ADC_1.c **** *
 586:.\Generated_Source\PSoC4/ADC_1.c **** * Parameters:
 587:.\Generated_Source\PSoC4/ADC_1.c **** *  lowLimit: The low limit for a limit condition.
 588:.\Generated_Source\PSoC4/ADC_1.c **** *
 589:.\Generated_Source\PSoC4/ADC_1.c **** * Return:
 590:.\Generated_Source\PSoC4/ADC_1.c **** *  None.
 591:.\Generated_Source\PSoC4/ADC_1.c **** *
 592:.\Generated_Source\PSoC4/ADC_1.c **** *******************************************************************************/
 593:.\Generated_Source\PSoC4/ADC_1.c **** void ADC_1_SetLowLimit(uint32 lowLimit)
 594:.\Generated_Source\PSoC4/ADC_1.c **** {
 478              		.loc 1 594 0
 479              		.cfi_startproc
 480              	.LVL24:
 595:.\Generated_Source\PSoC4/ADC_1.c ****     ADC_1_SAR_RANGE_THRES_REG &= (uint32)(~ADC_1_RANGE_LOW_MASK);
 481              		.loc 1 595 0
 482 0000 044A     		ldr	r2, .L42
 596:.\Generated_Source\PSoC4/ADC_1.c ****     ADC_1_SAR_RANGE_THRES_REG |= lowLimit & ADC_1_RANGE_LOW_MASK;
 483              		.loc 1 596 0
 484 0002 80B2     		uxth	r0, r0
 485              	.LVL25:
 595:.\Generated_Source\PSoC4/ADC_1.c ****     ADC_1_SAR_RANGE_THRES_REG &= (uint32)(~ADC_1_RANGE_LOW_MASK);
 486              		.loc 1 595 0
 487 0004 1368     		ldr	r3, [r2]
 597:.\Generated_Source\PSoC4/ADC_1.c **** }
 488              		.loc 1 597 0
 489              		@ sp needed
 595:.\Generated_Source\PSoC4/ADC_1.c ****     ADC_1_SAR_RANGE_THRES_REG &= (uint32)(~ADC_1_RANGE_LOW_MASK);
 490              		.loc 1 595 0
 491 0006 1B0C     		lsr	r3, r3, #16
 492 0008 1B04     		lsl	r3, r3, #16
 493 000a 1360     		str	r3, [r2]
 596:.\Generated_Source\PSoC4/ADC_1.c ****     ADC_1_SAR_RANGE_THRES_REG |= lowLimit & ADC_1_RANGE_LOW_MASK;
 494              		.loc 1 596 0
 495 000c 1368     		ldr	r3, [r2]
 496 000e 1843     		orr	r0, r3
 497 0010 1060     		str	r0, [r2]
 498              		.loc 1 597 0
 499 0012 7047     		bx	lr
 500              	.L43:
ARM GAS  C:\Users\User\AppData\Local\Temp\ccb68437.s 			page 21


 501              		.align	2
 502              	.L42:
 503 0014 18001A40 		.word	1075445784
 504              		.cfi_endproc
 505              	.LFE9:
 506              		.size	ADC_1_SetLowLimit, .-ADC_1_SetLowLimit
 507              		.section	.text.ADC_1_SetHighLimit,"ax",%progbits
 508              		.align	1
 509              		.global	ADC_1_SetHighLimit
 510              		.code	16
 511              		.thumb_func
 512              		.type	ADC_1_SetHighLimit, %function
 513              	ADC_1_SetHighLimit:
 514              	.LFB10:
 598:.\Generated_Source\PSoC4/ADC_1.c **** 
 599:.\Generated_Source\PSoC4/ADC_1.c **** 
 600:.\Generated_Source\PSoC4/ADC_1.c **** /*******************************************************************************
 601:.\Generated_Source\PSoC4/ADC_1.c **** * Function Name: ADC_1_SetHighLimit
 602:.\Generated_Source\PSoC4/ADC_1.c **** ********************************************************************************
 603:.\Generated_Source\PSoC4/ADC_1.c **** *
 604:.\Generated_Source\PSoC4/ADC_1.c **** * Summary:
 605:.\Generated_Source\PSoC4/ADC_1.c **** *  Sets the low limit parameter for a limit condition.
 606:.\Generated_Source\PSoC4/ADC_1.c **** *
 607:.\Generated_Source\PSoC4/ADC_1.c **** * Parameters:
 608:.\Generated_Source\PSoC4/ADC_1.c **** *  highLimit: The high limit for a limit condition.
 609:.\Generated_Source\PSoC4/ADC_1.c **** *
 610:.\Generated_Source\PSoC4/ADC_1.c **** * Return:
 611:.\Generated_Source\PSoC4/ADC_1.c **** *  None.
 612:.\Generated_Source\PSoC4/ADC_1.c **** *
 613:.\Generated_Source\PSoC4/ADC_1.c **** *******************************************************************************/
 614:.\Generated_Source\PSoC4/ADC_1.c **** void ADC_1_SetHighLimit(uint32 highLimit)
 615:.\Generated_Source\PSoC4/ADC_1.c **** {
 515              		.loc 1 615 0
 516              		.cfi_startproc
 517              	.LVL26:
 616:.\Generated_Source\PSoC4/ADC_1.c ****     ADC_1_SAR_RANGE_THRES_REG &= (uint32)(~ADC_1_RANGE_HIGH_MASK);
 518              		.loc 1 616 0
 519 0000 044B     		ldr	r3, .L45
 617:.\Generated_Source\PSoC4/ADC_1.c ****     ADC_1_SAR_RANGE_THRES_REG |= (uint32)(highLimit << ADC_1_RANGE_HIGH_OFFSET);
 520              		.loc 1 617 0
 521 0002 0004     		lsl	r0, r0, #16
 522              	.LVL27:
 616:.\Generated_Source\PSoC4/ADC_1.c ****     ADC_1_SAR_RANGE_THRES_REG &= (uint32)(~ADC_1_RANGE_HIGH_MASK);
 523              		.loc 1 616 0
 524 0004 1A68     		ldr	r2, [r3]
 618:.\Generated_Source\PSoC4/ADC_1.c **** }
 525              		.loc 1 618 0
 526              		@ sp needed
 616:.\Generated_Source\PSoC4/ADC_1.c ****     ADC_1_SAR_RANGE_THRES_REG &= (uint32)(~ADC_1_RANGE_HIGH_MASK);
 527              		.loc 1 616 0
 528 0006 92B2     		uxth	r2, r2
 529 0008 1A60     		str	r2, [r3]
 617:.\Generated_Source\PSoC4/ADC_1.c ****     ADC_1_SAR_RANGE_THRES_REG |= (uint32)(highLimit << ADC_1_RANGE_HIGH_OFFSET);
 530              		.loc 1 617 0
 531 000a 1A68     		ldr	r2, [r3]
 532 000c 1043     		orr	r0, r2
 533 000e 1860     		str	r0, [r3]
ARM GAS  C:\Users\User\AppData\Local\Temp\ccb68437.s 			page 22


 534              		.loc 1 618 0
 535 0010 7047     		bx	lr
 536              	.L46:
 537 0012 C046     		.align	2
 538              	.L45:
 539 0014 18001A40 		.word	1075445784
 540              		.cfi_endproc
 541              	.LFE10:
 542              		.size	ADC_1_SetHighLimit, .-ADC_1_SetHighLimit
 543              		.section	.text.ADC_1_SetLimitMask,"ax",%progbits
 544              		.align	1
 545              		.global	ADC_1_SetLimitMask
 546              		.code	16
 547              		.thumb_func
 548              		.type	ADC_1_SetLimitMask, %function
 549              	ADC_1_SetLimitMask:
 550              	.LFB11:
 619:.\Generated_Source\PSoC4/ADC_1.c **** 
 620:.\Generated_Source\PSoC4/ADC_1.c **** 
 621:.\Generated_Source\PSoC4/ADC_1.c **** /*******************************************************************************
 622:.\Generated_Source\PSoC4/ADC_1.c **** * Function Name: ADC_1_SetLimitMask
 623:.\Generated_Source\PSoC4/ADC_1.c **** ********************************************************************************
 624:.\Generated_Source\PSoC4/ADC_1.c **** *
 625:.\Generated_Source\PSoC4/ADC_1.c **** * Summary:
 626:.\Generated_Source\PSoC4/ADC_1.c **** *  Sets the channel limit condition mask.
 627:.\Generated_Source\PSoC4/ADC_1.c **** *
 628:.\Generated_Source\PSoC4/ADC_1.c **** * Parameters:
 629:.\Generated_Source\PSoC4/ADC_1.c **** *  mask: Sets which channels that may cause a
 630:.\Generated_Source\PSoC4/ADC_1.c **** *  limit condition interrupt. Setting bits for channels that do not exist
 631:.\Generated_Source\PSoC4/ADC_1.c **** *  will have no effect. For example, if only 6 channels were enabled,
 632:.\Generated_Source\PSoC4/ADC_1.c **** *  setting a mask of 0x0103 would only enable the last two channels (0 and 1).
 633:.\Generated_Source\PSoC4/ADC_1.c **** *
 634:.\Generated_Source\PSoC4/ADC_1.c **** * Return:
 635:.\Generated_Source\PSoC4/ADC_1.c **** *  None.
 636:.\Generated_Source\PSoC4/ADC_1.c **** *
 637:.\Generated_Source\PSoC4/ADC_1.c **** *******************************************************************************/
 638:.\Generated_Source\PSoC4/ADC_1.c **** void ADC_1_SetLimitMask(uint32 mask)
 639:.\Generated_Source\PSoC4/ADC_1.c **** {
 551              		.loc 1 639 0
 552              		.cfi_startproc
 553              	.LVL28:
 640:.\Generated_Source\PSoC4/ADC_1.c ****     ADC_1_SAR_RANGE_INTR_MASK_REG = mask & ADC_1_MAX_CHANNELS_EN_MASK;
 554              		.loc 1 640 0
 555 0000 0123     		mov	r3, #1
 556 0002 1840     		and	r0, r3
 557              	.LVL29:
 558 0004 014B     		ldr	r3, .L48
 641:.\Generated_Source\PSoC4/ADC_1.c **** }
 559              		.loc 1 641 0
 560              		@ sp needed
 640:.\Generated_Source\PSoC4/ADC_1.c ****     ADC_1_SAR_RANGE_INTR_MASK_REG = mask & ADC_1_MAX_CHANNELS_EN_MASK;
 561              		.loc 1 640 0
 562 0006 1860     		str	r0, [r3]
 563              		.loc 1 641 0
 564 0008 7047     		bx	lr
 565              	.L49:
 566 000a C046     		.align	2
ARM GAS  C:\Users\User\AppData\Local\Temp\ccb68437.s 			page 23


 567              	.L48:
 568 000c 38021A40 		.word	1075446328
 569              		.cfi_endproc
 570              	.LFE11:
 571              		.size	ADC_1_SetLimitMask, .-ADC_1_SetLimitMask
 572              		.section	.text.ADC_1_SetSatMask,"ax",%progbits
 573              		.align	1
 574              		.global	ADC_1_SetSatMask
 575              		.code	16
 576              		.thumb_func
 577              		.type	ADC_1_SetSatMask, %function
 578              	ADC_1_SetSatMask:
 579              	.LFB12:
 642:.\Generated_Source\PSoC4/ADC_1.c **** 
 643:.\Generated_Source\PSoC4/ADC_1.c **** 
 644:.\Generated_Source\PSoC4/ADC_1.c **** /*******************************************************************************
 645:.\Generated_Source\PSoC4/ADC_1.c **** * Function Name: ADC_1_SetSatMask
 646:.\Generated_Source\PSoC4/ADC_1.c **** ********************************************************************************
 647:.\Generated_Source\PSoC4/ADC_1.c **** *
 648:.\Generated_Source\PSoC4/ADC_1.c **** * Summary:
 649:.\Generated_Source\PSoC4/ADC_1.c **** *  Sets the channel saturation event mask.
 650:.\Generated_Source\PSoC4/ADC_1.c **** *
 651:.\Generated_Source\PSoC4/ADC_1.c **** * Parameters:
 652:.\Generated_Source\PSoC4/ADC_1.c **** *  mask: Sets which channels that may cause a
 653:.\Generated_Source\PSoC4/ADC_1.c **** *  saturation event interrupt. Setting bits for channels that do not exist
 654:.\Generated_Source\PSoC4/ADC_1.c **** *  will have no effect. For example, if only 8 channels were enabled,
 655:.\Generated_Source\PSoC4/ADC_1.c **** *  setting a mask of 0x01C0 would only enable two channels (6 and 7).
 656:.\Generated_Source\PSoC4/ADC_1.c **** *
 657:.\Generated_Source\PSoC4/ADC_1.c **** * Return:
 658:.\Generated_Source\PSoC4/ADC_1.c **** *  None.
 659:.\Generated_Source\PSoC4/ADC_1.c **** *
 660:.\Generated_Source\PSoC4/ADC_1.c **** *******************************************************************************/
 661:.\Generated_Source\PSoC4/ADC_1.c **** void ADC_1_SetSatMask(uint32 mask)
 662:.\Generated_Source\PSoC4/ADC_1.c **** {
 580              		.loc 1 662 0
 581              		.cfi_startproc
 582              	.LVL30:
 663:.\Generated_Source\PSoC4/ADC_1.c ****     ADC_1_SAR_SATURATE_INTR_MASK_REG = mask & ADC_1_MAX_CHANNELS_EN_MASK;
 583              		.loc 1 663 0
 584 0000 0123     		mov	r3, #1
 585 0002 1840     		and	r0, r3
 586              	.LVL31:
 587 0004 014B     		ldr	r3, .L51
 664:.\Generated_Source\PSoC4/ADC_1.c **** }
 588              		.loc 1 664 0
 589              		@ sp needed
 663:.\Generated_Source\PSoC4/ADC_1.c ****     ADC_1_SAR_SATURATE_INTR_MASK_REG = mask & ADC_1_MAX_CHANNELS_EN_MASK;
 590              		.loc 1 663 0
 591 0006 1860     		str	r0, [r3]
 592              		.loc 1 664 0
 593 0008 7047     		bx	lr
 594              	.L52:
 595 000a C046     		.align	2
 596              	.L51:
 597 000c 28021A40 		.word	1075446312
 598              		.cfi_endproc
 599              	.LFE12:
ARM GAS  C:\Users\User\AppData\Local\Temp\ccb68437.s 			page 24


 600              		.size	ADC_1_SetSatMask, .-ADC_1_SetSatMask
 601              		.section	.text.ADC_1_SetOffset,"ax",%progbits
 602              		.align	1
 603              		.global	ADC_1_SetOffset
 604              		.code	16
 605              		.thumb_func
 606              		.type	ADC_1_SetOffset, %function
 607              	ADC_1_SetOffset:
 608              	.LFB13:
 665:.\Generated_Source\PSoC4/ADC_1.c **** 
 666:.\Generated_Source\PSoC4/ADC_1.c **** 
 667:.\Generated_Source\PSoC4/ADC_1.c **** /*******************************************************************************
 668:.\Generated_Source\PSoC4/ADC_1.c **** * Function Name: ADC_1_SetOffset
 669:.\Generated_Source\PSoC4/ADC_1.c **** ********************************************************************************
 670:.\Generated_Source\PSoC4/ADC_1.c **** *
 671:.\Generated_Source\PSoC4/ADC_1.c **** * Summary:
 672:.\Generated_Source\PSoC4/ADC_1.c **** *   Description: Sets the ADC offset which is used by the functions
 673:.\Generated_Source\PSoC4/ADC_1.c **** *   ADC_CountsTo_uVolts, ADC_CountsTo_mVolts and ADC_CountsTo_Volts
 674:.\Generated_Source\PSoC4/ADC_1.c **** *   to substract the offset from the given reading
 675:.\Generated_Source\PSoC4/ADC_1.c **** *   before calculating the voltage conversion.
 676:.\Generated_Source\PSoC4/ADC_1.c **** *
 677:.\Generated_Source\PSoC4/ADC_1.c **** * Parameters:
 678:.\Generated_Source\PSoC4/ADC_1.c **** *  chan: ADC channel number.
 679:.\Generated_Source\PSoC4/ADC_1.c **** *  offset: This value is a measured value when the
 680:.\Generated_Source\PSoC4/ADC_1.c **** *          inputs are shorted or connected to the same input voltage.
 681:.\Generated_Source\PSoC4/ADC_1.c **** *
 682:.\Generated_Source\PSoC4/ADC_1.c **** * Return:
 683:.\Generated_Source\PSoC4/ADC_1.c **** *  None.
 684:.\Generated_Source\PSoC4/ADC_1.c **** *
 685:.\Generated_Source\PSoC4/ADC_1.c **** * Global variables:
 686:.\Generated_Source\PSoC4/ADC_1.c **** *  ADC_1_Offset:  Modified to set the user provided offset.
 687:.\Generated_Source\PSoC4/ADC_1.c **** *
 688:.\Generated_Source\PSoC4/ADC_1.c **** *******************************************************************************/
 689:.\Generated_Source\PSoC4/ADC_1.c **** void ADC_1_SetOffset(uint32 chan, int16 offset)
 690:.\Generated_Source\PSoC4/ADC_1.c **** {
 609              		.loc 1 690 0
 610              		.cfi_startproc
 611              	.LVL32:
 691:.\Generated_Source\PSoC4/ADC_1.c ****     /* Halt CPU in debug mode if channel is out of valid range */
 692:.\Generated_Source\PSoC4/ADC_1.c ****     CYASSERT(chan < ADC_1_TOTAL_CHANNELS_NUM);
 693:.\Generated_Source\PSoC4/ADC_1.c **** 
 694:.\Generated_Source\PSoC4/ADC_1.c ****     ADC_1_offset[chan] = offset;
 612              		.loc 1 694 0
 613 0000 014B     		ldr	r3, .L54
 614 0002 4000     		lsl	r0, r0, #1
 615              	.LVL33:
 616 0004 C152     		strh	r1, [r0, r3]
 695:.\Generated_Source\PSoC4/ADC_1.c **** }
 617              		.loc 1 695 0
 618              		@ sp needed
 619 0006 7047     		bx	lr
 620              	.L55:
 621              		.align	2
 622              	.L54:
 623 0008 00000000 		.word	ADC_1_offset
 624              		.cfi_endproc
 625              	.LFE13:
ARM GAS  C:\Users\User\AppData\Local\Temp\ccb68437.s 			page 25


 626              		.size	ADC_1_SetOffset, .-ADC_1_SetOffset
 627              		.section	.text.ADC_1_SetGain,"ax",%progbits
 628              		.align	1
 629              		.global	ADC_1_SetGain
 630              		.code	16
 631              		.thumb_func
 632              		.type	ADC_1_SetGain, %function
 633              	ADC_1_SetGain:
 634              	.LFB14:
 696:.\Generated_Source\PSoC4/ADC_1.c **** 
 697:.\Generated_Source\PSoC4/ADC_1.c **** 
 698:.\Generated_Source\PSoC4/ADC_1.c **** /*******************************************************************************
 699:.\Generated_Source\PSoC4/ADC_1.c **** * Function Name: ADC_1_SetGain
 700:.\Generated_Source\PSoC4/ADC_1.c **** ********************************************************************************
 701:.\Generated_Source\PSoC4/ADC_1.c **** *
 702:.\Generated_Source\PSoC4/ADC_1.c **** * Summary:
 703:.\Generated_Source\PSoC4/ADC_1.c **** *  Description: Sets the ADC gain in counts per 10 volt for the voltage
 704:.\Generated_Source\PSoC4/ADC_1.c **** *  conversion functions below. This value is set by default by the
 705:.\Generated_Source\PSoC4/ADC_1.c **** *  reference and input range settings. It should only be used to further
 706:.\Generated_Source\PSoC4/ADC_1.c **** *  calibrate the ADC with a known input or if an external reference is
 707:.\Generated_Source\PSoC4/ADC_1.c **** *  used. Affects the ADC_CountsTo_uVolts, ADC_CountsTo_mVolts
 708:.\Generated_Source\PSoC4/ADC_1.c **** *  and ADC_CountsTo_Volts functions by supplying the correct
 709:.\Generated_Source\PSoC4/ADC_1.c **** *  conversion between ADC counts and voltage.
 710:.\Generated_Source\PSoC4/ADC_1.c **** *
 711:.\Generated_Source\PSoC4/ADC_1.c **** * Parameters:
 712:.\Generated_Source\PSoC4/ADC_1.c **** *  chan: ADC channel number.
 713:.\Generated_Source\PSoC4/ADC_1.c **** *  adcGain: ADC gain in counts per 10 volts.
 714:.\Generated_Source\PSoC4/ADC_1.c **** *
 715:.\Generated_Source\PSoC4/ADC_1.c **** * Return:
 716:.\Generated_Source\PSoC4/ADC_1.c **** *  None.
 717:.\Generated_Source\PSoC4/ADC_1.c **** *
 718:.\Generated_Source\PSoC4/ADC_1.c **** * Global variables:
 719:.\Generated_Source\PSoC4/ADC_1.c **** *  ADC_1_CountsPer10Volt:  modified to set the ADC gain in counts
 720:.\Generated_Source\PSoC4/ADC_1.c **** *   per 10 volt.
 721:.\Generated_Source\PSoC4/ADC_1.c **** *
 722:.\Generated_Source\PSoC4/ADC_1.c **** *******************************************************************************/
 723:.\Generated_Source\PSoC4/ADC_1.c **** void ADC_1_SetGain(uint32 chan, int32 adcGain)
 724:.\Generated_Source\PSoC4/ADC_1.c **** {
 635              		.loc 1 724 0
 636              		.cfi_startproc
 637              	.LVL34:
 725:.\Generated_Source\PSoC4/ADC_1.c ****     /* Halt CPU in debug mode if channel is out of valid range */
 726:.\Generated_Source\PSoC4/ADC_1.c ****     CYASSERT(chan < ADC_1_TOTAL_CHANNELS_NUM);
 727:.\Generated_Source\PSoC4/ADC_1.c **** 
 728:.\Generated_Source\PSoC4/ADC_1.c ****     ADC_1_countsPer10Volt[chan] = adcGain;
 638              		.loc 1 728 0
 639 0000 014B     		ldr	r3, .L57
 640 0002 8000     		lsl	r0, r0, #2
 641              	.LVL35:
 642 0004 C150     		str	r1, [r0, r3]
 729:.\Generated_Source\PSoC4/ADC_1.c **** }
 643              		.loc 1 729 0
 644              		@ sp needed
 645 0006 7047     		bx	lr
 646              	.L58:
 647              		.align	2
 648              	.L57:
ARM GAS  C:\Users\User\AppData\Local\Temp\ccb68437.s 			page 26


 649 0008 00000000 		.word	ADC_1_countsPer10Volt
 650              		.cfi_endproc
 651              	.LFE14:
 652              		.size	ADC_1_SetGain, .-ADC_1_SetGain
 653              		.global	__aeabi_idiv
 654              		.section	.text.ADC_1_CountsTo_mVolts,"ax",%progbits
 655              		.align	1
 656              		.global	ADC_1_CountsTo_mVolts
 657              		.code	16
 658              		.thumb_func
 659              		.type	ADC_1_CountsTo_mVolts, %function
 660              	ADC_1_CountsTo_mVolts:
 661              	.LFB15:
 730:.\Generated_Source\PSoC4/ADC_1.c **** 
 731:.\Generated_Source\PSoC4/ADC_1.c **** 
 732:.\Generated_Source\PSoC4/ADC_1.c **** #if(ADC_1_DEFAULT_JUSTIFICATION_SEL == ADC_1__RIGHT)
 733:.\Generated_Source\PSoC4/ADC_1.c **** 
 734:.\Generated_Source\PSoC4/ADC_1.c **** 
 735:.\Generated_Source\PSoC4/ADC_1.c ****     /*******************************************************************************
 736:.\Generated_Source\PSoC4/ADC_1.c ****     * Function Name: ADC_1_CountsTo_mVolts
 737:.\Generated_Source\PSoC4/ADC_1.c ****     ********************************************************************************
 738:.\Generated_Source\PSoC4/ADC_1.c ****     *
 739:.\Generated_Source\PSoC4/ADC_1.c ****     * Summary:
 740:.\Generated_Source\PSoC4/ADC_1.c ****     *  This function converts ADC counts to mVolts
 741:.\Generated_Source\PSoC4/ADC_1.c ****     *  This function is not available when left data format justification selected.
 742:.\Generated_Source\PSoC4/ADC_1.c ****     *
 743:.\Generated_Source\PSoC4/ADC_1.c ****     * Parameters:
 744:.\Generated_Source\PSoC4/ADC_1.c ****     *  chan: The ADC channel number.
 745:.\Generated_Source\PSoC4/ADC_1.c ****     *  adcCounts: Result from the ADC conversion
 746:.\Generated_Source\PSoC4/ADC_1.c ****     *
 747:.\Generated_Source\PSoC4/ADC_1.c ****     * Return:
 748:.\Generated_Source\PSoC4/ADC_1.c ****     *  Results in mVolts
 749:.\Generated_Source\PSoC4/ADC_1.c ****     *
 750:.\Generated_Source\PSoC4/ADC_1.c ****     * Global variables:
 751:.\Generated_Source\PSoC4/ADC_1.c ****     *  ADC_1_countsPer10Volt:  used to convert ADC counts to mVolts.
 752:.\Generated_Source\PSoC4/ADC_1.c ****     *  ADC_1_Offset:  Used as the offset while converting ADC counts
 753:.\Generated_Source\PSoC4/ADC_1.c ****     *   to mVolts.
 754:.\Generated_Source\PSoC4/ADC_1.c ****     *
 755:.\Generated_Source\PSoC4/ADC_1.c ****     *******************************************************************************/
 756:.\Generated_Source\PSoC4/ADC_1.c ****     int16 ADC_1_CountsTo_mVolts(uint32 chan, int16 adcCounts)
 757:.\Generated_Source\PSoC4/ADC_1.c ****     {
 662              		.loc 1 757 0
 663              		.cfi_startproc
 664              	.LVL36:
 665 0000 38B5     		push	{r3, r4, r5, lr}
 666              		.cfi_def_cfa_offset 16
 667              		.cfi_offset 3, -16
 668              		.cfi_offset 4, -12
 669              		.cfi_offset 5, -8
 670              		.cfi_offset 14, -4
 758:.\Generated_Source\PSoC4/ADC_1.c ****         int16 mVolts;
 759:.\Generated_Source\PSoC4/ADC_1.c **** 
 760:.\Generated_Source\PSoC4/ADC_1.c ****         /* Halt CPU in debug mode if channel is out of valid range */
 761:.\Generated_Source\PSoC4/ADC_1.c ****         CYASSERT(chan < ADC_1_TOTAL_CHANNELS_NUM);
 762:.\Generated_Source\PSoC4/ADC_1.c **** 
 763:.\Generated_Source\PSoC4/ADC_1.c ****         /* Divide the adcCount when accumulate averaging mode selected */
 764:.\Generated_Source\PSoC4/ADC_1.c ****         #if(ADC_1_DEFAULT_AVG_MODE == ADC_1__ACCUMULATE)
ARM GAS  C:\Users\User\AppData\Local\Temp\ccb68437.s 			page 27


 765:.\Generated_Source\PSoC4/ADC_1.c ****             if((ADC_1_channelsConfig[chan] & ADC_1_AVERAGING_EN) != 0u)
 766:.\Generated_Source\PSoC4/ADC_1.c ****             {
 767:.\Generated_Source\PSoC4/ADC_1.c ****                 adcCounts /= ADC_1_DEFAULT_AVG_SAMPLES_DIV;
 768:.\Generated_Source\PSoC4/ADC_1.c ****             }
 769:.\Generated_Source\PSoC4/ADC_1.c ****         #endif /* ADC_1_DEFAULT_AVG_MODE == ADC_1__ACCUMULATE */
 770:.\Generated_Source\PSoC4/ADC_1.c **** 
 771:.\Generated_Source\PSoC4/ADC_1.c ****         /* Subtract ADC offset */
 772:.\Generated_Source\PSoC4/ADC_1.c ****         adcCounts -= ADC_1_offset[chan];
 671              		.loc 1 772 0
 672 0002 0E4B     		ldr	r3, .L62
 673 0004 4200     		lsl	r2, r0, #1
 674 0006 D25A     		ldrh	r2, [r2, r3]
 767:.\Generated_Source\PSoC4/ADC_1.c ****             }
 675              		.loc 1 767 0
 676 0008 CB17     		asr	r3, r1, #31
 677 000a 5B0F     		lsr	r3, r3, #29
 678 000c 5918     		add	r1, r3, r1
 679              	.LVL37:
 680 000e 0C4D     		ldr	r5, .L62+4
 681 0010 C910     		asr	r1, r1, #3
 682 0012 8000     		lsl	r0, r0, #2
 683              	.LVL38:
 684              		.loc 1 772 0
 685 0014 891A     		sub	r1, r1, r2
 773:.\Generated_Source\PSoC4/ADC_1.c **** 
 774:.\Generated_Source\PSoC4/ADC_1.c ****         mVolts = (int16)((((int32)adcCounts * ADC_1_10MV_COUNTS) + ( (adcCounts > 0) ?
 686              		.loc 1 774 0
 687 0016 0B4C     		ldr	r4, .L62+8
 775:.\Generated_Source\PSoC4/ADC_1.c ****                  (ADC_1_countsPer10Volt[chan] / 2) : (-(ADC_1_countsPer10Volt[chan] / 2)) ))
 688              		.loc 1 775 0
 689 0018 2A58     		ldr	r2, [r5, r0]
 772:.\Generated_Source\PSoC4/ADC_1.c **** 
 690              		.loc 1 772 0
 691 001a 09B2     		sxth	r1, r1
 692              	.LVL39:
 774:.\Generated_Source\PSoC4/ADC_1.c ****                  (ADC_1_countsPer10Volt[chan] / 2) : (-(ADC_1_countsPer10Volt[chan] / 2)) ))
 693              		.loc 1 774 0
 694 001c 4C43     		mul	r4, r1
 695              		.loc 1 775 0
 696 001e D30F     		lsr	r3, r2, #31
 697 0020 0029     		cmp	r1, #0
 698 0022 02DD     		ble	.L60
 699              		.loc 1 775 0 is_stmt 0 discriminator 1
 700 0024 9B18     		add	r3, r3, r2
 701 0026 5B10     		asr	r3, r3, #1
 702 0028 02E0     		b	.L61
 703              	.L60:
 704              		.loc 1 775 0 discriminator 2
 705 002a 9A18     		add	r2, r3, r2
 706 002c 5210     		asr	r2, r2, #1
 707 002e 5342     		neg	r3, r2
 708              	.L61:
 776:.\Generated_Source\PSoC4/ADC_1.c ****                  / ADC_1_countsPer10Volt[chan]);
 709              		.loc 1 776 0 is_stmt 1
 710 0030 2958     		ldr	r1, [r5, r0]
 711              	.LVL40:
 774:.\Generated_Source\PSoC4/ADC_1.c ****                  (ADC_1_countsPer10Volt[chan] / 2) : (-(ADC_1_countsPer10Volt[chan] / 2)) ))
ARM GAS  C:\Users\User\AppData\Local\Temp\ccb68437.s 			page 28


 712              		.loc 1 774 0
 713 0032 E018     		add	r0, r4, r3
 714              		.loc 1 776 0
 715 0034 FFF7FEFF 		bl	__aeabi_idiv
 716              	.LVL41:
 777:.\Generated_Source\PSoC4/ADC_1.c **** 
 778:.\Generated_Source\PSoC4/ADC_1.c ****         return( mVolts );
 779:.\Generated_Source\PSoC4/ADC_1.c ****     }
 717              		.loc 1 779 0
 718              		@ sp needed
 778:.\Generated_Source\PSoC4/ADC_1.c ****     }
 719              		.loc 1 778 0
 720 0038 00B2     		sxth	r0, r0
 721              		.loc 1 779 0
 722 003a 38BD     		pop	{r3, r4, r5, pc}
 723              	.L63:
 724              		.align	2
 725              	.L62:
 726 003c 00000000 		.word	ADC_1_offset
 727 0040 00000000 		.word	ADC_1_countsPer10Volt
 728 0044 10270000 		.word	10000
 729              		.cfi_endproc
 730              	.LFE15:
 731              		.size	ADC_1_CountsTo_mVolts, .-ADC_1_CountsTo_mVolts
 732              		.global	__aeabi_lmul
 733              		.global	__aeabi_ldivmod
 734              		.section	.text.ADC_1_CountsTo_uVolts,"ax",%progbits
 735              		.align	1
 736              		.global	ADC_1_CountsTo_uVolts
 737              		.code	16
 738              		.thumb_func
 739              		.type	ADC_1_CountsTo_uVolts, %function
 740              	ADC_1_CountsTo_uVolts:
 741              	.LFB16:
 780:.\Generated_Source\PSoC4/ADC_1.c **** 
 781:.\Generated_Source\PSoC4/ADC_1.c **** 
 782:.\Generated_Source\PSoC4/ADC_1.c ****     /*******************************************************************************
 783:.\Generated_Source\PSoC4/ADC_1.c ****     * Function Name: ADC_1_CountsTo_uVolts
 784:.\Generated_Source\PSoC4/ADC_1.c ****     ********************************************************************************
 785:.\Generated_Source\PSoC4/ADC_1.c ****     *
 786:.\Generated_Source\PSoC4/ADC_1.c ****     * Summary:
 787:.\Generated_Source\PSoC4/ADC_1.c ****     *  This function converts ADC counts to micro Volts
 788:.\Generated_Source\PSoC4/ADC_1.c ****     *  This function is not available when left data format justification selected.
 789:.\Generated_Source\PSoC4/ADC_1.c ****     *
 790:.\Generated_Source\PSoC4/ADC_1.c ****     * Parameters:
 791:.\Generated_Source\PSoC4/ADC_1.c ****     *  chan: The ADC channel number.
 792:.\Generated_Source\PSoC4/ADC_1.c ****     *  adcCounts: Result from the ADC conversion
 793:.\Generated_Source\PSoC4/ADC_1.c ****     *
 794:.\Generated_Source\PSoC4/ADC_1.c ****     * Return:
 795:.\Generated_Source\PSoC4/ADC_1.c ****     *  Results in uVolts
 796:.\Generated_Source\PSoC4/ADC_1.c ****     *
 797:.\Generated_Source\PSoC4/ADC_1.c ****     * Global variables:
 798:.\Generated_Source\PSoC4/ADC_1.c ****     *  ADC_1_countsPer10Volt:  used to convert ADC counts to uVolts.
 799:.\Generated_Source\PSoC4/ADC_1.c ****     *  ADC_1_Offset:  Used as the offset while converting ADC counts
 800:.\Generated_Source\PSoC4/ADC_1.c ****     *   to mVolts.
 801:.\Generated_Source\PSoC4/ADC_1.c ****     *
 802:.\Generated_Source\PSoC4/ADC_1.c ****     * Theory:
ARM GAS  C:\Users\User\AppData\Local\Temp\ccb68437.s 			page 29


 803:.\Generated_Source\PSoC4/ADC_1.c ****     *  Care must be taken to not exceed the maximum value for a 31 bit signed
 804:.\Generated_Source\PSoC4/ADC_1.c ****     *  number in the conversion to uVolts and at the same time not loose
 805:.\Generated_Source\PSoC4/ADC_1.c ****     *  resolution.
 806:.\Generated_Source\PSoC4/ADC_1.c ****     *  To convert adcCounts to microVolts it is required to be multiplied
 807:.\Generated_Source\PSoC4/ADC_1.c ****     *  on 10 million and later divide on gain in counts per 10V.
 808:.\Generated_Source\PSoC4/ADC_1.c ****     *
 809:.\Generated_Source\PSoC4/ADC_1.c ****     *******************************************************************************/
 810:.\Generated_Source\PSoC4/ADC_1.c ****     int32 ADC_1_CountsTo_uVolts(uint32 chan, int16 adcCounts)
 811:.\Generated_Source\PSoC4/ADC_1.c ****     {
 742              		.loc 1 811 0
 743              		.cfi_startproc
 744              	.LVL42:
 812:.\Generated_Source\PSoC4/ADC_1.c ****         int64 uVolts;
 813:.\Generated_Source\PSoC4/ADC_1.c **** 
 814:.\Generated_Source\PSoC4/ADC_1.c ****         /* Halt CPU in debug mode if channel is out of valid range */
 815:.\Generated_Source\PSoC4/ADC_1.c ****         CYASSERT(chan < ADC_1_TOTAL_CHANNELS_NUM);
 816:.\Generated_Source\PSoC4/ADC_1.c **** 
 817:.\Generated_Source\PSoC4/ADC_1.c ****         /* Divide the adcCount when accumulate averaging mode selected */
 818:.\Generated_Source\PSoC4/ADC_1.c ****         #if(ADC_1_DEFAULT_AVG_MODE == ADC_1__ACCUMULATE)
 819:.\Generated_Source\PSoC4/ADC_1.c ****             if((ADC_1_channelsConfig[chan] & ADC_1_AVERAGING_EN) != 0u)
 820:.\Generated_Source\PSoC4/ADC_1.c ****             {
 821:.\Generated_Source\PSoC4/ADC_1.c ****                 adcCounts /= ADC_1_DEFAULT_AVG_SAMPLES_DIV;
 822:.\Generated_Source\PSoC4/ADC_1.c ****             }
 823:.\Generated_Source\PSoC4/ADC_1.c ****         #endif /* ADC_1_DEFAULT_AVG_MODE == ADC_1__ACCUMULATE */
 824:.\Generated_Source\PSoC4/ADC_1.c **** 
 825:.\Generated_Source\PSoC4/ADC_1.c ****         /* Subtract ADC offset */
 826:.\Generated_Source\PSoC4/ADC_1.c ****         adcCounts -= ADC_1_offset[chan];
 745              		.loc 1 826 0
 746 0000 0B4B     		ldr	r3, .L65
 747 0002 4200     		lsl	r2, r0, #1
 748 0004 D25A     		ldrh	r2, [r2, r3]
 821:.\Generated_Source\PSoC4/ADC_1.c ****             }
 749              		.loc 1 821 0
 750 0006 CB17     		asr	r3, r1, #31
 751 0008 5B0F     		lsr	r3, r3, #29
 752 000a 5918     		add	r1, r3, r1
 753              	.LVL43:
 811:.\Generated_Source\PSoC4/ADC_1.c ****         int64 uVolts;
 754              		.loc 1 811 0
 755 000c 10B5     		push	{r4, lr}
 756              		.cfi_def_cfa_offset 8
 757              		.cfi_offset 4, -8
 758              		.cfi_offset 14, -4
 827:.\Generated_Source\PSoC4/ADC_1.c **** 
 828:.\Generated_Source\PSoC4/ADC_1.c ****         uVolts = ((int64)adcCounts * ADC_1_10UV_COUNTS) / ADC_1_countsPer10Volt[chan];
 759              		.loc 1 828 0
 760 000e 094B     		ldr	r3, .L65+4
 821:.\Generated_Source\PSoC4/ADC_1.c ****             }
 761              		.loc 1 821 0
 762 0010 C910     		asr	r1, r1, #3
 826:.\Generated_Source\PSoC4/ADC_1.c **** 
 763              		.loc 1 826 0
 764 0012 891A     		sub	r1, r1, r2
 765              	.LVL44:
 766              		.loc 1 828 0
 767 0014 8000     		lsl	r0, r0, #2
 768              	.LVL45:
ARM GAS  C:\Users\User\AppData\Local\Temp\ccb68437.s 			page 30


 769 0016 C458     		ldr	r4, [r0, r3]
 770              	.LVL46:
 771 0018 08B2     		sxth	r0, r1
 772 001a 074A     		ldr	r2, .L65+8
 773 001c 0023     		mov	r3, #0
 774 001e C117     		asr	r1, r0, #31
 775              	.LVL47:
 776 0020 FFF7FEFF 		bl	__aeabi_lmul
 777              	.LVL48:
 778 0024 E317     		asr	r3, r4, #31
 779 0026 221C     		mov	r2, r4
 780 0028 FFF7FEFF 		bl	__aeabi_ldivmod
 781              	.LVL49:
 829:.\Generated_Source\PSoC4/ADC_1.c **** 
 830:.\Generated_Source\PSoC4/ADC_1.c ****         return( (int32)uVolts );
 831:.\Generated_Source\PSoC4/ADC_1.c ****     }
 782              		.loc 1 831 0
 783              		@ sp needed
 784 002c 10BD     		pop	{r4, pc}
 785              	.L66:
 786 002e C046     		.align	2
 787              	.L65:
 788 0030 00000000 		.word	ADC_1_offset
 789 0034 00000000 		.word	ADC_1_countsPer10Volt
 790 0038 80969800 		.word	10000000
 791              		.cfi_endproc
 792              	.LFE16:
 793              		.size	ADC_1_CountsTo_uVolts, .-ADC_1_CountsTo_uVolts
 794              		.global	__aeabi_i2f
 795              		.global	__aeabi_fmul
 796              		.global	__aeabi_fdiv
 797              		.section	.text.ADC_1_CountsTo_Volts,"ax",%progbits
 798              		.align	1
 799              		.global	ADC_1_CountsTo_Volts
 800              		.code	16
 801              		.thumb_func
 802              		.type	ADC_1_CountsTo_Volts, %function
 803              	ADC_1_CountsTo_Volts:
 804              	.LFB17:
 832:.\Generated_Source\PSoC4/ADC_1.c **** 
 833:.\Generated_Source\PSoC4/ADC_1.c **** 
 834:.\Generated_Source\PSoC4/ADC_1.c ****     /*******************************************************************************
 835:.\Generated_Source\PSoC4/ADC_1.c ****     * Function Name: ADC_1_CountsTo_Volts
 836:.\Generated_Source\PSoC4/ADC_1.c ****     ********************************************************************************
 837:.\Generated_Source\PSoC4/ADC_1.c ****     *
 838:.\Generated_Source\PSoC4/ADC_1.c ****     * Summary:
 839:.\Generated_Source\PSoC4/ADC_1.c ****     *  Converts the ADC output to Volts as a floating point number.
 840:.\Generated_Source\PSoC4/ADC_1.c ****     *  This function is not available when left data format justification selected.
 841:.\Generated_Source\PSoC4/ADC_1.c ****     *
 842:.\Generated_Source\PSoC4/ADC_1.c ****     * Parameters:
 843:.\Generated_Source\PSoC4/ADC_1.c ****     *  chan: The ADC channel number.
 844:.\Generated_Source\PSoC4/ADC_1.c ****     *  Result from the ADC conversion
 845:.\Generated_Source\PSoC4/ADC_1.c ****     *
 846:.\Generated_Source\PSoC4/ADC_1.c ****     * Return:
 847:.\Generated_Source\PSoC4/ADC_1.c ****     *  Results in Volts
 848:.\Generated_Source\PSoC4/ADC_1.c ****     *
 849:.\Generated_Source\PSoC4/ADC_1.c ****     * Global variables:
ARM GAS  C:\Users\User\AppData\Local\Temp\ccb68437.s 			page 31


 850:.\Generated_Source\PSoC4/ADC_1.c ****     *  ADC_1_countsPer10Volt:  used to convert ADC counts to Volts.
 851:.\Generated_Source\PSoC4/ADC_1.c ****     *  ADC_1_Offset:  Used as the offset while converting ADC counts
 852:.\Generated_Source\PSoC4/ADC_1.c ****     *   to mVolts.
 853:.\Generated_Source\PSoC4/ADC_1.c ****     *
 854:.\Generated_Source\PSoC4/ADC_1.c ****     *******************************************************************************/
 855:.\Generated_Source\PSoC4/ADC_1.c ****     float32 ADC_1_CountsTo_Volts(uint32 chan, int16 adcCounts)
 856:.\Generated_Source\PSoC4/ADC_1.c ****     {
 805              		.loc 1 856 0
 806              		.cfi_startproc
 807              	.LVL50:
 808 0000 38B5     		push	{r3, r4, r5, lr}
 809              		.cfi_def_cfa_offset 16
 810              		.cfi_offset 3, -16
 811              		.cfi_offset 4, -12
 812              		.cfi_offset 5, -8
 813              		.cfi_offset 14, -4
 857:.\Generated_Source\PSoC4/ADC_1.c ****         float32 volts;
 858:.\Generated_Source\PSoC4/ADC_1.c **** 
 859:.\Generated_Source\PSoC4/ADC_1.c ****         /* Halt CPU in debug mode if channel is out of valid range */
 860:.\Generated_Source\PSoC4/ADC_1.c ****         CYASSERT(chan < ADC_1_TOTAL_CHANNELS_NUM);
 861:.\Generated_Source\PSoC4/ADC_1.c **** 
 862:.\Generated_Source\PSoC4/ADC_1.c ****         /* Divide the adcCount when accumulate averaging mode selected */
 863:.\Generated_Source\PSoC4/ADC_1.c ****         #if(ADC_1_DEFAULT_AVG_MODE == ADC_1__ACCUMULATE)
 864:.\Generated_Source\PSoC4/ADC_1.c ****             if((ADC_1_channelsConfig[chan] & ADC_1_AVERAGING_EN) != 0u)
 865:.\Generated_Source\PSoC4/ADC_1.c ****             {
 866:.\Generated_Source\PSoC4/ADC_1.c ****                 adcCounts /= ADC_1_DEFAULT_AVG_SAMPLES_DIV;
 867:.\Generated_Source\PSoC4/ADC_1.c ****             }
 868:.\Generated_Source\PSoC4/ADC_1.c ****         #endif /* ADC_1_DEFAULT_AVG_MODE == ADC_1__ACCUMULATE */
 869:.\Generated_Source\PSoC4/ADC_1.c **** 
 870:.\Generated_Source\PSoC4/ADC_1.c ****         /* Subtract ADC offset */
 871:.\Generated_Source\PSoC4/ADC_1.c ****         adcCounts -= ADC_1_offset[chan];
 814              		.loc 1 871 0
 815 0002 0D4B     		ldr	r3, .L68
 816 0004 4200     		lsl	r2, r0, #1
 817 0006 D25A     		ldrh	r2, [r2, r3]
 866:.\Generated_Source\PSoC4/ADC_1.c ****             }
 818              		.loc 1 866 0
 819 0008 CB17     		asr	r3, r1, #31
 820 000a 5B0F     		lsr	r3, r3, #29
 821 000c 5918     		add	r1, r3, r1
 822              	.LVL51:
 823 000e C910     		asr	r1, r1, #3
 872:.\Generated_Source\PSoC4/ADC_1.c **** 
 873:.\Generated_Source\PSoC4/ADC_1.c ****         volts = ((float32)adcCounts * ADC_1_10V_COUNTS) / (float32)ADC_1_countsPer10Volt[chan];
 824              		.loc 1 873 0
 825 0010 0A4B     		ldr	r3, .L68+4
 871:.\Generated_Source\PSoC4/ADC_1.c **** 
 826              		.loc 1 871 0
 827 0012 891A     		sub	r1, r1, r2
 828              	.LVL52:
 829              		.loc 1 873 0
 830 0014 8000     		lsl	r0, r0, #2
 831              	.LVL53:
 832 0016 C558     		ldr	r5, [r0, r3]
 833              	.LVL54:
 834 0018 08B2     		sxth	r0, r1
 835 001a FFF7FEFF 		bl	__aeabi_i2f
ARM GAS  C:\Users\User\AppData\Local\Temp\ccb68437.s 			page 32


 836              	.LVL55:
 837 001e 0849     		ldr	r1, .L68+8
 838 0020 FFF7FEFF 		bl	__aeabi_fmul
 839              	.LVL56:
 840 0024 041C     		add	r4, r0, #0
 841 0026 281C     		mov	r0, r5
 842 0028 FFF7FEFF 		bl	__aeabi_i2f
 843              	.LVL57:
 844 002c 011C     		add	r1, r0, #0
 845 002e 201C     		add	r0, r4, #0
 846 0030 FFF7FEFF 		bl	__aeabi_fdiv
 847              	.LVL58:
 874:.\Generated_Source\PSoC4/ADC_1.c **** 
 875:.\Generated_Source\PSoC4/ADC_1.c ****         return( volts );
 876:.\Generated_Source\PSoC4/ADC_1.c ****     }
 848              		.loc 1 876 0
 849              		@ sp needed
 850 0034 38BD     		pop	{r3, r4, r5, pc}
 851              	.L69:
 852 0036 C046     		.align	2
 853              	.L68:
 854 0038 00000000 		.word	ADC_1_offset
 855 003c 00000000 		.word	ADC_1_countsPer10Volt
 856 0040 00002041 		.word	1092616192
 857              		.cfi_endproc
 858              	.LFE17:
 859              		.size	ADC_1_CountsTo_Volts, .-ADC_1_CountsTo_Volts
 860              		.comm	ADC_1_countsPer10Volt,4,4
 861              		.comm	ADC_1_offset,2,2
 862              		.global	ADC_1_initVar
 863              		.bss
 864              		.set	.LANCHOR0,. + 0
 865              		.type	ADC_1_initVar, %object
 866              		.size	ADC_1_initVar, 1
 867              	ADC_1_initVar:
 868 0000 00       		.space	1
 869              		.text
 870              	.Letext0:
 871              		.file 2 ".\\Generated_Source\\PSoC4\\cytypes.h"
 872              		.file 3 ".\\Generated_Source\\PSoC4\\CyLib.h"