ARM GAS  C:\Users\User\AppData\Local\Temp\cctjmLxv.s 			page 1


   1              		.cpu cortex-m0
   2              		.fpu softvfp
   3              		.eabi_attribute 20, 1
   4              		.eabi_attribute 21, 1
   5              		.eabi_attribute 23, 3
   6              		.eabi_attribute 24, 1
   7              		.eabi_attribute 25, 1
   8              		.eabi_attribute 26, 1
   9              		.eabi_attribute 30, 4
  10              		.eabi_attribute 34, 0
  11              		.eabi_attribute 18, 4
  12              		.code	16
  13              		.file	"ssd1306.c"
  14              		.text
  15              	.Ltext0:
  16              		.cfi_sections	.debug_frame
  17              		.section	.text.display_write_buf,"ax",%progbits
  18              		.align	1
  19              		.code	16
  20              		.thumb_func
  21              		.type	display_write_buf, %function
  22              	display_write_buf:
  23              	.LFB35:
  24              		.file 1 ".\\ssd1306.c"
   1:.\ssd1306.c   **** /*
   2:.\ssd1306.c   **** 
   3:.\ssd1306.c   **** SSD1306 OLED - I2C driver
   4:.\ssd1306.c   **** 
   5:.\ssd1306.c   **** Derk Steggewentz, 3/2015 
   6:.\ssd1306.c   **** 
   7:.\ssd1306.c   **** This is a I2C driver for SSD1306 OLED displays including graphics library.
   8:.\ssd1306.c   **** 
   9:.\ssd1306.c   **** 
  10:.\ssd1306.c   **** The graphics library part (gfx_ functions) is based on the Adafruit graphics library.
  11:.\ssd1306.c   **** 
  12:.\ssd1306.c   **** 
  13:.\ssd1306.c   **** No license restrictions on my part, do whatever you want as long as you follow the inherited
  14:.\ssd1306.c   **** license requirements (applying to the Adafruit graphics library part).
  15:.\ssd1306.c   **** 
  16:.\ssd1306.c   **** 
  17:.\ssd1306.c   **** ===== derived license (for graphics library) ======
  18:.\ssd1306.c   **** 
  19:.\ssd1306.c   **** Copyright (c) 2013 Adafruit Industries. All rights reserved.
  20:.\ssd1306.c   **** 
  21:.\ssd1306.c   **** Redistribution and use in source and binary forms, with or without
  22:.\ssd1306.c   **** modification, are permitted provided that the following conditions are met:
  23:.\ssd1306.c   **** - Redistributions of source code must retain the above copyright notice,
  24:.\ssd1306.c   **** this list of conditions and the following disclaimer.
  25:.\ssd1306.c   **** - Redistributions in binary form must reproduce the above copyright notice,
  26:.\ssd1306.c   **** this list of conditions and the following disclaimer in the documentation
  27:.\ssd1306.c   **** and/or other materials provided with the distribution.
  28:.\ssd1306.c   **** THIS SOFTWARE IS PROVIDED BY THE COPYRIGHT HOLDERS AND CONTRIBUTORS "AS IS"
  29:.\ssd1306.c   **** AND ANY EXPRESS OR IMPLIED WARRANTIES, INCLUDING, BUT NOT LIMITED TO, THE
  30:.\ssd1306.c   **** IMPLIED WARRANTIES OF MERCHANTABILITY AND FITNESS FOR A PARTICULAR PURPOSE
  31:.\ssd1306.c   **** ARE DISCLAIMED. IN NO EVENT SHALL THE COPYRIGHT HOLDER OR CONTRIBUTORS BE
  32:.\ssd1306.c   **** LIABLE FOR ANY DIRECT, INDIRECT, INCIDENTAL, SPECIAL, EXEMPLARY, OR
  33:.\ssd1306.c   **** CONSEQUENTIAL DAMAGES (INCLUDING, BUT NOT LIMITED TO, PROCUREMENT OF
ARM GAS  C:\Users\User\AppData\Local\Temp\cctjmLxv.s 			page 2


  34:.\ssd1306.c   **** SUBSTITUTE GOODS OR SERVICES; LOSS OF USE, DATA, OR PROFITS; OR BUSINESS
  35:.\ssd1306.c   **** INTERRUPTION) HOWEVER CAUSED AND ON ANY THEORY OF LIABILITY, WHETHER IN
  36:.\ssd1306.c   **** CONTRACT, STRICT LIABILITY, OR TORT (INCLUDING NEGLIGENCE OR OTHERWISE)
  37:.\ssd1306.c   **** ARISING IN ANY WAY OUT OF THE USE OF THIS SOFTWARE, EVEN IF ADVISED OF THE
  38:.\ssd1306.c   **** POSSIBILITY OF SUCH DAMAGE.
  39:.\ssd1306.c   **** 
  40:.\ssd1306.c   **** */
  41:.\ssd1306.c   **** 
  42:.\ssd1306.c   **** 
  43:.\ssd1306.c   **** #include <project.h>
  44:.\ssd1306.c   **** #include <stdlib.h>
  45:.\ssd1306.c   **** 
  46:.\ssd1306.c   **** #include "font.h"
  47:.\ssd1306.c   **** #include "ssd1306.h"
  48:.\ssd1306.c   **** 
  49:.\ssd1306.c   **** 
  50:.\ssd1306.c   **** #define DISPLAYWIDTH 128
  51:.\ssd1306.c   **** #define DISPLAYHEIGHT 64
  52:.\ssd1306.c   ****     
  53:.\ssd1306.c   **** #define SSD1306_SETCONTRAST 0x81
  54:.\ssd1306.c   **** #define SSD1306_DISPLAYALLON_RESUME 0xA4
  55:.\ssd1306.c   **** #define SSD1306_DISPLAYALLON 0xA5
  56:.\ssd1306.c   **** #define SSD1306_NORMALDISPLAY 0xA6
  57:.\ssd1306.c   **** #define SSD1306_INVERTDISPLAY 0xA7
  58:.\ssd1306.c   **** #define SSD1306_DISPLAYOFF 0xAE
  59:.\ssd1306.c   **** #define SSD1306_DISPLAYON 0xAF
  60:.\ssd1306.c   **** #define SSD1306_SETDISPLAYOFFSET 0xD3
  61:.\ssd1306.c   **** #define SSD1306_SETCOMPINS 0xDA
  62:.\ssd1306.c   **** #define SSD1306_SETVCOMDETECT 0xDB
  63:.\ssd1306.c   **** #define SSD1306_SETDISPLAYCLOCKDIV 0xD5
  64:.\ssd1306.c   **** #define SSD1306_SETPRECHARGE 0xD9
  65:.\ssd1306.c   **** #define SSD1306_SETMULTIPLEX 0xA8
  66:.\ssd1306.c   **** #define SSD1306_SETLOWCOLUMN 0x00
  67:.\ssd1306.c   **** #define SSD1306_SETHIGHCOLUMN 0x10
  68:.\ssd1306.c   **** #define SSD1306_SETSTARTLINE 0x40
  69:.\ssd1306.c   **** #define SSD1306_MEMORYMODE 0x20
  70:.\ssd1306.c   **** #define SSD1306_COLUMNADDR 0x21
  71:.\ssd1306.c   **** #define SSD1306_PAGEADDR 0x22
  72:.\ssd1306.c   **** #define SSD1306_COMSCANINC 0xC0
  73:.\ssd1306.c   **** #define SSD1306_COMSCANDEC 0xC8
  74:.\ssd1306.c   **** #define SSD1306_SEGREMAP 0xA0
  75:.\ssd1306.c   **** #define SSD1306_CHARGEPUMP 0x8D
  76:.\ssd1306.c   **** #define SSD1306_EXTERNALVCC 0x1
  77:.\ssd1306.c   **** #define SSD1306_SWITCHCAPVCC 0x2
  78:.\ssd1306.c   **** #define SSD1306_ACTIVATE_SCROLL 0x2F
  79:.\ssd1306.c   **** #define SSD1306_DEACTIVATE_SCROLL 0x2E
  80:.\ssd1306.c   **** 
  81:.\ssd1306.c   **** 
  82:.\ssd1306.c   **** // I2C result status
  83:.\ssd1306.c   **** #define TRANSFER_CMPLT    (0x00u)
  84:.\ssd1306.c   **** #define TRANSFER_ERROR    (0xFFu)
  85:.\ssd1306.c   **** 
  86:.\ssd1306.c   **** 
  87:.\ssd1306.c   **** static uint32 display_write_buf( uint8* buf, uint16_t size );
  88:.\ssd1306.c   **** 
  89:.\ssd1306.c   **** void gfx_init( int16_t width, int16_t height );
  90:.\ssd1306.c   **** 
ARM GAS  C:\Users\User\AppData\Local\Temp\cctjmLxv.s 			page 3


  91:.\ssd1306.c   **** static uint8 _i2caddr;
  92:.\ssd1306.c   **** 
  93:.\ssd1306.c   **** // display memory buffer ( === MUST INCLUDE === the preceding I2C 0x40 control byte for the display
  94:.\ssd1306.c   **** static uint8_t SSD1306_buffer[DISPLAYHEIGHT * DISPLAYWIDTH / 8 + 1] = { 0x40 };
  95:.\ssd1306.c   **** // pointer to actual display memory buffer
  96:.\ssd1306.c   **** static uint8_t* _displaybuf = SSD1306_buffer+1;
  97:.\ssd1306.c   **** static uint16_t _displaybuf_size = sizeof(SSD1306_buffer) - 1;
  98:.\ssd1306.c   **** 
  99:.\ssd1306.c   **** // see data sheet page 25 for Graphic Display Data RAM organization
 100:.\ssd1306.c   **** // 8 pages, each page a row of DISPLAYWIDTH bytes
 101:.\ssd1306.c   **** // start address of of row: y/8*DISPLAYWIDTH
 102:.\ssd1306.c   **** // x pos in row: == x 
 103:.\ssd1306.c   **** #define GDDRAM_ADDRESS(X,Y) ((_displaybuf)+((Y)/8)*(DISPLAYWIDTH)+(X))
 104:.\ssd1306.c   **** 
 105:.\ssd1306.c   **** // lower 3 bit of y determine vertical pixel position (pos 0...7) in GDDRAM byte
 106:.\ssd1306.c   **** // (y&0x07) == position of pixel on row (page). LSB is top, MSB bottom
 107:.\ssd1306.c   **** #define GDDRAM_PIXMASK(Y) (1 << ((Y)&0x07))
 108:.\ssd1306.c   **** 
 109:.\ssd1306.c   **** #define PIXEL_ON(X,Y) (*GDDRAM_ADDRESS(x,y) |= GDDRAM_PIXMASK(y))
 110:.\ssd1306.c   **** #define PIXEL_OFF(X,Y) (*GDDRAM_ADDRESS(x,y) &= ~GDDRAM_PIXMASK(y))
 111:.\ssd1306.c   **** #define PIXEL_TOGGLE(X,Y) (*GDDRAM_ADDRESS(x,y) ^= GDDRAM_PIXMASK(y)) 
 112:.\ssd1306.c   **** 
 113:.\ssd1306.c   **** 
 114:.\ssd1306.c   **** 
 115:.\ssd1306.c   **** // call before first use of other functions
 116:.\ssd1306.c   **** void display_init( uint8 i2caddr ){
 117:.\ssd1306.c   ****     
 118:.\ssd1306.c   ****     _i2caddr = i2caddr;
 119:.\ssd1306.c   ****     gfx_init( DISPLAYWIDTH, DISPLAYHEIGHT );
 120:.\ssd1306.c   ****     
 121:.\ssd1306.c   ****     uint8 cmdbuf[] = {
 122:.\ssd1306.c   ****         0x00,
 123:.\ssd1306.c   ****         SSD1306_DISPLAYOFF,
 124:.\ssd1306.c   ****         SSD1306_SETDISPLAYCLOCKDIV,
 125:.\ssd1306.c   ****         0x80,
 126:.\ssd1306.c   ****         SSD1306_SETMULTIPLEX,
 127:.\ssd1306.c   ****         0x3f,
 128:.\ssd1306.c   ****         SSD1306_SETDISPLAYOFFSET,
 129:.\ssd1306.c   ****         0x00,
 130:.\ssd1306.c   ****         SSD1306_SETSTARTLINE | 0x0,
 131:.\ssd1306.c   ****         SSD1306_CHARGEPUMP,
 132:.\ssd1306.c   ****         0x14,
 133:.\ssd1306.c   ****         SSD1306_MEMORYMODE,
 134:.\ssd1306.c   ****         0x00,
 135:.\ssd1306.c   ****         SSD1306_SEGREMAP | 0x1,
 136:.\ssd1306.c   ****         SSD1306_COMSCANDEC,
 137:.\ssd1306.c   ****         SSD1306_SETCOMPINS,
 138:.\ssd1306.c   ****         0x12,
 139:.\ssd1306.c   ****         SSD1306_SETCONTRAST,
 140:.\ssd1306.c   ****         0xcf,
 141:.\ssd1306.c   ****         SSD1306_SETPRECHARGE,
 142:.\ssd1306.c   ****         0xf1,
 143:.\ssd1306.c   ****         SSD1306_SETVCOMDETECT,
 144:.\ssd1306.c   ****         0x40,
 145:.\ssd1306.c   ****         SSD1306_DISPLAYALLON_RESUME,
 146:.\ssd1306.c   ****         SSD1306_NORMALDISPLAY,
 147:.\ssd1306.c   ****         SSD1306_DISPLAYON
ARM GAS  C:\Users\User\AppData\Local\Temp\cctjmLxv.s 			page 4


 148:.\ssd1306.c   ****     };
 149:.\ssd1306.c   ****     
 150:.\ssd1306.c   ****     display_write_buf( cmdbuf, sizeof(cmdbuf) ); 
 151:.\ssd1306.c   **** }
 152:.\ssd1306.c   **** 
 153:.\ssd1306.c   **** 
 154:.\ssd1306.c   **** // for submitting command sequences:
 155:.\ssd1306.c   **** //  buf[0] must be 0x00
 156:.\ssd1306.c   **** // for submitting bulk data (writing to display RAM):
 157:.\ssd1306.c   **** //  buf[0] must be 0x40
 158:.\ssd1306.c   **** static uint32 display_write_buf( uint8* buf, uint16_t size ){
  25              		.loc 1 158 0
  26              		.cfi_startproc
  27              	.LVL0:
  28 0000 38B5     		push	{r3, r4, r5, lr}
  29              		.cfi_def_cfa_offset 16
  30              		.cfi_offset 3, -16
  31              		.cfi_offset 4, -12
  32              		.cfi_offset 5, -8
  33              		.cfi_offset 14, -4
  34              		.loc 1 158 0
  35 0002 031C     		mov	r3, r0
  36 0004 0D1C     		mov	r5, r1
 159:.\ssd1306.c   **** 
 160:.\ssd1306.c   ****     uint32 status = TRANSFER_ERROR;
 161:.\ssd1306.c   **** 
 162:.\ssd1306.c   ****     I2COLED_I2CMasterWriteBuf(_i2caddr, buf, size, I2COLED_I2C_MODE_COMPLETE_XFER);
  37              		.loc 1 162 0
  38 0006 0E4A     		ldr	r2, .L8
  39 0008 191C     		mov	r1, r3
  40              	.LVL1:
  41 000a 1078     		ldrb	r0, [r2]
  42              	.LVL2:
  43 000c 0023     		mov	r3, #0
  44 000e 2A1C     		mov	r2, r5
  45 0010 FFF7FEFF 		bl	I2COLED_I2CMasterWriteBuf
  46              	.LVL3:
  47              	.L2:
 163:.\ssd1306.c   ****     while( 0u == (I2COLED_I2CMasterStatus() & I2COLED_I2C_MSTAT_WR_CMPLT) );
  48              		.loc 1 163 0 discriminator 1
  49 0014 FFF7FEFF 		bl	I2COLED_I2CMasterStatus
  50              	.LVL4:
  51 0018 8307     		lsl	r3, r0, #30
  52 001a FBD5     		bpl	.L2
 164:.\ssd1306.c   **** 
 165:.\ssd1306.c   ****     if( 0u == (I2COLED_I2C_MSTAT_ERR_XFER & I2COLED_I2CMasterStatus()) ){
  53              		.loc 1 165 0
  54 001c FFF7FEFF 		bl	I2COLED_I2CMasterStatus
  55              	.LVL5:
  56 0020 8023     		mov	r3, #128
  57 0022 9B00     		lsl	r3, r3, #2
  58 0024 1840     		and	r0, r3
  59 0026 041E     		sub	r4, r0, #0
  60 0028 01D0     		beq	.L3
  61              	.L5:
 160:.\ssd1306.c   **** 
  62              		.loc 1 160 0
ARM GAS  C:\Users\User\AppData\Local\Temp\cctjmLxv.s 			page 5


  63 002a FF24     		mov	r4, #255
  64 002c 03E0     		b	.L4
  65              	.L3:
 166:.\ssd1306.c   ****         // Check if all bytes was written 
 167:.\ssd1306.c   ****         if( I2COLED_I2CMasterGetWriteBufSize() == size ){
  66              		.loc 1 167 0
  67 002e FFF7FEFF 		bl	I2COLED_I2CMasterGetWriteBufSize
  68              	.LVL6:
  69 0032 A842     		cmp	r0, r5
  70 0034 F9D1     		bne	.L5
  71              	.L4:
  72              	.LVL7:
 168:.\ssd1306.c   ****             status = TRANSFER_CMPLT;
 169:.\ssd1306.c   ****         }
 170:.\ssd1306.c   ****     }
 171:.\ssd1306.c   ****     I2COLED_I2CMasterClearStatus();
  73              		.loc 1 171 0
  74 0036 FFF7FEFF 		bl	I2COLED_I2CMasterClearStatus
  75              	.LVL8:
 172:.\ssd1306.c   **** 
 173:.\ssd1306.c   ****     return status;
 174:.\ssd1306.c   **** }
  76              		.loc 1 174 0
  77              		@ sp needed
  78 003a 201C     		mov	r0, r4
  79              	.LVL9:
  80 003c 38BD     		pop	{r3, r4, r5, pc}
  81              	.L9:
  82 003e C046     		.align	2
  83              	.L8:
  84 0040 00000000 		.word	.LANCHOR0
  85              		.cfi_endproc
  86              	.LFE35:
  87              		.size	display_write_buf, .-display_write_buf
  88              		.section	.text.gfx_rotation_adjust,"ax",%progbits
  89              		.align	1
  90              		.code	16
  91              		.thumb_func
  92              		.type	gfx_rotation_adjust, %function
  93              	gfx_rotation_adjust:
  94              	.LFB54:
 175:.\ssd1306.c   **** 
 176:.\ssd1306.c   **** 
 177:.\ssd1306.c   **** // used by gfx_ functions. Needs to be implemented by display_
 178:.\ssd1306.c   **** static void display_setPixel( int16_t x, int16_t y, uint16_t color ){
 179:.\ssd1306.c   ****     
 180:.\ssd1306.c   ****     if( (x < 0) || (x >= DISPLAYWIDTH) || (y < 0) || (y >= DISPLAYHEIGHT) )
 181:.\ssd1306.c   ****         return;
 182:.\ssd1306.c   **** 
 183:.\ssd1306.c   ****     switch( color ){
 184:.\ssd1306.c   ****         case WHITE: 
 185:.\ssd1306.c   ****             PIXEL_ON(x,y);
 186:.\ssd1306.c   ****             break;
 187:.\ssd1306.c   ****         case BLACK:
 188:.\ssd1306.c   ****             PIXEL_OFF(x,y);
 189:.\ssd1306.c   ****             break;
 190:.\ssd1306.c   ****         case INVERSE: 
ARM GAS  C:\Users\User\AppData\Local\Temp\cctjmLxv.s 			page 6


 191:.\ssd1306.c   ****             PIXEL_TOGGLE(x,y);
 192:.\ssd1306.c   ****             break;
 193:.\ssd1306.c   ****     }
 194:.\ssd1306.c   **** }
 195:.\ssd1306.c   **** 
 196:.\ssd1306.c   **** 
 197:.\ssd1306.c   **** void display_clear(void){
 198:.\ssd1306.c   ****     memset( _displaybuf, 0, _displaybuf_size );
 199:.\ssd1306.c   ****     SSD1306_buffer[0] = 0x40; // to be sure its there
 200:.\ssd1306.c   **** }
 201:.\ssd1306.c   **** 
 202:.\ssd1306.c   **** 
 203:.\ssd1306.c   **** // contrast: 0 ...255
 204:.\ssd1306.c   **** void display_contrast( uint8_t contrast ){
 205:.\ssd1306.c   ****         
 206:.\ssd1306.c   ****     uint8 cmdbuf[] = {
 207:.\ssd1306.c   ****         0x00,  
 208:.\ssd1306.c   ****         SSD1306_SETCONTRAST,
 209:.\ssd1306.c   ****         contrast
 210:.\ssd1306.c   ****     };
 211:.\ssd1306.c   ****     display_write_buf( cmdbuf, sizeof(cmdbuf) ); 
 212:.\ssd1306.c   **** }
 213:.\ssd1306.c   **** 
 214:.\ssd1306.c   **** 
 215:.\ssd1306.c   **** // invert <> 0 for inverse display, invert == 0 for normal display
 216:.\ssd1306.c   **** void display_invert( uint8_t invert ){
 217:.\ssd1306.c   **** 
 218:.\ssd1306.c   ****     uint8 cmdbuf[] = {
 219:.\ssd1306.c   ****         0x00,  
 220:.\ssd1306.c   ****         0
 221:.\ssd1306.c   ****     };
 222:.\ssd1306.c   ****     cmdbuf[1] = invert ? SSD1306_INVERTDISPLAY : SSD1306_NORMALDISPLAY;
 223:.\ssd1306.c   ****     display_write_buf( cmdbuf, sizeof(cmdbuf) ); 
 224:.\ssd1306.c   **** }
 225:.\ssd1306.c   **** 
 226:.\ssd1306.c   **** 
 227:.\ssd1306.c   **** void display_update(void) {
 228:.\ssd1306.c   ****       
 229:.\ssd1306.c   ****     uint8 cmdbuf[] = {
 230:.\ssd1306.c   ****         0x00,
 231:.\ssd1306.c   ****         SSD1306_COLUMNADDR,
 232:.\ssd1306.c   ****         0,                      // start
 233:.\ssd1306.c   ****         DISPLAYWIDTH-1, // end
 234:.\ssd1306.c   ****         SSD1306_PAGEADDR,
 235:.\ssd1306.c   ****         0,                      // start
 236:.\ssd1306.c   ****         7                       // end
 237:.\ssd1306.c   ****     };
 238:.\ssd1306.c   ****     display_write_buf( cmdbuf, sizeof(cmdbuf) ); 
 239:.\ssd1306.c   ****     display_write_buf( SSD1306_buffer, sizeof(SSD1306_buffer) );
 240:.\ssd1306.c   **** }
 241:.\ssd1306.c   **** 
 242:.\ssd1306.c   **** 
 243:.\ssd1306.c   **** // draws horizontal or vertical line
 244:.\ssd1306.c   **** // Note: no check for valid coords, this needs to be done by caller
 245:.\ssd1306.c   **** // should only be called from gfx_hvline which is doing all validity checking
 246:.\ssd1306.c   **** static void display_line( int16_t x1, int16_t y1, int16_t x2, int16_t y2, uint16_t color ){
 247:.\ssd1306.c   **** 
ARM GAS  C:\Users\User\AppData\Local\Temp\cctjmLxv.s 			page 7


 248:.\ssd1306.c   ****     if( x1 == x2 ){
 249:.\ssd1306.c   ****         // vertical
 250:.\ssd1306.c   ****         uint8_t* pstart = GDDRAM_ADDRESS(x1,y1);
 251:.\ssd1306.c   ****         uint8_t* pend = GDDRAM_ADDRESS(x2,y2);       
 252:.\ssd1306.c   ****         uint8_t* ptr = pstart;             
 253:.\ssd1306.c   ****         
 254:.\ssd1306.c   ****         while( ptr <= pend ){
 255:.\ssd1306.c   ****             
 256:.\ssd1306.c   ****             uint8_t mask;
 257:.\ssd1306.c   ****             if( ptr == pstart ){
 258:.\ssd1306.c   ****                 // top
 259:.\ssd1306.c   ****                 uint8_t lbit = y1 % 8;
 260:.\ssd1306.c   ****                 // bottom (line can be very short, all inside this one byte)
 261:.\ssd1306.c   ****                 uint8_t ubit = lbit + y2 - y1;
 262:.\ssd1306.c   ****                 if( ubit >= 7 )
 263:.\ssd1306.c   ****                     ubit = 7;
 264:.\ssd1306.c   ****                 mask = ((1 << (ubit-lbit+1)) - 1) << lbit;    
 265:.\ssd1306.c   ****             }else if( ptr == pend ){
 266:.\ssd1306.c   ****                 // top is always bit 0, that makes it easy
 267:.\ssd1306.c   ****                 // bottom
 268:.\ssd1306.c   ****                 mask = (1 << (y2 % 8)) - 1;    
 269:.\ssd1306.c   ****             }
 270:.\ssd1306.c   **** 
 271:.\ssd1306.c   ****             if( ptr == pstart || ptr == pend ){
 272:.\ssd1306.c   ****                 switch( color ){
 273:.\ssd1306.c   ****                     case WHITE:     *ptr |= mask; break;
 274:.\ssd1306.c   ****                     case BLACK:     *ptr &= ~mask; break;
 275:.\ssd1306.c   ****                     case INVERSE:   *ptr ^= mask; break;
 276:.\ssd1306.c   ****                 };  
 277:.\ssd1306.c   ****             }else{
 278:.\ssd1306.c   ****                 switch( color ){
 279:.\ssd1306.c   ****                     case WHITE:     *ptr = 0xff; break;
 280:.\ssd1306.c   ****                     case BLACK:     *ptr = 0x00; break;
 281:.\ssd1306.c   ****                     case INVERSE:   *ptr ^= 0xff; break;
 282:.\ssd1306.c   ****                 };  
 283:.\ssd1306.c   ****             }
 284:.\ssd1306.c   ****             
 285:.\ssd1306.c   ****             ptr += DISPLAYWIDTH;
 286:.\ssd1306.c   ****         }
 287:.\ssd1306.c   ****     }else{
 288:.\ssd1306.c   ****         // horizontal
 289:.\ssd1306.c   ****         uint8_t* pstart = GDDRAM_ADDRESS(x1,y1);
 290:.\ssd1306.c   ****         uint8_t* pend = pstart + x2 - x1;
 291:.\ssd1306.c   ****         uint8_t pixmask = GDDRAM_PIXMASK(y1);    
 292:.\ssd1306.c   **** 
 293:.\ssd1306.c   ****         uint8_t* ptr = pstart;
 294:.\ssd1306.c   ****         while( ptr <= pend ){
 295:.\ssd1306.c   ****             switch( color ){
 296:.\ssd1306.c   ****                 case WHITE:     *ptr |= pixmask; break;
 297:.\ssd1306.c   ****                 case BLACK:     *ptr &= ~pixmask; break;
 298:.\ssd1306.c   ****                 case INVERSE:   *ptr ^= pixmask; break;
 299:.\ssd1306.c   ****             };
 300:.\ssd1306.c   ****             ptr++;
 301:.\ssd1306.c   ****         }
 302:.\ssd1306.c   ****     }
 303:.\ssd1306.c   **** }
 304:.\ssd1306.c   **** 
ARM GAS  C:\Users\User\AppData\Local\Temp\cctjmLxv.s 			page 8


 305:.\ssd1306.c   **** 
 306:.\ssd1306.c   **** 
 307:.\ssd1306.c   **** void display_stopscroll(void){
 308:.\ssd1306.c   **** 
 309:.\ssd1306.c   ****     uint8 cmdbuf[] = {
 310:.\ssd1306.c   ****         0x00,
 311:.\ssd1306.c   ****         SSD1306_DEACTIVATE_SCROLL
 312:.\ssd1306.c   ****     };
 313:.\ssd1306.c   ****     display_write_buf( cmdbuf, sizeof(cmdbuf) ); 
 314:.\ssd1306.c   **** }
 315:.\ssd1306.c   **** 
 316:.\ssd1306.c   **** void display_scroll( SCROLL_AREA start, SCROLL_AREA end, SCROLL_DIR dir, SCROLL_SPEED speed ){
 317:.\ssd1306.c   ****    
 318:.\ssd1306.c   ****     uint8 cmdbuf[] = {
 319:.\ssd1306.c   ****         0x00,
 320:.\ssd1306.c   ****         dir,                    // 0x26 or 0x2a
 321:.\ssd1306.c   ****         0x00,                   // dummy byte
 322:.\ssd1306.c   ****         start,                  // start page
 323:.\ssd1306.c   ****         speed,                  // scroll step interval in terms of frame frequency 
 324:.\ssd1306.c   ****         end,                    // end page
 325:.\ssd1306.c   ****         0x00,                   // dummy byte
 326:.\ssd1306.c   ****         0xFF,                   // dummy byte
 327:.\ssd1306.c   ****         SSD1306_ACTIVATE_SCROLL // 0x2F
 328:.\ssd1306.c   ****     };
 329:.\ssd1306.c   ****     display_write_buf( cmdbuf, sizeof(cmdbuf) ); 
 330:.\ssd1306.c   **** }
 331:.\ssd1306.c   **** 
 332:.\ssd1306.c   **** 
 333:.\ssd1306.c   **** 
 334:.\ssd1306.c   **** // ============================================================
 335:.\ssd1306.c   **** // graphics library stuff
 336:.\ssd1306.c   **** 
 337:.\ssd1306.c   **** int16_t WIDTH, HEIGHT; // This is the 'raw' display w/h - never changes
 338:.\ssd1306.c   **** static int16_t _width, _height; // Display w/h as modified by current rotation
 339:.\ssd1306.c   **** static int16_t cursor_x, cursor_y;
 340:.\ssd1306.c   **** static uint16_t textcolor, textbgcolor;
 341:.\ssd1306.c   **** static uint8_t textsize;
 342:.\ssd1306.c   **** uint8_t rotation;
 343:.\ssd1306.c   **** uint8_t wrap; // If set, 'wrap' text at right edge of display
 344:.\ssd1306.c   **** 
 345:.\ssd1306.c   **** 
 346:.\ssd1306.c   **** 
 347:.\ssd1306.c   **** void gfx_init( int16_t width, int16_t height ){
 348:.\ssd1306.c   ****     WIDTH = width;
 349:.\ssd1306.c   ****     HEIGHT = height;
 350:.\ssd1306.c   ****     _width = WIDTH;
 351:.\ssd1306.c   ****     _height = HEIGHT;
 352:.\ssd1306.c   ****     
 353:.\ssd1306.c   ****     rotation = 0;
 354:.\ssd1306.c   ****     cursor_y = cursor_x = 0;
 355:.\ssd1306.c   ****     textsize = 1;
 356:.\ssd1306.c   ****     textcolor = textbgcolor = 0xFFFF;
 357:.\ssd1306.c   ****     wrap = 1;
 358:.\ssd1306.c   **** }
 359:.\ssd1306.c   **** 
 360:.\ssd1306.c   **** // Return the size of the display (per current rotation)
 361:.\ssd1306.c   **** int16_t gfx_width(void){
ARM GAS  C:\Users\User\AppData\Local\Temp\cctjmLxv.s 			page 9


 362:.\ssd1306.c   ****     return _width;
 363:.\ssd1306.c   **** }
 364:.\ssd1306.c   **** 
 365:.\ssd1306.c   **** int16_t gfx_height(void){
 366:.\ssd1306.c   ****     return _height;
 367:.\ssd1306.c   **** }
 368:.\ssd1306.c   **** 
 369:.\ssd1306.c   **** uint8_t gfx_rotation(void){
 370:.\ssd1306.c   ****     return rotation;
 371:.\ssd1306.c   **** }
 372:.\ssd1306.c   **** 
 373:.\ssd1306.c   **** void gfx_setCursor( int16_t x, int16_t y ){
 374:.\ssd1306.c   ****     cursor_x = x;
 375:.\ssd1306.c   ****     cursor_y = y;
 376:.\ssd1306.c   **** }
 377:.\ssd1306.c   **** 
 378:.\ssd1306.c   **** void gfx_setTextSize( uint8_t size ){
 379:.\ssd1306.c   ****     textsize = (size > 0) ? size : 1;
 380:.\ssd1306.c   **** }
 381:.\ssd1306.c   **** 
 382:.\ssd1306.c   **** void gfx_setTextColor( uint16_t color ){
 383:.\ssd1306.c   ****     // For 'transparent' background, we'll set the bg
 384:.\ssd1306.c   ****     // to the same as fg instead of using a flag
 385:.\ssd1306.c   ****     textcolor = textbgcolor = color;
 386:.\ssd1306.c   **** }
 387:.\ssd1306.c   **** 
 388:.\ssd1306.c   **** void gfx_setTextBg( uint16_t color ){
 389:.\ssd1306.c   ****     textbgcolor = color;
 390:.\ssd1306.c   **** }
 391:.\ssd1306.c   **** 
 392:.\ssd1306.c   **** void gfx_setTextWrap( uint8 w ){
 393:.\ssd1306.c   ****     wrap = w;
 394:.\ssd1306.c   **** }
 395:.\ssd1306.c   **** 
 396:.\ssd1306.c   **** void gfx_setRotation( uint8_t x ){
 397:.\ssd1306.c   ****     
 398:.\ssd1306.c   ****     rotation = (x & 3);
 399:.\ssd1306.c   ****     switch( rotation ){
 400:.\ssd1306.c   ****         case 0:
 401:.\ssd1306.c   ****         case 2:
 402:.\ssd1306.c   ****             _width = WIDTH;
 403:.\ssd1306.c   ****             _height = HEIGHT;
 404:.\ssd1306.c   ****             break;
 405:.\ssd1306.c   ****         case 1:
 406:.\ssd1306.c   ****         case 3:
 407:.\ssd1306.c   ****             _width = HEIGHT;
 408:.\ssd1306.c   ****             _height = WIDTH;
 409:.\ssd1306.c   ****         break;
 410:.\ssd1306.c   ****     }
 411:.\ssd1306.c   **** }
 412:.\ssd1306.c   **** 
 413:.\ssd1306.c   **** static void gfx_rotation_adjust( int16_t* px, int16_t* py ){
  95              		.loc 1 413 0
  96              		.cfi_startproc
  97              	.LVL10:
  98 0000 10B5     		push	{r4, lr}
  99              		.cfi_def_cfa_offset 8
ARM GAS  C:\Users\User\AppData\Local\Temp\cctjmLxv.s 			page 10


 100              		.cfi_offset 4, -8
 101              		.cfi_offset 14, -4
 414:.\ssd1306.c   **** 
 415:.\ssd1306.c   ****     int16_t y0 = *py;
 416:.\ssd1306.c   ****     
 417:.\ssd1306.c   ****     switch( rotation ){
 102              		.loc 1 417 0
 103 0002 134B     		ldr	r3, .L15
 415:.\ssd1306.c   ****     
 104              		.loc 1 415 0
 105 0004 0C88     		ldrh	r4, [r1]
 106              	.LVL11:
 107              		.loc 1 417 0
 108 0006 1A78     		ldrb	r2, [r3]
 109 0008 022A     		cmp	r2, #2
 110 000a 0BD0     		beq	.L12
 111 000c 032A     		cmp	r2, #3
 112 000e 16D0     		beq	.L13
 113 0010 012A     		cmp	r2, #1
 114 0012 1BD1     		bne	.L10
 418:.\ssd1306.c   ****         case 1:
 419:.\ssd1306.c   ****             *py = *px;
 115              		.loc 1 419 0
 116 0014 0388     		ldrh	r3, [r0]
 117 0016 0B80     		strh	r3, [r1]
 420:.\ssd1306.c   ****             *px = WIDTH - y0 - 1;
 118              		.loc 1 420 0
 119 0018 0E4B     		ldr	r3, .L15+4
 120 001a 1B88     		ldrh	r3, [r3]
 121 001c 013B     		sub	r3, r3, #1
 122 001e 1B1B     		sub	r3, r3, r4
 123 0020 0380     		strh	r3, [r0]
 421:.\ssd1306.c   ****             break;
 124              		.loc 1 421 0
 125 0022 13E0     		b	.L10
 126              	.L12:
 127              	.LVL12:
 128              	.LBB5:
 129              	.LBB6:
 422:.\ssd1306.c   ****         case 2:
 423:.\ssd1306.c   ****             *px = WIDTH - *px - 1;
 130              		.loc 1 423 0
 131 0024 0B4B     		ldr	r3, .L15+4
 132 0026 0288     		ldrh	r2, [r0]
 133 0028 1B88     		ldrh	r3, [r3]
 134 002a 013B     		sub	r3, r3, #1
 135 002c 9B1A     		sub	r3, r3, r2
 136 002e 0380     		strh	r3, [r0]
 424:.\ssd1306.c   ****             *py = HEIGHT - *py - 1;
 137              		.loc 1 424 0
 138 0030 094B     		ldr	r3, .L15+8
 139 0032 0A88     		ldrh	r2, [r1]
 140 0034 1B88     		ldrh	r3, [r3]
 141 0036 013B     		sub	r3, r3, #1
 142 0038 9B1A     		sub	r3, r3, r2
 143 003a 0B80     		strh	r3, [r1]
 144 003c 06E0     		b	.L10
ARM GAS  C:\Users\User\AppData\Local\Temp\cctjmLxv.s 			page 11


 145              	.LVL13:
 146              	.L13:
 147              	.LBE6:
 148              	.LBE5:
 425:.\ssd1306.c   ****             break;
 426:.\ssd1306.c   ****         case 3:
 427:.\ssd1306.c   ****             *py = HEIGHT - *px - 1;
 149              		.loc 1 427 0
 150 003e 064B     		ldr	r3, .L15+8
 151 0040 0288     		ldrh	r2, [r0]
 152 0042 1B88     		ldrh	r3, [r3]
 153 0044 013B     		sub	r3, r3, #1
 154 0046 9B1A     		sub	r3, r3, r2
 155 0048 0B80     		strh	r3, [r1]
 428:.\ssd1306.c   ****             *px = y0;
 156              		.loc 1 428 0
 157 004a 0480     		strh	r4, [r0]
 158              	.L10:
 429:.\ssd1306.c   ****             break;
 430:.\ssd1306.c   ****     }
 431:.\ssd1306.c   **** }
 159              		.loc 1 431 0
 160              		@ sp needed
 161              	.LVL14:
 162 004c 10BD     		pop	{r4, pc}
 163              	.L16:
 164 004e C046     		.align	2
 165              	.L15:
 166 0050 00000000 		.word	rotation
 167 0054 00000000 		.word	WIDTH
 168 0058 00000000 		.word	HEIGHT
 169              		.cfi_endproc
 170              	.LFE54:
 171              		.size	gfx_rotation_adjust, .-gfx_rotation_adjust
 172              		.section	.text.gfx_write.part.3,"ax",%progbits
 173              		.align	1
 174              		.code	16
 175              		.thumb_func
 176              		.type	gfx_write.part.3, %function
 177              	gfx_write.part.3:
 178              	.LFB69:
 432:.\ssd1306.c   **** 
 433:.\ssd1306.c   **** void gfx_drawPixel( int16_t x, int16_t y, uint16_t color ){
 434:.\ssd1306.c   ****     
 435:.\ssd1306.c   ****     if( (x < 0) || (x >= _width) || (y < 0) || (y >= _height) )
 436:.\ssd1306.c   ****         return;
 437:.\ssd1306.c   ****     
 438:.\ssd1306.c   ****     gfx_rotation_adjust( &x, &y );
 439:.\ssd1306.c   **** 
 440:.\ssd1306.c   ****     display_setPixel(x,y,color);
 441:.\ssd1306.c   **** }
 442:.\ssd1306.c   **** 
 443:.\ssd1306.c   **** // helper function for gfx_drawLine, handles special cases of horizontal and vertical lines
 444:.\ssd1306.c   **** static void gfx_hvLine( int16_t x1, int16_t y1, int16_t x2, int16_t y2, uint16_t color ){
 445:.\ssd1306.c   ****     
 446:.\ssd1306.c   ****     if( x1 != x2 && y1 != y2 ){
 447:.\ssd1306.c   ****         // neither vertical nor horizontal
ARM GAS  C:\Users\User\AppData\Local\Temp\cctjmLxv.s 			page 12


 448:.\ssd1306.c   ****         return;
 449:.\ssd1306.c   ****     }    
 450:.\ssd1306.c   ****     
 451:.\ssd1306.c   ****     // bounds check
 452:.\ssd1306.c   ****     if( rotation == 1 || rotation == 3 ){
 453:.\ssd1306.c   ****         if( x1 < 0 || x1 >= HEIGHT || x2 < 0 || x2 >= HEIGHT )
 454:.\ssd1306.c   ****             return;
 455:.\ssd1306.c   ****         if( y1 < 0 || y1 >= WIDTH || y2 < 0 || y2 >= WIDTH )
 456:.\ssd1306.c   ****             return;
 457:.\ssd1306.c   ****     }else{
 458:.\ssd1306.c   ****         if( y1 < 0 || y1 >= HEIGHT || y2 < 0 || y2 >= HEIGHT )
 459:.\ssd1306.c   ****             return;
 460:.\ssd1306.c   ****         if( x1 < 0 || x1 >= WIDTH || x2 < 0 || x2 >= WIDTH )
 461:.\ssd1306.c   ****             return;
 462:.\ssd1306.c   ****     }
 463:.\ssd1306.c   ****     
 464:.\ssd1306.c   ****     gfx_rotation_adjust( &x1, &y1 );
 465:.\ssd1306.c   ****     gfx_rotation_adjust( &x2, &y2 );
 466:.\ssd1306.c   ****     
 467:.\ssd1306.c   ****     // ensure coords are from left to right and top to bottom
 468:.\ssd1306.c   ****     if( (x1 == x2 && y2 < y1) || (y1 == y2 && x2 < x1) ){
 469:.\ssd1306.c   ****         // swap as needed
 470:.\ssd1306.c   ****         int16_t t = x1; x1 = x2; x2 = t;
 471:.\ssd1306.c   ****         t = y1; y1 = y2; y2 = t;
 472:.\ssd1306.c   ****     }
 473:.\ssd1306.c   ****     
 474:.\ssd1306.c   ****     display_line( x1, y1, x2, y2, color );
 475:.\ssd1306.c   **** }
 476:.\ssd1306.c   **** 
 477:.\ssd1306.c   **** // always use this function for line drawing
 478:.\ssd1306.c   **** void gfx_drawLine( int16_t x0, int16_t y0, int16_t x1, int16_t y1, uint16_t color ){
 479:.\ssd1306.c   ****  
 480:.\ssd1306.c   ****     if( x0 == x1 || y0 == y1 ){
 481:.\ssd1306.c   ****         // vertical and horizontal lines can be drawn faster
 482:.\ssd1306.c   ****         gfx_hvLine( x0, y0, x1, y1, color );
 483:.\ssd1306.c   ****         return;
 484:.\ssd1306.c   ****     }
 485:.\ssd1306.c   ****     
 486:.\ssd1306.c   ****     int16_t t;
 487:.\ssd1306.c   ****     
 488:.\ssd1306.c   ****     int16_t steep = abs(y1 - y0) > abs(x1 - x0);
 489:.\ssd1306.c   ****     if( steep ){
 490:.\ssd1306.c   ****         t = x0; x0 = y0; y0 = t;
 491:.\ssd1306.c   ****         t = x1; x1 = y1; y1 = t;
 492:.\ssd1306.c   ****     }
 493:.\ssd1306.c   ****     if( x0 > x1 ){
 494:.\ssd1306.c   ****         t = x0; x0 = x1; x1 = t;
 495:.\ssd1306.c   ****         t = y0; y0 = y1; y1 = t;
 496:.\ssd1306.c   ****     }
 497:.\ssd1306.c   ****     int16_t dx, dy;
 498:.\ssd1306.c   ****     dx = x1 - x0;
 499:.\ssd1306.c   ****     dy = abs(y1 - y0);
 500:.\ssd1306.c   ****     int16_t err = dx / 2;
 501:.\ssd1306.c   ****     int16_t ystep;
 502:.\ssd1306.c   ****     if( y0 < y1 ){
 503:.\ssd1306.c   ****         ystep = 1;
 504:.\ssd1306.c   ****     }else{
ARM GAS  C:\Users\User\AppData\Local\Temp\cctjmLxv.s 			page 13


 505:.\ssd1306.c   ****         ystep = -1;
 506:.\ssd1306.c   ****     }
 507:.\ssd1306.c   ****     for( ; x0<=x1; x0++ ){
 508:.\ssd1306.c   ****         if( steep ){
 509:.\ssd1306.c   ****             gfx_drawPixel( y0, x0, color );
 510:.\ssd1306.c   ****         }else{
 511:.\ssd1306.c   ****             gfx_drawPixel( x0, y0, color );
 512:.\ssd1306.c   ****         }
 513:.\ssd1306.c   ****         err -= dy;
 514:.\ssd1306.c   ****         if( err < 0 ){
 515:.\ssd1306.c   ****             y0 += ystep;
 516:.\ssd1306.c   ****             err += dx;
 517:.\ssd1306.c   ****         }
 518:.\ssd1306.c   ****     }
 519:.\ssd1306.c   **** }
 520:.\ssd1306.c   **** 
 521:.\ssd1306.c   **** void gfx_drawRect( int16_t x, int16_t y, int16_t w, int16_t h, uint16_t color ){
 522:.\ssd1306.c   ****     
 523:.\ssd1306.c   ****     gfx_drawLine( x, y, x+w-1, y, color );
 524:.\ssd1306.c   ****     gfx_drawLine( x, y+h-1, x+w-1, y+h-1, color );
 525:.\ssd1306.c   ****     gfx_drawLine( x, y, x, y+h-1, color );
 526:.\ssd1306.c   ****     gfx_drawLine( x+w-1, y, x+w-1, y+h-1, color );
 527:.\ssd1306.c   **** }
 528:.\ssd1306.c   **** 
 529:.\ssd1306.c   **** void gfx_fillRect( int16_t x, int16_t y, int16_t w, int16_t h, uint16_t color ){
 530:.\ssd1306.c   ****     int16_t i = 0;
 531:.\ssd1306.c   ****     if( h > w ){
 532:.\ssd1306.c   ****         for( i = x ; i < x+w ; i++ ){
 533:.\ssd1306.c   ****             gfx_drawLine( i, y, i, y+h-1, color );
 534:.\ssd1306.c   ****         }
 535:.\ssd1306.c   ****     }else{
 536:.\ssd1306.c   ****         for( i = y ; i < y+h ; i++ ){
 537:.\ssd1306.c   ****             gfx_drawLine( x, i, x+w-1, i, color );
 538:.\ssd1306.c   ****         }
 539:.\ssd1306.c   ****     }
 540:.\ssd1306.c   **** }
 541:.\ssd1306.c   **** 
 542:.\ssd1306.c   **** 
 543:.\ssd1306.c   **** // circle outline
 544:.\ssd1306.c   **** void gfx_drawCircle( int16_t x0, int16_t y0, int16_t r,uint16_t color ){
 545:.\ssd1306.c   **** 
 546:.\ssd1306.c   ****     int16_t f = 1 - r;
 547:.\ssd1306.c   ****     int16_t ddF_x = 1;
 548:.\ssd1306.c   ****     int16_t ddF_y = -2 * r;
 549:.\ssd1306.c   ****     int16_t x = 0;
 550:.\ssd1306.c   ****     int16_t y = r;
 551:.\ssd1306.c   ****     gfx_drawPixel( x0 , y0+r, color );
 552:.\ssd1306.c   ****     gfx_drawPixel( x0 , y0-r, color );
 553:.\ssd1306.c   ****     gfx_drawPixel( x0+r, y0 , color );
 554:.\ssd1306.c   ****     gfx_drawPixel( x0-r, y0 , color );
 555:.\ssd1306.c   ****     while( x < y ){
 556:.\ssd1306.c   ****         if( f >= 0 ){
 557:.\ssd1306.c   ****             y--;
 558:.\ssd1306.c   ****             ddF_y += 2;
 559:.\ssd1306.c   ****             f += ddF_y;
 560:.\ssd1306.c   ****         }
 561:.\ssd1306.c   ****         x++;
ARM GAS  C:\Users\User\AppData\Local\Temp\cctjmLxv.s 			page 14


 562:.\ssd1306.c   ****         ddF_x += 2;
 563:.\ssd1306.c   ****         f += ddF_x;
 564:.\ssd1306.c   ****         gfx_drawPixel( x0 + x, y0 + y, color );
 565:.\ssd1306.c   ****         gfx_drawPixel( x0 - x, y0 + y, color );
 566:.\ssd1306.c   ****         gfx_drawPixel( x0 + x, y0 - y, color );
 567:.\ssd1306.c   ****         gfx_drawPixel( x0 - x, y0 - y, color );
 568:.\ssd1306.c   ****         gfx_drawPixel( x0 + y, y0 + x, color );
 569:.\ssd1306.c   ****         gfx_drawPixel( x0 - y, y0 + x, color );
 570:.\ssd1306.c   ****         gfx_drawPixel( x0 + y, y0 - x, color );
 571:.\ssd1306.c   ****         gfx_drawPixel( x0 - y, y0 - x, color );
 572:.\ssd1306.c   ****     }
 573:.\ssd1306.c   **** }
 574:.\ssd1306.c   **** 
 575:.\ssd1306.c   **** void gfx_drawTriangle( int16_t x0, int16_t y0,int16_t x1, int16_t y1, int16_t x2, int16_t y2, uint1
 576:.\ssd1306.c   ****     
 577:.\ssd1306.c   ****     gfx_drawLine( x0, y0, x1, y1, color );
 578:.\ssd1306.c   ****     gfx_drawLine( x1, y1, x2, y2, color );
 579:.\ssd1306.c   ****     gfx_drawLine( x2, y2, x0, y0, color );
 580:.\ssd1306.c   **** }
 581:.\ssd1306.c   **** 
 582:.\ssd1306.c   **** 
 583:.\ssd1306.c   **** // Draw a character
 584:.\ssd1306.c   **** void gfx_drawChar( int16_t x, int16_t y, unsigned char c,uint16_t color, uint16_t bg, uint8_t size)
 585:.\ssd1306.c   ****     if( (x >= _width) || // Clip right
 586:.\ssd1306.c   ****         (y >= _height) || // Clip bottom
 587:.\ssd1306.c   ****         ((x + 6 * size - 1) < 0) || // Clip left
 588:.\ssd1306.c   ****         ((y + 8 * size - 1) < 0)) // Clip top
 589:.\ssd1306.c   ****         return;
 590:.\ssd1306.c   **** 
 591:.\ssd1306.c   ****     int8_t i = 0;
 592:.\ssd1306.c   ****     for( i = 0 ; i < 6 ; i++ ){
 593:.\ssd1306.c   ****         uint8_t line;
 594:.\ssd1306.c   ****         if( i == 5 )
 595:.\ssd1306.c   ****             line = 0x0;
 596:.\ssd1306.c   ****         else
 597:.\ssd1306.c   ****            line = font[(c*5)+i];
 598:.\ssd1306.c   ****         int8_t j = 0;
 599:.\ssd1306.c   ****         for( j = 0; j < 8 ; j++ ){
 600:.\ssd1306.c   ****             if( line & 0x1 ){
 601:.\ssd1306.c   ****                 if( size == 1 ) // default size
 602:.\ssd1306.c   ****                     gfx_drawPixel( x+i, y+j, color );
 603:.\ssd1306.c   ****                 else { // big size
 604:.\ssd1306.c   ****                     gfx_fillRect( x+(i*size), y+(j*size), size, size, color );
 605:.\ssd1306.c   ****                 }
 606:.\ssd1306.c   ****             } else if( bg != color ){
 607:.\ssd1306.c   ****                 if( size == 1 ) // default size
 608:.\ssd1306.c   ****                     gfx_drawPixel( x+i, y+j, bg );
 609:.\ssd1306.c   ****                 else { // big size
 610:.\ssd1306.c   ****                     gfx_fillRect( x+i*size, y+j*size, size, size, bg );
 611:.\ssd1306.c   ****                 }
 612:.\ssd1306.c   ****             }
 613:.\ssd1306.c   ****             line >>= 1;
 614:.\ssd1306.c   ****         }
 615:.\ssd1306.c   ****     }
 616:.\ssd1306.c   **** }
 617:.\ssd1306.c   **** 
 618:.\ssd1306.c   **** void gfx_write( uint8_t ch ){
ARM GAS  C:\Users\User\AppData\Local\Temp\cctjmLxv.s 			page 15


 179              		.loc 1 618 0
 180              		.cfi_startproc
 181              	.LVL15:
 619:.\ssd1306.c   ****     if( ch == '\n' ){
 620:.\ssd1306.c   ****         cursor_y += textsize*8;
 182              		.loc 1 620 0
 183 0000 044B     		ldr	r3, .L18
 621:.\ssd1306.c   ****         cursor_x = 0;
 622:.\ssd1306.c   ****     }else if( ch == '\r' ){
 623:.\ssd1306.c   ****         // skip em
 624:.\ssd1306.c   ****     }else{
 625:.\ssd1306.c   ****         gfx_drawChar(cursor_x, cursor_y, ch, textcolor, textbgcolor, textsize);
 626:.\ssd1306.c   ****         cursor_x += textsize*6;
 627:.\ssd1306.c   ****         if( wrap && (cursor_x > (_width - textsize*6)) ){
 628:.\ssd1306.c   ****             cursor_y += textsize*8;
 629:.\ssd1306.c   ****             cursor_x = 0;
 630:.\ssd1306.c   ****         }
 631:.\ssd1306.c   ****     }
 632:.\ssd1306.c   **** }
 184              		.loc 1 632 0
 185              		@ sp needed
 620:.\ssd1306.c   ****         cursor_x = 0;
 186              		.loc 1 620 0
 187 0002 1A79     		ldrb	r2, [r3, #4]
 188 0004 5988     		ldrh	r1, [r3, #2]
 189 0006 D200     		lsl	r2, r2, #3
 190 0008 5218     		add	r2, r2, r1
 191 000a 5A80     		strh	r2, [r3, #2]
 621:.\ssd1306.c   ****         cursor_x = 0;
 192              		.loc 1 621 0
 193 000c 0022     		mov	r2, #0
 194 000e DA80     		strh	r2, [r3, #6]
 195              		.loc 1 632 0
 196 0010 7047     		bx	lr
 197              	.L19:
 198 0012 C046     		.align	2
 199              	.L18:
 200 0014 00000000 		.word	.LANCHOR0
 201              		.cfi_endproc
 202              	.LFE69:
 203              		.size	gfx_write.part.3, .-gfx_write.part.3
 204              		.section	.text.display_clear,"ax",%progbits
 205              		.align	1
 206              		.global	display_clear
 207              		.code	16
 208              		.thumb_func
 209              		.type	display_clear, %function
 210              	display_clear:
 211              	.LFB37:
 197:.\ssd1306.c   ****     memset( _displaybuf, 0, _displaybuf_size );
 212              		.loc 1 197 0
 213              		.cfi_startproc
 198:.\ssd1306.c   ****     SSD1306_buffer[0] = 0x40; // to be sure its there
 214              		.loc 1 198 0
 215 0000 8022     		mov	r2, #128
 197:.\ssd1306.c   ****     memset( _displaybuf, 0, _displaybuf_size );
 216              		.loc 1 197 0
ARM GAS  C:\Users\User\AppData\Local\Temp\cctjmLxv.s 			page 16


 217 0002 10B5     		push	{r4, lr}
 218              		.cfi_def_cfa_offset 8
 219              		.cfi_offset 4, -8
 220              		.cfi_offset 14, -4
 198:.\ssd1306.c   ****     SSD1306_buffer[0] = 0x40; // to be sure its there
 221              		.loc 1 198 0
 222 0004 044C     		ldr	r4, .L21
 223 0006 0021     		mov	r1, #0
 224 0008 601C     		add	r0, r4, #1
 225 000a D200     		lsl	r2, r2, #3
 226 000c FFF7FEFF 		bl	memset
 227              	.LVL16:
 199:.\ssd1306.c   **** }
 228              		.loc 1 199 0
 229 0010 4023     		mov	r3, #64
 200:.\ssd1306.c   **** 
 230              		.loc 1 200 0
 231              		@ sp needed
 199:.\ssd1306.c   **** }
 232              		.loc 1 199 0
 233 0012 2370     		strb	r3, [r4]
 200:.\ssd1306.c   **** 
 234              		.loc 1 200 0
 235 0014 10BD     		pop	{r4, pc}
 236              	.L22:
 237 0016 C046     		.align	2
 238              	.L21:
 239 0018 00000000 		.word	.LANCHOR1
 240              		.cfi_endproc
 241              	.LFE37:
 242              		.size	display_clear, .-display_clear
 243              		.section	.text.display_contrast,"ax",%progbits
 244              		.align	1
 245              		.global	display_contrast
 246              		.code	16
 247              		.thumb_func
 248              		.type	display_contrast, %function
 249              	display_contrast:
 250              	.LFB38:
 204:.\ssd1306.c   ****         
 251              		.loc 1 204 0
 252              		.cfi_startproc
 253              	.LVL17:
 254 0000 07B5     		push	{r0, r1, r2, lr}
 255              		.cfi_def_cfa_offset 16
 256              		.cfi_offset 0, -16
 257              		.cfi_offset 1, -12
 258              		.cfi_offset 2, -8
 259              		.cfi_offset 14, -4
 206:.\ssd1306.c   ****         0x00,  
 260              		.loc 1 206 0
 261 0002 0022     		mov	r2, #0
 262 0004 01AB     		add	r3, sp, #4
 263 0006 1A70     		strb	r2, [r3]
 264 0008 9870     		strb	r0, [r3, #2]
 265 000a 8132     		add	r2, r2, #129
 211:.\ssd1306.c   **** }
ARM GAS  C:\Users\User\AppData\Local\Temp\cctjmLxv.s 			page 17


 266              		.loc 1 211 0
 267 000c 181C     		mov	r0, r3
 268              	.LVL18:
 269 000e 0321     		mov	r1, #3
 206:.\ssd1306.c   ****         0x00,  
 270              		.loc 1 206 0
 271 0010 5A70     		strb	r2, [r3, #1]
 212:.\ssd1306.c   **** 
 272              		.loc 1 212 0
 273              		@ sp needed
 211:.\ssd1306.c   **** }
 274              		.loc 1 211 0
 275 0012 FFF7FEFF 		bl	display_write_buf
 276              	.LVL19:
 212:.\ssd1306.c   **** 
 277              		.loc 1 212 0
 278 0016 07BD     		pop	{r0, r1, r2, pc}
 279              		.cfi_endproc
 280              	.LFE38:
 281              		.size	display_contrast, .-display_contrast
 282              		.section	.text.display_invert,"ax",%progbits
 283              		.align	1
 284              		.global	display_invert
 285              		.code	16
 286              		.thumb_func
 287              		.type	display_invert, %function
 288              	display_invert:
 289              	.LFB39:
 216:.\ssd1306.c   **** 
 290              		.loc 1 216 0
 291              		.cfi_startproc
 292              	.LVL20:
 293 0000 07B5     		push	{r0, r1, r2, lr}
 294              		.cfi_def_cfa_offset 16
 295              		.cfi_offset 0, -16
 296              		.cfi_offset 1, -12
 297              		.cfi_offset 2, -8
 298              		.cfi_offset 14, -4
 216:.\ssd1306.c   **** 
 299              		.loc 1 216 0
 300 0002 031C     		mov	r3, r0
 218:.\ssd1306.c   ****         0x00,  
 301              		.loc 1 218 0
 302 0004 0022     		mov	r2, #0
 303 0006 01A8     		add	r0, sp, #4
 304              	.LVL21:
 305 0008 0270     		strb	r2, [r0]
 222:.\ssd1306.c   ****     display_write_buf( cmdbuf, sizeof(cmdbuf) ); 
 306              		.loc 1 222 0
 307 000a 5A1E     		sub	r2, r3, #1
 308 000c 9341     		sbc	r3, r3, r2
 223:.\ssd1306.c   **** }
 309              		.loc 1 223 0
 310 000e 0221     		mov	r1, #2
 222:.\ssd1306.c   ****     display_write_buf( cmdbuf, sizeof(cmdbuf) ); 
 311              		.loc 1 222 0
 312 0010 A633     		add	r3, r3, #166
ARM GAS  C:\Users\User\AppData\Local\Temp\cctjmLxv.s 			page 18


 313 0012 4370     		strb	r3, [r0, #1]
 224:.\ssd1306.c   **** 
 314              		.loc 1 224 0
 315              		@ sp needed
 223:.\ssd1306.c   **** }
 316              		.loc 1 223 0
 317 0014 FFF7FEFF 		bl	display_write_buf
 318              	.LVL22:
 224:.\ssd1306.c   **** 
 319              		.loc 1 224 0
 320 0018 07BD     		pop	{r0, r1, r2, pc}
 321              		.cfi_endproc
 322              	.LFE39:
 323              		.size	display_invert, .-display_invert
 324              		.section	.text.display_update,"ax",%progbits
 325              		.align	1
 326              		.global	display_update
 327              		.code	16
 328              		.thumb_func
 329              		.type	display_update, %function
 330              	display_update:
 331              	.LFB40:
 227:.\ssd1306.c   ****       
 332              		.loc 1 227 0
 333              		.cfi_startproc
 334 0000 13B5     		push	{r0, r1, r4, lr}
 335              		.cfi_def_cfa_offset 16
 336              		.cfi_offset 0, -16
 337              		.cfi_offset 1, -12
 338              		.cfi_offset 4, -8
 339              		.cfi_offset 14, -4
 229:.\ssd1306.c   ****         0x00,
 340              		.loc 1 229 0
 341 0002 0724     		mov	r4, #7
 342 0004 6846     		mov	r0, sp
 343 0006 221C     		mov	r2, r4
 344 0008 0549     		ldr	r1, .L28
 345 000a FFF7FEFF 		bl	memcpy
 346              	.LVL23:
 238:.\ssd1306.c   ****     display_write_buf( SSD1306_buffer, sizeof(SSD1306_buffer) );
 347              		.loc 1 238 0
 348 000e 211C     		mov	r1, r4
 349 0010 6846     		mov	r0, sp
 350 0012 FFF7FEFF 		bl	display_write_buf
 351              	.LVL24:
 239:.\ssd1306.c   **** }
 352              		.loc 1 239 0
 353 0016 0349     		ldr	r1, .L28+4
 354 0018 0348     		ldr	r0, .L28+8
 355 001a FFF7FEFF 		bl	display_write_buf
 356              	.LVL25:
 240:.\ssd1306.c   **** 
 357              		.loc 1 240 0
 358              		@ sp needed
 359 001e 13BD     		pop	{r0, r1, r4, pc}
 360              	.L29:
 361              		.align	2
ARM GAS  C:\Users\User\AppData\Local\Temp\cctjmLxv.s 			page 19


 362              	.L28:
 363 0020 00000000 		.word	.LANCHOR2
 364 0024 01040000 		.word	1025
 365 0028 00000000 		.word	.LANCHOR1
 366              		.cfi_endproc
 367              	.LFE40:
 368              		.size	display_update, .-display_update
 369              		.section	.text.display_stopscroll,"ax",%progbits
 370              		.align	1
 371              		.global	display_stopscroll
 372              		.code	16
 373              		.thumb_func
 374              		.type	display_stopscroll, %function
 375              	display_stopscroll:
 376              	.LFB42:
 307:.\ssd1306.c   **** 
 377              		.loc 1 307 0
 378              		.cfi_startproc
 309:.\ssd1306.c   ****         0x00,
 379              		.loc 1 309 0
 380 0000 0023     		mov	r3, #0
 307:.\ssd1306.c   **** 
 381              		.loc 1 307 0
 382 0002 07B5     		push	{r0, r1, r2, lr}
 383              		.cfi_def_cfa_offset 16
 384              		.cfi_offset 0, -16
 385              		.cfi_offset 1, -12
 386              		.cfi_offset 2, -8
 387              		.cfi_offset 14, -4
 309:.\ssd1306.c   ****         0x00,
 388              		.loc 1 309 0
 389 0004 01A8     		add	r0, sp, #4
 390 0006 0370     		strb	r3, [r0]
 313:.\ssd1306.c   **** }
 391              		.loc 1 313 0
 392 0008 0221     		mov	r1, #2
 309:.\ssd1306.c   ****         0x00,
 393              		.loc 1 309 0
 394 000a 2E33     		add	r3, r3, #46
 395 000c 4370     		strb	r3, [r0, #1]
 314:.\ssd1306.c   **** 
 396              		.loc 1 314 0
 397              		@ sp needed
 313:.\ssd1306.c   **** }
 398              		.loc 1 313 0
 399 000e FFF7FEFF 		bl	display_write_buf
 400              	.LVL26:
 314:.\ssd1306.c   **** 
 401              		.loc 1 314 0
 402 0012 07BD     		pop	{r0, r1, r2, pc}
 403              		.cfi_endproc
 404              	.LFE42:
 405              		.size	display_stopscroll, .-display_stopscroll
 406              		.section	.text.display_scroll,"ax",%progbits
 407              		.align	1
 408              		.global	display_scroll
 409              		.code	16
ARM GAS  C:\Users\User\AppData\Local\Temp\cctjmLxv.s 			page 20


 410              		.thumb_func
 411              		.type	display_scroll, %function
 412              	display_scroll:
 413              	.LFB43:
 316:.\ssd1306.c   ****    
 414              		.loc 1 316 0
 415              		.cfi_startproc
 416              	.LVL27:
 417 0000 30B5     		push	{r4, r5, lr}
 418              		.cfi_def_cfa_offset 12
 419              		.cfi_offset 4, -12
 420              		.cfi_offset 5, -8
 421              		.cfi_offset 14, -4
 422 0002 85B0     		sub	sp, sp, #20
 423              		.cfi_def_cfa_offset 32
 318:.\ssd1306.c   ****         0x00,
 424              		.loc 1 318 0
 425 0004 01AC     		add	r4, sp, #4
 426 0006 2371     		strb	r3, [r4, #4]
 427 0008 FF23     		mov	r3, #255
 428              	.LVL28:
 429 000a 0025     		mov	r5, #0
 430 000c E070     		strb	r0, [r4, #3]
 431 000e 6171     		strb	r1, [r4, #5]
 432 0010 E371     		strb	r3, [r4, #7]
 329:.\ssd1306.c   **** }
 433              		.loc 1 329 0
 434 0012 201C     		mov	r0, r4
 435              	.LVL29:
 318:.\ssd1306.c   ****         0x00,
 436              		.loc 1 318 0
 437 0014 D03B     		sub	r3, r3, #208
 329:.\ssd1306.c   **** }
 438              		.loc 1 329 0
 439 0016 0921     		mov	r1, #9
 440              	.LVL30:
 318:.\ssd1306.c   ****         0x00,
 441              		.loc 1 318 0
 442 0018 2570     		strb	r5, [r4]
 443 001a 6270     		strb	r2, [r4, #1]
 444 001c A570     		strb	r5, [r4, #2]
 445 001e A571     		strb	r5, [r4, #6]
 446 0020 2372     		strb	r3, [r4, #8]
 329:.\ssd1306.c   **** }
 447              		.loc 1 329 0
 448 0022 FFF7FEFF 		bl	display_write_buf
 449              	.LVL31:
 330:.\ssd1306.c   **** 
 450              		.loc 1 330 0
 451 0026 05B0     		add	sp, sp, #20
 452              		@ sp needed
 453 0028 30BD     		pop	{r4, r5, pc}
 454              		.cfi_endproc
 455              	.LFE43:
 456              		.size	display_scroll, .-display_scroll
 457              		.section	.text.gfx_init,"ax",%progbits
 458              		.align	1
ARM GAS  C:\Users\User\AppData\Local\Temp\cctjmLxv.s 			page 21


 459              		.global	gfx_init
 460              		.code	16
 461              		.thumb_func
 462              		.type	gfx_init, %function
 463              	gfx_init:
 464              	.LFB44:
 347:.\ssd1306.c   ****     WIDTH = width;
 465              		.loc 1 347 0
 466              		.cfi_startproc
 467              	.LVL32:
 353:.\ssd1306.c   ****     cursor_y = cursor_x = 0;
 468              		.loc 1 353 0
 469 0000 0022     		mov	r2, #0
 348:.\ssd1306.c   ****     HEIGHT = height;
 470              		.loc 1 348 0
 471 0002 0A4B     		ldr	r3, .L33
 358:.\ssd1306.c   **** 
 472              		.loc 1 358 0
 473              		@ sp needed
 348:.\ssd1306.c   ****     HEIGHT = height;
 474              		.loc 1 348 0
 475 0004 1880     		strh	r0, [r3]
 349:.\ssd1306.c   ****     _width = WIDTH;
 476              		.loc 1 349 0
 477 0006 0A4B     		ldr	r3, .L33+4
 478 0008 1980     		strh	r1, [r3]
 350:.\ssd1306.c   ****     _height = HEIGHT;
 479              		.loc 1 350 0
 480 000a 0A4B     		ldr	r3, .L33+8
 351:.\ssd1306.c   ****     
 481              		.loc 1 351 0
 482 000c 5981     		strh	r1, [r3, #10]
 353:.\ssd1306.c   ****     cursor_y = cursor_x = 0;
 483              		.loc 1 353 0
 484 000e 0A49     		ldr	r1, .L33+12
 485              	.LVL33:
 354:.\ssd1306.c   ****     textsize = 1;
 486              		.loc 1 354 0
 487 0010 DA80     		strh	r2, [r3, #6]
 353:.\ssd1306.c   ****     cursor_y = cursor_x = 0;
 488              		.loc 1 353 0
 489 0012 0A70     		strb	r2, [r1]
 356:.\ssd1306.c   ****     wrap = 1;
 490              		.loc 1 356 0
 491 0014 0121     		mov	r1, #1
 354:.\ssd1306.c   ****     textsize = 1;
 492              		.loc 1 354 0
 493 0016 5A80     		strh	r2, [r3, #2]
 356:.\ssd1306.c   ****     wrap = 1;
 494              		.loc 1 356 0
 495 0018 4942     		neg	r1, r1
 355:.\ssd1306.c   ****     textcolor = textbgcolor = 0xFFFF;
 496              		.loc 1 355 0
 497 001a 0132     		add	r2, r2, #1
 350:.\ssd1306.c   ****     _height = HEIGHT;
 498              		.loc 1 350 0
 499 001c 1881     		strh	r0, [r3, #8]
ARM GAS  C:\Users\User\AppData\Local\Temp\cctjmLxv.s 			page 22


 355:.\ssd1306.c   ****     textcolor = textbgcolor = 0xFFFF;
 500              		.loc 1 355 0
 501 001e 1A71     		strb	r2, [r3, #4]
 356:.\ssd1306.c   ****     wrap = 1;
 502              		.loc 1 356 0
 503 0020 9981     		strh	r1, [r3, #12]
 504 0022 D981     		strh	r1, [r3, #14]
 357:.\ssd1306.c   **** }
 505              		.loc 1 357 0
 506 0024 054B     		ldr	r3, .L33+16
 507 0026 1A70     		strb	r2, [r3]
 358:.\ssd1306.c   **** 
 508              		.loc 1 358 0
 509 0028 7047     		bx	lr
 510              	.L34:
 511 002a C046     		.align	2
 512              	.L33:
 513 002c 00000000 		.word	WIDTH
 514 0030 00000000 		.word	HEIGHT
 515 0034 00000000 		.word	.LANCHOR0
 516 0038 00000000 		.word	rotation
 517 003c 00000000 		.word	wrap
 518              		.cfi_endproc
 519              	.LFE44:
 520              		.size	gfx_init, .-gfx_init
 521              		.section	.text.display_init,"ax",%progbits
 522              		.align	1
 523              		.global	display_init
 524              		.code	16
 525              		.thumb_func
 526              		.type	display_init, %function
 527              	display_init:
 528              	.LFB34:
 116:.\ssd1306.c   ****     
 529              		.loc 1 116 0
 530              		.cfi_startproc
 531              	.LVL34:
 532 0000 10B5     		push	{r4, lr}
 533              		.cfi_def_cfa_offset 8
 534              		.cfi_offset 4, -8
 535              		.cfi_offset 14, -4
 121:.\ssd1306.c   ****         0x00,
 536              		.loc 1 121 0
 537 0002 1A24     		mov	r4, #26
 118:.\ssd1306.c   ****     gfx_init( DISPLAYWIDTH, DISPLAYHEIGHT );
 538              		.loc 1 118 0
 539 0004 094B     		ldr	r3, .L36
 116:.\ssd1306.c   ****     
 540              		.loc 1 116 0
 541 0006 88B0     		sub	sp, sp, #32
 542              		.cfi_def_cfa_offset 40
 118:.\ssd1306.c   ****     gfx_init( DISPLAYWIDTH, DISPLAYHEIGHT );
 543              		.loc 1 118 0
 544 0008 1870     		strb	r0, [r3]
 119:.\ssd1306.c   ****     
 545              		.loc 1 119 0
 546 000a 4021     		mov	r1, #64
ARM GAS  C:\Users\User\AppData\Local\Temp\cctjmLxv.s 			page 23


 547 000c 8020     		mov	r0, #128
 548              	.LVL35:
 549 000e FFF7FEFF 		bl	gfx_init
 550              	.LVL36:
 121:.\ssd1306.c   ****         0x00,
 551              		.loc 1 121 0
 552 0012 0749     		ldr	r1, .L36+4
 553 0014 221C     		mov	r2, r4
 554 0016 01A8     		add	r0, sp, #4
 555 0018 0731     		add	r1, r1, #7
 556 001a FFF7FEFF 		bl	memcpy
 557              	.LVL37:
 150:.\ssd1306.c   **** }
 558              		.loc 1 150 0
 559 001e 01A8     		add	r0, sp, #4
 560 0020 211C     		mov	r1, r4
 561 0022 FFF7FEFF 		bl	display_write_buf
 562              	.LVL38:
 151:.\ssd1306.c   **** 
 563              		.loc 1 151 0
 564 0026 08B0     		add	sp, sp, #32
 565              		@ sp needed
 566 0028 10BD     		pop	{r4, pc}
 567              	.L37:
 568 002a C046     		.align	2
 569              	.L36:
 570 002c 00000000 		.word	.LANCHOR0
 571 0030 00000000 		.word	.LANCHOR2
 572              		.cfi_endproc
 573              	.LFE34:
 574              		.size	display_init, .-display_init
 575              		.section	.text.gfx_width,"ax",%progbits
 576              		.align	1
 577              		.global	gfx_width
 578              		.code	16
 579              		.thumb_func
 580              		.type	gfx_width, %function
 581              	gfx_width:
 582              	.LFB45:
 361:.\ssd1306.c   ****     return _width;
 583              		.loc 1 361 0
 584              		.cfi_startproc
 362:.\ssd1306.c   **** }
 585              		.loc 1 362 0
 586 0000 014B     		ldr	r3, .L39
 363:.\ssd1306.c   **** 
 587              		.loc 1 363 0
 588              		@ sp needed
 362:.\ssd1306.c   **** }
 589              		.loc 1 362 0
 590 0002 0820     		mov	r0, #8
 591 0004 185E     		ldrsh	r0, [r3, r0]
 363:.\ssd1306.c   **** 
 592              		.loc 1 363 0
 593 0006 7047     		bx	lr
 594              	.L40:
 595              		.align	2
ARM GAS  C:\Users\User\AppData\Local\Temp\cctjmLxv.s 			page 24


 596              	.L39:
 597 0008 00000000 		.word	.LANCHOR0
 598              		.cfi_endproc
 599              	.LFE45:
 600              		.size	gfx_width, .-gfx_width
 601              		.section	.text.gfx_height,"ax",%progbits
 602              		.align	1
 603              		.global	gfx_height
 604              		.code	16
 605              		.thumb_func
 606              		.type	gfx_height, %function
 607              	gfx_height:
 608              	.LFB46:
 365:.\ssd1306.c   ****     return _height;
 609              		.loc 1 365 0
 610              		.cfi_startproc
 366:.\ssd1306.c   **** }
 611              		.loc 1 366 0
 612 0000 014B     		ldr	r3, .L42
 367:.\ssd1306.c   **** 
 613              		.loc 1 367 0
 614              		@ sp needed
 366:.\ssd1306.c   **** }
 615              		.loc 1 366 0
 616 0002 0A20     		mov	r0, #10
 617 0004 185E     		ldrsh	r0, [r3, r0]
 367:.\ssd1306.c   **** 
 618              		.loc 1 367 0
 619 0006 7047     		bx	lr
 620              	.L43:
 621              		.align	2
 622              	.L42:
 623 0008 00000000 		.word	.LANCHOR0
 624              		.cfi_endproc
 625              	.LFE46:
 626              		.size	gfx_height, .-gfx_height
 627              		.section	.text.gfx_rotation,"ax",%progbits
 628              		.align	1
 629              		.global	gfx_rotation
 630              		.code	16
 631              		.thumb_func
 632              		.type	gfx_rotation, %function
 633              	gfx_rotation:
 634              	.LFB47:
 369:.\ssd1306.c   ****     return rotation;
 635              		.loc 1 369 0
 636              		.cfi_startproc
 370:.\ssd1306.c   **** }
 637              		.loc 1 370 0
 638 0000 014B     		ldr	r3, .L45
 371:.\ssd1306.c   **** 
 639              		.loc 1 371 0
 640              		@ sp needed
 370:.\ssd1306.c   **** }
 641              		.loc 1 370 0
 642 0002 1878     		ldrb	r0, [r3]
 371:.\ssd1306.c   **** 
ARM GAS  C:\Users\User\AppData\Local\Temp\cctjmLxv.s 			page 25


 643              		.loc 1 371 0
 644 0004 7047     		bx	lr
 645              	.L46:
 646 0006 C046     		.align	2
 647              	.L45:
 648 0008 00000000 		.word	rotation
 649              		.cfi_endproc
 650              	.LFE47:
 651              		.size	gfx_rotation, .-gfx_rotation
 652              		.section	.text.gfx_setCursor,"ax",%progbits
 653              		.align	1
 654              		.global	gfx_setCursor
 655              		.code	16
 656              		.thumb_func
 657              		.type	gfx_setCursor, %function
 658              	gfx_setCursor:
 659              	.LFB48:
 373:.\ssd1306.c   ****     cursor_x = x;
 660              		.loc 1 373 0
 661              		.cfi_startproc
 662              	.LVL39:
 374:.\ssd1306.c   ****     cursor_y = y;
 663              		.loc 1 374 0
 664 0000 014B     		ldr	r3, .L48
 376:.\ssd1306.c   **** 
 665              		.loc 1 376 0
 666              		@ sp needed
 374:.\ssd1306.c   ****     cursor_y = y;
 667              		.loc 1 374 0
 668 0002 D880     		strh	r0, [r3, #6]
 375:.\ssd1306.c   **** }
 669              		.loc 1 375 0
 670 0004 5980     		strh	r1, [r3, #2]
 376:.\ssd1306.c   **** 
 671              		.loc 1 376 0
 672 0006 7047     		bx	lr
 673              	.L49:
 674              		.align	2
 675              	.L48:
 676 0008 00000000 		.word	.LANCHOR0
 677              		.cfi_endproc
 678              	.LFE48:
 679              		.size	gfx_setCursor, .-gfx_setCursor
 680              		.section	.text.gfx_setTextSize,"ax",%progbits
 681              		.align	1
 682              		.global	gfx_setTextSize
 683              		.code	16
 684              		.thumb_func
 685              		.type	gfx_setTextSize, %function
 686              	gfx_setTextSize:
 687              	.LFB49:
 378:.\ssd1306.c   ****     textsize = (size > 0) ? size : 1;
 688              		.loc 1 378 0
 689              		.cfi_startproc
 690              	.LVL40:
 379:.\ssd1306.c   **** }
 691              		.loc 1 379 0
ARM GAS  C:\Users\User\AppData\Local\Temp\cctjmLxv.s 			page 26


 692 0000 0123     		mov	r3, #1
 693 0002 0028     		cmp	r0, #0
 694 0004 00D0     		beq	.L51
 695 0006 031C     		mov	r3, r0
 696              	.L51:
 379:.\ssd1306.c   **** }
 697              		.loc 1 379 0 is_stmt 0 discriminator 4
 698 0008 014A     		ldr	r2, .L54
 380:.\ssd1306.c   **** 
 699              		.loc 1 380 0 is_stmt 1 discriminator 4
 700              		@ sp needed
 379:.\ssd1306.c   **** }
 701              		.loc 1 379 0 discriminator 4
 702 000a 1371     		strb	r3, [r2, #4]
 380:.\ssd1306.c   **** 
 703              		.loc 1 380 0 discriminator 4
 704 000c 7047     		bx	lr
 705              	.L55:
 706 000e C046     		.align	2
 707              	.L54:
 708 0010 00000000 		.word	.LANCHOR0
 709              		.cfi_endproc
 710              	.LFE49:
 711              		.size	gfx_setTextSize, .-gfx_setTextSize
 712              		.section	.text.gfx_setTextColor,"ax",%progbits
 713              		.align	1
 714              		.global	gfx_setTextColor
 715              		.code	16
 716              		.thumb_func
 717              		.type	gfx_setTextColor, %function
 718              	gfx_setTextColor:
 719              	.LFB50:
 382:.\ssd1306.c   ****     // For 'transparent' background, we'll set the bg
 720              		.loc 1 382 0
 721              		.cfi_startproc
 722              	.LVL41:
 385:.\ssd1306.c   **** }
 723              		.loc 1 385 0
 724 0000 014B     		ldr	r3, .L57
 386:.\ssd1306.c   **** 
 725              		.loc 1 386 0
 726              		@ sp needed
 385:.\ssd1306.c   **** }
 727              		.loc 1 385 0
 728 0002 9881     		strh	r0, [r3, #12]
 729 0004 D881     		strh	r0, [r3, #14]
 386:.\ssd1306.c   **** 
 730              		.loc 1 386 0
 731 0006 7047     		bx	lr
 732              	.L58:
 733              		.align	2
 734              	.L57:
 735 0008 00000000 		.word	.LANCHOR0
 736              		.cfi_endproc
 737              	.LFE50:
 738              		.size	gfx_setTextColor, .-gfx_setTextColor
 739              		.section	.text.gfx_setTextBg,"ax",%progbits
ARM GAS  C:\Users\User\AppData\Local\Temp\cctjmLxv.s 			page 27


 740              		.align	1
 741              		.global	gfx_setTextBg
 742              		.code	16
 743              		.thumb_func
 744              		.type	gfx_setTextBg, %function
 745              	gfx_setTextBg:
 746              	.LFB51:
 388:.\ssd1306.c   ****     textbgcolor = color;
 747              		.loc 1 388 0
 748              		.cfi_startproc
 749              	.LVL42:
 389:.\ssd1306.c   **** }
 750              		.loc 1 389 0
 751 0000 014B     		ldr	r3, .L60
 390:.\ssd1306.c   **** 
 752              		.loc 1 390 0
 753              		@ sp needed
 389:.\ssd1306.c   **** }
 754              		.loc 1 389 0
 755 0002 9881     		strh	r0, [r3, #12]
 390:.\ssd1306.c   **** 
 756              		.loc 1 390 0
 757 0004 7047     		bx	lr
 758              	.L61:
 759 0006 C046     		.align	2
 760              	.L60:
 761 0008 00000000 		.word	.LANCHOR0
 762              		.cfi_endproc
 763              	.LFE51:
 764              		.size	gfx_setTextBg, .-gfx_setTextBg
 765              		.section	.text.gfx_setTextWrap,"ax",%progbits
 766              		.align	1
 767              		.global	gfx_setTextWrap
 768              		.code	16
 769              		.thumb_func
 770              		.type	gfx_setTextWrap, %function
 771              	gfx_setTextWrap:
 772              	.LFB52:
 392:.\ssd1306.c   ****     wrap = w;
 773              		.loc 1 392 0
 774              		.cfi_startproc
 775              	.LVL43:
 393:.\ssd1306.c   **** }
 776              		.loc 1 393 0
 777 0000 014B     		ldr	r3, .L63
 394:.\ssd1306.c   **** 
 778              		.loc 1 394 0
 779              		@ sp needed
 393:.\ssd1306.c   **** }
 780              		.loc 1 393 0
 781 0002 1870     		strb	r0, [r3]
 394:.\ssd1306.c   **** 
 782              		.loc 1 394 0
 783 0004 7047     		bx	lr
 784              	.L64:
 785 0006 C046     		.align	2
 786              	.L63:
ARM GAS  C:\Users\User\AppData\Local\Temp\cctjmLxv.s 			page 28


 787 0008 00000000 		.word	wrap
 788              		.cfi_endproc
 789              	.LFE52:
 790              		.size	gfx_setTextWrap, .-gfx_setTextWrap
 791              		.section	.text.gfx_setRotation,"ax",%progbits
 792              		.align	1
 793              		.global	gfx_setRotation
 794              		.code	16
 795              		.thumb_func
 796              		.type	gfx_setRotation, %function
 797              	gfx_setRotation:
 798              	.LFB53:
 396:.\ssd1306.c   ****     
 799              		.loc 1 396 0
 800              		.cfi_startproc
 801              	.LVL44:
 398:.\ssd1306.c   ****     switch( rotation ){
 802              		.loc 1 398 0
 803 0000 0323     		mov	r3, #3
 804 0002 1840     		and	r0, r3
 805              	.LVL45:
 806 0004 084B     		ldr	r3, .L76
 807 0006 094A     		ldr	r2, .L76+4
 808 0008 1870     		strb	r0, [r3]
 809 000a 0949     		ldr	r1, .L76+8
 810 000c 094B     		ldr	r3, .L76+12
 399:.\ssd1306.c   ****         case 0:
 811              		.loc 1 399 0
 812 000e 0128     		cmp	r0, #1
 813 0010 05D0     		beq	.L67
 814 0012 0328     		cmp	r0, #3
 815 0014 03D0     		beq	.L67
 402:.\ssd1306.c   ****             _height = HEIGHT;
 816              		.loc 1 402 0
 817 0016 1288     		ldrh	r2, [r2]
 818 0018 1A81     		strh	r2, [r3, #8]
 403:.\ssd1306.c   ****             break;
 819              		.loc 1 403 0
 820 001a 0A88     		ldrh	r2, [r1]
 821 001c 02E0     		b	.L75
 822              	.L67:
 407:.\ssd1306.c   ****             _height = WIDTH;
 823              		.loc 1 407 0
 824 001e 0988     		ldrh	r1, [r1]
 408:.\ssd1306.c   ****         break;
 825              		.loc 1 408 0
 826 0020 1288     		ldrh	r2, [r2]
 407:.\ssd1306.c   ****             _height = WIDTH;
 827              		.loc 1 407 0
 828 0022 1981     		strh	r1, [r3, #8]
 829              	.L75:
 408:.\ssd1306.c   ****         break;
 830              		.loc 1 408 0
 831 0024 5A81     		strh	r2, [r3, #10]
 411:.\ssd1306.c   **** 
 832              		.loc 1 411 0
 833              		@ sp needed
ARM GAS  C:\Users\User\AppData\Local\Temp\cctjmLxv.s 			page 29


 834 0026 7047     		bx	lr
 835              	.L77:
 836              		.align	2
 837              	.L76:
 838 0028 00000000 		.word	rotation
 839 002c 00000000 		.word	WIDTH
 840 0030 00000000 		.word	HEIGHT
 841 0034 00000000 		.word	.LANCHOR0
 842              		.cfi_endproc
 843              	.LFE53:
 844              		.size	gfx_setRotation, .-gfx_setRotation
 845              		.section	.text.gfx_drawPixel,"ax",%progbits
 846              		.align	1
 847              		.global	gfx_drawPixel
 848              		.code	16
 849              		.thumb_func
 850              		.type	gfx_drawPixel, %function
 851              	gfx_drawPixel:
 852              	.LFB55:
 433:.\ssd1306.c   ****     
 853              		.loc 1 433 0
 854              		.cfi_startproc
 855              	.LVL46:
 856 0000 73B5     		push	{r0, r1, r4, r5, r6, lr}
 857              		.cfi_def_cfa_offset 24
 858              		.cfi_offset 0, -24
 859              		.cfi_offset 1, -20
 860              		.cfi_offset 4, -16
 861              		.cfi_offset 5, -12
 862              		.cfi_offset 6, -8
 863              		.cfi_offset 14, -4
 433:.\ssd1306.c   ****     
 864              		.loc 1 433 0
 865 0002 6B46     		mov	r3, sp
 866 0004 01AD     		add	r5, sp, #4
 867 0006 141C     		mov	r4, r2
 868 0008 9E1D     		add	r6, r3, #6
 869 000a D880     		strh	r0, [r3, #6]
 870 000c 2980     		strh	r1, [r5]
 435:.\ssd1306.c   ****         return;
 871              		.loc 1 435 0
 872 000e 0028     		cmp	r0, #0
 873 0010 4DDB     		blt	.L78
 435:.\ssd1306.c   ****         return;
 874              		.loc 1 435 0 is_stmt 0 discriminator 1
 875 0012 274A     		ldr	r2, .L85
 876              	.LVL47:
 877 0014 0821     		mov	r1, #8
 878 0016 535E     		ldrsh	r3, [r2, r1]
 879              	.LVL48:
 880 0018 8342     		cmp	r3, r0
 881 001a 48DD     		ble	.L78
 435:.\ssd1306.c   ****         return;
 882              		.loc 1 435 0 discriminator 2
 883 001c 0021     		mov	r1, #0
 884 001e 6B5E     		ldrsh	r3, [r5, r1]
 885 0020 002B     		cmp	r3, #0
ARM GAS  C:\Users\User\AppData\Local\Temp\cctjmLxv.s 			page 30


 886 0022 44DB     		blt	.L78
 435:.\ssd1306.c   ****         return;
 887              		.loc 1 435 0 discriminator 3
 888 0024 0A21     		mov	r1, #10
 889 0026 525E     		ldrsh	r2, [r2, r1]
 890 0028 9A42     		cmp	r2, r3
 891 002a 40DD     		ble	.L78
 438:.\ssd1306.c   **** 
 892              		.loc 1 438 0 is_stmt 1
 893 002c 301C     		mov	r0, r6
 894              	.LVL49:
 895 002e 291C     		mov	r1, r5
 896 0030 FFF7FEFF 		bl	gfx_rotation_adjust
 897              	.LVL50:
 440:.\ssd1306.c   **** }
 898              		.loc 1 440 0
 899 0034 3388     		ldrh	r3, [r6]
 900 0036 2A88     		ldrh	r2, [r5]
 901              	.LVL51:
 902              	.LBB9:
 903              	.LBB10:
 180:.\ssd1306.c   ****         return;
 904              		.loc 1 180 0
 905 0038 7F2B     		cmp	r3, #127
 906 003a 38D8     		bhi	.L78
 907 003c 91B2     		uxth	r1, r2
 908 003e 3F29     		cmp	r1, #63
 909 0040 35D8     		bhi	.L78
 183:.\ssd1306.c   ****         case WHITE: 
 910              		.loc 1 183 0
 911 0042 012C     		cmp	r4, #1
 912 0044 14D0     		beq	.L82
 913 0046 002C     		cmp	r4, #0
 914 0048 21D0     		beq	.L83
 915 004a 022C     		cmp	r4, #2
 916 004c 2FD1     		bne	.L78
 191:.\ssd1306.c   ****             break;
 917              		.loc 1 191 0
 918 004e 12B2     		sxth	r2, r2
 919 0050 D210     		asr	r2, r2, #3
 920              	.LVL52:
 921 0052 D201     		lsl	r2, r2, #7
 922 0054 1BB2     		sxth	r3, r3
 923 0056 D318     		add	r3, r2, r3
 924              	.LVL53:
 925 0058 164A     		ldr	r2, .L85+4
 926 005a 0132     		add	r2, r2, #1
 927 005c D218     		add	r2, r2, r3
 928 005e 0723     		mov	r3, #7
 929 0060 1940     		and	r1, r3
 930              	.LVL54:
 931 0062 063B     		sub	r3, r3, #6
 932 0064 8B40     		lsl	r3, r3, r1
 933 0066 191C     		mov	r1, r3
 934 0068 1378     		ldrb	r3, [r2]
 935 006a 5940     		eor	r1, r3
 936 006c 1170     		strb	r1, [r2]
ARM GAS  C:\Users\User\AppData\Local\Temp\cctjmLxv.s 			page 31


 937 006e 1EE0     		b	.L78
 938              	.LVL55:
 939              	.L82:
 185:.\ssd1306.c   ****             break;
 940              		.loc 1 185 0
 941 0070 12B2     		sxth	r2, r2
 942 0072 D210     		asr	r2, r2, #3
 943              	.LVL56:
 944 0074 D201     		lsl	r2, r2, #7
 945 0076 1BB2     		sxth	r3, r3
 946 0078 D318     		add	r3, r2, r3
 947              	.LVL57:
 948 007a 0E4A     		ldr	r2, .L85+4
 949 007c 0132     		add	r2, r2, #1
 950 007e D218     		add	r2, r2, r3
 951 0080 0723     		mov	r3, #7
 952 0082 1940     		and	r1, r3
 953              	.LVL58:
 954 0084 8C40     		lsl	r4, r4, r1
 955              	.LVL59:
 956 0086 1178     		ldrb	r1, [r2]
 957 0088 0C43     		orr	r4, r1
 958 008a 1470     		strb	r4, [r2]
 959 008c 0FE0     		b	.L78
 960              	.LVL60:
 961              	.L83:
 188:.\ssd1306.c   ****             break;
 962              		.loc 1 188 0
 963 008e 12B2     		sxth	r2, r2
 964 0090 D210     		asr	r2, r2, #3
 965              	.LVL61:
 966 0092 D201     		lsl	r2, r2, #7
 967 0094 1BB2     		sxth	r3, r3
 968 0096 D318     		add	r3, r2, r3
 969              	.LVL62:
 970 0098 064A     		ldr	r2, .L85+4
 971 009a 0132     		add	r2, r2, #1
 972 009c D218     		add	r2, r2, r3
 973 009e 0723     		mov	r3, #7
 974 00a0 1940     		and	r1, r3
 975              	.LVL63:
 976 00a2 063B     		sub	r3, r3, #6
 977 00a4 8B40     		lsl	r3, r3, r1
 978 00a6 191C     		mov	r1, r3
 979 00a8 1378     		ldrb	r3, [r2]
 980 00aa 8B43     		bic	r3, r1
 981 00ac 1370     		strb	r3, [r2]
 982              	.LVL64:
 983              	.L78:
 984              	.LBE10:
 985              	.LBE9:
 441:.\ssd1306.c   **** 
 986              		.loc 1 441 0
 987              		@ sp needed
 988              	.LVL65:
 989              	.LVL66:
 990 00ae 73BD     		pop	{r0, r1, r4, r5, r6, pc}
ARM GAS  C:\Users\User\AppData\Local\Temp\cctjmLxv.s 			page 32


 991              	.L86:
 992              		.align	2
 993              	.L85:
 994 00b0 00000000 		.word	.LANCHOR0
 995 00b4 00000000 		.word	.LANCHOR1
 996              		.cfi_endproc
 997              	.LFE55:
 998              		.size	gfx_drawPixel, .-gfx_drawPixel
 999              		.section	.text.gfx_drawLine,"ax",%progbits
 1000              		.align	1
 1001              		.global	gfx_drawLine
 1002              		.code	16
 1003              		.thumb_func
 1004              		.type	gfx_drawLine, %function
 1005              	gfx_drawLine:
 1006              	.LFB57:
 478:.\ssd1306.c   ****  
 1007              		.loc 1 478 0
 1008              		.cfi_startproc
 1009              	.LVL67:
 1010 0000 F0B5     		push	{r4, r5, r6, r7, lr}
 1011              		.cfi_def_cfa_offset 20
 1012              		.cfi_offset 4, -20
 1013              		.cfi_offset 5, -16
 1014              		.cfi_offset 6, -12
 1015              		.cfi_offset 7, -8
 1016              		.cfi_offset 14, -4
 1017 0002 89B0     		sub	sp, sp, #36
 1018              		.cfi_def_cfa_offset 56
 478:.\ssd1306.c   ****  
 1019              		.loc 1 478 0
 1020 0004 161C     		mov	r6, r2
 1021 0006 0EAA     		add	r2, sp, #56
 1022              	.LVL68:
 1023 0008 1288     		ldrh	r2, [r2]
 1024              	.LVL69:
 1025 000a 041C     		mov	r4, r0
 1026 000c 0D1C     		mov	r5, r1
 1027 000e 0192     		str	r2, [sp, #4]
 480:.\ssd1306.c   ****         // vertical and horizontal lines can be drawn faster
 1028              		.loc 1 480 0
 1029 0010 B042     		cmp	r0, r6
 1030 0012 02D0     		beq	.L88
 480:.\ssd1306.c   ****         // vertical and horizontal lines can be drawn faster
 1031              		.loc 1 480 0 is_stmt 0 discriminator 1
 1032 0014 9942     		cmp	r1, r3
 1033 0016 00D0     		beq	.LCB875
 1034 0018 04E1     		b	.L89	@long jump
 1035              	.LCB875:
 1036              	.L88:
 1037 001a 06AA     		add	r2, sp, #24
 1038 001c 1480     		strh	r4, [r2]
 1039              	.LVL70:
 1040 001e 971C     		add	r7, r2, #2
 1041 0020 07AA     		add	r2, sp, #28
 1042 0022 1680     		strh	r6, [r2]
 1043 0024 06AA     		add	r2, sp, #24
ARM GAS  C:\Users\User\AppData\Local\Temp\cctjmLxv.s 			page 33


 1044 0026 3D80     		strh	r5, [r7]
 1045              	.LVL71:
 1046 0028 D380     		strh	r3, [r2, #6]
 1047              	.LVL72:
 1048              	.LBB20:
 1049              	.LBB21:
 446:.\ssd1306.c   ****         // neither vertical nor horizontal
 1050              		.loc 1 446 0 is_stmt 1
 1051 002a B442     		cmp	r4, r6
 1052 002c 02D0     		beq	.L90
 1053 002e 9D42     		cmp	r5, r3
 1054 0030 00D0     		beq	.LCB902
 1055 0032 51E1     		b	.L87	@long jump
 1056              	.LCB902:
 1057              	.L90:
 452:.\ssd1306.c   ****         if( x1 < 0 || x1 >= HEIGHT || x2 < 0 || x2 >= HEIGHT )
 1058              		.loc 1 452 0
 1059 0034 0221     		mov	r1, #2
 1060              	.LVL73:
 1061 0036 A94A     		ldr	r2, .L140
 1062 0038 1278     		ldrb	r2, [r2]
 1063 003a 8A43     		bic	r2, r1
 1064 003c 012A     		cmp	r2, #1
 1065 003e 1DD1     		bne	.L91
 453:.\ssd1306.c   ****             return;
 1066              		.loc 1 453 0
 1067 0040 002C     		cmp	r4, #0
 1068 0042 00DA     		bge	.LCB913
 1069 0044 48E1     		b	.L87	@long jump
 1070              	.LCB913:
 1071 0046 A64A     		ldr	r2, .L140+4
 1072 0048 0021     		mov	r1, #0
 1073 004a 525E     		ldrsh	r2, [r2, r1]
 1074 004c 9442     		cmp	r4, r2
 1075 004e 00DB     		blt	.LCB918
 1076 0050 42E1     		b	.L87	@long jump
 1077              	.LCB918:
 1078 0052 002E     		cmp	r6, #0
 1079 0054 00DA     		bge	.LCB920
 1080 0056 3FE1     		b	.L87	@long jump
 1081              	.LCB920:
 1082 0058 9642     		cmp	r6, r2
 1083 005a 00DB     		blt	.LCB922
 1084 005c 3CE1     		b	.L87	@long jump
 1085              	.LCB922:
 455:.\ssd1306.c   ****             return;
 1086              		.loc 1 455 0
 1087 005e 002D     		cmp	r5, #0
 1088 0060 00DA     		bge	.LCB924
 1089 0062 39E1     		b	.L87	@long jump
 1090              	.LCB924:
 1091 0064 9F4A     		ldr	r2, .L140+8
 1092 0066 0021     		mov	r1, #0
 1093 0068 525E     		ldrsh	r2, [r2, r1]
 1094 006a 9542     		cmp	r5, r2
 1095 006c 00DB     		blt	.LCB929
 1096 006e 33E1     		b	.L87	@long jump
ARM GAS  C:\Users\User\AppData\Local\Temp\cctjmLxv.s 			page 34


 1097              	.LCB929:
 1098 0070 002B     		cmp	r3, #0
 1099 0072 00DA     		bge	.LCB931
 1100 0074 30E1     		b	.L87	@long jump
 1101              	.LCB931:
 1102 0076 9342     		cmp	r3, r2
 1103 0078 1EDB     		blt	.L93
 1104 007a 2DE1     		b	.L87
 1105              	.L91:
 458:.\ssd1306.c   ****             return;
 1106              		.loc 1 458 0
 1107 007c 002D     		cmp	r5, #0
 1108 007e 00DA     		bge	.LCB939
 1109 0080 2AE1     		b	.L87	@long jump
 1110              	.LCB939:
 1111 0082 974A     		ldr	r2, .L140+4
 1112 0084 0021     		mov	r1, #0
 1113 0086 525E     		ldrsh	r2, [r2, r1]
 1114 0088 9542     		cmp	r5, r2
 1115 008a 00DB     		blt	.LCB944
 1116 008c 24E1     		b	.L87	@long jump
 1117              	.LCB944:
 1118 008e 002B     		cmp	r3, #0
 1119 0090 00DA     		bge	.LCB946
 1120 0092 21E1     		b	.L87	@long jump
 1121              	.LCB946:
 1122 0094 9342     		cmp	r3, r2
 1123 0096 00DB     		blt	.LCB948
 1124 0098 1EE1     		b	.L87	@long jump
 1125              	.LCB948:
 460:.\ssd1306.c   ****             return;
 1126              		.loc 1 460 0
 1127 009a 002C     		cmp	r4, #0
 1128 009c 00DA     		bge	.LCB950
 1129 009e 1BE1     		b	.L87	@long jump
 1130              	.LCB950:
 1131 00a0 904B     		ldr	r3, .L140+8
 1132              	.LVL74:
 1133 00a2 0022     		mov	r2, #0
 1134 00a4 9B5E     		ldrsh	r3, [r3, r2]
 1135 00a6 9C42     		cmp	r4, r3
 1136 00a8 00DB     		blt	.LCB956
 1137 00aa 15E1     		b	.L87	@long jump
 1138              	.LCB956:
 1139 00ac 002E     		cmp	r6, #0
 1140 00ae 00DA     		bge	.LCB958
 1141 00b0 12E1     		b	.L87	@long jump
 1142              	.LCB958:
 1143 00b2 9E42     		cmp	r6, r3
 1144 00b4 00DB     		blt	.LCB960
 1145 00b6 0FE1     		b	.L87	@long jump
 1146              	.LCB960:
 1147              	.L93:
 464:.\ssd1306.c   ****     gfx_rotation_adjust( &x2, &y2 );
 1148              		.loc 1 464 0
 1149 00b8 06A8     		add	r0, sp, #24
 1150              	.LVL75:
ARM GAS  C:\Users\User\AppData\Local\Temp\cctjmLxv.s 			page 35


 1151 00ba 391C     		mov	r1, r7
 1152 00bc FFF7FEFF 		bl	gfx_rotation_adjust
 1153              	.LVL76:
 465:.\ssd1306.c   ****     
 1154              		.loc 1 465 0
 1155 00c0 06AB     		add	r3, sp, #24
 1156 00c2 9C1D     		add	r4, r3, #6
 1157              	.LVL77:
 1158 00c4 07AD     		add	r5, sp, #28
 1159 00c6 281C     		mov	r0, r5
 1160 00c8 211C     		mov	r1, r4
 1161 00ca FFF7FEFF 		bl	gfx_rotation_adjust
 1162              	.LVL78:
 468:.\ssd1306.c   ****         // swap as needed
 1163              		.loc 1 468 0
 1164 00ce 06AB     		add	r3, sp, #24
 1165              	.LVL79:
 1166 00d0 1B88     		ldrh	r3, [r3]
 1167              	.LVL80:
 1168 00d2 2A88     		ldrh	r2, [r5]
 1169 00d4 0293     		str	r3, [sp, #8]
 1170 00d6 6B46     		mov	r3, sp
 1171 00d8 1B89     		ldrh	r3, [r3, #8]
 1172 00da 10B2     		sxth	r0, r2
 1173 00dc 19B2     		sxth	r1, r3
 1174 00de 8142     		cmp	r1, r0
 1175 00e0 06D1     		bne	.L94
 1176 00e2 0023     		mov	r3, #0
 1177 00e4 E65E     		ldrsh	r6, [r4, r3]
 1178              	.LVL81:
 1179 00e6 B446     		mov	ip, r6
 1180 00e8 0023     		mov	r3, #0
 1181 00ea FE5E     		ldrsh	r6, [r7, r3]
 1182 00ec B445     		cmp	ip, r6
 1183 00ee 08DB     		blt	.L95
 1184              	.L94:
 1185 00f0 0023     		mov	r3, #0
 1186 00f2 FE5E     		ldrsh	r6, [r7, r3]
 1187 00f4 B446     		mov	ip, r6
 1188 00f6 0023     		mov	r3, #0
 1189 00f8 E65E     		ldrsh	r6, [r4, r3]
 1190 00fa B445     		cmp	ip, r6
 1191 00fc 0AD1     		bne	.L96
 1192 00fe 8842     		cmp	r0, r1
 1193 0100 08DA     		bge	.L96
 1194              	.L95:
 1195              	.LVL82:
 1196              	.LBB22:
 470:.\ssd1306.c   ****         t = y1; y1 = y2; y2 = t;
 1197              		.loc 1 470 0
 1198 0102 6B46     		mov	r3, sp
 1199 0104 1B89     		ldrh	r3, [r3, #8]
 1200 0106 06A9     		add	r1, sp, #24
 1201              	.LVL83:
 1202 0108 0A80     		strh	r2, [r1]
 1203 010a 2B80     		strh	r3, [r5]
 471:.\ssd1306.c   ****     }
ARM GAS  C:\Users\User\AppData\Local\Temp\cctjmLxv.s 			page 36


 1204              		.loc 1 471 0
 1205 010c 2288     		ldrh	r2, [r4]
 1206 010e 3B88     		ldrh	r3, [r7]
 1207              	.LVL84:
 1208 0110 3A80     		strh	r2, [r7]
 1209 0112 2380     		strh	r3, [r4]
 1210              	.LVL85:
 1211              	.L96:
 1212              	.LBE22:
 1213              	.LBB23:
 1214              	.LBB24:
 248:.\ssd1306.c   ****         // vertical
 1215              		.loc 1 248 0
 1216 0114 06AB     		add	r3, sp, #24
 1217              	.LVL86:
 1218 0116 0020     		mov	r0, #0
 1219 0118 185E     		ldrsh	r0, [r3, r0]
 1220              	.LVL87:
 1221              	.LBE24:
 1222              	.LBE23:
 474:.\ssd1306.c   **** }
 1223              		.loc 1 474 0
 1224 011a 3988     		ldrh	r1, [r7]
 1225 011c 2688     		ldrh	r6, [r4]
 1226              	.LVL88:
 1227              	.LBB39:
 1228              	.LBB37:
 248:.\ssd1306.c   ****         // vertical
 1229              		.loc 1 248 0
 1230 011e 0023     		mov	r3, #0
 1231 0120 EC5E     		ldrsh	r4, [r5, r3]
 1232              	.LVL89:
 1233 0122 0AB2     		sxth	r2, r1
 1234 0124 704B     		ldr	r3, .L140+12
 1235 0126 A042     		cmp	r0, r4
 1236 0128 58D1     		bne	.L97
 1237              	.LVL90:
 1238              	.LBB25:
 251:.\ssd1306.c   ****         uint8_t* ptr = pstart;             
 1239              		.loc 1 251 0
 1240 012a 35B2     		sxth	r5, r6
 1241              	.LVL91:
 250:.\ssd1306.c   ****         uint8_t* pend = GDDRAM_ADDRESS(x2,y2);       
 1242              		.loc 1 250 0
 1243 012c 5F1C     		add	r7, r3, #1
 1244              	.LVL92:
 1245 012e D417     		asr	r4, r2, #31
 251:.\ssd1306.c   ****         uint8_t* ptr = pstart;             
 1246              		.loc 1 251 0
 1247 0130 EB17     		asr	r3, r5, #31
 250:.\ssd1306.c   ****         uint8_t* pend = GDDRAM_ADDRESS(x2,y2);       
 1248              		.loc 1 250 0
 1249 0132 640F     		lsr	r4, r4, #29
 251:.\ssd1306.c   ****         uint8_t* ptr = pstart;             
 1250              		.loc 1 251 0
 1251 0134 5B0F     		lsr	r3, r3, #29
 250:.\ssd1306.c   ****         uint8_t* pend = GDDRAM_ADDRESS(x2,y2);       
ARM GAS  C:\Users\User\AppData\Local\Temp\cctjmLxv.s 			page 37


 1252              		.loc 1 250 0
 1253 0136 A418     		add	r4, r4, r2
 251:.\ssd1306.c   ****         uint8_t* ptr = pstart;             
 1254              		.loc 1 251 0
 1255 0138 5B19     		add	r3, r3, r5
 250:.\ssd1306.c   ****         uint8_t* pend = GDDRAM_ADDRESS(x2,y2);       
 1256              		.loc 1 250 0
 1257 013a E410     		asr	r4, r4, #3
 251:.\ssd1306.c   ****         uint8_t* ptr = pstart;             
 1258              		.loc 1 251 0
 1259 013c DB10     		asr	r3, r3, #3
 1260 013e DB01     		lsl	r3, r3, #7
 250:.\ssd1306.c   ****         uint8_t* pend = GDDRAM_ADDRESS(x2,y2);       
 1261              		.loc 1 250 0
 1262 0140 E401     		lsl	r4, r4, #7
 1263 0142 2418     		add	r4, r4, r0
 251:.\ssd1306.c   ****         uint8_t* ptr = pstart;             
 1264              		.loc 1 251 0
 1265 0144 1818     		add	r0, r3, r0
 1266 0146 3B18     		add	r3, r7, r0
 1267              	.LBB26:
 1268              	.LBB27:
 259:.\ssd1306.c   ****                 // bottom (line can be very short, all inside this one byte)
 1269              		.loc 1 259 0
 1270 0148 6848     		ldr	r0, .L140+16
 1271              	.LBE27:
 1272              	.LBE26:
 250:.\ssd1306.c   ****         uint8_t* pend = GDDRAM_ADDRESS(x2,y2);       
 1273              		.loc 1 250 0
 1274 014a 3C19     		add	r4, r7, r4
 1275              	.LVL93:
 1276              	.LBB31:
 1277              	.LBB28:
 259:.\ssd1306.c   ****                 // bottom (line can be very short, all inside this one byte)
 1278              		.loc 1 259 0
 1279 014c 0240     		and	r2, r0
 1280 014e 04D5     		bpl	.L98
 1281 0150 0827     		mov	r7, #8
 1282 0152 013A     		sub	r2, r2, #1
 1283 0154 7F42     		neg	r7, r7
 1284 0156 3A43     		orr	r2, r7
 1285 0158 0132     		add	r2, r2, #1
 1286              	.L98:
 1287 015a D2B2     		uxtb	r2, r2
 1288 015c 511A     		sub	r1, r2, r1
 1289              	.LVL94:
 261:.\ssd1306.c   ****                 if( ubit >= 7 )
 1290              		.loc 1 261 0
 1291 015e 7618     		add	r6, r6, r1
 1292              	.LVL95:
 1293 0160 F6B2     		uxtb	r6, r6
 1294 0162 371C     		add	r7, r6, #0
 1295 0164 062E     		cmp	r6, #6
 1296 0166 00D9     		bls	.L100
 1297 0168 0727     		mov	r7, #7
 1298              	.L100:
 264:.\ssd1306.c   ****             }else if( ptr == pend ){
ARM GAS  C:\Users\User\AppData\Local\Temp\cctjmLxv.s 			page 38


 1299              		.loc 1 264 0
 1300 016a 0121     		mov	r1, #1
 1301 016c FFB2     		uxtb	r7, r7
 1302 016e BF1A     		sub	r7, r7, r2
 1303 0170 0137     		add	r7, r7, #1
 1304 0172 B940     		lsl	r1, r1, r7
 1305 0174 0F1C     		mov	r7, r1
 1306 0176 013F     		sub	r7, r7, #1
 1307 0178 9740     		lsl	r7, r7, r2
 1308              	.LBE28:
 268:.\ssd1306.c   ****             }
 1309              		.loc 1 268 0
 1310 017a 291C     		mov	r1, r5
 1311              	.LBB29:
 264:.\ssd1306.c   ****             }else if( ptr == pend ){
 1312              		.loc 1 264 0
 1313 017c FAB2     		uxtb	r2, r7
 1314              	.LBE29:
 268:.\ssd1306.c   ****             }
 1315              		.loc 1 268 0
 1316 017e 0140     		and	r1, r0
 1317 0180 04D5     		bpl	.L101
 1318 0182 0820     		mov	r0, #8
 1319 0184 0139     		sub	r1, r1, #1
 1320 0186 4042     		neg	r0, r0
 1321 0188 0143     		orr	r1, r0
 1322 018a 0131     		add	r1, r1, #1
 1323              	.L101:
 1324 018c 0120     		mov	r0, #1
 1325 018e 09B2     		sxth	r1, r1
 1326 0190 8840     		lsl	r0, r0, r1
 1327              	.LBE31:
 250:.\ssd1306.c   ****         uint8_t* pend = GDDRAM_ADDRESS(x2,y2);       
 1328              		.loc 1 250 0
 1329 0192 211C     		mov	r1, r4
 1330              	.LBB32:
 268:.\ssd1306.c   ****             }
 1331              		.loc 1 268 0
 1332 0194 0138     		sub	r0, r0, #1
 1333 0196 C0B2     		uxtb	r0, r0
 1334              	.LVL96:
 1335              	.L102:
 1336              	.LBE32:
 254:.\ssd1306.c   ****             
 1337              		.loc 1 254 0
 1338 0198 9942     		cmp	r1, r3
 1339 019a 00D9     		bls	.LCB1148
 1340 019c 9CE0     		b	.L87	@long jump
 1341              	.LCB1148:
 1342              	.LBB33:
 257:.\ssd1306.c   ****                 // top
 1343              		.loc 1 257 0
 1344 019e A142     		cmp	r1, r4
 1345 01a0 03D0     		beq	.L128
 268:.\ssd1306.c   ****             }
 1346              		.loc 1 268 0
 1347 01a2 051C     		mov	r5, r0
ARM GAS  C:\Users\User\AppData\Local\Temp\cctjmLxv.s 			page 39


 265:.\ssd1306.c   ****                 // top is always bit 0, that makes it easy
 1348              		.loc 1 265 0
 1349 01a4 9942     		cmp	r1, r3
 1350 01a6 12D1     		bne	.L137
 1351 01a8 00E0     		b	.L103
 1352              	.L128:
 1353              	.LBB30:
 264:.\ssd1306.c   ****             }else if( ptr == pend ){
 1354              		.loc 1 264 0
 1355 01aa 151C     		mov	r5, r2
 1356              	.L103:
 1357              	.LBE30:
 272:.\ssd1306.c   ****                     case WHITE:     *ptr |= mask; break;
 1358              		.loc 1 272 0
 1359 01ac 019E     		ldr	r6, [sp, #4]
 1360 01ae 012E     		cmp	r6, #1
 1361 01b0 06D0     		beq	.L106
 1362 01b2 002E     		cmp	r6, #0
 1363 01b4 07D0     		beq	.L107
 1364 01b6 022E     		cmp	r6, #2
 1365 01b8 0ED1     		bne	.L105
 275:.\ssd1306.c   ****                 };  
 1366              		.loc 1 275 0
 1367 01ba 0E78     		ldrb	r6, [r1]
 1368 01bc 7540     		eor	r5, r6
 1369 01be 0AE0     		b	.L134
 1370              	.L106:
 273:.\ssd1306.c   ****                     case BLACK:     *ptr &= ~mask; break;
 1371              		.loc 1 273 0
 1372 01c0 0E78     		ldrb	r6, [r1]
 1373 01c2 3543     		orr	r5, r6
 1374 01c4 07E0     		b	.L134
 1375              	.L107:
 274:.\ssd1306.c   ****                     case INVERSE:   *ptr ^= mask; break;
 1376              		.loc 1 274 0
 1377 01c6 0E78     		ldrb	r6, [r1]
 1378 01c8 AE43     		bic	r6, r5
 1379 01ca 351C     		mov	r5, r6
 1380 01cc 03E0     		b	.L134
 1381              	.L137:
 278:.\ssd1306.c   ****                     case WHITE:     *ptr = 0xff; break;
 1382              		.loc 1 278 0
 1383 01ce 019D     		ldr	r5, [sp, #4]
 1384 01d0 012D     		cmp	r5, #1
 1385 01d2 77D1     		bne	.L138
 279:.\ssd1306.c   ****                     case BLACK:     *ptr = 0x00; break;
 1386              		.loc 1 279 0
 1387 01d4 FF25     		mov	r5, #255
 1388              	.L134:
 281:.\ssd1306.c   ****                 };  
 1389              		.loc 1 281 0
 1390 01d6 0D70     		strb	r5, [r1]
 1391              	.L105:
 285:.\ssd1306.c   ****         }
 1392              		.loc 1 285 0
 1393 01d8 8031     		add	r1, r1, #128
 1394              	.LVL97:
ARM GAS  C:\Users\User\AppData\Local\Temp\cctjmLxv.s 			page 40


 1395 01da DDE7     		b	.L102
 1396              	.LVL98:
 1397              	.L97:
 1398              	.LBE33:
 1399              	.LBE25:
 1400              	.LBB35:
 289:.\ssd1306.c   ****         uint8_t* pend = pstart + x2 - x1;
 1401              		.loc 1 289 0
 1402 01dc D517     		asr	r5, r2, #31
 1403              	.LVL99:
 1404 01de 6D0F     		lsr	r5, r5, #29
 1405 01e0 AA18     		add	r2, r5, r2
 1406 01e2 D210     		asr	r2, r2, #3
 1407 01e4 D201     		lsl	r2, r2, #7
 1408 01e6 1218     		add	r2, r2, r0
 1409 01e8 0133     		add	r3, r3, #1
 1410 01ea 9B18     		add	r3, r3, r2
 1411              	.LVL100:
 291:.\ssd1306.c   **** 
 1412              		.loc 1 291 0
 1413 01ec 0722     		mov	r2, #7
 1414 01ee 1140     		and	r1, r2
 1415              	.LVL101:
 1416 01f0 063A     		sub	r2, r2, #6
 1417 01f2 8A40     		lsl	r2, r2, r1
 1418 01f4 111C     		mov	r1, r2
 290:.\ssd1306.c   ****         uint8_t pixmask = GDDRAM_PIXMASK(y1);    
 1419              		.loc 1 290 0
 1420 01f6 201A     		sub	r0, r4, r0
 1421 01f8 1818     		add	r0, r3, r0
 1422              	.LVL102:
 291:.\ssd1306.c   **** 
 1423              		.loc 1 291 0
 1424 01fa D4B2     		uxtb	r4, r2
 1425              	.LVL103:
 1426              	.L113:
 294:.\ssd1306.c   ****             switch( color ){
 1427              		.loc 1 294 0
 1428 01fc 8342     		cmp	r3, r0
 1429 01fe 6BD8     		bhi	.L87
 295:.\ssd1306.c   ****                 case WHITE:     *ptr |= pixmask; break;
 1430              		.loc 1 295 0
 1431 0200 019A     		ldr	r2, [sp, #4]
 1432 0202 012A     		cmp	r2, #1
 1433 0204 06D0     		beq	.L115
 1434 0206 002A     		cmp	r2, #0
 1435 0208 07D0     		beq	.L116
 1436 020a 022A     		cmp	r2, #2
 1437 020c 08D1     		bne	.L114
 298:.\ssd1306.c   ****             };
 1438              		.loc 1 298 0
 1439 020e 1A78     		ldrb	r2, [r3]
 1440 0210 6240     		eor	r2, r4
 1441 0212 04E0     		b	.L135
 1442              	.L115:
 296:.\ssd1306.c   ****                 case BLACK:     *ptr &= ~pixmask; break;
 1443              		.loc 1 296 0
ARM GAS  C:\Users\User\AppData\Local\Temp\cctjmLxv.s 			page 41


 1444 0214 1A78     		ldrb	r2, [r3]
 1445 0216 2243     		orr	r2, r4
 1446 0218 01E0     		b	.L135
 1447              	.L116:
 297:.\ssd1306.c   ****                 case INVERSE:   *ptr ^= pixmask; break;
 1448              		.loc 1 297 0
 1449 021a 1A78     		ldrb	r2, [r3]
 1450 021c 8A43     		bic	r2, r1
 1451              	.L135:
 298:.\ssd1306.c   ****             };
 1452              		.loc 1 298 0
 1453 021e 1A70     		strb	r2, [r3]
 1454              	.L114:
 300:.\ssd1306.c   ****         }
 1455              		.loc 1 300 0
 1456 0220 0133     		add	r3, r3, #1
 1457              	.LVL104:
 1458 0222 EBE7     		b	.L113
 1459              	.LVL105:
 1460              	.L89:
 1461              	.LBE35:
 1462              	.LBE37:
 1463              	.LBE39:
 1464              	.LBE21:
 1465              	.LBE20:
 488:.\ssd1306.c   ****     if( steep ){
 1466              		.loc 1 488 0
 1467 0224 591A     		sub	r1, r3, r1
 1468              	.LVL106:
 1469 0226 CA17     		asr	r2, r1, #31
 1470 0228 8918     		add	r1, r1, r2
 1471 022a 5140     		eor	r1, r2
 1472 022c 321A     		sub	r2, r6, r0
 1473 022e D017     		asr	r0, r2, #31
 1474              	.LVL107:
 1475 0230 1218     		add	r2, r2, r0
 1476 0232 4240     		eor	r2, r0
 1477 0234 9142     		cmp	r1, r2
 1478 0236 08DD     		ble	.L133
 1479 0238 0122     		mov	r2, #1
 1480 023a 0292     		str	r2, [sp, #8]
 489:.\ssd1306.c   ****         t = x0; x0 = y0; y0 = t;
 1481              		.loc 1 489 0
 1482 023c 321C     		mov	r2, r6
 1483 023e 1E1C     		mov	r6, r3
 1484 0240 131C     		mov	r3, r2
 1485              	.LVL108:
 1486 0242 221C     		mov	r2, r4
 1487 0244 2C1C     		mov	r4, r5
 1488 0246 151C     		mov	r5, r2
 1489 0248 01E0     		b	.L120
 1490              	.LVL109:
 1491              	.L133:
 1492 024a 0022     		mov	r2, #0
 1493 024c 0292     		str	r2, [sp, #8]
 1494              	.LVL110:
 1495              	.L120:
ARM GAS  C:\Users\User\AppData\Local\Temp\cctjmLxv.s 			page 42


 493:.\ssd1306.c   ****         t = x0; x0 = x1; x1 = t;
 1496              		.loc 1 493 0
 1497 024e B442     		cmp	r4, r6
 1498 0250 05DD     		ble	.L121
 1499 0252 2A1C     		mov	r2, r5
 495:.\ssd1306.c   ****     }
 1500              		.loc 1 495 0
 1501 0254 1D1C     		mov	r5, r3
 1502              	.LVL111:
 1503 0256 131C     		mov	r3, r2
 1504              	.LVL112:
 493:.\ssd1306.c   ****         t = x0; x0 = x1; x1 = t;
 1505              		.loc 1 493 0
 1506 0258 221C     		mov	r2, r4
 1507 025a 341C     		mov	r4, r6
 1508              	.LVL113:
 1509 025c 161C     		mov	r6, r2
 1510              	.LVL114:
 1511              	.L121:
 498:.\ssd1306.c   ****     dy = abs(y1 - y0);
 1512              		.loc 1 498 0
 1513 025e 321B     		sub	r2, r6, r4
 1514 0260 92B2     		uxth	r2, r2
 1515 0262 0392     		str	r2, [sp, #12]
 1516              	.LVL115:
 499:.\ssd1306.c   ****     int16_t err = dx / 2;
 1517              		.loc 1 499 0
 1518 0264 5A1B     		sub	r2, r3, r5
 1519 0266 D117     		asr	r1, r2, #31
 1520 0268 5218     		add	r2, r2, r1
 1521 026a 4A40     		eor	r2, r1
 1522 026c 0592     		str	r2, [sp, #20]
 1523              	.LVL116:
 500:.\ssd1306.c   ****     int16_t ystep;
 1524              		.loc 1 500 0
 1525 026e 6A46     		mov	r2, sp
 1526 0270 0C21     		mov	r1, #12
 1527 0272 525E     		ldrsh	r2, [r2, r1]
 1528 0274 D70F     		lsr	r7, r2, #31
 1529 0276 BA18     		add	r2, r7, r2
 1530 0278 5210     		asr	r2, r2, #1
 1531 027a 97B2     		uxth	r7, r2
 1532              	.LVL117:
 503:.\ssd1306.c   ****     }else{
 1533              		.loc 1 503 0
 1534 027c 0122     		mov	r2, #1
 1535 027e 0492     		str	r2, [sp, #16]
 502:.\ssd1306.c   ****         ystep = 1;
 1536              		.loc 1 502 0
 1537 0280 9D42     		cmp	r5, r3
 1538 0282 19DB     		blt	.L123
 505:.\ssd1306.c   ****     }
 1539              		.loc 1 505 0
 1540 0284 1A4B     		ldr	r3, .L140+20
 1541              	.LVL118:
 1542 0286 0493     		str	r3, [sp, #16]
 1543 0288 16E0     		b	.L123
ARM GAS  C:\Users\User\AppData\Local\Temp\cctjmLxv.s 			page 43


 1544              	.LVL119:
 1545              	.L127:
 508:.\ssd1306.c   ****             gfx_drawPixel( y0, x0, color );
 1546              		.loc 1 508 0
 1547 028a 029B     		ldr	r3, [sp, #8]
 1548 028c 002B     		cmp	r3, #0
 1549 028e 16D0     		beq	.L124
 509:.\ssd1306.c   ****         }else{
 1550              		.loc 1 509 0
 1551 0290 281C     		mov	r0, r5
 1552 0292 211C     		mov	r1, r4
 1553              	.L136:
 511:.\ssd1306.c   ****         }
 1554              		.loc 1 511 0
 1555 0294 019A     		ldr	r2, [sp, #4]
 1556 0296 FFF7FEFF 		bl	gfx_drawPixel
 1557              	.LVL120:
 513:.\ssd1306.c   ****         if( err < 0 ){
 1558              		.loc 1 513 0
 1559 029a 059B     		ldr	r3, [sp, #20]
 1560 029c FF1A     		sub	r7, r7, r3
 1561              	.LVL121:
 1562 029e BBB2     		uxth	r3, r7
 1563 02a0 9FB2     		uxth	r7, r3
 1564              	.LVL122:
 514:.\ssd1306.c   ****             y0 += ystep;
 1565              		.loc 1 514 0
 1566 02a2 3AB2     		sxth	r2, r7
 1567 02a4 002A     		cmp	r2, #0
 1568 02a6 05DA     		bge	.L126
 515:.\ssd1306.c   ****             err += dx;
 1569              		.loc 1 515 0
 1570 02a8 049A     		ldr	r2, [sp, #16]
 1571 02aa AD18     		add	r5, r5, r2
 1572              	.LVL123:
 516:.\ssd1306.c   ****         }
 1573              		.loc 1 516 0
 1574 02ac 039A     		ldr	r2, [sp, #12]
 515:.\ssd1306.c   ****             err += dx;
 1575              		.loc 1 515 0
 1576 02ae 2DB2     		sxth	r5, r5
 1577              	.LVL124:
 516:.\ssd1306.c   ****         }
 1578              		.loc 1 516 0
 1579 02b0 9F18     		add	r7, r3, r2
 1580              	.LVL125:
 1581 02b2 BFB2     		uxth	r7, r7
 1582              	.LVL126:
 1583              	.L126:
 1584 02b4 0134     		add	r4, r4, #1
 1585              	.LVL127:
 1586 02b6 24B2     		sxth	r4, r4
 1587              	.LVL128:
 1588              	.L123:
 507:.\ssd1306.c   ****         if( steep ){
 1589              		.loc 1 507 0 discriminator 1
 1590 02b8 B442     		cmp	r4, r6
ARM GAS  C:\Users\User\AppData\Local\Temp\cctjmLxv.s 			page 44


 1591 02ba E6DD     		ble	.L127
 1592 02bc 0CE0     		b	.L87
 1593              	.L124:
 511:.\ssd1306.c   ****         }
 1594              		.loc 1 511 0
 1595 02be 201C     		mov	r0, r4
 1596 02c0 291C     		mov	r1, r5
 1597 02c2 E7E7     		b	.L136
 1598              	.LVL129:
 1599              	.L138:
 1600              	.LBB42:
 1601              	.LBB41:
 1602              	.LBB40:
 1603              	.LBB38:
 1604              	.LBB36:
 1605              	.LBB34:
 278:.\ssd1306.c   ****                     case WHITE:     *ptr = 0xff; break;
 1606              		.loc 1 278 0
 1607 02c4 002D     		cmp	r5, #0
 1608 02c6 02D1     		bne	.L139
 280:.\ssd1306.c   ****                     case INVERSE:   *ptr ^= 0xff; break;
 1609              		.loc 1 280 0
 1610 02c8 6D46     		mov	r5, sp
 1611 02ca 2D79     		ldrb	r5, [r5, #4]
 1612 02cc 83E7     		b	.L134
 1613              	.L139:
 278:.\ssd1306.c   ****                     case WHITE:     *ptr = 0xff; break;
 1614              		.loc 1 278 0
 1615 02ce 022D     		cmp	r5, #2
 1616 02d0 82D1     		bne	.L105
 281:.\ssd1306.c   ****                 };  
 1617              		.loc 1 281 0
 1618 02d2 0D78     		ldrb	r5, [r1]
 1619 02d4 ED43     		mvn	r5, r5
 1620 02d6 7EE7     		b	.L134
 1621              	.LVL130:
 1622              	.L87:
 1623              	.LBE34:
 1624              	.LBE36:
 1625              	.LBE38:
 1626              	.LBE40:
 1627              	.LBE41:
 1628              	.LBE42:
 519:.\ssd1306.c   **** 
 1629              		.loc 1 519 0
 1630 02d8 09B0     		add	sp, sp, #36
 1631              		@ sp needed
 1632 02da F0BD     		pop	{r4, r5, r6, r7, pc}
 1633              	.L141:
 1634              		.align	2
 1635              	.L140:
 1636 02dc 00000000 		.word	rotation
 1637 02e0 00000000 		.word	HEIGHT
 1638 02e4 00000000 		.word	WIDTH
 1639 02e8 00000000 		.word	.LANCHOR1
 1640 02ec 07000080 		.word	-2147483641
 1641 02f0 FFFF0000 		.word	65535
ARM GAS  C:\Users\User\AppData\Local\Temp\cctjmLxv.s 			page 45


 1642              		.cfi_endproc
 1643              	.LFE57:
 1644              		.size	gfx_drawLine, .-gfx_drawLine
 1645              		.section	.text.gfx_drawRect,"ax",%progbits
 1646              		.align	1
 1647              		.global	gfx_drawRect
 1648              		.code	16
 1649              		.thumb_func
 1650              		.type	gfx_drawRect, %function
 1651              	gfx_drawRect:
 1652              	.LFB58:
 521:.\ssd1306.c   ****     
 1653              		.loc 1 521 0
 1654              		.cfi_startproc
 1655              	.LVL131:
 1656 0000 F0B5     		push	{r4, r5, r6, r7, lr}
 1657              		.cfi_def_cfa_offset 20
 1658              		.cfi_offset 4, -20
 1659              		.cfi_offset 5, -16
 1660              		.cfi_offset 6, -12
 1661              		.cfi_offset 7, -8
 1662              		.cfi_offset 14, -4
 1663 0002 0E1C     		mov	r6, r1
 1664 0004 1C1C     		mov	r4, r3
 1665 0006 071C     		mov	r7, r0
 1666 0008 85B0     		sub	sp, sp, #20
 1667              		.cfi_def_cfa_offset 40
 521:.\ssd1306.c   ****     
 1668              		.loc 1 521 0
 1669 000a 0AAB     		add	r3, sp, #40
 1670              	.LVL132:
 1671 000c 551E     		sub	r5, r2, #1
 1672 000e 1B88     		ldrh	r3, [r3]
 1673              	.LVL133:
 523:.\ssd1306.c   ****     gfx_drawLine( x, y+h-1, x+w-1, y+h-1, color );
 1674              		.loc 1 523 0
 1675 0010 2D18     		add	r5, r5, r0
 1676 0012 2DB2     		sxth	r5, r5
 521:.\ssd1306.c   ****     
 1677              		.loc 1 521 0
 1678 0014 0393     		str	r3, [sp, #12]
 523:.\ssd1306.c   ****     gfx_drawLine( x, y+h-1, x+w-1, y+h-1, color );
 1679              		.loc 1 523 0
 1680 0016 0093     		str	r3, [sp]
 1681 0018 2A1C     		mov	r2, r5
 1682              	.LVL134:
 1683 001a 331C     		mov	r3, r6
 1684 001c 013C     		sub	r4, r4, #1
 1685 001e FFF7FEFF 		bl	gfx_drawLine
 1686              	.LVL135:
 524:.\ssd1306.c   ****     gfx_drawLine( x, y, x, y+h-1, color );
 1687              		.loc 1 524 0
 1688 0022 A419     		add	r4, r4, r6
 1689 0024 039B     		ldr	r3, [sp, #12]
 1690 0026 24B2     		sxth	r4, r4
 1691 0028 0093     		str	r3, [sp]
 1692 002a 381C     		mov	r0, r7
ARM GAS  C:\Users\User\AppData\Local\Temp\cctjmLxv.s 			page 46


 1693 002c 211C     		mov	r1, r4
 1694 002e 2A1C     		mov	r2, r5
 1695 0030 231C     		mov	r3, r4
 1696 0032 FFF7FEFF 		bl	gfx_drawLine
 1697              	.LVL136:
 525:.\ssd1306.c   ****     gfx_drawLine( x+w-1, y, x+w-1, y+h-1, color );
 1698              		.loc 1 525 0
 1699 0036 039B     		ldr	r3, [sp, #12]
 1700 0038 381C     		mov	r0, r7
 1701 003a 0093     		str	r3, [sp]
 1702 003c 311C     		mov	r1, r6
 1703 003e 3A1C     		mov	r2, r7
 1704 0040 231C     		mov	r3, r4
 1705 0042 FFF7FEFF 		bl	gfx_drawLine
 1706              	.LVL137:
 526:.\ssd1306.c   **** }
 1707              		.loc 1 526 0
 1708 0046 039B     		ldr	r3, [sp, #12]
 1709 0048 281C     		mov	r0, r5
 1710 004a 0093     		str	r3, [sp]
 1711 004c 311C     		mov	r1, r6
 1712 004e 2A1C     		mov	r2, r5
 1713 0050 231C     		mov	r3, r4
 1714 0052 FFF7FEFF 		bl	gfx_drawLine
 1715              	.LVL138:
 527:.\ssd1306.c   **** 
 1716              		.loc 1 527 0
 1717 0056 05B0     		add	sp, sp, #20
 1718              		@ sp needed
 1719 0058 F0BD     		pop	{r4, r5, r6, r7, pc}
 1720              		.cfi_endproc
 1721              	.LFE58:
 1722              		.size	gfx_drawRect, .-gfx_drawRect
 1723              		.section	.text.gfx_fillRect,"ax",%progbits
 1724              		.align	1
 1725              		.global	gfx_fillRect
 1726              		.code	16
 1727              		.thumb_func
 1728              		.type	gfx_fillRect, %function
 1729              	gfx_fillRect:
 1730              	.LFB59:
 529:.\ssd1306.c   ****     int16_t i = 0;
 1731              		.loc 1 529 0
 1732              		.cfi_startproc
 1733              	.LVL139:
 1734 0000 F0B5     		push	{r4, r5, r6, r7, lr}
 1735              		.cfi_def_cfa_offset 20
 1736              		.cfi_offset 4, -20
 1737              		.cfi_offset 5, -16
 1738              		.cfi_offset 6, -12
 1739              		.cfi_offset 7, -8
 1740              		.cfi_offset 14, -4
 1741 0002 85B0     		sub	sp, sp, #20
 1742              		.cfi_def_cfa_offset 40
 529:.\ssd1306.c   ****     int16_t i = 0;
 1743              		.loc 1 529 0
 1744 0004 0293     		str	r3, [sp, #8]
ARM GAS  C:\Users\User\AppData\Local\Temp\cctjmLxv.s 			page 47


 1745 0006 0AAB     		add	r3, sp, #40
 1746              	.LVL140:
 1747 0008 1B88     		ldrh	r3, [r3]
 1748              	.LVL141:
 1749 000a 061C     		mov	r6, r0
 1750 000c 0393     		str	r3, [sp, #12]
 531:.\ssd1306.c   ****         for( i = x ; i < x+w ; i++ ){
 1751              		.loc 1 531 0
 1752 000e 029B     		ldr	r3, [sp, #8]
 529:.\ssd1306.c   ****     int16_t i = 0;
 1753              		.loc 1 529 0
 1754 0010 0D1C     		mov	r5, r1
 1755 0012 171C     		mov	r7, r2
 1756 0014 0C1C     		mov	r4, r1
 531:.\ssd1306.c   ****         for( i = x ; i < x+w ; i++ ){
 1757              		.loc 1 531 0
 1758 0016 9342     		cmp	r3, r2
 1759 0018 11DD     		ble	.L145
 1760 001a 041C     		mov	r4, r0
 1761              	.LVL142:
 1762              	.L146:
 1763              	.LBB45:
 1764              	.LBB46:
 532:.\ssd1306.c   ****             gfx_drawLine( i, y, i, y+h-1, color );
 1765              		.loc 1 532 0
 1766 001c F319     		add	r3, r6, r7
 1767 001e 9C42     		cmp	r4, r3
 1768 0020 1EDA     		bge	.L143
 533:.\ssd1306.c   ****         }
 1769              		.loc 1 533 0
 1770 0022 029A     		ldr	r2, [sp, #8]
 1771 0024 6B1E     		sub	r3, r5, #1
 1772 0026 9B18     		add	r3, r3, r2
 1773 0028 039A     		ldr	r2, [sp, #12]
 1774 002a 201C     		mov	r0, r4
 1775 002c 0092     		str	r2, [sp]
 1776 002e 1BB2     		sxth	r3, r3
 1777 0030 221C     		mov	r2, r4
 1778 0032 291C     		mov	r1, r5
 1779 0034 0134     		add	r4, r4, #1
 1780              	.LVL143:
 1781 0036 FFF7FEFF 		bl	gfx_drawLine
 1782              	.LVL144:
 1783 003a 24B2     		sxth	r4, r4
 1784              	.LVL145:
 1785 003c EEE7     		b	.L146
 1786              	.LVL146:
 1787              	.L145:
 1788              	.LBE46:
 1789              	.LBE45:
 536:.\ssd1306.c   ****             gfx_drawLine( x, i, x+w-1, i, color );
 1790              		.loc 1 536 0 discriminator 1
 1791 003e 029B     		ldr	r3, [sp, #8]
 1792 0040 EB18     		add	r3, r5, r3
 1793 0042 9C42     		cmp	r4, r3
 1794 0044 0CDA     		bge	.L143
 537:.\ssd1306.c   ****         }
ARM GAS  C:\Users\User\AppData\Local\Temp\cctjmLxv.s 			page 48


 1795              		.loc 1 537 0 discriminator 3
 1796 0046 039B     		ldr	r3, [sp, #12]
 1797 0048 721E     		sub	r2, r6, #1
 1798 004a D219     		add	r2, r2, r7
 1799 004c 0093     		str	r3, [sp]
 1800 004e 211C     		mov	r1, r4
 1801 0050 231C     		mov	r3, r4
 1802 0052 12B2     		sxth	r2, r2
 1803 0054 301C     		mov	r0, r6
 1804 0056 0134     		add	r4, r4, #1
 1805              	.LVL147:
 1806 0058 FFF7FEFF 		bl	gfx_drawLine
 1807              	.LVL148:
 1808 005c 24B2     		sxth	r4, r4
 1809              	.LVL149:
 1810 005e EEE7     		b	.L145
 1811              	.LVL150:
 1812              	.L143:
 540:.\ssd1306.c   **** 
 1813              		.loc 1 540 0
 1814 0060 05B0     		add	sp, sp, #20
 1815              		@ sp needed
 1816 0062 F0BD     		pop	{r4, r5, r6, r7, pc}
 1817              		.cfi_endproc
 1818              	.LFE59:
 1819              		.size	gfx_fillRect, .-gfx_fillRect
 1820              		.section	.text.gfx_drawCircle,"ax",%progbits
 1821              		.align	1
 1822              		.global	gfx_drawCircle
 1823              		.code	16
 1824              		.thumb_func
 1825              		.type	gfx_drawCircle, %function
 1826              	gfx_drawCircle:
 1827              	.LFB60:
 544:.\ssd1306.c   **** 
 1828              		.loc 1 544 0
 1829              		.cfi_startproc
 1830              	.LVL151:
 1831 0000 F0B5     		push	{r4, r5, r6, r7, lr}
 1832              		.cfi_def_cfa_offset 20
 1833              		.cfi_offset 4, -20
 1834              		.cfi_offset 5, -16
 1835              		.cfi_offset 6, -12
 1836              		.cfi_offset 7, -8
 1837              		.cfi_offset 14, -4
 1838 0002 89B0     		sub	sp, sp, #36
 1839              		.cfi_def_cfa_offset 56
 544:.\ssd1306.c   **** 
 1840              		.loc 1 544 0
 1841 0004 1C1C     		mov	r4, r3
 546:.\ssd1306.c   ****     int16_t ddF_x = 1;
 1842              		.loc 1 546 0
 1843 0006 6B46     		mov	r3, sp
 1844              	.LVL152:
 544:.\ssd1306.c   **** 
 1845              		.loc 1 544 0
 1846 0008 0492     		str	r2, [sp, #16]
ARM GAS  C:\Users\User\AppData\Local\Temp\cctjmLxv.s 			page 49


 546:.\ssd1306.c   ****     int16_t ddF_x = 1;
 1847              		.loc 1 546 0
 1848 000a 1D8A     		ldrh	r5, [r3, #16]
 1849 000c 0123     		mov	r3, #1
 544:.\ssd1306.c   **** 
 1850              		.loc 1 544 0
 1851 000e 071C     		mov	r7, r0
 1852 0010 0E1C     		mov	r6, r1
 546:.\ssd1306.c   ****     int16_t ddF_x = 1;
 1853              		.loc 1 546 0
 1854 0012 5B1B     		sub	r3, r3, r5
 1855 0014 9BB2     		uxth	r3, r3
 1856 0016 0293     		str	r3, [sp, #8]
 1857              	.LVL153:
 548:.\ssd1306.c   ****     int16_t x = 0;
 1858              		.loc 1 548 0
 1859 0018 6B00     		lsl	r3, r5, #1
 1860 001a 5B42     		neg	r3, r3
 1861 001c 9BB2     		uxth	r3, r3
 1862 001e 0793     		str	r3, [sp, #28]
 1863              	.LVL154:
 551:.\ssd1306.c   ****     gfx_drawPixel( x0 , y0-r, color );
 1864              		.loc 1 551 0
 1865 0020 8BB2     		uxth	r3, r1
 1866 0022 E918     		add	r1, r5, r3
 1867              	.LVL155:
 1868 0024 09B2     		sxth	r1, r1
 1869 0026 221C     		mov	r2, r4
 1870              	.LVL156:
 1871 0028 0093     		str	r3, [sp]
 1872 002a FFF7FEFF 		bl	gfx_drawPixel
 1873              	.LVL157:
 552:.\ssd1306.c   ****     gfx_drawPixel( x0+r, y0 , color );
 1874              		.loc 1 552 0
 1875 002e 009B     		ldr	r3, [sp]
 1876 0030 381C     		mov	r0, r7
 1877 0032 591B     		sub	r1, r3, r5
 1878 0034 09B2     		sxth	r1, r1
 1879 0036 221C     		mov	r2, r4
 1880 0038 FFF7FEFF 		bl	gfx_drawPixel
 1881              	.LVL158:
 553:.\ssd1306.c   ****     gfx_drawPixel( x0-r, y0 , color );
 1882              		.loc 1 553 0
 1883 003c BBB2     		uxth	r3, r7
 1884 003e E818     		add	r0, r5, r3
 1885 0040 00B2     		sxth	r0, r0
 1886 0042 311C     		mov	r1, r6
 1887 0044 221C     		mov	r2, r4
 1888 0046 0193     		str	r3, [sp, #4]
 1889 0048 FFF7FEFF 		bl	gfx_drawPixel
 1890              	.LVL159:
 554:.\ssd1306.c   ****     while( x < y ){
 1891              		.loc 1 554 0
 1892 004c 019B     		ldr	r3, [sp, #4]
 1893 004e 311C     		mov	r1, r6
 1894 0050 581B     		sub	r0, r3, r5
 1895 0052 00B2     		sxth	r0, r0
ARM GAS  C:\Users\User\AppData\Local\Temp\cctjmLxv.s 			page 50


 1896 0054 221C     		mov	r2, r4
 1897 0056 FFF7FEFF 		bl	gfx_drawPixel
 1898              	.LVL160:
 555:.\ssd1306.c   ****         if( f >= 0 ){
 1899              		.loc 1 555 0
 1900 005a 0023     		mov	r3, #0
 1901              	.LVL161:
 1902              	.L154:
 1903 005c 0693     		str	r3, [sp, #24]
 1904              	.LVL162:
 1905 005e 6B46     		mov	r3, sp
 1906 0060 1822     		mov	r2, #24
 1907 0062 9B5E     		ldrsh	r3, [r3, r2]
 1908 0064 049A     		ldr	r2, [sp, #16]
 1909 0066 9342     		cmp	r3, r2
 1910 0068 6BDA     		bge	.L155
 556:.\ssd1306.c   ****             y--;
 1911              		.loc 1 556 0
 1912 006a 6B46     		mov	r3, sp
 1913 006c 0822     		mov	r2, #8
 1914 006e 9B5E     		ldrsh	r3, [r3, r2]
 1915 0070 002B     		cmp	r3, #0
 1916 0072 0CDB     		blt	.L152
 557:.\ssd1306.c   ****             ddF_y += 2;
 1917              		.loc 1 557 0
 1918 0074 049B     		ldr	r3, [sp, #16]
 1919 0076 013B     		sub	r3, r3, #1
 1920 0078 1BB2     		sxth	r3, r3
 1921 007a 0493     		str	r3, [sp, #16]
 1922              	.LVL163:
 558:.\ssd1306.c   ****             f += ddF_y;
 1923              		.loc 1 558 0
 1924 007c 079B     		ldr	r3, [sp, #28]
 1925 007e 0233     		add	r3, r3, #2
 1926 0080 9BB2     		uxth	r3, r3
 1927 0082 9AB2     		uxth	r2, r3
 1928 0084 0792     		str	r2, [sp, #28]
 1929              	.LVL164:
 559:.\ssd1306.c   ****         }
 1930              		.loc 1 559 0
 1931 0086 029A     		ldr	r2, [sp, #8]
 1932 0088 9B18     		add	r3, r3, r2
 1933 008a 9BB2     		uxth	r3, r3
 1934 008c 0293     		str	r3, [sp, #8]
 1935              	.LVL165:
 1936              	.L152:
 1937 008e 6B46     		mov	r3, sp
 1938 0090 1B8B     		ldrh	r3, [r3, #24]
 563:.\ssd1306.c   ****         gfx_drawPixel( x0 + x, y0 + y, color );
 1939              		.loc 1 563 0
 1940 0092 029A     		ldr	r2, [sp, #8]
 1941 0094 0393     		str	r3, [sp, #12]
 1942              	.LVL166:
 1943 0096 5B00     		lsl	r3, r3, #1
 1944 0098 0333     		add	r3, r3, #3
 1945 009a D318     		add	r3, r2, r3
 1946 009c 9BB2     		uxth	r3, r3
ARM GAS  C:\Users\User\AppData\Local\Temp\cctjmLxv.s 			page 51


 1947 009e 0293     		str	r3, [sp, #8]
 1948              	.LVL167:
 1949 00a0 019B     		ldr	r3, [sp, #4]
 564:.\ssd1306.c   ****         gfx_drawPixel( x0 - x, y0 + y, color );
 1950              		.loc 1 564 0
 1951 00a2 009A     		ldr	r2, [sp]
 1952 00a4 5E1C     		add	r6, r3, #1
 1953 00a6 039B     		ldr	r3, [sp, #12]
 1954 00a8 9E19     		add	r6, r3, r6
 1955 00aa 6B46     		mov	r3, sp
 1956 00ac 1B8A     		ldrh	r3, [r3, #16]
 1957 00ae 36B2     		sxth	r6, r6
 1958 00b0 9F18     		add	r7, r3, r2
 1959 00b2 3FB2     		sxth	r7, r7
 1960 00b4 301C     		mov	r0, r6
 1961 00b6 391C     		mov	r1, r7
 1962 00b8 221C     		mov	r2, r4
 1963 00ba 0593     		str	r3, [sp, #20]
 1964 00bc FFF7FEFF 		bl	gfx_drawPixel
 1965              	.LVL168:
 1966 00c0 019B     		ldr	r3, [sp, #4]
 565:.\ssd1306.c   ****         gfx_drawPixel( x0 + x, y0 - y, color );
 1967              		.loc 1 565 0
 1968 00c2 391C     		mov	r1, r7
 1969 00c4 5D1E     		sub	r5, r3, #1
 1970 00c6 039B     		ldr	r3, [sp, #12]
 1971 00c8 221C     		mov	r2, r4
 1972 00ca ED1A     		sub	r5, r5, r3
 1973 00cc 2DB2     		sxth	r5, r5
 1974 00ce 281C     		mov	r0, r5
 1975 00d0 FFF7FEFF 		bl	gfx_drawPixel
 1976              	.LVL169:
 566:.\ssd1306.c   ****         gfx_drawPixel( x0 - x, y0 - y, color );
 1977              		.loc 1 566 0
 1978 00d4 009B     		ldr	r3, [sp]
 1979 00d6 059A     		ldr	r2, [sp, #20]
 1980 00d8 301C     		mov	r0, r6
 1981 00da 9F1A     		sub	r7, r3, r2
 1982 00dc 3FB2     		sxth	r7, r7
 1983 00de 391C     		mov	r1, r7
 1984 00e0 221C     		mov	r2, r4
 1985 00e2 FFF7FEFF 		bl	gfx_drawPixel
 1986              	.LVL170:
 567:.\ssd1306.c   ****         gfx_drawPixel( x0 + y, y0 + x, color );
 1987              		.loc 1 567 0
 1988 00e6 281C     		mov	r0, r5
 1989 00e8 391C     		mov	r1, r7
 1990 00ea 221C     		mov	r2, r4
 1991 00ec FFF7FEFF 		bl	gfx_drawPixel
 1992              	.LVL171:
 568:.\ssd1306.c   ****         gfx_drawPixel( x0 - y, y0 + x, color );
 1993              		.loc 1 568 0
 1994 00f0 059B     		ldr	r3, [sp, #20]
 1995 00f2 019A     		ldr	r2, [sp, #4]
 1996 00f4 9E18     		add	r6, r3, r2
 1997 00f6 009B     		ldr	r3, [sp]
 1998 00f8 36B2     		sxth	r6, r6
ARM GAS  C:\Users\User\AppData\Local\Temp\cctjmLxv.s 			page 52


 1999 00fa 5D1C     		add	r5, r3, #1
 2000 00fc 039B     		ldr	r3, [sp, #12]
 2001 00fe 301C     		mov	r0, r6
 2002 0100 5D19     		add	r5, r3, r5
 2003 0102 2DB2     		sxth	r5, r5
 2004 0104 291C     		mov	r1, r5
 2005 0106 221C     		mov	r2, r4
 2006 0108 FFF7FEFF 		bl	gfx_drawPixel
 2007              	.LVL172:
 569:.\ssd1306.c   ****         gfx_drawPixel( x0 + y, y0 - x, color );
 2008              		.loc 1 569 0
 2009 010c 019B     		ldr	r3, [sp, #4]
 2010 010e 059A     		ldr	r2, [sp, #20]
 2011 0110 291C     		mov	r1, r5
 2012 0112 9F1A     		sub	r7, r3, r2
 2013 0114 3FB2     		sxth	r7, r7
 2014 0116 381C     		mov	r0, r7
 2015 0118 221C     		mov	r2, r4
 2016 011a FFF7FEFF 		bl	gfx_drawPixel
 2017              	.LVL173:
 2018 011e 009B     		ldr	r3, [sp]
 570:.\ssd1306.c   ****         gfx_drawPixel( x0 - y, y0 - x, color );
 2019              		.loc 1 570 0
 2020 0120 301C     		mov	r0, r6
 2021 0122 5D1E     		sub	r5, r3, #1
 2022 0124 039B     		ldr	r3, [sp, #12]
 2023 0126 221C     		mov	r2, r4
 2024 0128 ED1A     		sub	r5, r5, r3
 2025 012a 2DB2     		sxth	r5, r5
 2026 012c 291C     		mov	r1, r5
 2027 012e FFF7FEFF 		bl	gfx_drawPixel
 2028              	.LVL174:
 571:.\ssd1306.c   ****     }
 2029              		.loc 1 571 0
 2030 0132 381C     		mov	r0, r7
 2031 0134 291C     		mov	r1, r5
 2032 0136 221C     		mov	r2, r4
 2033 0138 FFF7FEFF 		bl	gfx_drawPixel
 2034              	.LVL175:
 2035 013c 069B     		ldr	r3, [sp, #24]
 2036 013e 0133     		add	r3, r3, #1
 2037 0140 8CE7     		b	.L154
 2038              	.LVL176:
 2039              	.L155:
 573:.\ssd1306.c   **** 
 2040              		.loc 1 573 0
 2041 0142 09B0     		add	sp, sp, #36
 2042              	.LVL177:
 2043              		@ sp needed
 2044 0144 F0BD     		pop	{r4, r5, r6, r7, pc}
 2045              		.cfi_endproc
 2046              	.LFE60:
 2047              		.size	gfx_drawCircle, .-gfx_drawCircle
 2048              		.section	.text.gfx_drawTriangle,"ax",%progbits
 2049              		.align	1
 2050              		.global	gfx_drawTriangle
 2051              		.code	16
ARM GAS  C:\Users\User\AppData\Local\Temp\cctjmLxv.s 			page 53


 2052              		.thumb_func
 2053              		.type	gfx_drawTriangle, %function
 2054              	gfx_drawTriangle:
 2055              	.LFB61:
 575:.\ssd1306.c   ****     
 2056              		.loc 1 575 0
 2057              		.cfi_startproc
 2058              	.LVL178:
 2059 0000 F0B5     		push	{r4, r5, r6, r7, lr}
 2060              		.cfi_def_cfa_offset 20
 2061              		.cfi_offset 4, -20
 2062              		.cfi_offset 5, -16
 2063              		.cfi_offset 6, -12
 2064              		.cfi_offset 7, -8
 2065              		.cfi_offset 14, -4
 2066 0002 171C     		mov	r7, r2
 2067 0004 1E1C     		mov	r6, r3
 2068 0006 051C     		mov	r5, r0
 2069 0008 87B0     		sub	sp, sp, #28
 2070              		.cfi_def_cfa_offset 48
 575:.\ssd1306.c   ****     
 2071              		.loc 1 575 0
 2072 000a 0CAB     		add	r3, sp, #48
 2073              	.LVL179:
 2074 000c 0022     		mov	r2, #0
 2075 000e 9B5E     		ldrsh	r3, [r3, r2]
 2076              	.LVL180:
 2077 0010 0391     		str	r1, [sp, #12]
 2078 0012 0493     		str	r3, [sp, #16]
 2079 0014 0DAB     		add	r3, sp, #52
 2080              	.LVL181:
 2081 0016 0022     		mov	r2, #0
 2082 0018 9B5E     		ldrsh	r3, [r3, r2]
 2083              	.LVL182:
 577:.\ssd1306.c   ****     gfx_drawLine( x1, y1, x2, y2, color );
 2084              		.loc 1 577 0
 2085 001a 3A1C     		mov	r2, r7
 575:.\ssd1306.c   ****     
 2086              		.loc 1 575 0
 2087 001c 0593     		str	r3, [sp, #20]
 2088 001e 0EAB     		add	r3, sp, #56
 2089              	.LVL183:
 2090 0020 1C88     		ldrh	r4, [r3]
 577:.\ssd1306.c   ****     gfx_drawLine( x1, y1, x2, y2, color );
 2091              		.loc 1 577 0
 2092 0022 331C     		mov	r3, r6
 2093              	.LVL184:
 2094 0024 0094     		str	r4, [sp]
 2095 0026 FFF7FEFF 		bl	gfx_drawLine
 2096              	.LVL185:
 578:.\ssd1306.c   ****     gfx_drawLine( x2, y2, x0, y0, color );
 2097              		.loc 1 578 0
 2098 002a 381C     		mov	r0, r7
 2099 002c 311C     		mov	r1, r6
 2100 002e 049A     		ldr	r2, [sp, #16]
 2101 0030 059B     		ldr	r3, [sp, #20]
 2102 0032 0094     		str	r4, [sp]
ARM GAS  C:\Users\User\AppData\Local\Temp\cctjmLxv.s 			page 54


 2103 0034 FFF7FEFF 		bl	gfx_drawLine
 2104              	.LVL186:
 579:.\ssd1306.c   **** }
 2105              		.loc 1 579 0
 2106 0038 0094     		str	r4, [sp]
 2107 003a 0498     		ldr	r0, [sp, #16]
 2108 003c 0599     		ldr	r1, [sp, #20]
 2109 003e 2A1C     		mov	r2, r5
 2110 0040 039B     		ldr	r3, [sp, #12]
 2111 0042 FFF7FEFF 		bl	gfx_drawLine
 2112              	.LVL187:
 580:.\ssd1306.c   **** 
 2113              		.loc 1 580 0
 2114 0046 07B0     		add	sp, sp, #28
 2115              		@ sp needed
 2116 0048 F0BD     		pop	{r4, r5, r6, r7, pc}
 2117              		.cfi_endproc
 2118              	.LFE61:
 2119              		.size	gfx_drawTriangle, .-gfx_drawTriangle
 2120              		.section	.text.gfx_drawChar,"ax",%progbits
 2121              		.align	1
 2122              		.global	gfx_drawChar
 2123              		.code	16
 2124              		.thumb_func
 2125              		.type	gfx_drawChar, %function
 2126              	gfx_drawChar:
 2127              	.LFB62:
 584:.\ssd1306.c   ****     if( (x >= _width) || // Clip right
 2128              		.loc 1 584 0
 2129              		.cfi_startproc
 2130              	.LVL188:
 2131 0000 F0B5     		push	{r4, r5, r6, r7, lr}
 2132              		.cfi_def_cfa_offset 20
 2133              		.cfi_offset 4, -20
 2134              		.cfi_offset 5, -16
 2135              		.cfi_offset 6, -12
 2136              		.cfi_offset 7, -8
 2137              		.cfi_offset 14, -4
 2138 0002 91B0     		sub	sp, sp, #68
 2139              		.cfi_def_cfa_offset 88
 584:.\ssd1306.c   ****     if( (x >= _width) || // Clip right
 2140              		.loc 1 584 0
 2141 0004 0B93     		str	r3, [sp, #44]
 2142 0006 16AB     		add	r3, sp, #88
 2143              	.LVL189:
 2144 0008 1B88     		ldrh	r3, [r3]
 2145              	.LVL190:
 2146 000a 0990     		str	r0, [sp, #36]
 2147 000c 0C93     		str	r3, [sp, #48]
 2148 000e 17AB     		add	r3, sp, #92
 2149              	.LVL191:
 2150 0010 1D78     		ldrb	r5, [r3]
 585:.\ssd1306.c   ****         (y >= _height) || // Clip bottom
 2151              		.loc 1 585 0
 2152 0012 424B     		ldr	r3, .L170
 2153              	.LVL192:
 584:.\ssd1306.c   ****     if( (x >= _width) || // Clip right
ARM GAS  C:\Users\User\AppData\Local\Temp\cctjmLxv.s 			page 55


 2154              		.loc 1 584 0
 2155 0014 0A91     		str	r1, [sp, #40]
 585:.\ssd1306.c   ****         (y >= _height) || // Clip bottom
 2156              		.loc 1 585 0
 2157 0016 0820     		mov	r0, #8
 2158 0018 195E     		ldrsh	r1, [r3, r0]
 2159              	.LVL193:
 2160 001a 0998     		ldr	r0, [sp, #36]
 2161 001c 8142     		cmp	r1, r0
 2162 001e 7BDD     		ble	.L157
 585:.\ssd1306.c   ****         (y >= _height) || // Clip bottom
 2163              		.loc 1 585 0 is_stmt 0 discriminator 1
 2164 0020 0A21     		mov	r1, #10
 2165 0022 5B5E     		ldrsh	r3, [r3, r1]
 2166 0024 0A99     		ldr	r1, [sp, #40]
 2167 0026 8B42     		cmp	r3, r1
 2168 0028 76DD     		ble	.L157
 587:.\ssd1306.c   ****         ((y + 8 * size - 1) < 0)) // Clip top
 2169              		.loc 1 587 0 is_stmt 1
 2170 002a 0621     		mov	r1, #6
 2171 002c 0B1C     		mov	r3, r1
 2172 002e 6B43     		mul	r3, r5
 2173 0030 C318     		add	r3, r0, r3
 586:.\ssd1306.c   ****         ((x + 6 * size - 1) < 0) || // Clip left
 2174              		.loc 1 586 0
 2175 0032 002B     		cmp	r3, #0
 2176 0034 70DD     		ble	.L157
 588:.\ssd1306.c   ****         return;
 2177              		.loc 1 588 0
 2178 0036 0A98     		ldr	r0, [sp, #40]
 2179 0038 EB00     		lsl	r3, r5, #3
 2180 003a C318     		add	r3, r0, r3
 587:.\ssd1306.c   ****         ((y + 8 * size - 1) < 0)) // Clip top
 2181              		.loc 1 587 0
 2182 003c 002B     		cmp	r3, #0
 2183 003e 6BDD     		ble	.L157
 2184              	.LBB50:
 2185              	.LBB51:
 2186              	.LBB52:
 597:.\ssd1306.c   ****         int8_t j = 0;
 2187              		.loc 1 597 0
 2188 0040 0523     		mov	r3, #5
 2189 0042 5343     		mul	r3, r2
 2190 0044 0E93     		str	r3, [sp, #56]
 2191 0046 0023     		mov	r3, #0
 2192 0048 0891     		str	r1, [sp, #32]
 2193 004a 0793     		str	r3, [sp, #28]
 2194              	.LVL194:
 2195              	.L166:
 594:.\ssd1306.c   ****             line = 0x0;
 2196              		.loc 1 594 0
 2197 004c 6B46     		mov	r3, sp
 2198 004e 1C22     		mov	r2, #28
 2199 0050 9A56     		ldrsb	r2, [r3, r2]
 595:.\ssd1306.c   ****         else
 2200              		.loc 1 595 0
 2201 0052 0023     		mov	r3, #0
ARM GAS  C:\Users\User\AppData\Local\Temp\cctjmLxv.s 			page 56


 2202 0054 0393     		str	r3, [sp, #12]
 594:.\ssd1306.c   ****             line = 0x0;
 2203              		.loc 1 594 0
 2204 0056 052A     		cmp	r2, #5
 2205 0058 05D0     		beq	.L160
 597:.\ssd1306.c   ****         int8_t j = 0;
 2206              		.loc 1 597 0
 2207 005a 314B     		ldr	r3, .L170+4
 2208 005c 0E99     		ldr	r1, [sp, #56]
 2209 005e 2133     		add	r3, r3, #33
 2210 0060 5B18     		add	r3, r3, r1
 2211 0062 9B5C     		ldrb	r3, [r3, r2]
 2212 0064 0393     		str	r3, [sp, #12]
 2213              	.LVL195:
 2214              	.L160:
 604:.\ssd1306.c   ****                 }
 2215              		.loc 1 604 0
 2216 0066 6B46     		mov	r3, sp
 2217 0068 9B8C     		ldrh	r3, [r3, #36]
 2218 006a 0493     		str	r3, [sp, #16]
 2219 006c 93B2     		uxth	r3, r2
 2220 006e 0593     		str	r3, [sp, #20]
 2221 0070 ABB2     		uxth	r3, r5
 2222 0072 0693     		str	r3, [sp, #24]
 2223 0074 069A     		ldr	r2, [sp, #24]
 2224 0076 059B     		ldr	r3, [sp, #20]
 2225 0078 5343     		mul	r3, r2
 2226 007a 049A     		ldr	r2, [sp, #16]
 2227 007c D318     		add	r3, r2, r3
 2228 007e 9BB2     		uxth	r3, r3
 2229 0080 0D93     		str	r3, [sp, #52]
 2230 0082 6B46     		mov	r3, sp
 2231 0084 1C8D     		ldrh	r4, [r3, #40]
 2232 0086 231C     		mov	r3, r4
 610:.\ssd1306.c   ****                 }
 2233              		.loc 1 610 0
 2234 0088 271C     		mov	r7, r4
 2235 008a 261C     		mov	r6, r4
 2236 008c 0833     		add	r3, r3, #8
 2237 008e 9BB2     		uxth	r3, r3
 2238 0090 0F93     		str	r3, [sp, #60]
 2239              	.LVL196:
 2240              	.L165:
 600:.\ssd1306.c   ****                 if( size == 1 ) // default size
 2241              		.loc 1 600 0
 2242 0092 039B     		ldr	r3, [sp, #12]
 2243 0094 DB07     		lsl	r3, r3, #31
 2244 0096 0FD5     		bpl	.L161
 601:.\ssd1306.c   ****                     gfx_drawPixel( x+i, y+j, color );
 2245              		.loc 1 601 0
 2246 0098 012D     		cmp	r5, #1
 2247 009a 06D1     		bne	.L162
 602:.\ssd1306.c   ****                 else { // big size
 2248              		.loc 1 602 0
 2249 009c 049A     		ldr	r2, [sp, #16]
 2250 009e 059B     		ldr	r3, [sp, #20]
 2251 00a0 31B2     		sxth	r1, r6
ARM GAS  C:\Users\User\AppData\Local\Temp\cctjmLxv.s 			page 57


 2252 00a2 9818     		add	r0, r3, r2
 2253 00a4 00B2     		sxth	r0, r0
 2254 00a6 0B9A     		ldr	r2, [sp, #44]
 2255 00a8 12E0     		b	.L168
 2256              	.L162:
 604:.\ssd1306.c   ****                 }
 2257              		.loc 1 604 0
 2258 00aa 6B46     		mov	r3, sp
 2259 00ac 39B2     		sxth	r1, r7
 2260 00ae 3420     		mov	r0, #52
 2261 00b0 185E     		ldrsh	r0, [r3, r0]
 2262 00b2 0B9A     		ldr	r2, [sp, #44]
 2263 00b4 2B1C     		mov	r3, r5
 2264 00b6 14E0     		b	.L169
 2265              	.L161:
 606:.\ssd1306.c   ****                 if( size == 1 ) // default size
 2266              		.loc 1 606 0
 2267 00b8 0C9B     		ldr	r3, [sp, #48]
 2268 00ba 0B9A     		ldr	r2, [sp, #44]
 2269 00bc 9342     		cmp	r3, r2
 2270 00be 14D0     		beq	.L163
 607:.\ssd1306.c   ****                     gfx_drawPixel( x+i, y+j, bg );
 2271              		.loc 1 607 0
 2272 00c0 012D     		cmp	r5, #1
 2273 00c2 08D1     		bne	.L164
 608:.\ssd1306.c   ****                 else { // big size
 2274              		.loc 1 608 0
 2275 00c4 049A     		ldr	r2, [sp, #16]
 2276 00c6 059B     		ldr	r3, [sp, #20]
 2277 00c8 31B2     		sxth	r1, r6
 2278 00ca 9818     		add	r0, r3, r2
 2279 00cc 0C9A     		ldr	r2, [sp, #48]
 2280 00ce 00B2     		sxth	r0, r0
 2281              	.L168:
 2282 00d0 FFF7FEFF 		bl	gfx_drawPixel
 2283              	.LVL197:
 2284 00d4 09E0     		b	.L163
 2285              	.L164:
 610:.\ssd1306.c   ****                 }
 2286              		.loc 1 610 0
 2287 00d6 6B46     		mov	r3, sp
 2288 00d8 3420     		mov	r0, #52
 2289 00da 185E     		ldrsh	r0, [r3, r0]
 2290 00dc 2B1C     		mov	r3, r5
 2291 00de 0C9A     		ldr	r2, [sp, #48]
 2292 00e0 21B2     		sxth	r1, r4
 2293              	.L169:
 2294 00e2 0092     		str	r2, [sp]
 2295 00e4 1A1C     		mov	r2, r3
 2296 00e6 FFF7FEFF 		bl	gfx_fillRect
 2297              	.LVL198:
 2298              	.L163:
 613:.\ssd1306.c   ****         }
 2299              		.loc 1 613 0
 2300 00ea 039B     		ldr	r3, [sp, #12]
 2301 00ec 0136     		add	r6, r6, #1
 2302              	.LVL199:
ARM GAS  C:\Users\User\AppData\Local\Temp\cctjmLxv.s 			page 58


 2303 00ee 5B08     		lsr	r3, r3, #1
 2304 00f0 0393     		str	r3, [sp, #12]
 2305              	.LVL200:
 2306 00f2 069B     		ldr	r3, [sp, #24]
 2307 00f4 B6B2     		uxth	r6, r6
 2308 00f6 FF18     		add	r7, r7, r3
 2309 00f8 E418     		add	r4, r4, r3
 599:.\ssd1306.c   ****             if( line & 0x1 ){
 2310              		.loc 1 599 0
 2311 00fa 0F9B     		ldr	r3, [sp, #60]
 2312 00fc BFB2     		uxth	r7, r7
 2313 00fe A4B2     		uxth	r4, r4
 2314 0100 9E42     		cmp	r6, r3
 2315 0102 C6D1     		bne	.L165
 2316              	.LBE52:
 592:.\ssd1306.c   ****         uint8_t line;
 2317              		.loc 1 592 0
 2318 0104 079B     		ldr	r3, [sp, #28]
 2319 0106 0133     		add	r3, r3, #1
 2320 0108 DBB2     		uxtb	r3, r3
 2321 010a 0793     		str	r3, [sp, #28]
 2322              	.LVL201:
 2323 010c 089B     		ldr	r3, [sp, #32]
 2324 010e 013B     		sub	r3, r3, #1
 2325 0110 DBB2     		uxtb	r3, r3
 2326 0112 0893     		str	r3, [sp, #32]
 2327 0114 002B     		cmp	r3, #0
 2328 0116 99D1     		bne	.L166
 2329              	.LVL202:
 2330              	.L157:
 2331              	.LBE51:
 2332              	.LBE50:
 616:.\ssd1306.c   **** 
 2333              		.loc 1 616 0
 2334 0118 11B0     		add	sp, sp, #68
 2335              		@ sp needed
 2336 011a F0BD     		pop	{r4, r5, r6, r7, pc}
 2337              	.L171:
 2338              		.align	2
 2339              	.L170:
 2340 011c 00000000 		.word	.LANCHOR0
 2341 0120 00000000 		.word	.LANCHOR2
 2342              		.cfi_endproc
 2343              	.LFE62:
 2344              		.size	gfx_drawChar, .-gfx_drawChar
 2345              		.section	.text.gfx_write,"ax",%progbits
 2346              		.align	1
 2347              		.global	gfx_write
 2348              		.code	16
 2349              		.thumb_func
 2350              		.type	gfx_write, %function
 2351              	gfx_write:
 2352              	.LFB63:
 618:.\ssd1306.c   ****     if( ch == '\n' ){
 2353              		.loc 1 618 0
 2354              		.cfi_startproc
 2355              	.LVL203:
ARM GAS  C:\Users\User\AppData\Local\Temp\cctjmLxv.s 			page 59


 2356 0000 F0B5     		push	{r4, r5, r6, r7, lr}
 2357              		.cfi_def_cfa_offset 20
 2358              		.cfi_offset 4, -20
 2359              		.cfi_offset 5, -16
 2360              		.cfi_offset 6, -12
 2361              		.cfi_offset 7, -8
 2362              		.cfi_offset 14, -4
 2363 0002 021C     		mov	r2, r0
 2364 0004 85B0     		sub	sp, sp, #20
 2365              		.cfi_def_cfa_offset 40
 619:.\ssd1306.c   ****         cursor_y += textsize*8;
 2366              		.loc 1 619 0
 2367 0006 0A28     		cmp	r0, #10
 2368 0008 02D1     		bne	.L173
 2369 000a FFF7FEFF 		bl	gfx_write.part.3
 2370              	.LVL204:
 2371 000e 27E0     		b	.L172
 2372              	.LVL205:
 2373              	.L173:
 622:.\ssd1306.c   ****         // skip em
 2374              		.loc 1 622 0
 2375 0010 0D28     		cmp	r0, #13
 2376 0012 25D0     		beq	.L172
 625:.\ssd1306.c   ****         cursor_x += textsize*6;
 2377              		.loc 1 625 0
 2378 0014 134C     		ldr	r4, .L180
 2379 0016 E389     		ldrh	r3, [r4, #14]
 2380 0018 E588     		ldrh	r5, [r4, #6]
 2381 001a 6688     		ldrh	r6, [r4, #2]
 2382 001c 2779     		ldrb	r7, [r4, #4]
 2383 001e 0393     		str	r3, [sp, #12]
 2384 0020 A389     		ldrh	r3, [r4, #12]
 2385 0022 28B2     		sxth	r0, r5
 2386              	.LVL206:
 2387 0024 0093     		str	r3, [sp]
 2388 0026 31B2     		sxth	r1, r6
 2389 0028 039B     		ldr	r3, [sp, #12]
 2390 002a 0197     		str	r7, [sp, #4]
 2391 002c FFF7FEFF 		bl	gfx_drawChar
 2392              	.LVL207:
 626:.\ssd1306.c   ****         if( wrap && (cursor_x > (_width - textsize*6)) ){
 2393              		.loc 1 626 0
 2394 0030 0622     		mov	r2, #6
 2395 0032 BBB2     		uxth	r3, r7
 2396 0034 5A43     		mul	r2, r3
 2397 0036 5519     		add	r5, r2, r5
 627:.\ssd1306.c   ****             cursor_y += textsize*8;
 2398              		.loc 1 627 0
 2399 0038 0B4A     		ldr	r2, .L180+4
 626:.\ssd1306.c   ****         if( wrap && (cursor_x > (_width - textsize*6)) ){
 2400              		.loc 1 626 0
 2401 003a ADB2     		uxth	r5, r5
 627:.\ssd1306.c   ****             cursor_y += textsize*8;
 2402              		.loc 1 627 0
 2403 003c 1278     		ldrb	r2, [r2]
 626:.\ssd1306.c   ****         if( wrap && (cursor_x > (_width - textsize*6)) ){
 2404              		.loc 1 626 0
ARM GAS  C:\Users\User\AppData\Local\Temp\cctjmLxv.s 			page 60


 2405 003e E580     		strh	r5, [r4, #6]
 627:.\ssd1306.c   ****             cursor_y += textsize*8;
 2406              		.loc 1 627 0
 2407 0040 002A     		cmp	r2, #0
 2408 0042 0DD0     		beq	.L172
 627:.\ssd1306.c   ****             cursor_y += textsize*8;
 2409              		.loc 1 627 0 is_stmt 0 discriminator 1
 2410 0044 0822     		mov	r2, #8
 2411 0046 A15E     		ldrsh	r1, [r4, r2]
 2412 0048 0622     		mov	r2, #6
 2413 004a 5242     		neg	r2, r2
 2414 004c 5743     		mul	r7, r2
 2415 004e 2DB2     		sxth	r5, r5
 2416 0050 CF19     		add	r7, r1, r7
 2417 0052 BD42     		cmp	r5, r7
 2418 0054 04DD     		ble	.L172
 628:.\ssd1306.c   ****             cursor_x = 0;
 2419              		.loc 1 628 0 is_stmt 1
 2420 0056 DB00     		lsl	r3, r3, #3
 2421 0058 9E19     		add	r6, r3, r6
 629:.\ssd1306.c   ****         }
 2422              		.loc 1 629 0
 2423 005a 0023     		mov	r3, #0
 628:.\ssd1306.c   ****             cursor_x = 0;
 2424              		.loc 1 628 0
 2425 005c 6680     		strh	r6, [r4, #2]
 629:.\ssd1306.c   ****         }
 2426              		.loc 1 629 0
 2427 005e E380     		strh	r3, [r4, #6]
 2428              	.L172:
 2429              		.loc 1 632 0
 2430 0060 05B0     		add	sp, sp, #20
 2431              		@ sp needed
 2432 0062 F0BD     		pop	{r4, r5, r6, r7, pc}
 2433              	.L181:
 2434              		.align	2
 2435              	.L180:
 2436 0064 00000000 		.word	.LANCHOR0
 2437 0068 00000000 		.word	wrap
 2438              		.cfi_endproc
 2439              	.LFE63:
 2440              		.size	gfx_write, .-gfx_write
 2441              		.section	.text.gfx_print,"ax",%progbits
 2442              		.align	1
 2443              		.global	gfx_print
 2444              		.code	16
 2445              		.thumb_func
 2446              		.type	gfx_print, %function
 2447              	gfx_print:
 2448              	.LFB64:
 633:.\ssd1306.c   **** 
 634:.\ssd1306.c   **** void gfx_print( const char* s ){
 2449              		.loc 1 634 0
 2450              		.cfi_startproc
 2451              	.LVL208:
 2452 0000 38B5     		push	{r3, r4, r5, lr}
 2453              		.cfi_def_cfa_offset 16
ARM GAS  C:\Users\User\AppData\Local\Temp\cctjmLxv.s 			page 61


 2454              		.cfi_offset 3, -16
 2455              		.cfi_offset 4, -12
 2456              		.cfi_offset 5, -8
 2457              		.cfi_offset 14, -4
 2458              		.loc 1 634 0
 2459 0002 041C     		mov	r4, r0
 635:.\ssd1306.c   ****     
 636:.\ssd1306.c   ****     unsigned int len = strlen( s );
 2460              		.loc 1 636 0
 2461 0004 FFF7FEFF 		bl	strlen
 2462              	.LVL209:
 2463 0008 2518     		add	r5, r4, r0
 2464              	.LVL210:
 2465              	.L183:
 637:.\ssd1306.c   ****     unsigned int i = 0; 
 638:.\ssd1306.c   ****     for( i = 0 ; i < len ; i++ ){
 2466              		.loc 1 638 0 discriminator 1
 2467 000a AC42     		cmp	r4, r5
 2468 000c 04D0     		beq	.L185
 639:.\ssd1306.c   ****         gfx_write( s[i] );
 2469              		.loc 1 639 0 discriminator 3
 2470 000e 2078     		ldrb	r0, [r4]
 2471 0010 FFF7FEFF 		bl	gfx_write
 2472              	.LVL211:
 2473 0014 0134     		add	r4, r4, #1
 2474              	.LVL212:
 2475 0016 F8E7     		b	.L183
 2476              	.L185:
 640:.\ssd1306.c   ****     }
 641:.\ssd1306.c   **** }
 2477              		.loc 1 641 0
 2478              		@ sp needed
 2479              	.LVL213:
 2480 0018 38BD     		pop	{r3, r4, r5, pc}
 2481              		.cfi_endproc
 2482              	.LFE64:
 2483              		.size	gfx_print, .-gfx_print
 2484              		.section	.text.gfx_println,"ax",%progbits
 2485              		.align	1
 2486              		.global	gfx_println
 2487              		.code	16
 2488              		.thumb_func
 2489              		.type	gfx_println, %function
 2490              	gfx_println:
 2491              	.LFB65:
 642:.\ssd1306.c   **** 
 643:.\ssd1306.c   **** void gfx_println( const char* s ){ 
 2492              		.loc 1 643 0
 2493              		.cfi_startproc
 2494              	.LVL214:
 2495 0000 08B5     		push	{r3, lr}
 2496              		.cfi_def_cfa_offset 8
 2497              		.cfi_offset 3, -8
 2498              		.cfi_offset 14, -4
 644:.\ssd1306.c   ****     gfx_print( s ); 
 2499              		.loc 1 644 0
 2500 0002 FFF7FEFF 		bl	gfx_print
ARM GAS  C:\Users\User\AppData\Local\Temp\cctjmLxv.s 			page 62


 2501              	.LVL215:
 645:.\ssd1306.c   ****     gfx_write( '\n' );
 646:.\ssd1306.c   **** }
 2502              		.loc 1 646 0
 2503              		@ sp needed
 2504              	.LBB55:
 2505              	.LBB56:
 2506 0006 FFF7FEFF 		bl	gfx_write.part.3
 2507              	.LVL216:
 2508              	.LBE56:
 2509              	.LBE55:
 2510 000a 08BD     		pop	{r3, pc}
 2511              		.cfi_endproc
 2512              	.LFE65:
 2513              		.size	gfx_println, .-gfx_println
 2514              		.comm	wrap,1,1
 2515              		.comm	rotation,1,1
 2516              		.comm	HEIGHT,2,2
 2517              		.comm	WIDTH,2,2
 2518              		.section	.rodata
 2519              		.set	.LANCHOR2,. + 0
 2520              	.LC1:
 2521 0000 00       		.byte	0
 2522 0001 21       		.byte	33
 2523 0002 00       		.byte	0
 2524 0003 7F       		.byte	127
 2525 0004 22       		.byte	34
 2526 0005 00       		.byte	0
 2527 0006 07       		.byte	7
 2528              	.LC0:
 2529 0007 00       		.byte	0
 2530 0008 AE       		.byte	-82
 2531 0009 D5       		.byte	-43
 2532 000a 80       		.byte	-128
 2533 000b A8       		.byte	-88
 2534 000c 3F       		.byte	63
 2535 000d D3       		.byte	-45
 2536 000e 00       		.byte	0
 2537 000f 40       		.byte	64
 2538 0010 8D       		.byte	-115
 2539 0011 14       		.byte	20
 2540 0012 20       		.byte	32
 2541 0013 00       		.byte	0
 2542 0014 A1       		.byte	-95
 2543 0015 C8       		.byte	-56
 2544 0016 DA       		.byte	-38
 2545 0017 12       		.byte	18
 2546 0018 81       		.byte	-127
 2547 0019 CF       		.byte	-49
 2548 001a D9       		.byte	-39
 2549 001b F1       		.byte	-15
 2550 001c DB       		.byte	-37
 2551 001d 40       		.byte	64
 2552 001e A4       		.byte	-92
 2553 001f A6       		.byte	-90
 2554 0020 AF       		.byte	-81
 2555              		.type	font, %object
ARM GAS  C:\Users\User\AppData\Local\Temp\cctjmLxv.s 			page 63


 2556              		.size	font, 1275
 2557              	font:
 2558 0021 00       		.byte	0
 2559 0022 00       		.byte	0
 2560 0023 00       		.byte	0
 2561 0024 00       		.byte	0
 2562 0025 00       		.byte	0
 2563 0026 3E       		.byte	62
 2564 0027 5B       		.byte	91
 2565 0028 4F       		.byte	79
 2566 0029 5B       		.byte	91
 2567 002a 3E       		.byte	62
 2568 002b 3E       		.byte	62
 2569 002c 6B       		.byte	107
 2570 002d 4F       		.byte	79
 2571 002e 6B       		.byte	107
 2572 002f 3E       		.byte	62
 2573 0030 1C       		.byte	28
 2574 0031 3E       		.byte	62
 2575 0032 7C       		.byte	124
 2576 0033 3E       		.byte	62
 2577 0034 1C       		.byte	28
 2578 0035 18       		.byte	24
 2579 0036 3C       		.byte	60
 2580 0037 7E       		.byte	126
 2581 0038 3C       		.byte	60
 2582 0039 18       		.byte	24
 2583 003a 1C       		.byte	28
 2584 003b 57       		.byte	87
 2585 003c 7D       		.byte	125
 2586 003d 57       		.byte	87
 2587 003e 1C       		.byte	28
 2588 003f 1C       		.byte	28
 2589 0040 5E       		.byte	94
 2590 0041 7F       		.byte	127
 2591 0042 5E       		.byte	94
 2592 0043 1C       		.byte	28
 2593 0044 00       		.byte	0
 2594 0045 18       		.byte	24
 2595 0046 3C       		.byte	60
 2596 0047 18       		.byte	24
 2597 0048 00       		.byte	0
 2598 0049 FF       		.byte	-1
 2599 004a E7       		.byte	-25
 2600 004b C3       		.byte	-61
 2601 004c E7       		.byte	-25
 2602 004d FF       		.byte	-1
 2603 004e 00       		.byte	0
 2604 004f 18       		.byte	24
 2605 0050 24       		.byte	36
 2606 0051 18       		.byte	24
 2607 0052 00       		.byte	0
 2608 0053 FF       		.byte	-1
 2609 0054 E7       		.byte	-25
 2610 0055 DB       		.byte	-37
 2611 0056 E7       		.byte	-25
 2612 0057 FF       		.byte	-1
ARM GAS  C:\Users\User\AppData\Local\Temp\cctjmLxv.s 			page 64


 2613 0058 30       		.byte	48
 2614 0059 48       		.byte	72
 2615 005a 3A       		.byte	58
 2616 005b 06       		.byte	6
 2617 005c 0E       		.byte	14
 2618 005d 26       		.byte	38
 2619 005e 29       		.byte	41
 2620 005f 79       		.byte	121
 2621 0060 29       		.byte	41
 2622 0061 26       		.byte	38
 2623 0062 40       		.byte	64
 2624 0063 7F       		.byte	127
 2625 0064 05       		.byte	5
 2626 0065 05       		.byte	5
 2627 0066 07       		.byte	7
 2628 0067 40       		.byte	64
 2629 0068 7F       		.byte	127
 2630 0069 05       		.byte	5
 2631 006a 25       		.byte	37
 2632 006b 3F       		.byte	63
 2633 006c 5A       		.byte	90
 2634 006d 3C       		.byte	60
 2635 006e E7       		.byte	-25
 2636 006f 3C       		.byte	60
 2637 0070 5A       		.byte	90
 2638 0071 7F       		.byte	127
 2639 0072 3E       		.byte	62
 2640 0073 1C       		.byte	28
 2641 0074 1C       		.byte	28
 2642 0075 08       		.byte	8
 2643 0076 08       		.byte	8
 2644 0077 1C       		.byte	28
 2645 0078 1C       		.byte	28
 2646 0079 3E       		.byte	62
 2647 007a 7F       		.byte	127
 2648 007b 14       		.byte	20
 2649 007c 22       		.byte	34
 2650 007d 7F       		.byte	127
 2651 007e 22       		.byte	34
 2652 007f 14       		.byte	20
 2653 0080 5F       		.byte	95
 2654 0081 5F       		.byte	95
 2655 0082 00       		.byte	0
 2656 0083 5F       		.byte	95
 2657 0084 5F       		.byte	95
 2658 0085 06       		.byte	6
 2659 0086 09       		.byte	9
 2660 0087 7F       		.byte	127
 2661 0088 01       		.byte	1
 2662 0089 7F       		.byte	127
 2663 008a 00       		.byte	0
 2664 008b 66       		.byte	102
 2665 008c 89       		.byte	-119
 2666 008d 95       		.byte	-107
 2667 008e 6A       		.byte	106
 2668 008f 60       		.byte	96
 2669 0090 60       		.byte	96
ARM GAS  C:\Users\User\AppData\Local\Temp\cctjmLxv.s 			page 65


 2670 0091 60       		.byte	96
 2671 0092 60       		.byte	96
 2672 0093 60       		.byte	96
 2673 0094 94       		.byte	-108
 2674 0095 A2       		.byte	-94
 2675 0096 FF       		.byte	-1
 2676 0097 A2       		.byte	-94
 2677 0098 94       		.byte	-108
 2678 0099 08       		.byte	8
 2679 009a 04       		.byte	4
 2680 009b 7E       		.byte	126
 2681 009c 04       		.byte	4
 2682 009d 08       		.byte	8
 2683 009e 10       		.byte	16
 2684 009f 20       		.byte	32
 2685 00a0 7E       		.byte	126
 2686 00a1 20       		.byte	32
 2687 00a2 10       		.byte	16
 2688 00a3 08       		.byte	8
 2689 00a4 08       		.byte	8
 2690 00a5 2A       		.byte	42
 2691 00a6 1C       		.byte	28
 2692 00a7 08       		.byte	8
 2693 00a8 08       		.byte	8
 2694 00a9 1C       		.byte	28
 2695 00aa 2A       		.byte	42
 2696 00ab 08       		.byte	8
 2697 00ac 08       		.byte	8
 2698 00ad 1E       		.byte	30
 2699 00ae 10       		.byte	16
 2700 00af 10       		.byte	16
 2701 00b0 10       		.byte	16
 2702 00b1 10       		.byte	16
 2703 00b2 0C       		.byte	12
 2704 00b3 1E       		.byte	30
 2705 00b4 0C       		.byte	12
 2706 00b5 1E       		.byte	30
 2707 00b6 0C       		.byte	12
 2708 00b7 30       		.byte	48
 2709 00b8 38       		.byte	56
 2710 00b9 3E       		.byte	62
 2711 00ba 38       		.byte	56
 2712 00bb 30       		.byte	48
 2713 00bc 06       		.byte	6
 2714 00bd 0E       		.byte	14
 2715 00be 3E       		.byte	62
 2716 00bf 0E       		.byte	14
 2717 00c0 06       		.byte	6
 2718 00c1 00       		.byte	0
 2719 00c2 00       		.byte	0
 2720 00c3 00       		.byte	0
 2721 00c4 00       		.byte	0
 2722 00c5 00       		.byte	0
 2723 00c6 00       		.byte	0
 2724 00c7 00       		.byte	0
 2725 00c8 5F       		.byte	95
 2726 00c9 00       		.byte	0
ARM GAS  C:\Users\User\AppData\Local\Temp\cctjmLxv.s 			page 66


 2727 00ca 00       		.byte	0
 2728 00cb 00       		.byte	0
 2729 00cc 07       		.byte	7
 2730 00cd 00       		.byte	0
 2731 00ce 07       		.byte	7
 2732 00cf 00       		.byte	0
 2733 00d0 14       		.byte	20
 2734 00d1 7F       		.byte	127
 2735 00d2 14       		.byte	20
 2736 00d3 7F       		.byte	127
 2737 00d4 14       		.byte	20
 2738 00d5 24       		.byte	36
 2739 00d6 2A       		.byte	42
 2740 00d7 7F       		.byte	127
 2741 00d8 2A       		.byte	42
 2742 00d9 12       		.byte	18
 2743 00da 23       		.byte	35
 2744 00db 13       		.byte	19
 2745 00dc 08       		.byte	8
 2746 00dd 64       		.byte	100
 2747 00de 62       		.byte	98
 2748 00df 36       		.byte	54
 2749 00e0 49       		.byte	73
 2750 00e1 56       		.byte	86
 2751 00e2 20       		.byte	32
 2752 00e3 50       		.byte	80
 2753 00e4 00       		.byte	0
 2754 00e5 08       		.byte	8
 2755 00e6 07       		.byte	7
 2756 00e7 03       		.byte	3
 2757 00e8 00       		.byte	0
 2758 00e9 00       		.byte	0
 2759 00ea 1C       		.byte	28
 2760 00eb 22       		.byte	34
 2761 00ec 41       		.byte	65
 2762 00ed 00       		.byte	0
 2763 00ee 00       		.byte	0
 2764 00ef 41       		.byte	65
 2765 00f0 22       		.byte	34
 2766 00f1 1C       		.byte	28
 2767 00f2 00       		.byte	0
 2768 00f3 2A       		.byte	42
 2769 00f4 1C       		.byte	28
 2770 00f5 7F       		.byte	127
 2771 00f6 1C       		.byte	28
 2772 00f7 2A       		.byte	42
 2773 00f8 08       		.byte	8
 2774 00f9 08       		.byte	8
 2775 00fa 3E       		.byte	62
 2776 00fb 08       		.byte	8
 2777 00fc 08       		.byte	8
 2778 00fd 00       		.byte	0
 2779 00fe 80       		.byte	-128
 2780 00ff 70       		.byte	112
 2781 0100 30       		.byte	48
 2782 0101 00       		.byte	0
 2783 0102 08       		.byte	8
ARM GAS  C:\Users\User\AppData\Local\Temp\cctjmLxv.s 			page 67


 2784 0103 08       		.byte	8
 2785 0104 08       		.byte	8
 2786 0105 08       		.byte	8
 2787 0106 08       		.byte	8
 2788 0107 00       		.byte	0
 2789 0108 00       		.byte	0
 2790 0109 60       		.byte	96
 2791 010a 60       		.byte	96
 2792 010b 00       		.byte	0
 2793 010c 20       		.byte	32
 2794 010d 10       		.byte	16
 2795 010e 08       		.byte	8
 2796 010f 04       		.byte	4
 2797 0110 02       		.byte	2
 2798 0111 3E       		.byte	62
 2799 0112 51       		.byte	81
 2800 0113 49       		.byte	73
 2801 0114 45       		.byte	69
 2802 0115 3E       		.byte	62
 2803 0116 00       		.byte	0
 2804 0117 42       		.byte	66
 2805 0118 7F       		.byte	127
 2806 0119 40       		.byte	64
 2807 011a 00       		.byte	0
 2808 011b 72       		.byte	114
 2809 011c 49       		.byte	73
 2810 011d 49       		.byte	73
 2811 011e 49       		.byte	73
 2812 011f 46       		.byte	70
 2813 0120 21       		.byte	33
 2814 0121 41       		.byte	65
 2815 0122 49       		.byte	73
 2816 0123 4D       		.byte	77
 2817 0124 33       		.byte	51
 2818 0125 18       		.byte	24
 2819 0126 14       		.byte	20
 2820 0127 12       		.byte	18
 2821 0128 7F       		.byte	127
 2822 0129 10       		.byte	16
 2823 012a 27       		.byte	39
 2824 012b 45       		.byte	69
 2825 012c 45       		.byte	69
 2826 012d 45       		.byte	69
 2827 012e 39       		.byte	57
 2828 012f 3C       		.byte	60
 2829 0130 4A       		.byte	74
 2830 0131 49       		.byte	73
 2831 0132 49       		.byte	73
 2832 0133 31       		.byte	49
 2833 0134 41       		.byte	65
 2834 0135 21       		.byte	33
 2835 0136 11       		.byte	17
 2836 0137 09       		.byte	9
 2837 0138 07       		.byte	7
 2838 0139 36       		.byte	54
 2839 013a 49       		.byte	73
 2840 013b 49       		.byte	73
ARM GAS  C:\Users\User\AppData\Local\Temp\cctjmLxv.s 			page 68


 2841 013c 49       		.byte	73
 2842 013d 36       		.byte	54
 2843 013e 46       		.byte	70
 2844 013f 49       		.byte	73
 2845 0140 49       		.byte	73
 2846 0141 29       		.byte	41
 2847 0142 1E       		.byte	30
 2848 0143 00       		.byte	0
 2849 0144 00       		.byte	0
 2850 0145 14       		.byte	20
 2851 0146 00       		.byte	0
 2852 0147 00       		.byte	0
 2853 0148 00       		.byte	0
 2854 0149 40       		.byte	64
 2855 014a 34       		.byte	52
 2856 014b 00       		.byte	0
 2857 014c 00       		.byte	0
 2858 014d 00       		.byte	0
 2859 014e 08       		.byte	8
 2860 014f 14       		.byte	20
 2861 0150 22       		.byte	34
 2862 0151 41       		.byte	65
 2863 0152 14       		.byte	20
 2864 0153 14       		.byte	20
 2865 0154 14       		.byte	20
 2866 0155 14       		.byte	20
 2867 0156 14       		.byte	20
 2868 0157 00       		.byte	0
 2869 0158 41       		.byte	65
 2870 0159 22       		.byte	34
 2871 015a 14       		.byte	20
 2872 015b 08       		.byte	8
 2873 015c 02       		.byte	2
 2874 015d 01       		.byte	1
 2875 015e 59       		.byte	89
 2876 015f 09       		.byte	9
 2877 0160 06       		.byte	6
 2878 0161 3E       		.byte	62
 2879 0162 41       		.byte	65
 2880 0163 5D       		.byte	93
 2881 0164 59       		.byte	89
 2882 0165 4E       		.byte	78
 2883 0166 7C       		.byte	124
 2884 0167 12       		.byte	18
 2885 0168 11       		.byte	17
 2886 0169 12       		.byte	18
 2887 016a 7C       		.byte	124
 2888 016b 7F       		.byte	127
 2889 016c 49       		.byte	73
 2890 016d 49       		.byte	73
 2891 016e 49       		.byte	73
 2892 016f 36       		.byte	54
 2893 0170 3E       		.byte	62
 2894 0171 41       		.byte	65
 2895 0172 41       		.byte	65
 2896 0173 41       		.byte	65
 2897 0174 22       		.byte	34
ARM GAS  C:\Users\User\AppData\Local\Temp\cctjmLxv.s 			page 69


 2898 0175 7F       		.byte	127
 2899 0176 41       		.byte	65
 2900 0177 41       		.byte	65
 2901 0178 41       		.byte	65
 2902 0179 3E       		.byte	62
 2903 017a 7F       		.byte	127
 2904 017b 49       		.byte	73
 2905 017c 49       		.byte	73
 2906 017d 49       		.byte	73
 2907 017e 41       		.byte	65
 2908 017f 7F       		.byte	127
 2909 0180 09       		.byte	9
 2910 0181 09       		.byte	9
 2911 0182 09       		.byte	9
 2912 0183 01       		.byte	1
 2913 0184 3E       		.byte	62
 2914 0185 41       		.byte	65
 2915 0186 41       		.byte	65
 2916 0187 51       		.byte	81
 2917 0188 73       		.byte	115
 2918 0189 7F       		.byte	127
 2919 018a 08       		.byte	8
 2920 018b 08       		.byte	8
 2921 018c 08       		.byte	8
 2922 018d 7F       		.byte	127
 2923 018e 00       		.byte	0
 2924 018f 41       		.byte	65
 2925 0190 7F       		.byte	127
 2926 0191 41       		.byte	65
 2927 0192 00       		.byte	0
 2928 0193 20       		.byte	32
 2929 0194 40       		.byte	64
 2930 0195 41       		.byte	65
 2931 0196 3F       		.byte	63
 2932 0197 01       		.byte	1
 2933 0198 7F       		.byte	127
 2934 0199 08       		.byte	8
 2935 019a 14       		.byte	20
 2936 019b 22       		.byte	34
 2937 019c 41       		.byte	65
 2938 019d 7F       		.byte	127
 2939 019e 40       		.byte	64
 2940 019f 40       		.byte	64
 2941 01a0 40       		.byte	64
 2942 01a1 40       		.byte	64
 2943 01a2 7F       		.byte	127
 2944 01a3 02       		.byte	2
 2945 01a4 1C       		.byte	28
 2946 01a5 02       		.byte	2
 2947 01a6 7F       		.byte	127
 2948 01a7 7F       		.byte	127
 2949 01a8 04       		.byte	4
 2950 01a9 08       		.byte	8
 2951 01aa 10       		.byte	16
 2952 01ab 7F       		.byte	127
 2953 01ac 3E       		.byte	62
 2954 01ad 41       		.byte	65
ARM GAS  C:\Users\User\AppData\Local\Temp\cctjmLxv.s 			page 70


 2955 01ae 41       		.byte	65
 2956 01af 41       		.byte	65
 2957 01b0 3E       		.byte	62
 2958 01b1 7F       		.byte	127
 2959 01b2 09       		.byte	9
 2960 01b3 09       		.byte	9
 2961 01b4 09       		.byte	9
 2962 01b5 06       		.byte	6
 2963 01b6 3E       		.byte	62
 2964 01b7 41       		.byte	65
 2965 01b8 51       		.byte	81
 2966 01b9 21       		.byte	33
 2967 01ba 5E       		.byte	94
 2968 01bb 7F       		.byte	127
 2969 01bc 09       		.byte	9
 2970 01bd 19       		.byte	25
 2971 01be 29       		.byte	41
 2972 01bf 46       		.byte	70
 2973 01c0 26       		.byte	38
 2974 01c1 49       		.byte	73
 2975 01c2 49       		.byte	73
 2976 01c3 49       		.byte	73
 2977 01c4 32       		.byte	50
 2978 01c5 03       		.byte	3
 2979 01c6 01       		.byte	1
 2980 01c7 7F       		.byte	127
 2981 01c8 01       		.byte	1
 2982 01c9 03       		.byte	3
 2983 01ca 3F       		.byte	63
 2984 01cb 40       		.byte	64
 2985 01cc 40       		.byte	64
 2986 01cd 40       		.byte	64
 2987 01ce 3F       		.byte	63
 2988 01cf 1F       		.byte	31
 2989 01d0 20       		.byte	32
 2990 01d1 40       		.byte	64
 2991 01d2 20       		.byte	32
 2992 01d3 1F       		.byte	31
 2993 01d4 3F       		.byte	63
 2994 01d5 40       		.byte	64
 2995 01d6 38       		.byte	56
 2996 01d7 40       		.byte	64
 2997 01d8 3F       		.byte	63
 2998 01d9 63       		.byte	99
 2999 01da 14       		.byte	20
 3000 01db 08       		.byte	8
 3001 01dc 14       		.byte	20
 3002 01dd 63       		.byte	99
 3003 01de 03       		.byte	3
 3004 01df 04       		.byte	4
 3005 01e0 78       		.byte	120
 3006 01e1 04       		.byte	4
 3007 01e2 03       		.byte	3
 3008 01e3 61       		.byte	97
 3009 01e4 59       		.byte	89
 3010 01e5 49       		.byte	73
 3011 01e6 4D       		.byte	77
ARM GAS  C:\Users\User\AppData\Local\Temp\cctjmLxv.s 			page 71


 3012 01e7 43       		.byte	67
 3013 01e8 00       		.byte	0
 3014 01e9 7F       		.byte	127
 3015 01ea 41       		.byte	65
 3016 01eb 41       		.byte	65
 3017 01ec 41       		.byte	65
 3018 01ed 02       		.byte	2
 3019 01ee 04       		.byte	4
 3020 01ef 08       		.byte	8
 3021 01f0 10       		.byte	16
 3022 01f1 20       		.byte	32
 3023 01f2 00       		.byte	0
 3024 01f3 41       		.byte	65
 3025 01f4 41       		.byte	65
 3026 01f5 41       		.byte	65
 3027 01f6 7F       		.byte	127
 3028 01f7 04       		.byte	4
 3029 01f8 02       		.byte	2
 3030 01f9 01       		.byte	1
 3031 01fa 02       		.byte	2
 3032 01fb 04       		.byte	4
 3033 01fc 40       		.byte	64
 3034 01fd 40       		.byte	64
 3035 01fe 40       		.byte	64
 3036 01ff 40       		.byte	64
 3037 0200 40       		.byte	64
 3038 0201 00       		.byte	0
 3039 0202 03       		.byte	3
 3040 0203 07       		.byte	7
 3041 0204 08       		.byte	8
 3042 0205 00       		.byte	0
 3043 0206 20       		.byte	32
 3044 0207 54       		.byte	84
 3045 0208 54       		.byte	84
 3046 0209 78       		.byte	120
 3047 020a 40       		.byte	64
 3048 020b 7F       		.byte	127
 3049 020c 28       		.byte	40
 3050 020d 44       		.byte	68
 3051 020e 44       		.byte	68
 3052 020f 38       		.byte	56
 3053 0210 38       		.byte	56
 3054 0211 44       		.byte	68
 3055 0212 44       		.byte	68
 3056 0213 44       		.byte	68
 3057 0214 28       		.byte	40
 3058 0215 38       		.byte	56
 3059 0216 44       		.byte	68
 3060 0217 44       		.byte	68
 3061 0218 28       		.byte	40
 3062 0219 7F       		.byte	127
 3063 021a 38       		.byte	56
 3064 021b 54       		.byte	84
 3065 021c 54       		.byte	84
 3066 021d 54       		.byte	84
 3067 021e 18       		.byte	24
 3068 021f 00       		.byte	0
ARM GAS  C:\Users\User\AppData\Local\Temp\cctjmLxv.s 			page 72


 3069 0220 08       		.byte	8
 3070 0221 7E       		.byte	126
 3071 0222 09       		.byte	9
 3072 0223 02       		.byte	2
 3073 0224 18       		.byte	24
 3074 0225 A4       		.byte	-92
 3075 0226 A4       		.byte	-92
 3076 0227 9C       		.byte	-100
 3077 0228 78       		.byte	120
 3078 0229 7F       		.byte	127
 3079 022a 08       		.byte	8
 3080 022b 04       		.byte	4
 3081 022c 04       		.byte	4
 3082 022d 78       		.byte	120
 3083 022e 00       		.byte	0
 3084 022f 44       		.byte	68
 3085 0230 7D       		.byte	125
 3086 0231 40       		.byte	64
 3087 0232 00       		.byte	0
 3088 0233 20       		.byte	32
 3089 0234 40       		.byte	64
 3090 0235 40       		.byte	64
 3091 0236 3D       		.byte	61
 3092 0237 00       		.byte	0
 3093 0238 7F       		.byte	127
 3094 0239 10       		.byte	16
 3095 023a 28       		.byte	40
 3096 023b 44       		.byte	68
 3097 023c 00       		.byte	0
 3098 023d 00       		.byte	0
 3099 023e 41       		.byte	65
 3100 023f 7F       		.byte	127
 3101 0240 40       		.byte	64
 3102 0241 00       		.byte	0
 3103 0242 7C       		.byte	124
 3104 0243 04       		.byte	4
 3105 0244 78       		.byte	120
 3106 0245 04       		.byte	4
 3107 0246 78       		.byte	120
 3108 0247 7C       		.byte	124
 3109 0248 08       		.byte	8
 3110 0249 04       		.byte	4
 3111 024a 04       		.byte	4
 3112 024b 78       		.byte	120
 3113 024c 38       		.byte	56
 3114 024d 44       		.byte	68
 3115 024e 44       		.byte	68
 3116 024f 44       		.byte	68
 3117 0250 38       		.byte	56
 3118 0251 FC       		.byte	-4
 3119 0252 18       		.byte	24
 3120 0253 24       		.byte	36
 3121 0254 24       		.byte	36
 3122 0255 18       		.byte	24
 3123 0256 18       		.byte	24
 3124 0257 24       		.byte	36
 3125 0258 24       		.byte	36
ARM GAS  C:\Users\User\AppData\Local\Temp\cctjmLxv.s 			page 73


 3126 0259 18       		.byte	24
 3127 025a FC       		.byte	-4
 3128 025b 7C       		.byte	124
 3129 025c 08       		.byte	8
 3130 025d 04       		.byte	4
 3131 025e 04       		.byte	4
 3132 025f 08       		.byte	8
 3133 0260 48       		.byte	72
 3134 0261 54       		.byte	84
 3135 0262 54       		.byte	84
 3136 0263 54       		.byte	84
 3137 0264 24       		.byte	36
 3138 0265 04       		.byte	4
 3139 0266 04       		.byte	4
 3140 0267 3F       		.byte	63
 3141 0268 44       		.byte	68
 3142 0269 24       		.byte	36
 3143 026a 3C       		.byte	60
 3144 026b 40       		.byte	64
 3145 026c 40       		.byte	64
 3146 026d 20       		.byte	32
 3147 026e 7C       		.byte	124
 3148 026f 1C       		.byte	28
 3149 0270 20       		.byte	32
 3150 0271 40       		.byte	64
 3151 0272 20       		.byte	32
 3152 0273 1C       		.byte	28
 3153 0274 3C       		.byte	60
 3154 0275 40       		.byte	64
 3155 0276 30       		.byte	48
 3156 0277 40       		.byte	64
 3157 0278 3C       		.byte	60
 3158 0279 44       		.byte	68
 3159 027a 28       		.byte	40
 3160 027b 10       		.byte	16
 3161 027c 28       		.byte	40
 3162 027d 44       		.byte	68
 3163 027e 4C       		.byte	76
 3164 027f 90       		.byte	-112
 3165 0280 90       		.byte	-112
 3166 0281 90       		.byte	-112
 3167 0282 7C       		.byte	124
 3168 0283 44       		.byte	68
 3169 0284 64       		.byte	100
 3170 0285 54       		.byte	84
 3171 0286 4C       		.byte	76
 3172 0287 44       		.byte	68
 3173 0288 00       		.byte	0
 3174 0289 08       		.byte	8
 3175 028a 36       		.byte	54
 3176 028b 41       		.byte	65
 3177 028c 00       		.byte	0
 3178 028d 00       		.byte	0
 3179 028e 00       		.byte	0
 3180 028f 77       		.byte	119
 3181 0290 00       		.byte	0
 3182 0291 00       		.byte	0
ARM GAS  C:\Users\User\AppData\Local\Temp\cctjmLxv.s 			page 74


 3183 0292 00       		.byte	0
 3184 0293 41       		.byte	65
 3185 0294 36       		.byte	54
 3186 0295 08       		.byte	8
 3187 0296 00       		.byte	0
 3188 0297 02       		.byte	2
 3189 0298 01       		.byte	1
 3190 0299 02       		.byte	2
 3191 029a 04       		.byte	4
 3192 029b 02       		.byte	2
 3193 029c 3C       		.byte	60
 3194 029d 26       		.byte	38
 3195 029e 23       		.byte	35
 3196 029f 26       		.byte	38
 3197 02a0 3C       		.byte	60
 3198 02a1 1E       		.byte	30
 3199 02a2 A1       		.byte	-95
 3200 02a3 A1       		.byte	-95
 3201 02a4 61       		.byte	97
 3202 02a5 12       		.byte	18
 3203 02a6 3A       		.byte	58
 3204 02a7 40       		.byte	64
 3205 02a8 40       		.byte	64
 3206 02a9 20       		.byte	32
 3207 02aa 7A       		.byte	122
 3208 02ab 38       		.byte	56
 3209 02ac 54       		.byte	84
 3210 02ad 54       		.byte	84
 3211 02ae 55       		.byte	85
 3212 02af 59       		.byte	89
 3213 02b0 21       		.byte	33
 3214 02b1 55       		.byte	85
 3215 02b2 55       		.byte	85
 3216 02b3 79       		.byte	121
 3217 02b4 41       		.byte	65
 3218 02b5 22       		.byte	34
 3219 02b6 54       		.byte	84
 3220 02b7 54       		.byte	84
 3221 02b8 78       		.byte	120
 3222 02b9 42       		.byte	66
 3223 02ba 21       		.byte	33
 3224 02bb 55       		.byte	85
 3225 02bc 54       		.byte	84
 3226 02bd 78       		.byte	120
 3227 02be 40       		.byte	64
 3228 02bf 20       		.byte	32
 3229 02c0 54       		.byte	84
 3230 02c1 55       		.byte	85
 3231 02c2 79       		.byte	121
 3232 02c3 40       		.byte	64
 3233 02c4 0C       		.byte	12
 3234 02c5 1E       		.byte	30
 3235 02c6 52       		.byte	82
 3236 02c7 72       		.byte	114
 3237 02c8 12       		.byte	18
 3238 02c9 39       		.byte	57
 3239 02ca 55       		.byte	85
ARM GAS  C:\Users\User\AppData\Local\Temp\cctjmLxv.s 			page 75


 3240 02cb 55       		.byte	85
 3241 02cc 55       		.byte	85
 3242 02cd 59       		.byte	89
 3243 02ce 39       		.byte	57
 3244 02cf 54       		.byte	84
 3245 02d0 54       		.byte	84
 3246 02d1 54       		.byte	84
 3247 02d2 59       		.byte	89
 3248 02d3 39       		.byte	57
 3249 02d4 55       		.byte	85
 3250 02d5 54       		.byte	84
 3251 02d6 54       		.byte	84
 3252 02d7 58       		.byte	88
 3253 02d8 00       		.byte	0
 3254 02d9 00       		.byte	0
 3255 02da 45       		.byte	69
 3256 02db 7C       		.byte	124
 3257 02dc 41       		.byte	65
 3258 02dd 00       		.byte	0
 3259 02de 02       		.byte	2
 3260 02df 45       		.byte	69
 3261 02e0 7D       		.byte	125
 3262 02e1 42       		.byte	66
 3263 02e2 00       		.byte	0
 3264 02e3 01       		.byte	1
 3265 02e4 45       		.byte	69
 3266 02e5 7C       		.byte	124
 3267 02e6 40       		.byte	64
 3268 02e7 7D       		.byte	125
 3269 02e8 12       		.byte	18
 3270 02e9 11       		.byte	17
 3271 02ea 12       		.byte	18
 3272 02eb 7D       		.byte	125
 3273 02ec F0       		.byte	-16
 3274 02ed 28       		.byte	40
 3275 02ee 25       		.byte	37
 3276 02ef 28       		.byte	40
 3277 02f0 F0       		.byte	-16
 3278 02f1 7C       		.byte	124
 3279 02f2 54       		.byte	84
 3280 02f3 55       		.byte	85
 3281 02f4 45       		.byte	69
 3282 02f5 00       		.byte	0
 3283 02f6 20       		.byte	32
 3284 02f7 54       		.byte	84
 3285 02f8 54       		.byte	84
 3286 02f9 7C       		.byte	124
 3287 02fa 54       		.byte	84
 3288 02fb 7C       		.byte	124
 3289 02fc 0A       		.byte	10
 3290 02fd 09       		.byte	9
 3291 02fe 7F       		.byte	127
 3292 02ff 49       		.byte	73
 3293 0300 32       		.byte	50
 3294 0301 49       		.byte	73
 3295 0302 49       		.byte	73
 3296 0303 49       		.byte	73
ARM GAS  C:\Users\User\AppData\Local\Temp\cctjmLxv.s 			page 76


 3297 0304 32       		.byte	50
 3298 0305 3A       		.byte	58
 3299 0306 44       		.byte	68
 3300 0307 44       		.byte	68
 3301 0308 44       		.byte	68
 3302 0309 3A       		.byte	58
 3303 030a 32       		.byte	50
 3304 030b 4A       		.byte	74
 3305 030c 48       		.byte	72
 3306 030d 48       		.byte	72
 3307 030e 30       		.byte	48
 3308 030f 3A       		.byte	58
 3309 0310 41       		.byte	65
 3310 0311 41       		.byte	65
 3311 0312 21       		.byte	33
 3312 0313 7A       		.byte	122
 3313 0314 3A       		.byte	58
 3314 0315 42       		.byte	66
 3315 0316 40       		.byte	64
 3316 0317 20       		.byte	32
 3317 0318 78       		.byte	120
 3318 0319 00       		.byte	0
 3319 031a 9D       		.byte	-99
 3320 031b A0       		.byte	-96
 3321 031c A0       		.byte	-96
 3322 031d 7D       		.byte	125
 3323 031e 3D       		.byte	61
 3324 031f 42       		.byte	66
 3325 0320 42       		.byte	66
 3326 0321 42       		.byte	66
 3327 0322 3D       		.byte	61
 3328 0323 3D       		.byte	61
 3329 0324 40       		.byte	64
 3330 0325 40       		.byte	64
 3331 0326 40       		.byte	64
 3332 0327 3D       		.byte	61
 3333 0328 3C       		.byte	60
 3334 0329 24       		.byte	36
 3335 032a FF       		.byte	-1
 3336 032b 24       		.byte	36
 3337 032c 24       		.byte	36
 3338 032d 48       		.byte	72
 3339 032e 7E       		.byte	126
 3340 032f 49       		.byte	73
 3341 0330 43       		.byte	67
 3342 0331 66       		.byte	102
 3343 0332 2B       		.byte	43
 3344 0333 2F       		.byte	47
 3345 0334 FC       		.byte	-4
 3346 0335 2F       		.byte	47
 3347 0336 2B       		.byte	43
 3348 0337 FF       		.byte	-1
 3349 0338 09       		.byte	9
 3350 0339 29       		.byte	41
 3351 033a F6       		.byte	-10
 3352 033b 20       		.byte	32
 3353 033c C0       		.byte	-64
ARM GAS  C:\Users\User\AppData\Local\Temp\cctjmLxv.s 			page 77


 3354 033d 88       		.byte	-120
 3355 033e 7E       		.byte	126
 3356 033f 09       		.byte	9
 3357 0340 03       		.byte	3
 3358 0341 20       		.byte	32
 3359 0342 54       		.byte	84
 3360 0343 54       		.byte	84
 3361 0344 79       		.byte	121
 3362 0345 41       		.byte	65
 3363 0346 00       		.byte	0
 3364 0347 00       		.byte	0
 3365 0348 44       		.byte	68
 3366 0349 7D       		.byte	125
 3367 034a 41       		.byte	65
 3368 034b 30       		.byte	48
 3369 034c 48       		.byte	72
 3370 034d 48       		.byte	72
 3371 034e 4A       		.byte	74
 3372 034f 32       		.byte	50
 3373 0350 38       		.byte	56
 3374 0351 40       		.byte	64
 3375 0352 40       		.byte	64
 3376 0353 22       		.byte	34
 3377 0354 7A       		.byte	122
 3378 0355 00       		.byte	0
 3379 0356 7A       		.byte	122
 3380 0357 0A       		.byte	10
 3381 0358 0A       		.byte	10
 3382 0359 72       		.byte	114
 3383 035a 7D       		.byte	125
 3384 035b 0D       		.byte	13
 3385 035c 19       		.byte	25
 3386 035d 31       		.byte	49
 3387 035e 7D       		.byte	125
 3388 035f 26       		.byte	38
 3389 0360 29       		.byte	41
 3390 0361 29       		.byte	41
 3391 0362 2F       		.byte	47
 3392 0363 28       		.byte	40
 3393 0364 26       		.byte	38
 3394 0365 29       		.byte	41
 3395 0366 29       		.byte	41
 3396 0367 29       		.byte	41
 3397 0368 26       		.byte	38
 3398 0369 30       		.byte	48
 3399 036a 48       		.byte	72
 3400 036b 4D       		.byte	77
 3401 036c 40       		.byte	64
 3402 036d 20       		.byte	32
 3403 036e 38       		.byte	56
 3404 036f 08       		.byte	8
 3405 0370 08       		.byte	8
 3406 0371 08       		.byte	8
 3407 0372 08       		.byte	8
 3408 0373 08       		.byte	8
 3409 0374 08       		.byte	8
 3410 0375 08       		.byte	8
ARM GAS  C:\Users\User\AppData\Local\Temp\cctjmLxv.s 			page 78


 3411 0376 08       		.byte	8
 3412 0377 38       		.byte	56
 3413 0378 2F       		.byte	47
 3414 0379 10       		.byte	16
 3415 037a C8       		.byte	-56
 3416 037b AC       		.byte	-84
 3417 037c BA       		.byte	-70
 3418 037d 2F       		.byte	47
 3419 037e 10       		.byte	16
 3420 037f 28       		.byte	40
 3421 0380 34       		.byte	52
 3422 0381 FA       		.byte	-6
 3423 0382 00       		.byte	0
 3424 0383 00       		.byte	0
 3425 0384 7B       		.byte	123
 3426 0385 00       		.byte	0
 3427 0386 00       		.byte	0
 3428 0387 08       		.byte	8
 3429 0388 14       		.byte	20
 3430 0389 2A       		.byte	42
 3431 038a 14       		.byte	20
 3432 038b 22       		.byte	34
 3433 038c 22       		.byte	34
 3434 038d 14       		.byte	20
 3435 038e 2A       		.byte	42
 3436 038f 14       		.byte	20
 3437 0390 08       		.byte	8
 3438 0391 AA       		.byte	-86
 3439 0392 00       		.byte	0
 3440 0393 55       		.byte	85
 3441 0394 00       		.byte	0
 3442 0395 AA       		.byte	-86
 3443 0396 AA       		.byte	-86
 3444 0397 55       		.byte	85
 3445 0398 AA       		.byte	-86
 3446 0399 55       		.byte	85
 3447 039a AA       		.byte	-86
 3448 039b 00       		.byte	0
 3449 039c 00       		.byte	0
 3450 039d 00       		.byte	0
 3451 039e FF       		.byte	-1
 3452 039f 00       		.byte	0
 3453 03a0 10       		.byte	16
 3454 03a1 10       		.byte	16
 3455 03a2 10       		.byte	16
 3456 03a3 FF       		.byte	-1
 3457 03a4 00       		.byte	0
 3458 03a5 14       		.byte	20
 3459 03a6 14       		.byte	20
 3460 03a7 14       		.byte	20
 3461 03a8 FF       		.byte	-1
 3462 03a9 00       		.byte	0
 3463 03aa 10       		.byte	16
 3464 03ab 10       		.byte	16
 3465 03ac FF       		.byte	-1
 3466 03ad 00       		.byte	0
 3467 03ae FF       		.byte	-1
ARM GAS  C:\Users\User\AppData\Local\Temp\cctjmLxv.s 			page 79


 3468 03af 10       		.byte	16
 3469 03b0 10       		.byte	16
 3470 03b1 F0       		.byte	-16
 3471 03b2 10       		.byte	16
 3472 03b3 F0       		.byte	-16
 3473 03b4 14       		.byte	20
 3474 03b5 14       		.byte	20
 3475 03b6 14       		.byte	20
 3476 03b7 FC       		.byte	-4
 3477 03b8 00       		.byte	0
 3478 03b9 14       		.byte	20
 3479 03ba 14       		.byte	20
 3480 03bb F7       		.byte	-9
 3481 03bc 00       		.byte	0
 3482 03bd FF       		.byte	-1
 3483 03be 00       		.byte	0
 3484 03bf 00       		.byte	0
 3485 03c0 FF       		.byte	-1
 3486 03c1 00       		.byte	0
 3487 03c2 FF       		.byte	-1
 3488 03c3 14       		.byte	20
 3489 03c4 14       		.byte	20
 3490 03c5 F4       		.byte	-12
 3491 03c6 04       		.byte	4
 3492 03c7 FC       		.byte	-4
 3493 03c8 14       		.byte	20
 3494 03c9 14       		.byte	20
 3495 03ca 17       		.byte	23
 3496 03cb 10       		.byte	16
 3497 03cc 1F       		.byte	31
 3498 03cd 10       		.byte	16
 3499 03ce 10       		.byte	16
 3500 03cf 1F       		.byte	31
 3501 03d0 10       		.byte	16
 3502 03d1 1F       		.byte	31
 3503 03d2 14       		.byte	20
 3504 03d3 14       		.byte	20
 3505 03d4 14       		.byte	20
 3506 03d5 1F       		.byte	31
 3507 03d6 00       		.byte	0
 3508 03d7 10       		.byte	16
 3509 03d8 10       		.byte	16
 3510 03d9 10       		.byte	16
 3511 03da F0       		.byte	-16
 3512 03db 00       		.byte	0
 3513 03dc 00       		.byte	0
 3514 03dd 00       		.byte	0
 3515 03de 00       		.byte	0
 3516 03df 1F       		.byte	31
 3517 03e0 10       		.byte	16
 3518 03e1 10       		.byte	16
 3519 03e2 10       		.byte	16
 3520 03e3 10       		.byte	16
 3521 03e4 1F       		.byte	31
 3522 03e5 10       		.byte	16
 3523 03e6 10       		.byte	16
 3524 03e7 10       		.byte	16
ARM GAS  C:\Users\User\AppData\Local\Temp\cctjmLxv.s 			page 80


 3525 03e8 10       		.byte	16
 3526 03e9 F0       		.byte	-16
 3527 03ea 10       		.byte	16
 3528 03eb 00       		.byte	0
 3529 03ec 00       		.byte	0
 3530 03ed 00       		.byte	0
 3531 03ee FF       		.byte	-1
 3532 03ef 10       		.byte	16
 3533 03f0 10       		.byte	16
 3534 03f1 10       		.byte	16
 3535 03f2 10       		.byte	16
 3536 03f3 10       		.byte	16
 3537 03f4 10       		.byte	16
 3538 03f5 10       		.byte	16
 3539 03f6 10       		.byte	16
 3540 03f7 10       		.byte	16
 3541 03f8 FF       		.byte	-1
 3542 03f9 10       		.byte	16
 3543 03fa 00       		.byte	0
 3544 03fb 00       		.byte	0
 3545 03fc 00       		.byte	0
 3546 03fd FF       		.byte	-1
 3547 03fe 14       		.byte	20
 3548 03ff 00       		.byte	0
 3549 0400 00       		.byte	0
 3550 0401 FF       		.byte	-1
 3551 0402 00       		.byte	0
 3552 0403 FF       		.byte	-1
 3553 0404 00       		.byte	0
 3554 0405 00       		.byte	0
 3555 0406 1F       		.byte	31
 3556 0407 10       		.byte	16
 3557 0408 17       		.byte	23
 3558 0409 00       		.byte	0
 3559 040a 00       		.byte	0
 3560 040b FC       		.byte	-4
 3561 040c 04       		.byte	4
 3562 040d F4       		.byte	-12
 3563 040e 14       		.byte	20
 3564 040f 14       		.byte	20
 3565 0410 17       		.byte	23
 3566 0411 10       		.byte	16
 3567 0412 17       		.byte	23
 3568 0413 14       		.byte	20
 3569 0414 14       		.byte	20
 3570 0415 F4       		.byte	-12
 3571 0416 04       		.byte	4
 3572 0417 F4       		.byte	-12
 3573 0418 00       		.byte	0
 3574 0419 00       		.byte	0
 3575 041a FF       		.byte	-1
 3576 041b 00       		.byte	0
 3577 041c F7       		.byte	-9
 3578 041d 14       		.byte	20
 3579 041e 14       		.byte	20
 3580 041f 14       		.byte	20
 3581 0420 14       		.byte	20
ARM GAS  C:\Users\User\AppData\Local\Temp\cctjmLxv.s 			page 81


 3582 0421 14       		.byte	20
 3583 0422 14       		.byte	20
 3584 0423 14       		.byte	20
 3585 0424 F7       		.byte	-9
 3586 0425 00       		.byte	0
 3587 0426 F7       		.byte	-9
 3588 0427 14       		.byte	20
 3589 0428 14       		.byte	20
 3590 0429 14       		.byte	20
 3591 042a 17       		.byte	23
 3592 042b 14       		.byte	20
 3593 042c 10       		.byte	16
 3594 042d 10       		.byte	16
 3595 042e 1F       		.byte	31
 3596 042f 10       		.byte	16
 3597 0430 1F       		.byte	31
 3598 0431 14       		.byte	20
 3599 0432 14       		.byte	20
 3600 0433 14       		.byte	20
 3601 0434 F4       		.byte	-12
 3602 0435 14       		.byte	20
 3603 0436 10       		.byte	16
 3604 0437 10       		.byte	16
 3605 0438 F0       		.byte	-16
 3606 0439 10       		.byte	16
 3607 043a F0       		.byte	-16
 3608 043b 00       		.byte	0
 3609 043c 00       		.byte	0
 3610 043d 1F       		.byte	31
 3611 043e 10       		.byte	16
 3612 043f 1F       		.byte	31
 3613 0440 00       		.byte	0
 3614 0441 00       		.byte	0
 3615 0442 00       		.byte	0
 3616 0443 1F       		.byte	31
 3617 0444 14       		.byte	20
 3618 0445 00       		.byte	0
 3619 0446 00       		.byte	0
 3620 0447 00       		.byte	0
 3621 0448 FC       		.byte	-4
 3622 0449 14       		.byte	20
 3623 044a 00       		.byte	0
 3624 044b 00       		.byte	0
 3625 044c F0       		.byte	-16
 3626 044d 10       		.byte	16
 3627 044e F0       		.byte	-16
 3628 044f 10       		.byte	16
 3629 0450 10       		.byte	16
 3630 0451 FF       		.byte	-1
 3631 0452 10       		.byte	16
 3632 0453 FF       		.byte	-1
 3633 0454 14       		.byte	20
 3634 0455 14       		.byte	20
 3635 0456 14       		.byte	20
 3636 0457 FF       		.byte	-1
 3637 0458 14       		.byte	20
 3638 0459 10       		.byte	16
ARM GAS  C:\Users\User\AppData\Local\Temp\cctjmLxv.s 			page 82


 3639 045a 10       		.byte	16
 3640 045b 10       		.byte	16
 3641 045c 1F       		.byte	31
 3642 045d 00       		.byte	0
 3643 045e 00       		.byte	0
 3644 045f 00       		.byte	0
 3645 0460 00       		.byte	0
 3646 0461 F0       		.byte	-16
 3647 0462 10       		.byte	16
 3648 0463 FF       		.byte	-1
 3649 0464 FF       		.byte	-1
 3650 0465 FF       		.byte	-1
 3651 0466 FF       		.byte	-1
 3652 0467 FF       		.byte	-1
 3653 0468 F0       		.byte	-16
 3654 0469 F0       		.byte	-16
 3655 046a F0       		.byte	-16
 3656 046b F0       		.byte	-16
 3657 046c F0       		.byte	-16
 3658 046d FF       		.byte	-1
 3659 046e FF       		.byte	-1
 3660 046f FF       		.byte	-1
 3661 0470 00       		.byte	0
 3662 0471 00       		.byte	0
 3663 0472 00       		.byte	0
 3664 0473 00       		.byte	0
 3665 0474 00       		.byte	0
 3666 0475 FF       		.byte	-1
 3667 0476 FF       		.byte	-1
 3668 0477 0F       		.byte	15
 3669 0478 0F       		.byte	15
 3670 0479 0F       		.byte	15
 3671 047a 0F       		.byte	15
 3672 047b 0F       		.byte	15
 3673 047c 38       		.byte	56
 3674 047d 44       		.byte	68
 3675 047e 44       		.byte	68
 3676 047f 38       		.byte	56
 3677 0480 44       		.byte	68
 3678 0481 FC       		.byte	-4
 3679 0482 4A       		.byte	74
 3680 0483 4A       		.byte	74
 3681 0484 4A       		.byte	74
 3682 0485 34       		.byte	52
 3683 0486 7E       		.byte	126
 3684 0487 02       		.byte	2
 3685 0488 02       		.byte	2
 3686 0489 06       		.byte	6
 3687 048a 06       		.byte	6
 3688 048b 02       		.byte	2
 3689 048c 7E       		.byte	126
 3690 048d 02       		.byte	2
 3691 048e 7E       		.byte	126
 3692 048f 02       		.byte	2
 3693 0490 63       		.byte	99
 3694 0491 55       		.byte	85
 3695 0492 49       		.byte	73
ARM GAS  C:\Users\User\AppData\Local\Temp\cctjmLxv.s 			page 83


 3696 0493 41       		.byte	65
 3697 0494 63       		.byte	99
 3698 0495 38       		.byte	56
 3699 0496 44       		.byte	68
 3700 0497 44       		.byte	68
 3701 0498 3C       		.byte	60
 3702 0499 04       		.byte	4
 3703 049a 40       		.byte	64
 3704 049b 7E       		.byte	126
 3705 049c 20       		.byte	32
 3706 049d 1E       		.byte	30
 3707 049e 20       		.byte	32
 3708 049f 06       		.byte	6
 3709 04a0 02       		.byte	2
 3710 04a1 7E       		.byte	126
 3711 04a2 02       		.byte	2
 3712 04a3 02       		.byte	2
 3713 04a4 99       		.byte	-103
 3714 04a5 A5       		.byte	-91
 3715 04a6 E7       		.byte	-25
 3716 04a7 A5       		.byte	-91
 3717 04a8 99       		.byte	-103
 3718 04a9 1C       		.byte	28
 3719 04aa 2A       		.byte	42
 3720 04ab 49       		.byte	73
 3721 04ac 2A       		.byte	42
 3722 04ad 1C       		.byte	28
 3723 04ae 4C       		.byte	76
 3724 04af 72       		.byte	114
 3725 04b0 01       		.byte	1
 3726 04b1 72       		.byte	114
 3727 04b2 4C       		.byte	76
 3728 04b3 30       		.byte	48
 3729 04b4 4A       		.byte	74
 3730 04b5 4D       		.byte	77
 3731 04b6 4D       		.byte	77
 3732 04b7 30       		.byte	48
 3733 04b8 30       		.byte	48
 3734 04b9 48       		.byte	72
 3735 04ba 78       		.byte	120
 3736 04bb 48       		.byte	72
 3737 04bc 30       		.byte	48
 3738 04bd BC       		.byte	-68
 3739 04be 62       		.byte	98
 3740 04bf 5A       		.byte	90
 3741 04c0 46       		.byte	70
 3742 04c1 3D       		.byte	61
 3743 04c2 3E       		.byte	62
 3744 04c3 49       		.byte	73
 3745 04c4 49       		.byte	73
 3746 04c5 49       		.byte	73
 3747 04c6 00       		.byte	0
 3748 04c7 7E       		.byte	126
 3749 04c8 01       		.byte	1
 3750 04c9 01       		.byte	1
 3751 04ca 01       		.byte	1
 3752 04cb 7E       		.byte	126
ARM GAS  C:\Users\User\AppData\Local\Temp\cctjmLxv.s 			page 84


 3753 04cc 2A       		.byte	42
 3754 04cd 2A       		.byte	42
 3755 04ce 2A       		.byte	42
 3756 04cf 2A       		.byte	42
 3757 04d0 2A       		.byte	42
 3758 04d1 44       		.byte	68
 3759 04d2 44       		.byte	68
 3760 04d3 5F       		.byte	95
 3761 04d4 44       		.byte	68
 3762 04d5 44       		.byte	68
 3763 04d6 40       		.byte	64
 3764 04d7 51       		.byte	81
 3765 04d8 4A       		.byte	74
 3766 04d9 44       		.byte	68
 3767 04da 40       		.byte	64
 3768 04db 40       		.byte	64
 3769 04dc 44       		.byte	68
 3770 04dd 4A       		.byte	74
 3771 04de 51       		.byte	81
 3772 04df 40       		.byte	64
 3773 04e0 00       		.byte	0
 3774 04e1 00       		.byte	0
 3775 04e2 FF       		.byte	-1
 3776 04e3 01       		.byte	1
 3777 04e4 03       		.byte	3
 3778 04e5 E0       		.byte	-32
 3779 04e6 80       		.byte	-128
 3780 04e7 FF       		.byte	-1
 3781 04e8 00       		.byte	0
 3782 04e9 00       		.byte	0
 3783 04ea 08       		.byte	8
 3784 04eb 08       		.byte	8
 3785 04ec 6B       		.byte	107
 3786 04ed 6B       		.byte	107
 3787 04ee 08       		.byte	8
 3788 04ef 36       		.byte	54
 3789 04f0 12       		.byte	18
 3790 04f1 36       		.byte	54
 3791 04f2 24       		.byte	36
 3792 04f3 36       		.byte	54
 3793 04f4 06       		.byte	6
 3794 04f5 0F       		.byte	15
 3795 04f6 09       		.byte	9
 3796 04f7 0F       		.byte	15
 3797 04f8 06       		.byte	6
 3798 04f9 00       		.byte	0
 3799 04fa 00       		.byte	0
 3800 04fb 18       		.byte	24
 3801 04fc 18       		.byte	24
 3802 04fd 00       		.byte	0
 3803 04fe 00       		.byte	0
 3804 04ff 00       		.byte	0
 3805 0500 10       		.byte	16
 3806 0501 10       		.byte	16
 3807 0502 00       		.byte	0
 3808 0503 30       		.byte	48
 3809 0504 40       		.byte	64
ARM GAS  C:\Users\User\AppData\Local\Temp\cctjmLxv.s 			page 85


 3810 0505 FF       		.byte	-1
 3811 0506 01       		.byte	1
 3812 0507 01       		.byte	1
 3813 0508 00       		.byte	0
 3814 0509 1F       		.byte	31
 3815 050a 01       		.byte	1
 3816 050b 01       		.byte	1
 3817 050c 1E       		.byte	30
 3818 050d 00       		.byte	0
 3819 050e 19       		.byte	25
 3820 050f 1D       		.byte	29
 3821 0510 17       		.byte	23
 3822 0511 12       		.byte	18
 3823 0512 00       		.byte	0
 3824 0513 3C       		.byte	60
 3825 0514 3C       		.byte	60
 3826 0515 3C       		.byte	60
 3827 0516 3C       		.byte	60
 3828 0517 00       		.byte	0
 3829 0518 00       		.byte	0
 3830 0519 00       		.byte	0
 3831 051a 00       		.byte	0
 3832 051b 00       		.byte	0
 3833              		.data
 3834              		.set	.LANCHOR1,. + 0
 3835              		.type	SSD1306_buffer, %object
 3836              		.size	SSD1306_buffer, 1025
 3837              	SSD1306_buffer:
 3838 0000 40       		.byte	64
 3839 0001 00000000 		.space	1024
 3839      00000000 
 3839      00000000 
 3839      00000000 
 3839      00000000 
 3840              		.bss
 3841              		.align	1
 3842              		.set	.LANCHOR0,. + 0
 3843              		.type	_i2caddr, %object
 3844              		.size	_i2caddr, 1
 3845              	_i2caddr:
 3846 0000 00       		.space	1
 3847 0001 00       		.space	1
 3848              		.type	cursor_y, %object
 3849              		.size	cursor_y, 2
 3850              	cursor_y:
 3851 0002 0000     		.space	2
 3852              		.type	textsize, %object
 3853              		.size	textsize, 1
 3854              	textsize:
 3855 0004 00       		.space	1
 3856 0005 00       		.space	1
 3857              		.type	cursor_x, %object
 3858              		.size	cursor_x, 2
 3859              	cursor_x:
 3860 0006 0000     		.space	2
 3861              		.type	_width, %object
 3862              		.size	_width, 2
ARM GAS  C:\Users\User\AppData\Local\Temp\cctjmLxv.s 			page 86


 3863              	_width:
 3864 0008 0000     		.space	2
 3865              		.type	_height, %object
 3866              		.size	_height, 2
 3867              	_height:
 3868 000a 0000     		.space	2
 3869              		.type	textbgcolor, %object
 3870              		.size	textbgcolor, 2
 3871              	textbgcolor:
 3872 000c 0000     		.space	2
 3873              		.type	textcolor, %object
 3874              		.size	textcolor, 2
 3875              	textcolor:
 3876 000e 0000     		.space	2
 3877              		.text
 3878              	.Letext0:
 3879              		.file 2 "d:\\cypress\\psoc creator\\3.3\\psoc creator\\import\\gnu\\arm\\4.9.3\\arm-none-eabi\\inc
 3880              		.file 3 "d:\\cypress\\psoc creator\\3.3\\psoc creator\\import\\gnu\\arm\\4.9.3\\arm-none-eabi\\inc
 3881              		.file 4 "Generated_Source\\PSoC4/cytypes.h"
 3882              		.file 5 "d:\\cypress\\psoc creator\\3.3\\psoc creator\\import\\gnu\\arm\\4.9.3\\lib\\gcc\\arm-none
 3883              		.file 6 ".\\ssd1306.h"
 3884              		.file 7 ".\\font.h"
 3885              		.file 8 "Generated_Source\\PSoC4/I2COLED_I2C.h"
 3886              		.file 9 "d:\\cypress\\psoc creator\\3.3\\psoc creator\\import\\gnu\\arm\\4.9.3\\arm-none-eabi\\inc
 3887              		.section	.debug_info,"",%progbits
 3888              	.Ldebug_info0:
 3889 0000 BC140000 		.4byte	0x14bc
 3890 0004 0400     		.2byte	0x4
 3891 0006 00000000 		.4byte	.Ldebug_abbrev0
 3892 000a 04       		.byte	0x4
 3893 000b 01       		.uleb128 0x1
 3894 000c 6F010000 		.4byte	.LASF121
 3895 0010 01       		.byte	0x1
 3896 0011 66020000 		.4byte	.LASF122
 3897 0015 FD010000 		.4byte	.LASF123
 3898 0019 A8000000 		.4byte	.Ldebug_ranges0+0xa8
 3899 001d 00000000 		.4byte	0
 3900 0021 00000000 		.4byte	.Ldebug_line0
 3901 0025 02       		.uleb128 0x2
 3902 0026 3D040000 		.4byte	.LASF0
 3903 002a 02       		.byte	0x2
 3904 002b 1B       		.byte	0x1b
 3905 002c 30000000 		.4byte	0x30
 3906 0030 03       		.uleb128 0x3
 3907 0031 01       		.byte	0x1
 3908 0032 06       		.byte	0x6
 3909 0033 A5050000 		.4byte	.LASF2
 3910 0037 02       		.uleb128 0x2
 3911 0038 CB040000 		.4byte	.LASF1
 3912 003c 02       		.byte	0x2
 3913 003d 1D       		.byte	0x1d
 3914 003e 42000000 		.4byte	0x42
 3915 0042 03       		.uleb128 0x3
 3916 0043 01       		.byte	0x1
 3917 0044 08       		.byte	0x8
 3918 0045 48050000 		.4byte	.LASF3
 3919 0049 02       		.uleb128 0x2
ARM GAS  C:\Users\User\AppData\Local\Temp\cctjmLxv.s 			page 87


 3920 004a CF030000 		.4byte	.LASF4
 3921 004e 02       		.byte	0x2
 3922 004f 29       		.byte	0x29
 3923 0050 54000000 		.4byte	0x54
 3924 0054 03       		.uleb128 0x3
 3925 0055 02       		.byte	0x2
 3926 0056 05       		.byte	0x5
 3927 0057 75040000 		.4byte	.LASF5
 3928 005b 02       		.uleb128 0x2
 3929 005c 64010000 		.4byte	.LASF6
 3930 0060 02       		.byte	0x2
 3931 0061 2B       		.byte	0x2b
 3932 0062 66000000 		.4byte	0x66
 3933 0066 03       		.uleb128 0x3
 3934 0067 02       		.byte	0x2
 3935 0068 07       		.byte	0x7
 3936 0069 B1050000 		.4byte	.LASF7
 3937 006d 03       		.uleb128 0x3
 3938 006e 04       		.byte	0x4
 3939 006f 05       		.byte	0x5
 3940 0070 87040000 		.4byte	.LASF8
 3941 0074 03       		.uleb128 0x3
 3942 0075 04       		.byte	0x4
 3943 0076 07       		.byte	0x7
 3944 0077 05050000 		.4byte	.LASF9
 3945 007b 03       		.uleb128 0x3
 3946 007c 08       		.byte	0x8
 3947 007d 05       		.byte	0x5
 3948 007e 95030000 		.4byte	.LASF10
 3949 0082 03       		.uleb128 0x3
 3950 0083 08       		.byte	0x8
 3951 0084 07       		.byte	0x7
 3952 0085 4D010000 		.4byte	.LASF11
 3953 0089 04       		.uleb128 0x4
 3954 008a 04       		.byte	0x4
 3955 008b 05       		.byte	0x5
 3956 008c 696E7400 		.ascii	"int\000"
 3957 0090 03       		.uleb128 0x3
 3958 0091 04       		.byte	0x4
 3959 0092 07       		.byte	0x7
 3960 0093 2F000000 		.4byte	.LASF12
 3961 0097 02       		.uleb128 0x2
 3962 0098 05010000 		.4byte	.LASF13
 3963 009c 03       		.byte	0x3
 3964 009d 14       		.byte	0x14
 3965 009e 25000000 		.4byte	0x25
 3966 00a2 02       		.uleb128 0x2
 3967 00a3 63030000 		.4byte	.LASF14
 3968 00a7 03       		.byte	0x3
 3969 00a8 15       		.byte	0x15
 3970 00a9 37000000 		.4byte	0x37
 3971 00ad 02       		.uleb128 0x2
 3972 00ae 45010000 		.4byte	.LASF15
 3973 00b2 03       		.byte	0x3
 3974 00b3 20       		.byte	0x20
 3975 00b4 49000000 		.4byte	0x49
 3976 00b8 02       		.uleb128 0x2
ARM GAS  C:\Users\User\AppData\Local\Temp\cctjmLxv.s 			page 88


 3977 00b9 51040000 		.4byte	.LASF16
 3978 00bd 03       		.byte	0x3
 3979 00be 21       		.byte	0x21
 3980 00bf 5B000000 		.4byte	0x5b
 3981 00c3 05       		.uleb128 0x5
 3982 00c4 DE050000 		.4byte	.LASF17
 3983 00c8 04       		.byte	0x4
 3984 00c9 3801     		.2byte	0x138
 3985 00cb 42000000 		.4byte	0x42
 3986 00cf 05       		.uleb128 0x5
 3987 00d0 55030000 		.4byte	.LASF18
 3988 00d4 04       		.byte	0x4
 3989 00d5 3901     		.2byte	0x139
 3990 00d7 66000000 		.4byte	0x66
 3991 00db 05       		.uleb128 0x5
 3992 00dc FE030000 		.4byte	.LASF19
 3993 00e0 04       		.byte	0x4
 3994 00e1 3A01     		.2byte	0x13a
 3995 00e3 74000000 		.4byte	0x74
 3996 00e7 03       		.uleb128 0x3
 3997 00e8 04       		.byte	0x4
 3998 00e9 04       		.byte	0x4
 3999 00ea 0C010000 		.4byte	.LASF20
 4000 00ee 03       		.uleb128 0x3
 4001 00ef 08       		.byte	0x8
 4002 00f0 04       		.byte	0x4
 4003 00f1 E4050000 		.4byte	.LASF21
 4004 00f5 03       		.uleb128 0x3
 4005 00f6 01       		.byte	0x1
 4006 00f7 08       		.byte	0x8
 4007 00f8 50030000 		.4byte	.LASF22
 4008 00fc 02       		.uleb128 0x2
 4009 00fd 59020000 		.4byte	.LASF23
 4010 0101 05       		.byte	0x5
 4011 0102 D4       		.byte	0xd4
 4012 0103 90000000 		.4byte	0x90
 4013 0107 03       		.uleb128 0x3
 4014 0108 04       		.byte	0x4
 4015 0109 07       		.byte	0x7
 4016 010a F5040000 		.4byte	.LASF24
 4017 010e 06       		.uleb128 0x6
 4018 010f 04       		.byte	0x4
 4019 0110 07       		.uleb128 0x7
 4020 0111 04       		.byte	0x4
 4021 0112 16010000 		.4byte	0x116
 4022 0116 08       		.uleb128 0x8
 4023 0117 F5000000 		.4byte	0xf5
 4024 011b 07       		.uleb128 0x7
 4025 011c 04       		.byte	0x4
 4026 011d 21010000 		.4byte	0x121
 4027 0121 09       		.uleb128 0x9
 4028 0122 0A       		.uleb128 0xa
 4029 0123 01       		.byte	0x1
 4030 0124 06       		.byte	0x6
 4031 0125 19       		.byte	0x19
 4032 0126 37010000 		.4byte	0x137
 4033 012a 0B       		.uleb128 0xb
ARM GAS  C:\Users\User\AppData\Local\Temp\cctjmLxv.s 			page 89


 4034 012b 3B050000 		.4byte	.LASF25
 4035 012f 26       		.sleb128 38
 4036 0130 0B       		.uleb128 0xb
 4037 0131 17050000 		.4byte	.LASF26
 4038 0135 2A       		.sleb128 42
 4039 0136 00       		.byte	0
 4040 0137 02       		.uleb128 0x2
 4041 0138 5F000000 		.4byte	.LASF27
 4042 013c 06       		.byte	0x6
 4043 013d 1C       		.byte	0x1c
 4044 013e 22010000 		.4byte	0x122
 4045 0142 0A       		.uleb128 0xa
 4046 0143 01       		.byte	0x1
 4047 0144 06       		.byte	0x6
 4048 0145 1E       		.byte	0x1e
 4049 0146 7B010000 		.4byte	0x17b
 4050 014a 0B       		.uleb128 0xb
 4051 014b 86000000 		.4byte	.LASF28
 4052 014f 03       		.sleb128 3
 4053 0150 0B       		.uleb128 0xb
 4054 0151 95000000 		.4byte	.LASF29
 4055 0155 02       		.sleb128 2
 4056 0156 0B       		.uleb128 0xb
 4057 0157 A4000000 		.4byte	.LASF30
 4058 015b 01       		.sleb128 1
 4059 015c 0B       		.uleb128 0xb
 4060 015d B3000000 		.4byte	.LASF31
 4061 0161 06       		.sleb128 6
 4062 0162 0B       		.uleb128 0xb
 4063 0163 C2000000 		.4byte	.LASF32
 4064 0167 00       		.sleb128 0
 4065 0168 0B       		.uleb128 0xb
 4066 0169 D1000000 		.4byte	.LASF33
 4067 016d 05       		.sleb128 5
 4068 016e 0B       		.uleb128 0xb
 4069 016f E0000000 		.4byte	.LASF34
 4070 0173 04       		.sleb128 4
 4071 0174 0B       		.uleb128 0xb
 4072 0175 EF000000 		.4byte	.LASF35
 4073 0179 07       		.sleb128 7
 4074 017a 00       		.byte	0
 4075 017b 02       		.uleb128 0x2
 4076 017c AC030000 		.4byte	.LASF36
 4077 0180 06       		.byte	0x6
 4078 0181 27       		.byte	0x27
 4079 0182 42010000 		.4byte	0x142
 4080 0186 0A       		.uleb128 0xa
 4081 0187 01       		.byte	0x1
 4082 0188 06       		.byte	0x6
 4083 0189 29       		.byte	0x29
 4084 018a BF010000 		.4byte	0x1bf
 4085 018e 0B       		.uleb128 0xb
 4086 018f 83020000 		.4byte	.LASF37
 4087 0193 00       		.sleb128 0
 4088 0194 0B       		.uleb128 0xb
 4089 0195 91020000 		.4byte	.LASF38
 4090 0199 01       		.sleb128 1
ARM GAS  C:\Users\User\AppData\Local\Temp\cctjmLxv.s 			page 90


 4091 019a 0B       		.uleb128 0xb
 4092 019b 9F020000 		.4byte	.LASF39
 4093 019f 02       		.sleb128 2
 4094 01a0 0B       		.uleb128 0xb
 4095 01a1 AD020000 		.4byte	.LASF40
 4096 01a5 03       		.sleb128 3
 4097 01a6 0B       		.uleb128 0xb
 4098 01a7 BB020000 		.4byte	.LASF41
 4099 01ab 04       		.sleb128 4
 4100 01ac 0B       		.uleb128 0xb
 4101 01ad C9020000 		.4byte	.LASF42
 4102 01b1 05       		.sleb128 5
 4103 01b2 0B       		.uleb128 0xb
 4104 01b3 D7020000 		.4byte	.LASF43
 4105 01b7 06       		.sleb128 6
 4106 01b8 0B       		.uleb128 0xb
 4107 01b9 E5020000 		.4byte	.LASF44
 4108 01bd 07       		.sleb128 7
 4109 01be 00       		.byte	0
 4110 01bf 02       		.uleb128 0x2
 4111 01c0 B9030000 		.4byte	.LASF45
 4112 01c4 06       		.byte	0x6
 4113 01c5 32       		.byte	0x32
 4114 01c6 86010000 		.4byte	0x186
 4115 01ca 0C       		.uleb128 0xc
 4116 01cb 30020000 		.4byte	.LASF78
 4117 01cf 01       		.byte	0x1
 4118 01d0 9D01     		.2byte	0x19d
 4119 01d2 01       		.byte	0x1
 4120 01d3 F9010000 		.4byte	0x1f9
 4121 01d7 0D       		.uleb128 0xd
 4122 01d8 707800   		.ascii	"px\000"
 4123 01db 01       		.byte	0x1
 4124 01dc 9D01     		.2byte	0x19d
 4125 01de F9010000 		.4byte	0x1f9
 4126 01e2 0D       		.uleb128 0xd
 4127 01e3 707900   		.ascii	"py\000"
 4128 01e6 01       		.byte	0x1
 4129 01e7 9D01     		.2byte	0x19d
 4130 01e9 F9010000 		.4byte	0x1f9
 4131 01ed 0E       		.uleb128 0xe
 4132 01ee 793000   		.ascii	"y0\000"
 4133 01f1 01       		.byte	0x1
 4134 01f2 9F01     		.2byte	0x19f
 4135 01f4 AD000000 		.4byte	0xad
 4136 01f8 00       		.byte	0
 4137 01f9 07       		.uleb128 0x7
 4138 01fa 04       		.byte	0x4
 4139 01fb AD000000 		.4byte	0xad
 4140 01ff 0F       		.uleb128 0xf
 4141 0200 68040000 		.4byte	.LASF47
 4142 0204 01       		.byte	0x1
 4143 0205 1102     		.2byte	0x211
 4144 0207 01       		.byte	0x1
 4145 0208 4B020000 		.4byte	0x24b
 4146 020c 0D       		.uleb128 0xd
 4147 020d 7800     		.ascii	"x\000"
ARM GAS  C:\Users\User\AppData\Local\Temp\cctjmLxv.s 			page 91


 4148 020f 01       		.byte	0x1
 4149 0210 1102     		.2byte	0x211
 4150 0212 AD000000 		.4byte	0xad
 4151 0216 0D       		.uleb128 0xd
 4152 0217 7900     		.ascii	"y\000"
 4153 0219 01       		.byte	0x1
 4154 021a 1102     		.2byte	0x211
 4155 021c AD000000 		.4byte	0xad
 4156 0220 0D       		.uleb128 0xd
 4157 0221 7700     		.ascii	"w\000"
 4158 0223 01       		.byte	0x1
 4159 0224 1102     		.2byte	0x211
 4160 0226 AD000000 		.4byte	0xad
 4161 022a 0D       		.uleb128 0xd
 4162 022b 6800     		.ascii	"h\000"
 4163 022d 01       		.byte	0x1
 4164 022e 1102     		.2byte	0x211
 4165 0230 AD000000 		.4byte	0xad
 4166 0234 10       		.uleb128 0x10
 4167 0235 B5040000 		.4byte	.LASF46
 4168 0239 01       		.byte	0x1
 4169 023a 1102     		.2byte	0x211
 4170 023c B8000000 		.4byte	0xb8
 4171 0240 0E       		.uleb128 0xe
 4172 0241 6900     		.ascii	"i\000"
 4173 0243 01       		.byte	0x1
 4174 0244 1202     		.2byte	0x212
 4175 0246 AD000000 		.4byte	0xad
 4176 024a 00       		.byte	0
 4177 024b 0F       		.uleb128 0xf
 4178 024c 60050000 		.4byte	.LASF48
 4179 0250 01       		.byte	0x1
 4180 0251 4802     		.2byte	0x248
 4181 0253 01       		.byte	0x1
 4182 0254 BC020000 		.4byte	0x2bc
 4183 0258 0D       		.uleb128 0xd
 4184 0259 7800     		.ascii	"x\000"
 4185 025b 01       		.byte	0x1
 4186 025c 4802     		.2byte	0x248
 4187 025e AD000000 		.4byte	0xad
 4188 0262 0D       		.uleb128 0xd
 4189 0263 7900     		.ascii	"y\000"
 4190 0265 01       		.byte	0x1
 4191 0266 4802     		.2byte	0x248
 4192 0268 AD000000 		.4byte	0xad
 4193 026c 0D       		.uleb128 0xd
 4194 026d 6300     		.ascii	"c\000"
 4195 026f 01       		.byte	0x1
 4196 0270 4802     		.2byte	0x248
 4197 0272 42000000 		.4byte	0x42
 4198 0276 10       		.uleb128 0x10
 4199 0277 B5040000 		.4byte	.LASF46
 4200 027b 01       		.byte	0x1
 4201 027c 4802     		.2byte	0x248
 4202 027e B8000000 		.4byte	0xb8
 4203 0282 0D       		.uleb128 0xd
 4204 0283 626700   		.ascii	"bg\000"
ARM GAS  C:\Users\User\AppData\Local\Temp\cctjmLxv.s 			page 92


 4205 0286 01       		.byte	0x1
 4206 0287 4802     		.2byte	0x248
 4207 0289 B8000000 		.4byte	0xb8
 4208 028d 10       		.uleb128 0x10
 4209 028e E8030000 		.4byte	.LASF49
 4210 0292 01       		.byte	0x1
 4211 0293 4802     		.2byte	0x248
 4212 0295 A2000000 		.4byte	0xa2
 4213 0299 0E       		.uleb128 0xe
 4214 029a 6900     		.ascii	"i\000"
 4215 029c 01       		.byte	0x1
 4216 029d 4F02     		.2byte	0x24f
 4217 029f 97000000 		.4byte	0x97
 4218 02a3 11       		.uleb128 0x11
 4219 02a4 12       		.uleb128 0x12
 4220 02a5 5B050000 		.4byte	.LASF50
 4221 02a9 01       		.byte	0x1
 4222 02aa 5102     		.2byte	0x251
 4223 02ac A2000000 		.4byte	0xa2
 4224 02b0 0E       		.uleb128 0xe
 4225 02b1 6A00     		.ascii	"j\000"
 4226 02b3 01       		.byte	0x1
 4227 02b4 5602     		.2byte	0x256
 4228 02b6 97000000 		.4byte	0x97
 4229 02ba 00       		.byte	0
 4230 02bb 00       		.byte	0
 4231 02bc 0F       		.uleb128 0xf
 4232 02bd 9C040000 		.4byte	.LASF51
 4233 02c1 01       		.byte	0x1
 4234 02c2 6A02     		.2byte	0x26a
 4235 02c4 01       		.byte	0x1
 4236 02c5 D5020000 		.4byte	0x2d5
 4237 02c9 0D       		.uleb128 0xd
 4238 02ca 636800   		.ascii	"ch\000"
 4239 02cd 01       		.byte	0x1
 4240 02ce 6A02     		.2byte	0x26a
 4241 02d0 A2000000 		.4byte	0xa2
 4242 02d4 00       		.byte	0
 4243 02d5 13       		.uleb128 0x13
 4244 02d6 05040000 		.4byte	.LASF124
 4245 02da 01       		.byte	0x1
 4246 02db 9E       		.byte	0x9e
 4247 02dc DB000000 		.4byte	0xdb
 4248 02e0 00000000 		.4byte	.LFB35
 4249 02e4 44000000 		.4byte	.LFE35-.LFB35
 4250 02e8 01       		.uleb128 0x1
 4251 02e9 9C       		.byte	0x9c
 4252 02ea 60030000 		.4byte	0x360
 4253 02ee 14       		.uleb128 0x14
 4254 02ef 62756600 		.ascii	"buf\000"
 4255 02f3 01       		.byte	0x1
 4256 02f4 9E       		.byte	0x9e
 4257 02f5 60030000 		.4byte	0x360
 4258 02f9 00000000 		.4byte	.LLST0
 4259 02fd 15       		.uleb128 0x15
 4260 02fe E8030000 		.4byte	.LASF49
 4261 0302 01       		.byte	0x1
ARM GAS  C:\Users\User\AppData\Local\Temp\cctjmLxv.s 			page 93


 4262 0303 9E       		.byte	0x9e
 4263 0304 B8000000 		.4byte	0xb8
 4264 0308 2C000000 		.4byte	.LLST1
 4265 030c 16       		.uleb128 0x16
 4266 030d 6B030000 		.4byte	.LASF55
 4267 0311 01       		.byte	0x1
 4268 0312 A0       		.byte	0xa0
 4269 0313 DB000000 		.4byte	0xdb
 4270 0317 4D000000 		.4byte	.LLST2
 4271 031b 17       		.uleb128 0x17
 4272 031c 14000000 		.4byte	.LVL3
 4273 0320 2B140000 		.4byte	0x142b
 4274 0324 3B030000 		.4byte	0x33b
 4275 0328 18       		.uleb128 0x18
 4276 0329 01       		.uleb128 0x1
 4277 032a 53       		.byte	0x53
 4278 032b 01       		.uleb128 0x1
 4279 032c 30       		.byte	0x30
 4280 032d 18       		.uleb128 0x18
 4281 032e 01       		.uleb128 0x1
 4282 032f 52       		.byte	0x52
 4283 0330 02       		.uleb128 0x2
 4284 0331 75       		.byte	0x75
 4285 0332 00       		.sleb128 0
 4286 0333 18       		.uleb128 0x18
 4287 0334 01       		.uleb128 0x1
 4288 0335 51       		.byte	0x51
 4289 0336 03       		.uleb128 0x3
 4290 0337 F3       		.byte	0xf3
 4291 0338 01       		.uleb128 0x1
 4292 0339 50       		.byte	0x50
 4293 033a 00       		.byte	0
 4294 033b 19       		.uleb128 0x19
 4295 033c 18000000 		.4byte	.LVL4
 4296 0340 50140000 		.4byte	0x1450
 4297 0344 19       		.uleb128 0x19
 4298 0345 20000000 		.4byte	.LVL5
 4299 0349 50140000 		.4byte	0x1450
 4300 034d 19       		.uleb128 0x19
 4301 034e 32000000 		.4byte	.LVL6
 4302 0352 5C140000 		.4byte	0x145c
 4303 0356 19       		.uleb128 0x19
 4304 0357 3A000000 		.4byte	.LVL8
 4305 035b 68140000 		.4byte	0x1468
 4306 035f 00       		.byte	0
 4307 0360 07       		.uleb128 0x7
 4308 0361 04       		.byte	0x4
 4309 0362 C3000000 		.4byte	0xc3
 4310 0366 1A       		.uleb128 0x1a
 4311 0367 CA010000 		.4byte	0x1ca
 4312 036b 00000000 		.4byte	.LFB54
 4313 036f 5C000000 		.4byte	.LFE54-.LFB54
 4314 0373 01       		.uleb128 0x1
 4315 0374 9C       		.byte	0x9c
 4316 0375 BC030000 		.4byte	0x3bc
 4317 0379 1B       		.uleb128 0x1b
 4318 037a D7010000 		.4byte	0x1d7
ARM GAS  C:\Users\User\AppData\Local\Temp\cctjmLxv.s 			page 94


 4319 037e 01       		.uleb128 0x1
 4320 037f 50       		.byte	0x50
 4321 0380 1B       		.uleb128 0x1b
 4322 0381 E2010000 		.4byte	0x1e2
 4323 0385 01       		.uleb128 0x1
 4324 0386 51       		.byte	0x51
 4325 0387 1C       		.uleb128 0x1c
 4326 0388 ED010000 		.4byte	0x1ed
 4327 038c 78000000 		.4byte	.LLST3
 4328 0390 1D       		.uleb128 0x1d
 4329 0391 24000000 		.4byte	.LBB5
 4330 0395 1A000000 		.4byte	.LBE5-.LBB5
 4331 0399 1E       		.uleb128 0x1e
 4332 039a E2010000 		.4byte	0x1e2
 4333 039e 8B000000 		.4byte	.LLST4
 4334 03a2 1E       		.uleb128 0x1e
 4335 03a3 D7010000 		.4byte	0x1d7
 4336 03a7 9E000000 		.4byte	.LLST5
 4337 03ab 1D       		.uleb128 0x1d
 4338 03ac 24000000 		.4byte	.LBB6
 4339 03b0 1A000000 		.4byte	.LBE6-.LBB6
 4340 03b4 1F       		.uleb128 0x1f
 4341 03b5 ED010000 		.4byte	0x1ed
 4342 03b9 00       		.byte	0
 4343 03ba 00       		.byte	0
 4344 03bb 00       		.byte	0
 4345 03bc 1A       		.uleb128 0x1a
 4346 03bd BC020000 		.4byte	0x2bc
 4347 03c1 00000000 		.4byte	.LFB69
 4348 03c5 18000000 		.4byte	.LFE69-.LFB69
 4349 03c9 01       		.uleb128 0x1
 4350 03ca 9C       		.byte	0x9c
 4351 03cb DC030000 		.4byte	0x3dc
 4352 03cf 1B       		.uleb128 0x1b
 4353 03d0 C9020000 		.4byte	0x2c9
 4354 03d4 06       		.uleb128 0x6
 4355 03d5 FA       		.byte	0xfa
 4356 03d6 C9020000 		.4byte	0x2c9
 4357 03da 9F       		.byte	0x9f
 4358 03db 00       		.byte	0
 4359 03dc 20       		.uleb128 0x20
 4360 03dd 23050000 		.4byte	.LASF52
 4361 03e1 01       		.byte	0x1
 4362 03e2 C5       		.byte	0xc5
 4363 03e3 00000000 		.4byte	.LFB37
 4364 03e7 1C000000 		.4byte	.LFE37-.LFB37
 4365 03eb 01       		.uleb128 0x1
 4366 03ec 9C       		.byte	0x9c
 4367 03ed 0E040000 		.4byte	0x40e
 4368 03f1 21       		.uleb128 0x21
 4369 03f2 10000000 		.4byte	.LVL16
 4370 03f6 74140000 		.4byte	0x1474
 4371 03fa 18       		.uleb128 0x18
 4372 03fb 01       		.uleb128 0x1
 4373 03fc 52       		.byte	0x52
 4374 03fd 03       		.uleb128 0x3
 4375 03fe 0A       		.byte	0xa
ARM GAS  C:\Users\User\AppData\Local\Temp\cctjmLxv.s 			page 95


 4376 03ff 0004     		.2byte	0x400
 4377 0401 18       		.uleb128 0x18
 4378 0402 01       		.uleb128 0x1
 4379 0403 51       		.byte	0x51
 4380 0404 01       		.uleb128 0x1
 4381 0405 30       		.byte	0x30
 4382 0406 18       		.uleb128 0x18
 4383 0407 01       		.uleb128 0x1
 4384 0408 50       		.byte	0x50
 4385 0409 02       		.uleb128 0x2
 4386 040a 74       		.byte	0x74
 4387 040b 01       		.sleb128 1
 4388 040c 00       		.byte	0
 4389 040d 00       		.byte	0
 4390 040e 20       		.uleb128 0x20
 4391 040f 88050000 		.4byte	.LASF53
 4392 0413 01       		.byte	0x1
 4393 0414 CC       		.byte	0xcc
 4394 0415 00000000 		.4byte	.LFB38
 4395 0419 18000000 		.4byte	.LFE38-.LFB38
 4396 041d 01       		.uleb128 0x1
 4397 041e 9C       		.byte	0x9c
 4398 041f 56040000 		.4byte	0x456
 4399 0423 15       		.uleb128 0x15
 4400 0424 A3030000 		.4byte	.LASF54
 4401 0428 01       		.byte	0x1
 4402 0429 CC       		.byte	0xcc
 4403 042a A2000000 		.4byte	0xa2
 4404 042e B1000000 		.4byte	.LLST6
 4405 0432 22       		.uleb128 0x22
 4406 0433 FE040000 		.4byte	.LASF56
 4407 0437 01       		.byte	0x1
 4408 0438 CE       		.byte	0xce
 4409 0439 56040000 		.4byte	0x456
 4410 043d 02       		.uleb128 0x2
 4411 043e 91       		.byte	0x91
 4412 043f 74       		.sleb128 -12
 4413 0440 21       		.uleb128 0x21
 4414 0441 16000000 		.4byte	.LVL19
 4415 0445 D5020000 		.4byte	0x2d5
 4416 0449 18       		.uleb128 0x18
 4417 044a 01       		.uleb128 0x1
 4418 044b 51       		.byte	0x51
 4419 044c 01       		.uleb128 0x1
 4420 044d 33       		.byte	0x33
 4421 044e 18       		.uleb128 0x18
 4422 044f 01       		.uleb128 0x1
 4423 0450 50       		.byte	0x50
 4424 0451 02       		.uleb128 0x2
 4425 0452 91       		.byte	0x91
 4426 0453 74       		.sleb128 -12
 4427 0454 00       		.byte	0
 4428 0455 00       		.byte	0
 4429 0456 23       		.uleb128 0x23
 4430 0457 C3000000 		.4byte	0xc3
 4431 045b 66040000 		.4byte	0x466
 4432 045f 24       		.uleb128 0x24
ARM GAS  C:\Users\User\AppData\Local\Temp\cctjmLxv.s 			page 96


 4433 0460 07010000 		.4byte	0x107
 4434 0464 02       		.byte	0x2
 4435 0465 00       		.byte	0
 4436 0466 20       		.uleb128 0x20
 4437 0467 A6040000 		.4byte	.LASF57
 4438 046b 01       		.byte	0x1
 4439 046c D8       		.byte	0xd8
 4440 046d 00000000 		.4byte	.LFB39
 4441 0471 1A000000 		.4byte	.LFE39-.LFB39
 4442 0475 01       		.uleb128 0x1
 4443 0476 9C       		.byte	0x9c
 4444 0477 AE040000 		.4byte	0x4ae
 4445 047b 15       		.uleb128 0x15
 4446 047c 5C030000 		.4byte	.LASF58
 4447 0480 01       		.byte	0x1
 4448 0481 D8       		.byte	0xd8
 4449 0482 A2000000 		.4byte	0xa2
 4450 0486 DE000000 		.4byte	.LLST7
 4451 048a 22       		.uleb128 0x22
 4452 048b FE040000 		.4byte	.LASF56
 4453 048f 01       		.byte	0x1
 4454 0490 DA       		.byte	0xda
 4455 0491 AE040000 		.4byte	0x4ae
 4456 0495 02       		.uleb128 0x2
 4457 0496 91       		.byte	0x91
 4458 0497 74       		.sleb128 -12
 4459 0498 21       		.uleb128 0x21
 4460 0499 18000000 		.4byte	.LVL22
 4461 049d D5020000 		.4byte	0x2d5
 4462 04a1 18       		.uleb128 0x18
 4463 04a2 01       		.uleb128 0x1
 4464 04a3 51       		.byte	0x51
 4465 04a4 01       		.uleb128 0x1
 4466 04a5 32       		.byte	0x32
 4467 04a6 18       		.uleb128 0x18
 4468 04a7 01       		.uleb128 0x1
 4469 04a8 50       		.byte	0x50
 4470 04a9 02       		.uleb128 0x2
 4471 04aa 91       		.byte	0x91
 4472 04ab 74       		.sleb128 -12
 4473 04ac 00       		.byte	0
 4474 04ad 00       		.byte	0
 4475 04ae 23       		.uleb128 0x23
 4476 04af C3000000 		.4byte	0xc3
 4477 04b3 BE040000 		.4byte	0x4be
 4478 04b7 24       		.uleb128 0x24
 4479 04b8 07010000 		.4byte	0x107
 4480 04bc 01       		.byte	0x1
 4481 04bd 00       		.byte	0
 4482 04be 20       		.uleb128 0x20
 4483 04bf 41030000 		.4byte	.LASF59
 4484 04c3 01       		.byte	0x1
 4485 04c4 E3       		.byte	0xe3
 4486 04c5 00000000 		.4byte	.LFB40
 4487 04c9 2C000000 		.4byte	.LFE40-.LFB40
 4488 04cd 01       		.uleb128 0x1
 4489 04ce 9C       		.byte	0x9c
ARM GAS  C:\Users\User\AppData\Local\Temp\cctjmLxv.s 			page 97


 4490 04cf 39050000 		.4byte	0x539
 4491 04d3 22       		.uleb128 0x22
 4492 04d4 FE040000 		.4byte	.LASF56
 4493 04d8 01       		.byte	0x1
 4494 04d9 E5       		.byte	0xe5
 4495 04da 39050000 		.4byte	0x539
 4496 04de 02       		.uleb128 0x2
 4497 04df 91       		.byte	0x91
 4498 04e0 70       		.sleb128 -16
 4499 04e1 17       		.uleb128 0x17
 4500 04e2 0E000000 		.4byte	.LVL23
 4501 04e6 91140000 		.4byte	0x1491
 4502 04ea 04050000 		.4byte	0x504
 4503 04ee 18       		.uleb128 0x18
 4504 04ef 01       		.uleb128 0x1
 4505 04f0 52       		.byte	0x52
 4506 04f1 02       		.uleb128 0x2
 4507 04f2 74       		.byte	0x74
 4508 04f3 00       		.sleb128 0
 4509 04f4 18       		.uleb128 0x18
 4510 04f5 01       		.uleb128 0x1
 4511 04f6 51       		.byte	0x51
 4512 04f7 05       		.uleb128 0x5
 4513 04f8 03       		.byte	0x3
 4514 04f9 00000000 		.4byte	.LANCHOR2
 4515 04fd 18       		.uleb128 0x18
 4516 04fe 01       		.uleb128 0x1
 4517 04ff 50       		.byte	0x50
 4518 0500 02       		.uleb128 0x2
 4519 0501 7D       		.byte	0x7d
 4520 0502 00       		.sleb128 0
 4521 0503 00       		.byte	0
 4522 0504 17       		.uleb128 0x17
 4523 0505 16000000 		.4byte	.LVL24
 4524 0509 D5020000 		.4byte	0x2d5
 4525 050d 1E050000 		.4byte	0x51e
 4526 0511 18       		.uleb128 0x18
 4527 0512 01       		.uleb128 0x1
 4528 0513 51       		.byte	0x51
 4529 0514 02       		.uleb128 0x2
 4530 0515 74       		.byte	0x74
 4531 0516 00       		.sleb128 0
 4532 0517 18       		.uleb128 0x18
 4533 0518 01       		.uleb128 0x1
 4534 0519 50       		.byte	0x50
 4535 051a 02       		.uleb128 0x2
 4536 051b 7D       		.byte	0x7d
 4537 051c 00       		.sleb128 0
 4538 051d 00       		.byte	0
 4539 051e 21       		.uleb128 0x21
 4540 051f 1E000000 		.4byte	.LVL25
 4541 0523 D5020000 		.4byte	0x2d5
 4542 0527 18       		.uleb128 0x18
 4543 0528 01       		.uleb128 0x1
 4544 0529 51       		.byte	0x51
 4545 052a 03       		.uleb128 0x3
 4546 052b 0A       		.byte	0xa
ARM GAS  C:\Users\User\AppData\Local\Temp\cctjmLxv.s 			page 98


 4547 052c 0104     		.2byte	0x401
 4548 052e 18       		.uleb128 0x18
 4549 052f 01       		.uleb128 0x1
 4550 0530 50       		.byte	0x50
 4551 0531 05       		.uleb128 0x5
 4552 0532 03       		.byte	0x3
 4553 0533 00000000 		.4byte	.LANCHOR1
 4554 0537 00       		.byte	0
 4555 0538 00       		.byte	0
 4556 0539 23       		.uleb128 0x23
 4557 053a C3000000 		.4byte	0xc3
 4558 053e 49050000 		.4byte	0x549
 4559 0542 24       		.uleb128 0x24
 4560 0543 07010000 		.4byte	0x107
 4561 0547 06       		.byte	0x6
 4562 0548 00       		.byte	0
 4563 0549 25       		.uleb128 0x25
 4564 054a CB050000 		.4byte	.LASF60
 4565 054e 01       		.byte	0x1
 4566 054f 3301     		.2byte	0x133
 4567 0551 00000000 		.4byte	.LFB42
 4568 0555 14000000 		.4byte	.LFE42-.LFB42
 4569 0559 01       		.uleb128 0x1
 4570 055a 9C       		.byte	0x9c
 4571 055b 84050000 		.4byte	0x584
 4572 055f 26       		.uleb128 0x26
 4573 0560 FE040000 		.4byte	.LASF56
 4574 0564 01       		.byte	0x1
 4575 0565 3501     		.2byte	0x135
 4576 0567 AE040000 		.4byte	0x4ae
 4577 056b 02       		.uleb128 0x2
 4578 056c 91       		.byte	0x91
 4579 056d 74       		.sleb128 -12
 4580 056e 21       		.uleb128 0x21
 4581 056f 12000000 		.4byte	.LVL26
 4582 0573 D5020000 		.4byte	0x2d5
 4583 0577 18       		.uleb128 0x18
 4584 0578 01       		.uleb128 0x1
 4585 0579 51       		.byte	0x51
 4586 057a 01       		.uleb128 0x1
 4587 057b 32       		.byte	0x32
 4588 057c 18       		.uleb128 0x18
 4589 057d 01       		.uleb128 0x1
 4590 057e 50       		.byte	0x50
 4591 057f 02       		.uleb128 0x2
 4592 0580 91       		.byte	0x91
 4593 0581 74       		.sleb128 -12
 4594 0582 00       		.byte	0
 4595 0583 00       		.byte	0
 4596 0584 25       		.uleb128 0x25
 4597 0585 6D050000 		.4byte	.LASF61
 4598 0589 01       		.byte	0x1
 4599 058a 3C01     		.2byte	0x13c
 4600 058c 00000000 		.4byte	.LFB43
 4601 0590 2A000000 		.4byte	.LFE43-.LFB43
 4602 0594 01       		.uleb128 0x1
 4603 0595 9C       		.byte	0x9c
ARM GAS  C:\Users\User\AppData\Local\Temp\cctjmLxv.s 			page 99


 4604 0596 FF050000 		.4byte	0x5ff
 4605 059a 27       		.uleb128 0x27
 4606 059b DA040000 		.4byte	.LASF62
 4607 059f 01       		.byte	0x1
 4608 05a0 3C01     		.2byte	0x13c
 4609 05a2 BF010000 		.4byte	0x1bf
 4610 05a6 FF000000 		.4byte	.LLST8
 4611 05aa 28       		.uleb128 0x28
 4612 05ab 656E6400 		.ascii	"end\000"
 4613 05af 01       		.byte	0x1
 4614 05b0 3C01     		.2byte	0x13c
 4615 05b2 BF010000 		.4byte	0x1bf
 4616 05b6 2C010000 		.4byte	.LLST9
 4617 05ba 28       		.uleb128 0x28
 4618 05bb 64697200 		.ascii	"dir\000"
 4619 05bf 01       		.byte	0x1
 4620 05c0 3C01     		.2byte	0x13c
 4621 05c2 37010000 		.4byte	0x137
 4622 05c6 59010000 		.4byte	.LLST10
 4623 05ca 27       		.uleb128 0x27
 4624 05cb 73000000 		.4byte	.LASF63
 4625 05cf 01       		.byte	0x1
 4626 05d0 3C01     		.2byte	0x13c
 4627 05d2 7B010000 		.4byte	0x17b
 4628 05d6 7A010000 		.4byte	.LLST11
 4629 05da 26       		.uleb128 0x26
 4630 05db FE040000 		.4byte	.LASF56
 4631 05df 01       		.byte	0x1
 4632 05e0 3E01     		.2byte	0x13e
 4633 05e2 FF050000 		.4byte	0x5ff
 4634 05e6 02       		.uleb128 0x2
 4635 05e7 91       		.byte	0x91
 4636 05e8 64       		.sleb128 -28
 4637 05e9 21       		.uleb128 0x21
 4638 05ea 26000000 		.4byte	.LVL31
 4639 05ee D5020000 		.4byte	0x2d5
 4640 05f2 18       		.uleb128 0x18
 4641 05f3 01       		.uleb128 0x1
 4642 05f4 51       		.byte	0x51
 4643 05f5 01       		.uleb128 0x1
 4644 05f6 39       		.byte	0x39
 4645 05f7 18       		.uleb128 0x18
 4646 05f8 01       		.uleb128 0x1
 4647 05f9 50       		.byte	0x50
 4648 05fa 02       		.uleb128 0x2
 4649 05fb 74       		.byte	0x74
 4650 05fc 00       		.sleb128 0
 4651 05fd 00       		.byte	0
 4652 05fe 00       		.byte	0
 4653 05ff 23       		.uleb128 0x23
 4654 0600 C3000000 		.4byte	0xc3
 4655 0604 0F060000 		.4byte	0x60f
 4656 0608 24       		.uleb128 0x24
 4657 0609 07010000 		.4byte	0x107
 4658 060d 08       		.byte	0x8
 4659 060e 00       		.byte	0
 4660 060f 25       		.uleb128 0x25
ARM GAS  C:\Users\User\AppData\Local\Temp\cctjmLxv.s 			page 100


 4661 0610 7F030000 		.4byte	.LASF64
 4662 0614 01       		.byte	0x1
 4663 0615 5B01     		.2byte	0x15b
 4664 0617 00000000 		.4byte	.LFB44
 4665 061b 40000000 		.4byte	.LFE44-.LFB44
 4666 061f 01       		.uleb128 0x1
 4667 0620 9C       		.byte	0x9c
 4668 0621 44060000 		.4byte	0x644
 4669 0625 29       		.uleb128 0x29
 4670 0626 60020000 		.4byte	.LASF65
 4671 062a 01       		.byte	0x1
 4672 062b 5B01     		.2byte	0x15b
 4673 062d AD000000 		.4byte	0xad
 4674 0631 01       		.uleb128 0x1
 4675 0632 50       		.byte	0x50
 4676 0633 27       		.uleb128 0x27
 4677 0634 25040000 		.4byte	.LASF66
 4678 0638 01       		.byte	0x1
 4679 0639 5B01     		.2byte	0x15b
 4680 063b AD000000 		.4byte	0xad
 4681 063f A7010000 		.4byte	.LLST12
 4682 0643 00       		.byte	0
 4683 0644 20       		.uleb128 0x20
 4684 0645 79000000 		.4byte	.LASF67
 4685 0649 01       		.byte	0x1
 4686 064a 74       		.byte	0x74
 4687 064b 00000000 		.4byte	.LFB34
 4688 064f 34000000 		.4byte	.LFE34-.LFB34
 4689 0653 01       		.uleb128 0x1
 4690 0654 9C       		.byte	0x9c
 4691 0655 CA060000 		.4byte	0x6ca
 4692 0659 15       		.uleb128 0x15
 4693 065a 3C000000 		.4byte	.LASF68
 4694 065e 01       		.byte	0x1
 4695 065f 74       		.byte	0x74
 4696 0660 C3000000 		.4byte	0xc3
 4697 0664 C9010000 		.4byte	.LLST13
 4698 0668 22       		.uleb128 0x22
 4699 0669 FE040000 		.4byte	.LASF56
 4700 066d 01       		.byte	0x1
 4701 066e 79       		.byte	0x79
 4702 066f CA060000 		.4byte	0x6ca
 4703 0673 02       		.uleb128 0x2
 4704 0674 91       		.byte	0x91
 4705 0675 5C       		.sleb128 -36
 4706 0676 17       		.uleb128 0x17
 4707 0677 12000000 		.4byte	.LVL36
 4708 067b 0F060000 		.4byte	0x60f
 4709 067f 90060000 		.4byte	0x690
 4710 0683 18       		.uleb128 0x18
 4711 0684 01       		.uleb128 0x1
 4712 0685 51       		.byte	0x51
 4713 0686 02       		.uleb128 0x2
 4714 0687 08       		.byte	0x8
 4715 0688 40       		.byte	0x40
 4716 0689 18       		.uleb128 0x18
 4717 068a 01       		.uleb128 0x1
ARM GAS  C:\Users\User\AppData\Local\Temp\cctjmLxv.s 			page 101


 4718 068b 50       		.byte	0x50
 4719 068c 02       		.uleb128 0x2
 4720 068d 08       		.byte	0x8
 4721 068e 80       		.byte	0x80
 4722 068f 00       		.byte	0
 4723 0690 17       		.uleb128 0x17
 4724 0691 1E000000 		.4byte	.LVL37
 4725 0695 91140000 		.4byte	0x1491
 4726 0699 B3060000 		.4byte	0x6b3
 4727 069d 18       		.uleb128 0x18
 4728 069e 01       		.uleb128 0x1
 4729 069f 52       		.byte	0x52
 4730 06a0 02       		.uleb128 0x2
 4731 06a1 74       		.byte	0x74
 4732 06a2 00       		.sleb128 0
 4733 06a3 18       		.uleb128 0x18
 4734 06a4 01       		.uleb128 0x1
 4735 06a5 51       		.byte	0x51
 4736 06a6 05       		.uleb128 0x5
 4737 06a7 03       		.byte	0x3
 4738 06a8 07000000 		.4byte	.LANCHOR2+7
 4739 06ac 18       		.uleb128 0x18
 4740 06ad 01       		.uleb128 0x1
 4741 06ae 50       		.byte	0x50
 4742 06af 02       		.uleb128 0x2
 4743 06b0 91       		.byte	0x91
 4744 06b1 5C       		.sleb128 -36
 4745 06b2 00       		.byte	0
 4746 06b3 21       		.uleb128 0x21
 4747 06b4 26000000 		.4byte	.LVL38
 4748 06b8 D5020000 		.4byte	0x2d5
 4749 06bc 18       		.uleb128 0x18
 4750 06bd 01       		.uleb128 0x1
 4751 06be 51       		.byte	0x51
 4752 06bf 02       		.uleb128 0x2
 4753 06c0 74       		.byte	0x74
 4754 06c1 00       		.sleb128 0
 4755 06c2 18       		.uleb128 0x18
 4756 06c3 01       		.uleb128 0x1
 4757 06c4 50       		.byte	0x50
 4758 06c5 02       		.uleb128 0x2
 4759 06c6 91       		.byte	0x91
 4760 06c7 5C       		.sleb128 -36
 4761 06c8 00       		.byte	0
 4762 06c9 00       		.byte	0
 4763 06ca 23       		.uleb128 0x23
 4764 06cb C3000000 		.4byte	0xc3
 4765 06cf DA060000 		.4byte	0x6da
 4766 06d3 24       		.uleb128 0x24
 4767 06d4 07010000 		.4byte	0x107
 4768 06d8 19       		.byte	0x19
 4769 06d9 00       		.byte	0
 4770 06da 2A       		.uleb128 0x2a
 4771 06db C5030000 		.4byte	.LASF69
 4772 06df 01       		.byte	0x1
 4773 06e0 6901     		.2byte	0x169
 4774 06e2 AD000000 		.4byte	0xad
ARM GAS  C:\Users\User\AppData\Local\Temp\cctjmLxv.s 			page 102


 4775 06e6 00000000 		.4byte	.LFB45
 4776 06ea 0C000000 		.4byte	.LFE45-.LFB45
 4777 06ee 01       		.uleb128 0x1
 4778 06ef 9C       		.byte	0x9c
 4779 06f0 2A       		.uleb128 0x2a
 4780 06f1 46040000 		.4byte	.LASF70
 4781 06f5 01       		.byte	0x1
 4782 06f6 6D01     		.2byte	0x16d
 4783 06f8 AD000000 		.4byte	0xad
 4784 06fc 00000000 		.4byte	.LFB46
 4785 0700 0C000000 		.4byte	.LFE46-.LFB46
 4786 0704 01       		.uleb128 0x1
 4787 0705 9C       		.byte	0x9c
 4788 0706 2A       		.uleb128 0x2a
 4789 0707 22000000 		.4byte	.LASF71
 4790 070b 01       		.byte	0x1
 4791 070c 7101     		.2byte	0x171
 4792 070e A2000000 		.4byte	0xa2
 4793 0712 00000000 		.4byte	.LFB47
 4794 0716 0C000000 		.4byte	.LFE47-.LFB47
 4795 071a 01       		.uleb128 0x1
 4796 071b 9C       		.byte	0x9c
 4797 071c 25       		.uleb128 0x25
 4798 071d 1E060000 		.4byte	.LASF72
 4799 0721 01       		.byte	0x1
 4800 0722 7501     		.2byte	0x175
 4801 0724 00000000 		.4byte	.LFB48
 4802 0728 0C000000 		.4byte	.LFE48-.LFB48
 4803 072c 01       		.uleb128 0x1
 4804 072d 9C       		.byte	0x9c
 4805 072e 4B070000 		.4byte	0x74b
 4806 0732 2B       		.uleb128 0x2b
 4807 0733 7800     		.ascii	"x\000"
 4808 0735 01       		.byte	0x1
 4809 0736 7501     		.2byte	0x175
 4810 0738 AD000000 		.4byte	0xad
 4811 073c 01       		.uleb128 0x1
 4812 073d 50       		.byte	0x50
 4813 073e 2B       		.uleb128 0x2b
 4814 073f 7900     		.ascii	"y\000"
 4815 0741 01       		.byte	0x1
 4816 0742 7501     		.2byte	0x175
 4817 0744 AD000000 		.4byte	0xad
 4818 0748 01       		.uleb128 0x1
 4819 0749 51       		.byte	0x51
 4820 074a 00       		.byte	0
 4821 074b 25       		.uleb128 0x25
 4822 074c BB040000 		.4byte	.LASF73
 4823 0750 01       		.byte	0x1
 4824 0751 7A01     		.2byte	0x17a
 4825 0753 00000000 		.4byte	.LFB49
 4826 0757 14000000 		.4byte	.LFE49-.LFB49
 4827 075b 01       		.uleb128 0x1
 4828 075c 9C       		.byte	0x9c
 4829 075d 70070000 		.4byte	0x770
 4830 0761 29       		.uleb128 0x29
 4831 0762 E8030000 		.4byte	.LASF49
ARM GAS  C:\Users\User\AppData\Local\Temp\cctjmLxv.s 			page 103


 4832 0766 01       		.byte	0x1
 4833 0767 7A01     		.2byte	0x17a
 4834 0769 A2000000 		.4byte	0xa2
 4835 076d 01       		.uleb128 0x1
 4836 076e 50       		.byte	0x50
 4837 076f 00       		.byte	0
 4838 0770 25       		.uleb128 0x25
 4839 0771 2C040000 		.4byte	.LASF74
 4840 0775 01       		.byte	0x1
 4841 0776 7E01     		.2byte	0x17e
 4842 0778 00000000 		.4byte	.LFB50
 4843 077c 0C000000 		.4byte	.LFE50-.LFB50
 4844 0780 01       		.uleb128 0x1
 4845 0781 9C       		.byte	0x9c
 4846 0782 95070000 		.4byte	0x795
 4847 0786 29       		.uleb128 0x29
 4848 0787 B5040000 		.4byte	.LASF46
 4849 078b 01       		.byte	0x1
 4850 078c 7E01     		.2byte	0x17e
 4851 078e B8000000 		.4byte	0xb8
 4852 0792 01       		.uleb128 0x1
 4853 0793 50       		.byte	0x50
 4854 0794 00       		.byte	0
 4855 0795 25       		.uleb128 0x25
 4856 0796 5A040000 		.4byte	.LASF75
 4857 079a 01       		.byte	0x1
 4858 079b 8401     		.2byte	0x184
 4859 079d 00000000 		.4byte	.LFB51
 4860 07a1 0C000000 		.4byte	.LFE51-.LFB51
 4861 07a5 01       		.uleb128 0x1
 4862 07a6 9C       		.byte	0x9c
 4863 07a7 BA070000 		.4byte	0x7ba
 4864 07ab 29       		.uleb128 0x29
 4865 07ac B5040000 		.4byte	.LASF46
 4866 07b0 01       		.byte	0x1
 4867 07b1 8401     		.2byte	0x184
 4868 07b3 B8000000 		.4byte	0xb8
 4869 07b7 01       		.uleb128 0x1
 4870 07b8 50       		.byte	0x50
 4871 07b9 00       		.byte	0
 4872 07ba 25       		.uleb128 0x25
 4873 07bb 2C060000 		.4byte	.LASF76
 4874 07bf 01       		.byte	0x1
 4875 07c0 8801     		.2byte	0x188
 4876 07c2 00000000 		.4byte	.LFB52
 4877 07c6 0C000000 		.4byte	.LFE52-.LFB52
 4878 07ca 01       		.uleb128 0x1
 4879 07cb 9C       		.byte	0x9c
 4880 07cc DD070000 		.4byte	0x7dd
 4881 07d0 2B       		.uleb128 0x2b
 4882 07d1 7700     		.ascii	"w\000"
 4883 07d3 01       		.byte	0x1
 4884 07d4 8801     		.2byte	0x188
 4885 07d6 C3000000 		.4byte	0xc3
 4886 07da 01       		.uleb128 0x1
 4887 07db 50       		.byte	0x50
 4888 07dc 00       		.byte	0
ARM GAS  C:\Users\User\AppData\Local\Temp\cctjmLxv.s 			page 104


 4889 07dd 25       		.uleb128 0x25
 4890 07de 44000000 		.4byte	.LASF77
 4891 07e2 01       		.byte	0x1
 4892 07e3 8C01     		.2byte	0x18c
 4893 07e5 00000000 		.4byte	.LFB53
 4894 07e9 38000000 		.4byte	.LFE53-.LFB53
 4895 07ed 01       		.uleb128 0x1
 4896 07ee 9C       		.byte	0x9c
 4897 07ef 02080000 		.4byte	0x802
 4898 07f3 28       		.uleb128 0x28
 4899 07f4 7800     		.ascii	"x\000"
 4900 07f6 01       		.byte	0x1
 4901 07f7 8C01     		.2byte	0x18c
 4902 07f9 A2000000 		.4byte	0xa2
 4903 07fd F9010000 		.4byte	.LLST14
 4904 0801 00       		.byte	0
 4905 0802 2C       		.uleb128 0x2c
 4906 0803 72020000 		.4byte	.LASF79
 4907 0807 01       		.byte	0x1
 4908 0808 B2       		.byte	0xb2
 4909 0809 01       		.byte	0x1
 4910 080a 2C080000 		.4byte	0x82c
 4911 080e 2D       		.uleb128 0x2d
 4912 080f 7800     		.ascii	"x\000"
 4913 0811 01       		.byte	0x1
 4914 0812 B2       		.byte	0xb2
 4915 0813 AD000000 		.4byte	0xad
 4916 0817 2D       		.uleb128 0x2d
 4917 0818 7900     		.ascii	"y\000"
 4918 081a 01       		.byte	0x1
 4919 081b B2       		.byte	0xb2
 4920 081c AD000000 		.4byte	0xad
 4921 0820 2E       		.uleb128 0x2e
 4922 0821 B5040000 		.4byte	.LASF46
 4923 0825 01       		.byte	0x1
 4924 0826 B2       		.byte	0xb2
 4925 0827 B8000000 		.4byte	0xb8
 4926 082b 00       		.byte	0
 4927 082c 25       		.uleb128 0x25
 4928 082d 00000000 		.4byte	.LASF80
 4929 0831 01       		.byte	0x1
 4930 0832 B101     		.2byte	0x1b1
 4931 0834 00000000 		.4byte	.LFB55
 4932 0838 B8000000 		.4byte	.LFE55-.LFB55
 4933 083c 01       		.uleb128 0x1
 4934 083d 9C       		.byte	0x9c
 4935 083e B5080000 		.4byte	0x8b5
 4936 0842 28       		.uleb128 0x28
 4937 0843 7800     		.ascii	"x\000"
 4938 0845 01       		.byte	0x1
 4939 0846 B101     		.2byte	0x1b1
 4940 0848 AD000000 		.4byte	0xad
 4941 084c 1A020000 		.4byte	.LLST15
 4942 0850 28       		.uleb128 0x28
 4943 0851 7900     		.ascii	"y\000"
 4944 0853 01       		.byte	0x1
 4945 0854 B101     		.2byte	0x1b1
ARM GAS  C:\Users\User\AppData\Local\Temp\cctjmLxv.s 			page 105


 4946 0856 AD000000 		.4byte	0xad
 4947 085a 51020000 		.4byte	.LLST16
 4948 085e 27       		.uleb128 0x27
 4949 085f B5040000 		.4byte	.LASF46
 4950 0863 01       		.byte	0x1
 4951 0864 B101     		.2byte	0x1b1
 4952 0866 B8000000 		.4byte	0xb8
 4953 086a 7C020000 		.4byte	.LLST17
 4954 086e 2F       		.uleb128 0x2f
 4955 086f 02080000 		.4byte	0x802
 4956 0873 38000000 		.4byte	.LBB9
 4957 0877 76000000 		.4byte	.LBE9-.LBB9
 4958 087b 01       		.byte	0x1
 4959 087c B801     		.2byte	0x1b8
 4960 087e 9E080000 		.4byte	0x89e
 4961 0882 1E       		.uleb128 0x1e
 4962 0883 20080000 		.4byte	0x820
 4963 0887 9D020000 		.4byte	.LLST18
 4964 088b 1E       		.uleb128 0x1e
 4965 088c 17080000 		.4byte	0x817
 4966 0890 BB020000 		.4byte	.LLST19
 4967 0894 1E       		.uleb128 0x1e
 4968 0895 0E080000 		.4byte	0x80e
 4969 0899 29030000 		.4byte	.LLST20
 4970 089d 00       		.byte	0
 4971 089e 21       		.uleb128 0x21
 4972 089f 34000000 		.4byte	.LVL50
 4973 08a3 CA010000 		.4byte	0x1ca
 4974 08a7 18       		.uleb128 0x18
 4975 08a8 01       		.uleb128 0x1
 4976 08a9 51       		.byte	0x51
 4977 08aa 02       		.uleb128 0x2
 4978 08ab 75       		.byte	0x75
 4979 08ac 00       		.sleb128 0
 4980 08ad 18       		.uleb128 0x18
 4981 08ae 01       		.uleb128 0x1
 4982 08af 50       		.byte	0x50
 4983 08b0 02       		.uleb128 0x2
 4984 08b1 76       		.byte	0x76
 4985 08b2 00       		.sleb128 0
 4986 08b3 00       		.byte	0
 4987 08b4 00       		.byte	0
 4988 08b5 0C       		.uleb128 0xc
 4989 08b6 54000000 		.4byte	.LASF81
 4990 08ba 01       		.byte	0x1
 4991 08bb BC01     		.2byte	0x1bc
 4992 08bd 01       		.byte	0x1
 4993 08be 07090000 		.4byte	0x907
 4994 08c2 0D       		.uleb128 0xd
 4995 08c3 783100   		.ascii	"x1\000"
 4996 08c6 01       		.byte	0x1
 4997 08c7 BC01     		.2byte	0x1bc
 4998 08c9 AD000000 		.4byte	0xad
 4999 08cd 0D       		.uleb128 0xd
 5000 08ce 793100   		.ascii	"y1\000"
 5001 08d1 01       		.byte	0x1
 5002 08d2 BC01     		.2byte	0x1bc
ARM GAS  C:\Users\User\AppData\Local\Temp\cctjmLxv.s 			page 106


 5003 08d4 AD000000 		.4byte	0xad
 5004 08d8 0D       		.uleb128 0xd
 5005 08d9 783200   		.ascii	"x2\000"
 5006 08dc 01       		.byte	0x1
 5007 08dd BC01     		.2byte	0x1bc
 5008 08df AD000000 		.4byte	0xad
 5009 08e3 0D       		.uleb128 0xd
 5010 08e4 793200   		.ascii	"y2\000"
 5011 08e7 01       		.byte	0x1
 5012 08e8 BC01     		.2byte	0x1bc
 5013 08ea AD000000 		.4byte	0xad
 5014 08ee 10       		.uleb128 0x10
 5015 08ef B5040000 		.4byte	.LASF46
 5016 08f3 01       		.byte	0x1
 5017 08f4 BC01     		.2byte	0x1bc
 5018 08f6 B8000000 		.4byte	0xb8
 5019 08fa 11       		.uleb128 0x11
 5020 08fb 0E       		.uleb128 0xe
 5021 08fc 7400     		.ascii	"t\000"
 5022 08fe 01       		.byte	0x1
 5023 08ff D601     		.2byte	0x1d6
 5024 0901 AD000000 		.4byte	0xad
 5025 0905 00       		.byte	0
 5026 0906 00       		.byte	0
 5027 0907 2C       		.uleb128 0x2c
 5028 0908 15000000 		.4byte	.LASF82
 5029 090c 01       		.byte	0x1
 5030 090d F6       		.byte	0xf6
 5031 090e 01       		.byte	0x1
 5032 090f C8090000 		.4byte	0x9c8
 5033 0913 2D       		.uleb128 0x2d
 5034 0914 783100   		.ascii	"x1\000"
 5035 0917 01       		.byte	0x1
 5036 0918 F6       		.byte	0xf6
 5037 0919 AD000000 		.4byte	0xad
 5038 091d 2D       		.uleb128 0x2d
 5039 091e 793100   		.ascii	"y1\000"
 5040 0921 01       		.byte	0x1
 5041 0922 F6       		.byte	0xf6
 5042 0923 AD000000 		.4byte	0xad
 5043 0927 2D       		.uleb128 0x2d
 5044 0928 783200   		.ascii	"x2\000"
 5045 092b 01       		.byte	0x1
 5046 092c F6       		.byte	0xf6
 5047 092d AD000000 		.4byte	0xad
 5048 0931 2D       		.uleb128 0x2d
 5049 0932 793200   		.ascii	"y2\000"
 5050 0935 01       		.byte	0x1
 5051 0936 F6       		.byte	0xf6
 5052 0937 AD000000 		.4byte	0xad
 5053 093b 2E       		.uleb128 0x2e
 5054 093c B5040000 		.4byte	.LASF46
 5055 0940 01       		.byte	0x1
 5056 0941 F6       		.byte	0xf6
 5057 0942 B8000000 		.4byte	0xb8
 5058 0946 30       		.uleb128 0x30
 5059 0947 95090000 		.4byte	0x995
ARM GAS  C:\Users\User\AppData\Local\Temp\cctjmLxv.s 			page 107


 5060 094b 31       		.uleb128 0x31
 5061 094c 12010000 		.4byte	.LASF83
 5062 0950 01       		.byte	0x1
 5063 0951 FA       		.byte	0xfa
 5064 0952 C8090000 		.4byte	0x9c8
 5065 0956 31       		.uleb128 0x31
 5066 0957 36050000 		.4byte	.LASF84
 5067 095b 01       		.byte	0x1
 5068 095c FB       		.byte	0xfb
 5069 095d C8090000 		.4byte	0x9c8
 5070 0961 32       		.uleb128 0x32
 5071 0962 70747200 		.ascii	"ptr\000"
 5072 0966 01       		.byte	0x1
 5073 0967 FC       		.byte	0xfc
 5074 0968 C8090000 		.4byte	0x9c8
 5075 096c 11       		.uleb128 0x11
 5076 096d 12       		.uleb128 0x12
 5077 096e 17040000 		.4byte	.LASF85
 5078 0972 01       		.byte	0x1
 5079 0973 0001     		.2byte	0x100
 5080 0975 A2000000 		.4byte	0xa2
 5081 0979 11       		.uleb128 0x11
 5082 097a 12       		.uleb128 0x12
 5083 097b D5040000 		.4byte	.LASF86
 5084 097f 01       		.byte	0x1
 5085 0980 0301     		.2byte	0x103
 5086 0982 A2000000 		.4byte	0xa2
 5087 0986 12       		.uleb128 0x12
 5088 0987 56050000 		.4byte	.LASF87
 5089 098b 01       		.byte	0x1
 5090 098c 0501     		.2byte	0x105
 5091 098e A2000000 		.4byte	0xa2
 5092 0992 00       		.byte	0
 5093 0993 00       		.byte	0
 5094 0994 00       		.byte	0
 5095 0995 11       		.uleb128 0x11
 5096 0996 12       		.uleb128 0x12
 5097 0997 12010000 		.4byte	.LASF83
 5098 099b 01       		.byte	0x1
 5099 099c 2101     		.2byte	0x121
 5100 099e C8090000 		.4byte	0x9c8
 5101 09a2 12       		.uleb128 0x12
 5102 09a3 36050000 		.4byte	.LASF84
 5103 09a7 01       		.byte	0x1
 5104 09a8 2201     		.2byte	0x122
 5105 09aa C8090000 		.4byte	0x9c8
 5106 09ae 12       		.uleb128 0x12
 5107 09af 7F040000 		.4byte	.LASF88
 5108 09b3 01       		.byte	0x1
 5109 09b4 2301     		.2byte	0x123
 5110 09b6 A2000000 		.4byte	0xa2
 5111 09ba 0E       		.uleb128 0xe
 5112 09bb 70747200 		.ascii	"ptr\000"
 5113 09bf 01       		.byte	0x1
 5114 09c0 2501     		.2byte	0x125
 5115 09c2 C8090000 		.4byte	0x9c8
 5116 09c6 00       		.byte	0
ARM GAS  C:\Users\User\AppData\Local\Temp\cctjmLxv.s 			page 108


 5117 09c7 00       		.byte	0
 5118 09c8 07       		.uleb128 0x7
 5119 09c9 04       		.byte	0x4
 5120 09ca A2000000 		.4byte	0xa2
 5121 09ce 25       		.uleb128 0x25
 5122 09cf 34030000 		.4byte	.LASF89
 5123 09d3 01       		.byte	0x1
 5124 09d4 DE01     		.2byte	0x1de
 5125 09d6 00000000 		.4byte	.LFB57
 5126 09da F4020000 		.4byte	.LFE57-.LFB57
 5127 09de 01       		.uleb128 0x1
 5128 09df 9C       		.byte	0x9c
 5129 09e0 D20B0000 		.4byte	0xbd2
 5130 09e4 28       		.uleb128 0x28
 5131 09e5 783000   		.ascii	"x0\000"
 5132 09e8 01       		.byte	0x1
 5133 09e9 DE01     		.2byte	0x1de
 5134 09eb AD000000 		.4byte	0xad
 5135 09ef 76030000 		.4byte	.LLST21
 5136 09f3 28       		.uleb128 0x28
 5137 09f4 793000   		.ascii	"y0\000"
 5138 09f7 01       		.byte	0x1
 5139 09f8 DE01     		.2byte	0x1de
 5140 09fa AD000000 		.4byte	0xad
 5141 09fe DF030000 		.4byte	.LLST22
 5142 0a02 28       		.uleb128 0x28
 5143 0a03 783100   		.ascii	"x1\000"
 5144 0a06 01       		.byte	0x1
 5145 0a07 DE01     		.2byte	0x1de
 5146 0a09 AD000000 		.4byte	0xad
 5147 0a0d 48040000 		.4byte	.LLST23
 5148 0a11 28       		.uleb128 0x28
 5149 0a12 793100   		.ascii	"y1\000"
 5150 0a15 01       		.byte	0x1
 5151 0a16 DE01     		.2byte	0x1de
 5152 0a18 AD000000 		.4byte	0xad
 5153 0a1c 82040000 		.4byte	.LLST24
 5154 0a20 27       		.uleb128 0x27
 5155 0a21 B5040000 		.4byte	.LASF46
 5156 0a25 01       		.byte	0x1
 5157 0a26 DE01     		.2byte	0x1de
 5158 0a28 B8000000 		.4byte	0xb8
 5159 0a2c F8040000 		.4byte	.LLST25
 5160 0a30 0E       		.uleb128 0xe
 5161 0a31 7400     		.ascii	"t\000"
 5162 0a33 01       		.byte	0x1
 5163 0a34 E601     		.2byte	0x1e6
 5164 0a36 AD000000 		.4byte	0xad
 5165 0a3a 12       		.uleb128 0x12
 5166 0a3b 8F030000 		.4byte	.LASF90
 5167 0a3f 01       		.byte	0x1
 5168 0a40 E801     		.2byte	0x1e8
 5169 0a42 AD000000 		.4byte	0xad
 5170 0a46 33       		.uleb128 0x33
 5171 0a47 647800   		.ascii	"dx\000"
 5172 0a4a 01       		.byte	0x1
 5173 0a4b F101     		.2byte	0x1f1
ARM GAS  C:\Users\User\AppData\Local\Temp\cctjmLxv.s 			page 109


 5174 0a4d AD000000 		.4byte	0xad
 5175 0a51 24050000 		.4byte	.LLST26
 5176 0a55 33       		.uleb128 0x33
 5177 0a56 647900   		.ascii	"dy\000"
 5178 0a59 01       		.byte	0x1
 5179 0a5a F101     		.2byte	0x1f1
 5180 0a5c AD000000 		.4byte	0xad
 5181 0a60 38050000 		.4byte	.LLST27
 5182 0a64 33       		.uleb128 0x33
 5183 0a65 65727200 		.ascii	"err\000"
 5184 0a69 01       		.byte	0x1
 5185 0a6a F401     		.2byte	0x1f4
 5186 0a6c AD000000 		.4byte	0xad
 5187 0a70 4C050000 		.4byte	.LLST28
 5188 0a74 34       		.uleb128 0x34
 5189 0a75 EA040000 		.4byte	.LASF91
 5190 0a79 01       		.byte	0x1
 5191 0a7a F501     		.2byte	0x1f5
 5192 0a7c AD000000 		.4byte	0xad
 5193 0a80 80050000 		.4byte	.LLST29
 5194 0a84 35       		.uleb128 0x35
 5195 0a85 B5080000 		.4byte	0x8b5
 5196 0a89 2A000000 		.4byte	.LBB20
 5197 0a8d 00000000 		.4byte	.Ldebug_ranges0+0
 5198 0a91 01       		.byte	0x1
 5199 0a92 E201     		.2byte	0x1e2
 5200 0a94 BF0B0000 		.4byte	0xbbf
 5201 0a98 1E       		.uleb128 0x1e
 5202 0a99 EE080000 		.4byte	0x8ee
 5203 0a9d 94050000 		.4byte	.LLST30
 5204 0aa1 1E       		.uleb128 0x1e
 5205 0aa2 E3080000 		.4byte	0x8e3
 5206 0aa6 B4050000 		.4byte	.LLST31
 5207 0aaa 1E       		.uleb128 0x1e
 5208 0aab D8080000 		.4byte	0x8d8
 5209 0aaf D4050000 		.4byte	.LLST32
 5210 0ab3 1E       		.uleb128 0x1e
 5211 0ab4 CD080000 		.4byte	0x8cd
 5212 0ab8 23060000 		.4byte	.LLST33
 5213 0abc 1E       		.uleb128 0x1e
 5214 0abd C2080000 		.4byte	0x8c2
 5215 0ac1 43060000 		.4byte	.LLST34
 5216 0ac5 36       		.uleb128 0x36
 5217 0ac6 02010000 		.4byte	.LBB22
 5218 0aca 12000000 		.4byte	.LBE22-.LBB22
 5219 0ace DC0A0000 		.4byte	0xadc
 5220 0ad2 1C       		.uleb128 0x1c
 5221 0ad3 FB080000 		.4byte	0x8fb
 5222 0ad7 DA060000 		.4byte	.LLST35
 5223 0adb 00       		.byte	0
 5224 0adc 35       		.uleb128 0x35
 5225 0add 07090000 		.4byte	0x907
 5226 0ae1 14010000 		.4byte	.LBB23
 5227 0ae5 18000000 		.4byte	.Ldebug_ranges0+0x18
 5228 0ae9 01       		.byte	0x1
 5229 0aea DA01     		.2byte	0x1da
 5230 0aec 8E0B0000 		.4byte	0xb8e
ARM GAS  C:\Users\User\AppData\Local\Temp\cctjmLxv.s 			page 110


 5231 0af0 1E       		.uleb128 0x1e
 5232 0af1 3B090000 		.4byte	0x93b
 5233 0af5 F9060000 		.4byte	.LLST36
 5234 0af9 1E       		.uleb128 0x1e
 5235 0afa 31090000 		.4byte	0x931
 5236 0afe 19070000 		.4byte	.LLST37
 5237 0b02 1E       		.uleb128 0x1e
 5238 0b03 27090000 		.4byte	0x927
 5239 0b07 4F070000 		.4byte	.LLST38
 5240 0b0b 1E       		.uleb128 0x1e
 5241 0b0c 1D090000 		.4byte	0x91d
 5242 0b10 63070000 		.4byte	.LLST39
 5243 0b14 1E       		.uleb128 0x1e
 5244 0b15 13090000 		.4byte	0x913
 5245 0b19 A5070000 		.4byte	.LLST40
 5246 0b1d 37       		.uleb128 0x37
 5247 0b1e 38000000 		.4byte	.Ldebug_ranges0+0x38
 5248 0b22 5F0B0000 		.4byte	0xb5f
 5249 0b26 1C       		.uleb128 0x1c
 5250 0b27 4B090000 		.4byte	0x94b
 5251 0b2b C5070000 		.4byte	.LLST41
 5252 0b2f 1C       		.uleb128 0x1c
 5253 0b30 56090000 		.4byte	0x956
 5254 0b34 E3070000 		.4byte	.LLST42
 5255 0b38 1C       		.uleb128 0x1c
 5256 0b39 61090000 		.4byte	0x961
 5257 0b3d 01080000 		.4byte	.LLST43
 5258 0b41 38       		.uleb128 0x38
 5259 0b42 50000000 		.4byte	.Ldebug_ranges0+0x50
 5260 0b46 1F       		.uleb128 0x1f
 5261 0b47 6D090000 		.4byte	0x96d
 5262 0b4b 38       		.uleb128 0x38
 5263 0b4c 80000000 		.4byte	.Ldebug_ranges0+0x80
 5264 0b50 39       		.uleb128 0x39
 5265 0b51 7A090000 		.4byte	0x97a
 5266 0b55 01       		.uleb128 0x1
 5267 0b56 52       		.byte	0x52
 5268 0b57 1F       		.uleb128 0x1f
 5269 0b58 86090000 		.4byte	0x986
 5270 0b5c 00       		.byte	0
 5271 0b5d 00       		.byte	0
 5272 0b5e 00       		.byte	0
 5273 0b5f 1D       		.uleb128 0x1d
 5274 0b60 DC010000 		.4byte	.LBB35
 5275 0b64 48000000 		.4byte	.LBE35-.LBB35
 5276 0b68 1C       		.uleb128 0x1c
 5277 0b69 96090000 		.4byte	0x996
 5278 0b6d 2A080000 		.4byte	.LLST44
 5279 0b71 1C       		.uleb128 0x1c
 5280 0b72 A2090000 		.4byte	0x9a2
 5281 0b76 66080000 		.4byte	.LLST45
 5282 0b7a 1C       		.uleb128 0x1c
 5283 0b7b AE090000 		.4byte	0x9ae
 5284 0b7f 79080000 		.4byte	.LLST46
 5285 0b83 1C       		.uleb128 0x1c
 5286 0b84 BA090000 		.4byte	0x9ba
 5287 0b88 8C080000 		.4byte	.LLST47
ARM GAS  C:\Users\User\AppData\Local\Temp\cctjmLxv.s 			page 111


 5288 0b8c 00       		.byte	0
 5289 0b8d 00       		.byte	0
 5290 0b8e 17       		.uleb128 0x17
 5291 0b8f C0000000 		.4byte	.LVL76
 5292 0b93 CA010000 		.4byte	0x1ca
 5293 0b97 A80B0000 		.4byte	0xba8
 5294 0b9b 18       		.uleb128 0x18
 5295 0b9c 01       		.uleb128 0x1
 5296 0b9d 51       		.byte	0x51
 5297 0b9e 02       		.uleb128 0x2
 5298 0b9f 77       		.byte	0x77
 5299 0ba0 00       		.sleb128 0
 5300 0ba1 18       		.uleb128 0x18
 5301 0ba2 01       		.uleb128 0x1
 5302 0ba3 50       		.byte	0x50
 5303 0ba4 02       		.uleb128 0x2
 5304 0ba5 77       		.byte	0x77
 5305 0ba6 7E       		.sleb128 -2
 5306 0ba7 00       		.byte	0
 5307 0ba8 21       		.uleb128 0x21
 5308 0ba9 CE000000 		.4byte	.LVL78
 5309 0bad CA010000 		.4byte	0x1ca
 5310 0bb1 18       		.uleb128 0x18
 5311 0bb2 01       		.uleb128 0x1
 5312 0bb3 51       		.byte	0x51
 5313 0bb4 02       		.uleb128 0x2
 5314 0bb5 74       		.byte	0x74
 5315 0bb6 00       		.sleb128 0
 5316 0bb7 18       		.uleb128 0x18
 5317 0bb8 01       		.uleb128 0x1
 5318 0bb9 50       		.byte	0x50
 5319 0bba 02       		.uleb128 0x2
 5320 0bbb 75       		.byte	0x75
 5321 0bbc 00       		.sleb128 0
 5322 0bbd 00       		.byte	0
 5323 0bbe 00       		.byte	0
 5324 0bbf 21       		.uleb128 0x21
 5325 0bc0 9A020000 		.4byte	.LVL120
 5326 0bc4 2C080000 		.4byte	0x82c
 5327 0bc8 18       		.uleb128 0x18
 5328 0bc9 01       		.uleb128 0x1
 5329 0bca 52       		.byte	0x52
 5330 0bcb 04       		.uleb128 0x4
 5331 0bcc 91       		.byte	0x91
 5332 0bcd 4C       		.sleb128 -52
 5333 0bce 94       		.byte	0x94
 5334 0bcf 02       		.byte	0x2
 5335 0bd0 00       		.byte	0
 5336 0bd1 00       		.byte	0
 5337 0bd2 25       		.uleb128 0x25
 5338 0bd3 72030000 		.4byte	.LASF92
 5339 0bd7 01       		.byte	0x1
 5340 0bd8 0902     		.2byte	0x209
 5341 0bda 00000000 		.4byte	.LFB58
 5342 0bde 5A000000 		.4byte	.LFE58-.LFB58
 5343 0be2 01       		.uleb128 0x1
 5344 0be3 9C       		.byte	0x9c
ARM GAS  C:\Users\User\AppData\Local\Temp\cctjmLxv.s 			page 112


 5345 0be4 E90C0000 		.4byte	0xce9
 5346 0be8 28       		.uleb128 0x28
 5347 0be9 7800     		.ascii	"x\000"
 5348 0beb 01       		.byte	0x1
 5349 0bec 0902     		.2byte	0x209
 5350 0bee AD000000 		.4byte	0xad
 5351 0bf2 9F080000 		.4byte	.LLST48
 5352 0bf6 28       		.uleb128 0x28
 5353 0bf7 7900     		.ascii	"y\000"
 5354 0bf9 01       		.byte	0x1
 5355 0bfa 0902     		.2byte	0x209
 5356 0bfc AD000000 		.4byte	0xad
 5357 0c00 C0080000 		.4byte	.LLST49
 5358 0c04 28       		.uleb128 0x28
 5359 0c05 7700     		.ascii	"w\000"
 5360 0c07 01       		.byte	0x1
 5361 0c08 0902     		.2byte	0x209
 5362 0c0a AD000000 		.4byte	0xad
 5363 0c0e E1080000 		.4byte	.LLST50
 5364 0c12 28       		.uleb128 0x28
 5365 0c13 6800     		.ascii	"h\000"
 5366 0c15 01       		.byte	0x1
 5367 0c16 0902     		.2byte	0x209
 5368 0c18 AD000000 		.4byte	0xad
 5369 0c1c 02090000 		.4byte	.LLST51
 5370 0c20 27       		.uleb128 0x27
 5371 0c21 B5040000 		.4byte	.LASF46
 5372 0c25 01       		.byte	0x1
 5373 0c26 0902     		.2byte	0x209
 5374 0c28 B8000000 		.4byte	0xb8
 5375 0c2c 23090000 		.4byte	.LLST52
 5376 0c30 17       		.uleb128 0x17
 5377 0c31 22000000 		.4byte	.LVL135
 5378 0c35 CE090000 		.4byte	0x9ce
 5379 0c39 5F0C0000 		.4byte	0xc5f
 5380 0c3d 18       		.uleb128 0x18
 5381 0c3e 01       		.uleb128 0x1
 5382 0c3f 53       		.byte	0x53
 5383 0c40 02       		.uleb128 0x2
 5384 0c41 76       		.byte	0x76
 5385 0c42 00       		.sleb128 0
 5386 0c43 18       		.uleb128 0x18
 5387 0c44 01       		.uleb128 0x1
 5388 0c45 52       		.byte	0x52
 5389 0c46 02       		.uleb128 0x2
 5390 0c47 75       		.byte	0x75
 5391 0c48 00       		.sleb128 0
 5392 0c49 18       		.uleb128 0x18
 5393 0c4a 01       		.uleb128 0x1
 5394 0c4b 51       		.byte	0x51
 5395 0c4c 02       		.uleb128 0x2
 5396 0c4d 76       		.byte	0x76
 5397 0c4e 00       		.sleb128 0
 5398 0c4f 18       		.uleb128 0x18
 5399 0c50 01       		.uleb128 0x1
 5400 0c51 50       		.byte	0x50
 5401 0c52 02       		.uleb128 0x2
ARM GAS  C:\Users\User\AppData\Local\Temp\cctjmLxv.s 			page 113


 5402 0c53 77       		.byte	0x77
 5403 0c54 00       		.sleb128 0
 5404 0c55 18       		.uleb128 0x18
 5405 0c56 02       		.uleb128 0x2
 5406 0c57 7D       		.byte	0x7d
 5407 0c58 00       		.sleb128 0
 5408 0c59 04       		.uleb128 0x4
 5409 0c5a 91       		.byte	0x91
 5410 0c5b 64       		.sleb128 -28
 5411 0c5c 94       		.byte	0x94
 5412 0c5d 02       		.byte	0x2
 5413 0c5e 00       		.byte	0
 5414 0c5f 17       		.uleb128 0x17
 5415 0c60 36000000 		.4byte	.LVL136
 5416 0c64 CE090000 		.4byte	0x9ce
 5417 0c68 8E0C0000 		.4byte	0xc8e
 5418 0c6c 18       		.uleb128 0x18
 5419 0c6d 01       		.uleb128 0x1
 5420 0c6e 53       		.byte	0x53
 5421 0c6f 02       		.uleb128 0x2
 5422 0c70 74       		.byte	0x74
 5423 0c71 00       		.sleb128 0
 5424 0c72 18       		.uleb128 0x18
 5425 0c73 01       		.uleb128 0x1
 5426 0c74 52       		.byte	0x52
 5427 0c75 02       		.uleb128 0x2
 5428 0c76 75       		.byte	0x75
 5429 0c77 00       		.sleb128 0
 5430 0c78 18       		.uleb128 0x18
 5431 0c79 01       		.uleb128 0x1
 5432 0c7a 51       		.byte	0x51
 5433 0c7b 02       		.uleb128 0x2
 5434 0c7c 74       		.byte	0x74
 5435 0c7d 00       		.sleb128 0
 5436 0c7e 18       		.uleb128 0x18
 5437 0c7f 01       		.uleb128 0x1
 5438 0c80 50       		.byte	0x50
 5439 0c81 02       		.uleb128 0x2
 5440 0c82 77       		.byte	0x77
 5441 0c83 00       		.sleb128 0
 5442 0c84 18       		.uleb128 0x18
 5443 0c85 02       		.uleb128 0x2
 5444 0c86 7D       		.byte	0x7d
 5445 0c87 00       		.sleb128 0
 5446 0c88 04       		.uleb128 0x4
 5447 0c89 91       		.byte	0x91
 5448 0c8a 64       		.sleb128 -28
 5449 0c8b 94       		.byte	0x94
 5450 0c8c 02       		.byte	0x2
 5451 0c8d 00       		.byte	0
 5452 0c8e 17       		.uleb128 0x17
 5453 0c8f 46000000 		.4byte	.LVL137
 5454 0c93 CE090000 		.4byte	0x9ce
 5455 0c97 BD0C0000 		.4byte	0xcbd
 5456 0c9b 18       		.uleb128 0x18
 5457 0c9c 01       		.uleb128 0x1
 5458 0c9d 53       		.byte	0x53
ARM GAS  C:\Users\User\AppData\Local\Temp\cctjmLxv.s 			page 114


 5459 0c9e 02       		.uleb128 0x2
 5460 0c9f 74       		.byte	0x74
 5461 0ca0 00       		.sleb128 0
 5462 0ca1 18       		.uleb128 0x18
 5463 0ca2 01       		.uleb128 0x1
 5464 0ca3 52       		.byte	0x52
 5465 0ca4 02       		.uleb128 0x2
 5466 0ca5 77       		.byte	0x77
 5467 0ca6 00       		.sleb128 0
 5468 0ca7 18       		.uleb128 0x18
 5469 0ca8 01       		.uleb128 0x1
 5470 0ca9 51       		.byte	0x51
 5471 0caa 02       		.uleb128 0x2
 5472 0cab 76       		.byte	0x76
 5473 0cac 00       		.sleb128 0
 5474 0cad 18       		.uleb128 0x18
 5475 0cae 01       		.uleb128 0x1
 5476 0caf 50       		.byte	0x50
 5477 0cb0 02       		.uleb128 0x2
 5478 0cb1 77       		.byte	0x77
 5479 0cb2 00       		.sleb128 0
 5480 0cb3 18       		.uleb128 0x18
 5481 0cb4 02       		.uleb128 0x2
 5482 0cb5 7D       		.byte	0x7d
 5483 0cb6 00       		.sleb128 0
 5484 0cb7 04       		.uleb128 0x4
 5485 0cb8 91       		.byte	0x91
 5486 0cb9 64       		.sleb128 -28
 5487 0cba 94       		.byte	0x94
 5488 0cbb 02       		.byte	0x2
 5489 0cbc 00       		.byte	0
 5490 0cbd 21       		.uleb128 0x21
 5491 0cbe 56000000 		.4byte	.LVL138
 5492 0cc2 CE090000 		.4byte	0x9ce
 5493 0cc6 18       		.uleb128 0x18
 5494 0cc7 01       		.uleb128 0x1
 5495 0cc8 53       		.byte	0x53
 5496 0cc9 02       		.uleb128 0x2
 5497 0cca 74       		.byte	0x74
 5498 0ccb 00       		.sleb128 0
 5499 0ccc 18       		.uleb128 0x18
 5500 0ccd 01       		.uleb128 0x1
 5501 0cce 52       		.byte	0x52
 5502 0ccf 02       		.uleb128 0x2
 5503 0cd0 75       		.byte	0x75
 5504 0cd1 00       		.sleb128 0
 5505 0cd2 18       		.uleb128 0x18
 5506 0cd3 01       		.uleb128 0x1
 5507 0cd4 51       		.byte	0x51
 5508 0cd5 02       		.uleb128 0x2
 5509 0cd6 76       		.byte	0x76
 5510 0cd7 00       		.sleb128 0
 5511 0cd8 18       		.uleb128 0x18
 5512 0cd9 01       		.uleb128 0x1
 5513 0cda 50       		.byte	0x50
 5514 0cdb 02       		.uleb128 0x2
 5515 0cdc 75       		.byte	0x75
ARM GAS  C:\Users\User\AppData\Local\Temp\cctjmLxv.s 			page 115


 5516 0cdd 00       		.sleb128 0
 5517 0cde 18       		.uleb128 0x18
 5518 0cdf 02       		.uleb128 0x2
 5519 0ce0 7D       		.byte	0x7d
 5520 0ce1 00       		.sleb128 0
 5521 0ce2 04       		.uleb128 0x4
 5522 0ce3 91       		.byte	0x91
 5523 0ce4 64       		.sleb128 -28
 5524 0ce5 94       		.byte	0x94
 5525 0ce6 02       		.byte	0x2
 5526 0ce7 00       		.byte	0
 5527 0ce8 00       		.byte	0
 5528 0ce9 1A       		.uleb128 0x1a
 5529 0cea FF010000 		.4byte	0x1ff
 5530 0cee 00000000 		.4byte	.LFB59
 5531 0cf2 64000000 		.4byte	.LFE59-.LFB59
 5532 0cf6 01       		.uleb128 0x1
 5533 0cf7 9C       		.byte	0x9c
 5534 0cf8 CE0D0000 		.4byte	0xdce
 5535 0cfc 1E       		.uleb128 0x1e
 5536 0cfd 0C020000 		.4byte	0x20c
 5537 0d01 4F090000 		.4byte	.LLST53
 5538 0d05 1E       		.uleb128 0x1e
 5539 0d06 16020000 		.4byte	0x216
 5540 0d0a 70090000 		.4byte	.LLST54
 5541 0d0e 1E       		.uleb128 0x1e
 5542 0d0f 20020000 		.4byte	0x220
 5543 0d13 91090000 		.4byte	.LLST55
 5544 0d17 1E       		.uleb128 0x1e
 5545 0d18 2A020000 		.4byte	0x22a
 5546 0d1c B2090000 		.4byte	.LLST56
 5547 0d20 1E       		.uleb128 0x1e
 5548 0d21 34020000 		.4byte	0x234
 5549 0d25 D3090000 		.4byte	.LLST57
 5550 0d29 1C       		.uleb128 0x1c
 5551 0d2a 40020000 		.4byte	0x240
 5552 0d2e FF090000 		.4byte	.LLST58
 5553 0d32 36       		.uleb128 0x36
 5554 0d33 1C000000 		.4byte	.LBB45
 5555 0d37 22000000 		.4byte	.LBE45-.LBB45
 5556 0d3b 9D0D0000 		.4byte	0xd9d
 5557 0d3f 3A       		.uleb128 0x3a
 5558 0d40 34020000 		.4byte	0x234
 5559 0d44 3A       		.uleb128 0x3a
 5560 0d45 2A020000 		.4byte	0x22a
 5561 0d49 3A       		.uleb128 0x3a
 5562 0d4a 20020000 		.4byte	0x220
 5563 0d4e 3A       		.uleb128 0x3a
 5564 0d4f 16020000 		.4byte	0x216
 5565 0d53 3A       		.uleb128 0x3a
 5566 0d54 0C020000 		.4byte	0x20c
 5567 0d58 1D       		.uleb128 0x1d
 5568 0d59 1C000000 		.4byte	.LBB46
 5569 0d5d 22000000 		.4byte	.LBE46-.LBB46
 5570 0d61 1C       		.uleb128 0x1c
 5571 0d62 40020000 		.4byte	0x240
 5572 0d66 290A0000 		.4byte	.LLST59
ARM GAS  C:\Users\User\AppData\Local\Temp\cctjmLxv.s 			page 116


 5573 0d6a 21       		.uleb128 0x21
 5574 0d6b 3A000000 		.4byte	.LVL144
 5575 0d6f CE090000 		.4byte	0x9ce
 5576 0d73 18       		.uleb128 0x18
 5577 0d74 01       		.uleb128 0x1
 5578 0d75 53       		.byte	0x53
 5579 0d76 08       		.uleb128 0x8
 5580 0d77 75       		.byte	0x75
 5581 0d78 00       		.sleb128 0
 5582 0d79 91       		.byte	0x91
 5583 0d7a 60       		.sleb128 -32
 5584 0d7b 06       		.byte	0x6
 5585 0d7c 22       		.byte	0x22
 5586 0d7d 31       		.byte	0x31
 5587 0d7e 1C       		.byte	0x1c
 5588 0d7f 18       		.uleb128 0x18
 5589 0d80 01       		.uleb128 0x1
 5590 0d81 52       		.byte	0x52
 5591 0d82 02       		.uleb128 0x2
 5592 0d83 74       		.byte	0x74
 5593 0d84 7F       		.sleb128 -1
 5594 0d85 18       		.uleb128 0x18
 5595 0d86 01       		.uleb128 0x1
 5596 0d87 51       		.byte	0x51
 5597 0d88 02       		.uleb128 0x2
 5598 0d89 75       		.byte	0x75
 5599 0d8a 00       		.sleb128 0
 5600 0d8b 18       		.uleb128 0x18
 5601 0d8c 01       		.uleb128 0x1
 5602 0d8d 50       		.byte	0x50
 5603 0d8e 02       		.uleb128 0x2
 5604 0d8f 74       		.byte	0x74
 5605 0d90 7F       		.sleb128 -1
 5606 0d91 18       		.uleb128 0x18
 5607 0d92 02       		.uleb128 0x2
 5608 0d93 7D       		.byte	0x7d
 5609 0d94 00       		.sleb128 0
 5610 0d95 04       		.uleb128 0x4
 5611 0d96 91       		.byte	0x91
 5612 0d97 64       		.sleb128 -28
 5613 0d98 94       		.byte	0x94
 5614 0d99 02       		.byte	0x2
 5615 0d9a 00       		.byte	0
 5616 0d9b 00       		.byte	0
 5617 0d9c 00       		.byte	0
 5618 0d9d 21       		.uleb128 0x21
 5619 0d9e 5C000000 		.4byte	.LVL148
 5620 0da2 CE090000 		.4byte	0x9ce
 5621 0da6 18       		.uleb128 0x18
 5622 0da7 01       		.uleb128 0x1
 5623 0da8 53       		.byte	0x53
 5624 0da9 02       		.uleb128 0x2
 5625 0daa 74       		.byte	0x74
 5626 0dab 7F       		.sleb128 -1
 5627 0dac 18       		.uleb128 0x18
 5628 0dad 01       		.uleb128 0x1
 5629 0dae 52       		.byte	0x52
ARM GAS  C:\Users\User\AppData\Local\Temp\cctjmLxv.s 			page 117


 5630 0daf 07       		.uleb128 0x7
 5631 0db0 76       		.byte	0x76
 5632 0db1 00       		.sleb128 0
 5633 0db2 77       		.byte	0x77
 5634 0db3 00       		.sleb128 0
 5635 0db4 22       		.byte	0x22
 5636 0db5 31       		.byte	0x31
 5637 0db6 1C       		.byte	0x1c
 5638 0db7 18       		.uleb128 0x18
 5639 0db8 01       		.uleb128 0x1
 5640 0db9 51       		.byte	0x51
 5641 0dba 02       		.uleb128 0x2
 5642 0dbb 74       		.byte	0x74
 5643 0dbc 7F       		.sleb128 -1
 5644 0dbd 18       		.uleb128 0x18
 5645 0dbe 01       		.uleb128 0x1
 5646 0dbf 50       		.byte	0x50
 5647 0dc0 02       		.uleb128 0x2
 5648 0dc1 76       		.byte	0x76
 5649 0dc2 00       		.sleb128 0
 5650 0dc3 18       		.uleb128 0x18
 5651 0dc4 02       		.uleb128 0x2
 5652 0dc5 7D       		.byte	0x7d
 5653 0dc6 00       		.sleb128 0
 5654 0dc7 04       		.uleb128 0x4
 5655 0dc8 91       		.byte	0x91
 5656 0dc9 64       		.sleb128 -28
 5657 0dca 94       		.byte	0x94
 5658 0dcb 02       		.byte	0x2
 5659 0dcc 00       		.byte	0
 5660 0dcd 00       		.byte	0
 5661 0dce 25       		.uleb128 0x25
 5662 0dcf 4A020000 		.4byte	.LASF93
 5663 0dd3 01       		.byte	0x1
 5664 0dd4 2002     		.2byte	0x220
 5665 0dd6 00000000 		.4byte	.LFB60
 5666 0dda 46010000 		.4byte	.LFE60-.LFB60
 5667 0dde 01       		.uleb128 0x1
 5668 0ddf 9C       		.byte	0x9c
 5669 0de0 F40F0000 		.4byte	0xff4
 5670 0de4 28       		.uleb128 0x28
 5671 0de5 783000   		.ascii	"x0\000"
 5672 0de8 01       		.byte	0x1
 5673 0de9 2002     		.2byte	0x220
 5674 0deb AD000000 		.4byte	0xad
 5675 0def 470A0000 		.4byte	.LLST60
 5676 0df3 28       		.uleb128 0x28
 5677 0df4 793000   		.ascii	"y0\000"
 5678 0df7 01       		.byte	0x1
 5679 0df8 2002     		.2byte	0x220
 5680 0dfa AD000000 		.4byte	0xad
 5681 0dfe 680A0000 		.4byte	.LLST61
 5682 0e02 28       		.uleb128 0x28
 5683 0e03 7200     		.ascii	"r\000"
 5684 0e05 01       		.byte	0x1
 5685 0e06 2002     		.2byte	0x220
 5686 0e08 AD000000 		.4byte	0xad
ARM GAS  C:\Users\User\AppData\Local\Temp\cctjmLxv.s 			page 118


 5687 0e0c 9E0A0000 		.4byte	.LLST62
 5688 0e10 27       		.uleb128 0x27
 5689 0e11 B5040000 		.4byte	.LASF46
 5690 0e15 01       		.byte	0x1
 5691 0e16 2002     		.2byte	0x220
 5692 0e18 B8000000 		.4byte	0xb8
 5693 0e1c BF0A0000 		.4byte	.LLST63
 5694 0e20 3B       		.uleb128 0x3b
 5695 0e21 6600     		.ascii	"f\000"
 5696 0e23 01       		.byte	0x1
 5697 0e24 2202     		.2byte	0x222
 5698 0e26 AD000000 		.4byte	0xad
 5699 0e2a 02       		.uleb128 0x2
 5700 0e2b 91       		.byte	0x91
 5701 0e2c 50       		.sleb128 -48
 5702 0e2d 34       		.uleb128 0x34
 5703 0e2e 99050000 		.4byte	.LASF94
 5704 0e32 01       		.byte	0x1
 5705 0e33 2302     		.2byte	0x223
 5706 0e35 AD000000 		.4byte	0xad
 5707 0e39 E00A0000 		.4byte	.LLST64
 5708 0e3d 26       		.uleb128 0x26
 5709 0e3e 9F050000 		.4byte	.LASF95
 5710 0e42 01       		.byte	0x1
 5711 0e43 2402     		.2byte	0x224
 5712 0e45 AD000000 		.4byte	0xad
 5713 0e49 02       		.uleb128 0x2
 5714 0e4a 91       		.byte	0x91
 5715 0e4b 64       		.sleb128 -28
 5716 0e4c 33       		.uleb128 0x33
 5717 0e4d 7800     		.ascii	"x\000"
 5718 0e4f 01       		.byte	0x1
 5719 0e50 2502     		.2byte	0x225
 5720 0e52 AD000000 		.4byte	0xad
 5721 0e56 2D0B0000 		.4byte	.LLST65
 5722 0e5a 3B       		.uleb128 0x3b
 5723 0e5b 7900     		.ascii	"y\000"
 5724 0e5d 01       		.byte	0x1
 5725 0e5e 2602     		.2byte	0x226
 5726 0e60 AD000000 		.4byte	0xad
 5727 0e64 02       		.uleb128 0x2
 5728 0e65 91       		.byte	0x91
 5729 0e66 58       		.sleb128 -40
 5730 0e67 17       		.uleb128 0x17
 5731 0e68 2E000000 		.4byte	.LVL157
 5732 0e6c 2C080000 		.4byte	0x82c
 5733 0e70 8B0E0000 		.4byte	0xe8b
 5734 0e74 18       		.uleb128 0x18
 5735 0e75 01       		.uleb128 0x1
 5736 0e76 52       		.byte	0x52
 5737 0e77 02       		.uleb128 0x2
 5738 0e78 74       		.byte	0x74
 5739 0e79 00       		.sleb128 0
 5740 0e7a 18       		.uleb128 0x18
 5741 0e7b 01       		.uleb128 0x1
 5742 0e7c 51       		.byte	0x51
 5743 0e7d 06       		.uleb128 0x6
ARM GAS  C:\Users\User\AppData\Local\Temp\cctjmLxv.s 			page 119


 5744 0e7e 75       		.byte	0x75
 5745 0e7f 00       		.sleb128 0
 5746 0e80 7D       		.byte	0x7d
 5747 0e81 00       		.sleb128 0
 5748 0e82 06       		.byte	0x6
 5749 0e83 22       		.byte	0x22
 5750 0e84 18       		.uleb128 0x18
 5751 0e85 01       		.uleb128 0x1
 5752 0e86 50       		.byte	0x50
 5753 0e87 02       		.uleb128 0x2
 5754 0e88 77       		.byte	0x77
 5755 0e89 00       		.sleb128 0
 5756 0e8a 00       		.byte	0
 5757 0e8b 17       		.uleb128 0x17
 5758 0e8c 3C000000 		.4byte	.LVL158
 5759 0e90 2C080000 		.4byte	0x82c
 5760 0e94 AF0E0000 		.4byte	0xeaf
 5761 0e98 18       		.uleb128 0x18
 5762 0e99 01       		.uleb128 0x1
 5763 0e9a 52       		.byte	0x52
 5764 0e9b 02       		.uleb128 0x2
 5765 0e9c 74       		.byte	0x74
 5766 0e9d 00       		.sleb128 0
 5767 0e9e 18       		.uleb128 0x18
 5768 0e9f 01       		.uleb128 0x1
 5769 0ea0 51       		.byte	0x51
 5770 0ea1 06       		.uleb128 0x6
 5771 0ea2 7D       		.byte	0x7d
 5772 0ea3 00       		.sleb128 0
 5773 0ea4 06       		.byte	0x6
 5774 0ea5 75       		.byte	0x75
 5775 0ea6 00       		.sleb128 0
 5776 0ea7 1C       		.byte	0x1c
 5777 0ea8 18       		.uleb128 0x18
 5778 0ea9 01       		.uleb128 0x1
 5779 0eaa 50       		.byte	0x50
 5780 0eab 02       		.uleb128 0x2
 5781 0eac 77       		.byte	0x77
 5782 0ead 00       		.sleb128 0
 5783 0eae 00       		.byte	0
 5784 0eaf 17       		.uleb128 0x17
 5785 0eb0 4C000000 		.4byte	.LVL159
 5786 0eb4 2C080000 		.4byte	0x82c
 5787 0eb8 D30E0000 		.4byte	0xed3
 5788 0ebc 18       		.uleb128 0x18
 5789 0ebd 01       		.uleb128 0x1
 5790 0ebe 52       		.byte	0x52
 5791 0ebf 02       		.uleb128 0x2
 5792 0ec0 74       		.byte	0x74
 5793 0ec1 00       		.sleb128 0
 5794 0ec2 18       		.uleb128 0x18
 5795 0ec3 01       		.uleb128 0x1
 5796 0ec4 51       		.byte	0x51
 5797 0ec5 02       		.uleb128 0x2
 5798 0ec6 76       		.byte	0x76
 5799 0ec7 00       		.sleb128 0
 5800 0ec8 18       		.uleb128 0x18
ARM GAS  C:\Users\User\AppData\Local\Temp\cctjmLxv.s 			page 120


 5801 0ec9 01       		.uleb128 0x1
 5802 0eca 50       		.byte	0x50
 5803 0ecb 06       		.uleb128 0x6
 5804 0ecc 75       		.byte	0x75
 5805 0ecd 00       		.sleb128 0
 5806 0ece 91       		.byte	0x91
 5807 0ecf 4C       		.sleb128 -52
 5808 0ed0 06       		.byte	0x6
 5809 0ed1 22       		.byte	0x22
 5810 0ed2 00       		.byte	0
 5811 0ed3 17       		.uleb128 0x17
 5812 0ed4 5A000000 		.4byte	.LVL160
 5813 0ed8 2C080000 		.4byte	0x82c
 5814 0edc F70E0000 		.4byte	0xef7
 5815 0ee0 18       		.uleb128 0x18
 5816 0ee1 01       		.uleb128 0x1
 5817 0ee2 52       		.byte	0x52
 5818 0ee3 02       		.uleb128 0x2
 5819 0ee4 74       		.byte	0x74
 5820 0ee5 00       		.sleb128 0
 5821 0ee6 18       		.uleb128 0x18
 5822 0ee7 01       		.uleb128 0x1
 5823 0ee8 51       		.byte	0x51
 5824 0ee9 02       		.uleb128 0x2
 5825 0eea 76       		.byte	0x76
 5826 0eeb 00       		.sleb128 0
 5827 0eec 18       		.uleb128 0x18
 5828 0eed 01       		.uleb128 0x1
 5829 0eee 50       		.byte	0x50
 5830 0eef 06       		.uleb128 0x6
 5831 0ef0 91       		.byte	0x91
 5832 0ef1 4C       		.sleb128 -52
 5833 0ef2 06       		.byte	0x6
 5834 0ef3 75       		.byte	0x75
 5835 0ef4 00       		.sleb128 0
 5836 0ef5 1C       		.byte	0x1c
 5837 0ef6 00       		.byte	0
 5838 0ef7 17       		.uleb128 0x17
 5839 0ef8 C0000000 		.4byte	.LVL168
 5840 0efc 2C080000 		.4byte	0x82c
 5841 0f00 170F0000 		.4byte	0xf17
 5842 0f04 18       		.uleb128 0x18
 5843 0f05 01       		.uleb128 0x1
 5844 0f06 52       		.byte	0x52
 5845 0f07 02       		.uleb128 0x2
 5846 0f08 74       		.byte	0x74
 5847 0f09 00       		.sleb128 0
 5848 0f0a 18       		.uleb128 0x18
 5849 0f0b 01       		.uleb128 0x1
 5850 0f0c 51       		.byte	0x51
 5851 0f0d 02       		.uleb128 0x2
 5852 0f0e 77       		.byte	0x77
 5853 0f0f 00       		.sleb128 0
 5854 0f10 18       		.uleb128 0x18
 5855 0f11 01       		.uleb128 0x1
 5856 0f12 50       		.byte	0x50
 5857 0f13 02       		.uleb128 0x2
ARM GAS  C:\Users\User\AppData\Local\Temp\cctjmLxv.s 			page 121


 5858 0f14 76       		.byte	0x76
 5859 0f15 00       		.sleb128 0
 5860 0f16 00       		.byte	0
 5861 0f17 17       		.uleb128 0x17
 5862 0f18 D4000000 		.4byte	.LVL169
 5863 0f1c 2C080000 		.4byte	0x82c
 5864 0f20 370F0000 		.4byte	0xf37
 5865 0f24 18       		.uleb128 0x18
 5866 0f25 01       		.uleb128 0x1
 5867 0f26 52       		.byte	0x52
 5868 0f27 02       		.uleb128 0x2
 5869 0f28 74       		.byte	0x74
 5870 0f29 00       		.sleb128 0
 5871 0f2a 18       		.uleb128 0x18
 5872 0f2b 01       		.uleb128 0x1
 5873 0f2c 51       		.byte	0x51
 5874 0f2d 02       		.uleb128 0x2
 5875 0f2e 77       		.byte	0x77
 5876 0f2f 00       		.sleb128 0
 5877 0f30 18       		.uleb128 0x18
 5878 0f31 01       		.uleb128 0x1
 5879 0f32 50       		.byte	0x50
 5880 0f33 02       		.uleb128 0x2
 5881 0f34 75       		.byte	0x75
 5882 0f35 00       		.sleb128 0
 5883 0f36 00       		.byte	0
 5884 0f37 17       		.uleb128 0x17
 5885 0f38 E6000000 		.4byte	.LVL170
 5886 0f3c 2C080000 		.4byte	0x82c
 5887 0f40 570F0000 		.4byte	0xf57
 5888 0f44 18       		.uleb128 0x18
 5889 0f45 01       		.uleb128 0x1
 5890 0f46 52       		.byte	0x52
 5891 0f47 02       		.uleb128 0x2
 5892 0f48 74       		.byte	0x74
 5893 0f49 00       		.sleb128 0
 5894 0f4a 18       		.uleb128 0x18
 5895 0f4b 01       		.uleb128 0x1
 5896 0f4c 51       		.byte	0x51
 5897 0f4d 02       		.uleb128 0x2
 5898 0f4e 77       		.byte	0x77
 5899 0f4f 00       		.sleb128 0
 5900 0f50 18       		.uleb128 0x18
 5901 0f51 01       		.uleb128 0x1
 5902 0f52 50       		.byte	0x50
 5903 0f53 02       		.uleb128 0x2
 5904 0f54 76       		.byte	0x76
 5905 0f55 00       		.sleb128 0
 5906 0f56 00       		.byte	0
 5907 0f57 17       		.uleb128 0x17
 5908 0f58 F0000000 		.4byte	.LVL171
 5909 0f5c 2C080000 		.4byte	0x82c
 5910 0f60 770F0000 		.4byte	0xf77
 5911 0f64 18       		.uleb128 0x18
 5912 0f65 01       		.uleb128 0x1
 5913 0f66 52       		.byte	0x52
 5914 0f67 02       		.uleb128 0x2
ARM GAS  C:\Users\User\AppData\Local\Temp\cctjmLxv.s 			page 122


 5915 0f68 74       		.byte	0x74
 5916 0f69 00       		.sleb128 0
 5917 0f6a 18       		.uleb128 0x18
 5918 0f6b 01       		.uleb128 0x1
 5919 0f6c 51       		.byte	0x51
 5920 0f6d 02       		.uleb128 0x2
 5921 0f6e 77       		.byte	0x77
 5922 0f6f 00       		.sleb128 0
 5923 0f70 18       		.uleb128 0x18
 5924 0f71 01       		.uleb128 0x1
 5925 0f72 50       		.byte	0x50
 5926 0f73 02       		.uleb128 0x2
 5927 0f74 75       		.byte	0x75
 5928 0f75 00       		.sleb128 0
 5929 0f76 00       		.byte	0
 5930 0f77 17       		.uleb128 0x17
 5931 0f78 0C010000 		.4byte	.LVL172
 5932 0f7c 2C080000 		.4byte	0x82c
 5933 0f80 970F0000 		.4byte	0xf97
 5934 0f84 18       		.uleb128 0x18
 5935 0f85 01       		.uleb128 0x1
 5936 0f86 52       		.byte	0x52
 5937 0f87 02       		.uleb128 0x2
 5938 0f88 74       		.byte	0x74
 5939 0f89 00       		.sleb128 0
 5940 0f8a 18       		.uleb128 0x18
 5941 0f8b 01       		.uleb128 0x1
 5942 0f8c 51       		.byte	0x51
 5943 0f8d 02       		.uleb128 0x2
 5944 0f8e 75       		.byte	0x75
 5945 0f8f 00       		.sleb128 0
 5946 0f90 18       		.uleb128 0x18
 5947 0f91 01       		.uleb128 0x1
 5948 0f92 50       		.byte	0x50
 5949 0f93 02       		.uleb128 0x2
 5950 0f94 76       		.byte	0x76
 5951 0f95 00       		.sleb128 0
 5952 0f96 00       		.byte	0
 5953 0f97 17       		.uleb128 0x17
 5954 0f98 1E010000 		.4byte	.LVL173
 5955 0f9c 2C080000 		.4byte	0x82c
 5956 0fa0 B70F0000 		.4byte	0xfb7
 5957 0fa4 18       		.uleb128 0x18
 5958 0fa5 01       		.uleb128 0x1
 5959 0fa6 52       		.byte	0x52
 5960 0fa7 02       		.uleb128 0x2
 5961 0fa8 74       		.byte	0x74
 5962 0fa9 00       		.sleb128 0
 5963 0faa 18       		.uleb128 0x18
 5964 0fab 01       		.uleb128 0x1
 5965 0fac 51       		.byte	0x51
 5966 0fad 02       		.uleb128 0x2
 5967 0fae 75       		.byte	0x75
 5968 0faf 00       		.sleb128 0
 5969 0fb0 18       		.uleb128 0x18
 5970 0fb1 01       		.uleb128 0x1
 5971 0fb2 50       		.byte	0x50
ARM GAS  C:\Users\User\AppData\Local\Temp\cctjmLxv.s 			page 123


 5972 0fb3 02       		.uleb128 0x2
 5973 0fb4 77       		.byte	0x77
 5974 0fb5 00       		.sleb128 0
 5975 0fb6 00       		.byte	0
 5976 0fb7 17       		.uleb128 0x17
 5977 0fb8 32010000 		.4byte	.LVL174
 5978 0fbc 2C080000 		.4byte	0x82c
 5979 0fc0 D70F0000 		.4byte	0xfd7
 5980 0fc4 18       		.uleb128 0x18
 5981 0fc5 01       		.uleb128 0x1
 5982 0fc6 52       		.byte	0x52
 5983 0fc7 02       		.uleb128 0x2
 5984 0fc8 74       		.byte	0x74
 5985 0fc9 00       		.sleb128 0
 5986 0fca 18       		.uleb128 0x18
 5987 0fcb 01       		.uleb128 0x1
 5988 0fcc 51       		.byte	0x51
 5989 0fcd 02       		.uleb128 0x2
 5990 0fce 75       		.byte	0x75
 5991 0fcf 00       		.sleb128 0
 5992 0fd0 18       		.uleb128 0x18
 5993 0fd1 01       		.uleb128 0x1
 5994 0fd2 50       		.byte	0x50
 5995 0fd3 02       		.uleb128 0x2
 5996 0fd4 76       		.byte	0x76
 5997 0fd5 00       		.sleb128 0
 5998 0fd6 00       		.byte	0
 5999 0fd7 21       		.uleb128 0x21
 6000 0fd8 3C010000 		.4byte	.LVL175
 6001 0fdc 2C080000 		.4byte	0x82c
 6002 0fe0 18       		.uleb128 0x18
 6003 0fe1 01       		.uleb128 0x1
 6004 0fe2 52       		.byte	0x52
 6005 0fe3 02       		.uleb128 0x2
 6006 0fe4 74       		.byte	0x74
 6007 0fe5 00       		.sleb128 0
 6008 0fe6 18       		.uleb128 0x18
 6009 0fe7 01       		.uleb128 0x1
 6010 0fe8 51       		.byte	0x51
 6011 0fe9 02       		.uleb128 0x2
 6012 0fea 75       		.byte	0x75
 6013 0feb 00       		.sleb128 0
 6014 0fec 18       		.uleb128 0x18
 6015 0fed 01       		.uleb128 0x1
 6016 0fee 50       		.byte	0x50
 6017 0fef 02       		.uleb128 0x2
 6018 0ff0 77       		.byte	0x77
 6019 0ff1 00       		.sleb128 0
 6020 0ff2 00       		.byte	0
 6021 0ff3 00       		.byte	0
 6022 0ff4 25       		.uleb128 0x25
 6023 0ff5 2B010000 		.4byte	.LASF96
 6024 0ff9 01       		.byte	0x1
 6025 0ffa 3F02     		.2byte	0x23f
 6026 0ffc 00000000 		.4byte	.LFB61
 6027 1000 4A000000 		.4byte	.LFE61-.LFB61
 6028 1004 01       		.uleb128 0x1
ARM GAS  C:\Users\User\AppData\Local\Temp\cctjmLxv.s 			page 124


 6029 1005 9C       		.byte	0x9c
 6030 1006 04110000 		.4byte	0x1104
 6031 100a 28       		.uleb128 0x28
 6032 100b 783000   		.ascii	"x0\000"
 6033 100e 01       		.byte	0x1
 6034 100f 3F02     		.2byte	0x23f
 6035 1011 AD000000 		.4byte	0xad
 6036 1015 6A0B0000 		.4byte	.LLST66
 6037 1019 28       		.uleb128 0x28
 6038 101a 793000   		.ascii	"y0\000"
 6039 101d 01       		.byte	0x1
 6040 101e 3F02     		.2byte	0x23f
 6041 1020 AD000000 		.4byte	0xad
 6042 1024 8B0B0000 		.4byte	.LLST67
 6043 1028 28       		.uleb128 0x28
 6044 1029 783100   		.ascii	"x1\000"
 6045 102c 01       		.byte	0x1
 6046 102d 3F02     		.2byte	0x23f
 6047 102f AD000000 		.4byte	0xad
 6048 1033 AC0B0000 		.4byte	.LLST68
 6049 1037 28       		.uleb128 0x28
 6050 1038 793100   		.ascii	"y1\000"
 6051 103b 01       		.byte	0x1
 6052 103c 3F02     		.2byte	0x23f
 6053 103e AD000000 		.4byte	0xad
 6054 1042 CD0B0000 		.4byte	.LLST69
 6055 1046 28       		.uleb128 0x28
 6056 1047 783200   		.ascii	"x2\000"
 6057 104a 01       		.byte	0x1
 6058 104b 3F02     		.2byte	0x23f
 6059 104d AD000000 		.4byte	0xad
 6060 1051 EE0B0000 		.4byte	.LLST70
 6061 1055 28       		.uleb128 0x28
 6062 1056 793200   		.ascii	"y2\000"
 6063 1059 01       		.byte	0x1
 6064 105a 3F02     		.2byte	0x23f
 6065 105c AD000000 		.4byte	0xad
 6066 1060 1A0C0000 		.4byte	.LLST71
 6067 1064 27       		.uleb128 0x27
 6068 1065 B5040000 		.4byte	.LASF46
 6069 1069 01       		.byte	0x1
 6070 106a 3F02     		.2byte	0x23f
 6071 106c B8000000 		.4byte	0xb8
 6072 1070 5E0C0000 		.4byte	.LLST72
 6073 1074 17       		.uleb128 0x17
 6074 1075 2A000000 		.4byte	.LVL185
 6075 1079 CE090000 		.4byte	0x9ce
 6076 107d A3100000 		.4byte	0x10a3
 6077 1081 18       		.uleb128 0x18
 6078 1082 01       		.uleb128 0x1
 6079 1083 53       		.byte	0x53
 6080 1084 02       		.uleb128 0x2
 6081 1085 76       		.byte	0x76
 6082 1086 00       		.sleb128 0
 6083 1087 18       		.uleb128 0x18
 6084 1088 01       		.uleb128 0x1
 6085 1089 52       		.byte	0x52
ARM GAS  C:\Users\User\AppData\Local\Temp\cctjmLxv.s 			page 125


 6086 108a 02       		.uleb128 0x2
 6087 108b 77       		.byte	0x77
 6088 108c 00       		.sleb128 0
 6089 108d 18       		.uleb128 0x18
 6090 108e 01       		.uleb128 0x1
 6091 108f 51       		.byte	0x51
 6092 1090 04       		.uleb128 0x4
 6093 1091 91       		.byte	0x91
 6094 1092 5C       		.sleb128 -36
 6095 1093 94       		.byte	0x94
 6096 1094 02       		.byte	0x2
 6097 1095 18       		.uleb128 0x18
 6098 1096 01       		.uleb128 0x1
 6099 1097 50       		.byte	0x50
 6100 1098 02       		.uleb128 0x2
 6101 1099 75       		.byte	0x75
 6102 109a 00       		.sleb128 0
 6103 109b 18       		.uleb128 0x18
 6104 109c 02       		.uleb128 0x2
 6105 109d 7D       		.byte	0x7d
 6106 109e 00       		.sleb128 0
 6107 109f 02       		.uleb128 0x2
 6108 10a0 74       		.byte	0x74
 6109 10a1 00       		.sleb128 0
 6110 10a2 00       		.byte	0
 6111 10a3 17       		.uleb128 0x17
 6112 10a4 38000000 		.4byte	.LVL186
 6113 10a8 CE090000 		.4byte	0x9ce
 6114 10ac D4100000 		.4byte	0x10d4
 6115 10b0 18       		.uleb128 0x18
 6116 10b1 01       		.uleb128 0x1
 6117 10b2 53       		.byte	0x53
 6118 10b3 04       		.uleb128 0x4
 6119 10b4 91       		.byte	0x91
 6120 10b5 64       		.sleb128 -28
 6121 10b6 94       		.byte	0x94
 6122 10b7 02       		.byte	0x2
 6123 10b8 18       		.uleb128 0x18
 6124 10b9 01       		.uleb128 0x1
 6125 10ba 52       		.byte	0x52
 6126 10bb 04       		.uleb128 0x4
 6127 10bc 91       		.byte	0x91
 6128 10bd 60       		.sleb128 -32
 6129 10be 94       		.byte	0x94
 6130 10bf 02       		.byte	0x2
 6131 10c0 18       		.uleb128 0x18
 6132 10c1 01       		.uleb128 0x1
 6133 10c2 51       		.byte	0x51
 6134 10c3 02       		.uleb128 0x2
 6135 10c4 76       		.byte	0x76
 6136 10c5 00       		.sleb128 0
 6137 10c6 18       		.uleb128 0x18
 6138 10c7 01       		.uleb128 0x1
 6139 10c8 50       		.byte	0x50
 6140 10c9 02       		.uleb128 0x2
 6141 10ca 77       		.byte	0x77
 6142 10cb 00       		.sleb128 0
ARM GAS  C:\Users\User\AppData\Local\Temp\cctjmLxv.s 			page 126


 6143 10cc 18       		.uleb128 0x18
 6144 10cd 02       		.uleb128 0x2
 6145 10ce 7D       		.byte	0x7d
 6146 10cf 00       		.sleb128 0
 6147 10d0 02       		.uleb128 0x2
 6148 10d1 74       		.byte	0x74
 6149 10d2 00       		.sleb128 0
 6150 10d3 00       		.byte	0
 6151 10d4 21       		.uleb128 0x21
 6152 10d5 46000000 		.4byte	.LVL187
 6153 10d9 CE090000 		.4byte	0x9ce
 6154 10dd 18       		.uleb128 0x18
 6155 10de 01       		.uleb128 0x1
 6156 10df 53       		.byte	0x53
 6157 10e0 04       		.uleb128 0x4
 6158 10e1 91       		.byte	0x91
 6159 10e2 5C       		.sleb128 -36
 6160 10e3 94       		.byte	0x94
 6161 10e4 02       		.byte	0x2
 6162 10e5 18       		.uleb128 0x18
 6163 10e6 01       		.uleb128 0x1
 6164 10e7 52       		.byte	0x52
 6165 10e8 02       		.uleb128 0x2
 6166 10e9 75       		.byte	0x75
 6167 10ea 00       		.sleb128 0
 6168 10eb 18       		.uleb128 0x18
 6169 10ec 01       		.uleb128 0x1
 6170 10ed 51       		.byte	0x51
 6171 10ee 04       		.uleb128 0x4
 6172 10ef 91       		.byte	0x91
 6173 10f0 64       		.sleb128 -28
 6174 10f1 94       		.byte	0x94
 6175 10f2 02       		.byte	0x2
 6176 10f3 18       		.uleb128 0x18
 6177 10f4 01       		.uleb128 0x1
 6178 10f5 50       		.byte	0x50
 6179 10f6 04       		.uleb128 0x4
 6180 10f7 91       		.byte	0x91
 6181 10f8 60       		.sleb128 -32
 6182 10f9 94       		.byte	0x94
 6183 10fa 02       		.byte	0x2
 6184 10fb 18       		.uleb128 0x18
 6185 10fc 02       		.uleb128 0x2
 6186 10fd 7D       		.byte	0x7d
 6187 10fe 00       		.sleb128 0
 6188 10ff 02       		.uleb128 0x2
 6189 1100 74       		.byte	0x74
 6190 1101 00       		.sleb128 0
 6191 1102 00       		.byte	0
 6192 1103 00       		.byte	0
 6193 1104 1A       		.uleb128 0x1a
 6194 1105 4B020000 		.4byte	0x24b
 6195 1109 00000000 		.4byte	.LFB62
 6196 110d 24010000 		.4byte	.LFE62-.LFB62
 6197 1111 01       		.uleb128 0x1
 6198 1112 9C       		.byte	0x9c
 6199 1113 C9110000 		.4byte	0x11c9
ARM GAS  C:\Users\User\AppData\Local\Temp\cctjmLxv.s 			page 127


 6200 1117 1E       		.uleb128 0x1e
 6201 1118 58020000 		.4byte	0x258
 6202 111c A20C0000 		.4byte	.LLST73
 6203 1120 1E       		.uleb128 0x1e
 6204 1121 62020000 		.4byte	0x262
 6205 1125 C30C0000 		.4byte	.LLST74
 6206 1129 1E       		.uleb128 0x1e
 6207 112a 6C020000 		.4byte	0x26c
 6208 112e E40C0000 		.4byte	.LLST75
 6209 1132 1E       		.uleb128 0x1e
 6210 1133 76020000 		.4byte	0x276
 6211 1137 050D0000 		.4byte	.LLST76
 6212 113b 1E       		.uleb128 0x1e
 6213 113c 82020000 		.4byte	0x282
 6214 1140 260D0000 		.4byte	.LLST77
 6215 1144 1E       		.uleb128 0x1e
 6216 1145 8D020000 		.4byte	0x28d
 6217 1149 520D0000 		.4byte	.LLST78
 6218 114d 1F       		.uleb128 0x1f
 6219 114e 99020000 		.4byte	0x299
 6220 1152 1D       		.uleb128 0x1d
 6221 1153 40000000 		.4byte	.LBB50
 6222 1157 D8000000 		.4byte	.LBE50-.LBB50
 6223 115b 3A       		.uleb128 0x3a
 6224 115c 8D020000 		.4byte	0x28d
 6225 1160 3A       		.uleb128 0x3a
 6226 1161 82020000 		.4byte	0x282
 6227 1165 3A       		.uleb128 0x3a
 6228 1166 76020000 		.4byte	0x276
 6229 116a 3A       		.uleb128 0x3a
 6230 116b 6C020000 		.4byte	0x26c
 6231 116f 3A       		.uleb128 0x3a
 6232 1170 62020000 		.4byte	0x262
 6233 1174 3A       		.uleb128 0x3a
 6234 1175 58020000 		.4byte	0x258
 6235 1179 1D       		.uleb128 0x1d
 6236 117a 40000000 		.4byte	.LBB51
 6237 117e D8000000 		.4byte	.LBE51-.LBB51
 6238 1182 1C       		.uleb128 0x1c
 6239 1183 99020000 		.4byte	0x299
 6240 1187 960D0000 		.4byte	.LLST79
 6241 118b 1D       		.uleb128 0x1d
 6242 118c 40000000 		.4byte	.LBB52
 6243 1190 C4000000 		.4byte	.LBE52-.LBB52
 6244 1194 1C       		.uleb128 0x1c
 6245 1195 A4020000 		.4byte	0x2a4
 6246 1199 AA0D0000 		.4byte	.LLST80
 6247 119d 1C       		.uleb128 0x1c
 6248 119e B0020000 		.4byte	0x2b0
 6249 11a2 BF0D0000 		.4byte	.LLST81
 6250 11a6 19       		.uleb128 0x19
 6251 11a7 D4000000 		.4byte	.LVL197
 6252 11ab 2C080000 		.4byte	0x82c
 6253 11af 21       		.uleb128 0x21
 6254 11b0 EA000000 		.4byte	.LVL198
 6255 11b4 FF010000 		.4byte	0x1ff
 6256 11b8 18       		.uleb128 0x18
ARM GAS  C:\Users\User\AppData\Local\Temp\cctjmLxv.s 			page 128


 6257 11b9 01       		.uleb128 0x1
 6258 11ba 53       		.byte	0x53
 6259 11bb 02       		.uleb128 0x2
 6260 11bc 75       		.byte	0x75
 6261 11bd 00       		.sleb128 0
 6262 11be 18       		.uleb128 0x18
 6263 11bf 01       		.uleb128 0x1
 6264 11c0 52       		.byte	0x52
 6265 11c1 02       		.uleb128 0x2
 6266 11c2 75       		.byte	0x75
 6267 11c3 00       		.sleb128 0
 6268 11c4 00       		.byte	0
 6269 11c5 00       		.byte	0
 6270 11c6 00       		.byte	0
 6271 11c7 00       		.byte	0
 6272 11c8 00       		.byte	0
 6273 11c9 1A       		.uleb128 0x1a
 6274 11ca BC020000 		.4byte	0x2bc
 6275 11ce 00000000 		.4byte	.LFB63
 6276 11d2 6C000000 		.4byte	.LFE63-.LFB63
 6277 11d6 01       		.uleb128 0x1
 6278 11d7 9C       		.byte	0x9c
 6279 11d8 20120000 		.4byte	0x1220
 6280 11dc 1E       		.uleb128 0x1e
 6281 11dd C9020000 		.4byte	0x2c9
 6282 11e1 E50D0000 		.4byte	.LLST82
 6283 11e5 17       		.uleb128 0x17
 6284 11e6 0E000000 		.4byte	.LVL204
 6285 11ea BC030000 		.4byte	0x3bc
 6286 11ee FA110000 		.4byte	0x11fa
 6287 11f2 3C       		.uleb128 0x3c
 6288 11f3 C9020000 		.4byte	0x2c9
 6289 11f7 01       		.uleb128 0x1
 6290 11f8 3A       		.byte	0x3a
 6291 11f9 00       		.byte	0
 6292 11fa 21       		.uleb128 0x21
 6293 11fb 30000000 		.4byte	.LVL207
 6294 11ff 4B020000 		.4byte	0x24b
 6295 1203 18       		.uleb128 0x18
 6296 1204 01       		.uleb128 0x1
 6297 1205 53       		.byte	0x53
 6298 1206 04       		.uleb128 0x4
 6299 1207 91       		.byte	0x91
 6300 1208 64       		.sleb128 -28
 6301 1209 94       		.byte	0x94
 6302 120a 02       		.byte	0x2
 6303 120b 18       		.uleb128 0x18
 6304 120c 01       		.uleb128 0x1
 6305 120d 51       		.byte	0x51
 6306 120e 02       		.uleb128 0x2
 6307 120f 76       		.byte	0x76
 6308 1210 00       		.sleb128 0
 6309 1211 18       		.uleb128 0x18
 6310 1212 01       		.uleb128 0x1
 6311 1213 50       		.byte	0x50
 6312 1214 02       		.uleb128 0x2
 6313 1215 75       		.byte	0x75
ARM GAS  C:\Users\User\AppData\Local\Temp\cctjmLxv.s 			page 129


 6314 1216 00       		.sleb128 0
 6315 1217 18       		.uleb128 0x18
 6316 1218 02       		.uleb128 0x2
 6317 1219 7D       		.byte	0x7d
 6318 121a 04       		.sleb128 4
 6319 121b 02       		.uleb128 0x2
 6320 121c 77       		.byte	0x77
 6321 121d 00       		.sleb128 0
 6322 121e 00       		.byte	0
 6323 121f 00       		.byte	0
 6324 1220 25       		.uleb128 0x25
 6325 1221 E0040000 		.4byte	.LASF97
 6326 1225 01       		.byte	0x1
 6327 1226 7A02     		.2byte	0x27a
 6328 1228 00000000 		.4byte	.LFB64
 6329 122c 1A000000 		.4byte	.LFE64-.LFB64
 6330 1230 01       		.uleb128 0x1
 6331 1231 9C       		.byte	0x9c
 6332 1232 80120000 		.4byte	0x1280
 6333 1236 28       		.uleb128 0x28
 6334 1237 7300     		.ascii	"s\000"
 6335 1239 01       		.byte	0x1
 6336 123a 7A02     		.2byte	0x27a
 6337 123c 10010000 		.4byte	0x110
 6338 1240 1F0E0000 		.4byte	.LLST83
 6339 1244 33       		.uleb128 0x33
 6340 1245 6C656E00 		.ascii	"len\000"
 6341 1249 01       		.byte	0x1
 6342 124a 7C02     		.2byte	0x27c
 6343 124c 90000000 		.4byte	0x90
 6344 1250 4B0E0000 		.4byte	.LLST84
 6345 1254 33       		.uleb128 0x33
 6346 1255 6900     		.ascii	"i\000"
 6347 1257 01       		.byte	0x1
 6348 1258 7D02     		.2byte	0x27d
 6349 125a 90000000 		.4byte	0x90
 6350 125e 5E0E0000 		.4byte	.LLST85
 6351 1262 17       		.uleb128 0x17
 6352 1263 08000000 		.4byte	.LVL209
 6353 1267 AE140000 		.4byte	0x14ae
 6354 126b 76120000 		.4byte	0x1276
 6355 126f 18       		.uleb128 0x18
 6356 1270 01       		.uleb128 0x1
 6357 1271 50       		.byte	0x50
 6358 1272 02       		.uleb128 0x2
 6359 1273 74       		.byte	0x74
 6360 1274 00       		.sleb128 0
 6361 1275 00       		.byte	0
 6362 1276 19       		.uleb128 0x19
 6363 1277 14000000 		.4byte	.LVL211
 6364 127b BC020000 		.4byte	0x2bc
 6365 127f 00       		.byte	0
 6366 1280 25       		.uleb128 0x25
 6367 1281 90040000 		.4byte	.LASF98
 6368 1285 01       		.byte	0x1
 6369 1286 8302     		.2byte	0x283
 6370 1288 00000000 		.4byte	.LFB65
ARM GAS  C:\Users\User\AppData\Local\Temp\cctjmLxv.s 			page 130


 6371 128c 0C000000 		.4byte	.LFE65-.LFB65
 6372 1290 01       		.uleb128 0x1
 6373 1291 9C       		.byte	0x9c
 6374 1292 E2120000 		.4byte	0x12e2
 6375 1296 28       		.uleb128 0x28
 6376 1297 7300     		.ascii	"s\000"
 6377 1299 01       		.byte	0x1
 6378 129a 8302     		.2byte	0x283
 6379 129c 10010000 		.4byte	0x110
 6380 12a0 A70E0000 		.4byte	.LLST86
 6381 12a4 2F       		.uleb128 0x2f
 6382 12a5 BC020000 		.4byte	0x2bc
 6383 12a9 06000000 		.4byte	.LBB55
 6384 12ad 04000000 		.4byte	.LBE55-.LBB55
 6385 12b1 01       		.byte	0x1
 6386 12b2 8502     		.2byte	0x285
 6387 12b4 D0120000 		.4byte	0x12d0
 6388 12b8 3D       		.uleb128 0x3d
 6389 12b9 C9020000 		.4byte	0x2c9
 6390 12bd 0A       		.byte	0xa
 6391 12be 21       		.uleb128 0x21
 6392 12bf 0A000000 		.4byte	.LVL216
 6393 12c3 BC030000 		.4byte	0x3bc
 6394 12c7 3C       		.uleb128 0x3c
 6395 12c8 C9020000 		.4byte	0x2c9
 6396 12cc 01       		.uleb128 0x1
 6397 12cd 3A       		.byte	0x3a
 6398 12ce 00       		.byte	0
 6399 12cf 00       		.byte	0
 6400 12d0 21       		.uleb128 0x21
 6401 12d1 06000000 		.4byte	.LVL215
 6402 12d5 20120000 		.4byte	0x1220
 6403 12d9 18       		.uleb128 0x18
 6404 12da 01       		.uleb128 0x1
 6405 12db 50       		.byte	0x50
 6406 12dc 03       		.uleb128 0x3
 6407 12dd F3       		.byte	0xf3
 6408 12de 01       		.uleb128 0x1
 6409 12df 50       		.byte	0x50
 6410 12e0 00       		.byte	0
 6411 12e1 00       		.byte	0
 6412 12e2 23       		.uleb128 0x23
 6413 12e3 42000000 		.4byte	0x42
 6414 12e7 F3120000 		.4byte	0x12f3
 6415 12eb 3E       		.uleb128 0x3e
 6416 12ec 07010000 		.4byte	0x107
 6417 12f0 FA04     		.2byte	0x4fa
 6418 12f2 00       		.byte	0
 6419 12f3 22       		.uleb128 0x22
 6420 12f4 F0040000 		.4byte	.LASF99
 6421 12f8 07       		.byte	0x7
 6422 12f9 05       		.byte	0x5
 6423 12fa 04130000 		.4byte	0x1304
 6424 12fe 05       		.uleb128 0x5
 6425 12ff 03       		.byte	0x3
 6426 1300 21000000 		.4byte	font
 6427 1304 08       		.uleb128 0x8
ARM GAS  C:\Users\User\AppData\Local\Temp\cctjmLxv.s 			page 131


 6428 1305 E2120000 		.4byte	0x12e2
 6429 1309 22       		.uleb128 0x22
 6430 130a 1C040000 		.4byte	.LASF100
 6431 130e 01       		.byte	0x1
 6432 130f 5B       		.byte	0x5b
 6433 1310 C3000000 		.4byte	0xc3
 6434 1314 05       		.uleb128 0x5
 6435 1315 03       		.byte	0x3
 6436 1316 00000000 		.4byte	_i2caddr
 6437 131a 23       		.uleb128 0x23
 6438 131b A2000000 		.4byte	0xa2
 6439 131f 2B130000 		.4byte	0x132b
 6440 1323 3E       		.uleb128 0x3e
 6441 1324 07010000 		.4byte	0x107
 6442 1328 0004     		.2byte	0x400
 6443 132a 00       		.byte	0
 6444 132b 22       		.uleb128 0x22
 6445 132c 0D030000 		.4byte	.LASF101
 6446 1330 01       		.byte	0x1
 6447 1331 5E       		.byte	0x5e
 6448 1332 1A130000 		.4byte	0x131a
 6449 1336 05       		.uleb128 0x5
 6450 1337 03       		.byte	0x3
 6451 1338 00000000 		.4byte	SSD1306_buffer
 6452 133c 22       		.uleb128 0x22
 6453 133d 7C050000 		.4byte	.LASF102
 6454 1341 01       		.byte	0x1
 6455 1342 60       		.byte	0x60
 6456 1343 4E130000 		.4byte	0x134e
 6457 1347 06       		.uleb128 0x6
 6458 1348 03       		.byte	0x3
 6459 1349 01000000 		.4byte	SSD1306_buffer+1
 6460 134d 9F       		.byte	0x9f
 6461 134e 08       		.uleb128 0x8
 6462 134f C8090000 		.4byte	0x9c8
 6463 1353 3F       		.uleb128 0x3f
 6464 1354 ED030000 		.4byte	.LASF103
 6465 1358 01       		.byte	0x1
 6466 1359 61       		.byte	0x61
 6467 135a 60130000 		.4byte	0x1360
 6468 135e 0004     		.2byte	0x400
 6469 1360 08       		.uleb128 0x8
 6470 1361 B8000000 		.4byte	0xb8
 6471 1365 26       		.uleb128 0x26
 6472 1366 88030000 		.4byte	.LASF104
 6473 136a 01       		.byte	0x1
 6474 136b 5201     		.2byte	0x152
 6475 136d AD000000 		.4byte	0xad
 6476 1371 05       		.uleb128 0x5
 6477 1372 03       		.byte	0x3
 6478 1373 08000000 		.4byte	_width
 6479 1377 26       		.uleb128 0x26
 6480 1378 D9030000 		.4byte	.LASF105
 6481 137c 01       		.byte	0x1
 6482 137d 5201     		.2byte	0x152
 6483 137f AD000000 		.4byte	0xad
 6484 1383 05       		.uleb128 0x5
ARM GAS  C:\Users\User\AppData\Local\Temp\cctjmLxv.s 			page 132


 6485 1384 03       		.byte	0x3
 6486 1385 0A000000 		.4byte	_height
 6487 1389 26       		.uleb128 0x26
 6488 138a 19010000 		.4byte	.LASF106
 6489 138e 01       		.byte	0x1
 6490 138f 5301     		.2byte	0x153
 6491 1391 AD000000 		.4byte	0xad
 6492 1395 05       		.uleb128 0x5
 6493 1396 03       		.byte	0x3
 6494 1397 06000000 		.4byte	cursor_x
 6495 139b 26       		.uleb128 0x26
 6496 139c 22010000 		.4byte	.LASF107
 6497 13a0 01       		.byte	0x1
 6498 13a1 5301     		.2byte	0x153
 6499 13a3 AD000000 		.4byte	0xad
 6500 13a7 05       		.uleb128 0x5
 6501 13a8 03       		.byte	0x3
 6502 13a9 02000000 		.4byte	cursor_y
 6503 13ad 26       		.uleb128 0x26
 6504 13ae 08060000 		.4byte	.LASF108
 6505 13b2 01       		.byte	0x1
 6506 13b3 5401     		.2byte	0x154
 6507 13b5 B8000000 		.4byte	0xb8
 6508 13b9 05       		.uleb128 0x5
 6509 13ba 03       		.byte	0x3
 6510 13bb 0E000000 		.4byte	textcolor
 6511 13bf 26       		.uleb128 0x26
 6512 13c0 12060000 		.4byte	.LASF109
 6513 13c4 01       		.byte	0x1
 6514 13c5 5401     		.2byte	0x154
 6515 13c7 B8000000 		.4byte	0xb8
 6516 13cb 05       		.uleb128 0x5
 6517 13cc 03       		.byte	0x3
 6518 13cd 0C000000 		.4byte	textbgcolor
 6519 13d1 26       		.uleb128 0x26
 6520 13d2 3C010000 		.4byte	.LASF110
 6521 13d6 01       		.byte	0x1
 6522 13d7 5501     		.2byte	0x155
 6523 13d9 A2000000 		.4byte	0xa2
 6524 13dd 05       		.uleb128 0x5
 6525 13de 03       		.byte	0x3
 6526 13df 04000000 		.4byte	textsize
 6527 13e3 40       		.uleb128 0x40
 6528 13e4 44020000 		.4byte	.LASF111
 6529 13e8 01       		.byte	0x1
 6530 13e9 5101     		.2byte	0x151
 6531 13eb AD000000 		.4byte	0xad
 6532 13ef 05       		.uleb128 0x5
 6533 13f0 03       		.byte	0x3
 6534 13f1 00000000 		.4byte	WIDTH
 6535 13f5 40       		.uleb128 0x40
 6536 13f6 FE000000 		.4byte	.LASF112
 6537 13fa 01       		.byte	0x1
 6538 13fb 5101     		.2byte	0x151
 6539 13fd AD000000 		.4byte	0xad
 6540 1401 05       		.uleb128 0x5
 6541 1402 03       		.byte	0x3
ARM GAS  C:\Users\User\AppData\Local\Temp\cctjmLxv.s 			page 133


 6542 1403 00000000 		.4byte	HEIGHT
 6543 1407 40       		.uleb128 0x40
 6544 1408 6A000000 		.4byte	.LASF113
 6545 140c 01       		.byte	0x1
 6546 140d 5601     		.2byte	0x156
 6547 140f A2000000 		.4byte	0xa2
 6548 1413 05       		.uleb128 0x5
 6549 1414 03       		.byte	0x3
 6550 1415 00000000 		.4byte	rotation
 6551 1419 40       		.uleb128 0x40
 6552 141a 31050000 		.4byte	.LASF114
 6553 141e 01       		.byte	0x1
 6554 141f 5701     		.2byte	0x157
 6555 1421 A2000000 		.4byte	0xa2
 6556 1425 05       		.uleb128 0x5
 6557 1426 03       		.byte	0x3
 6558 1427 00000000 		.4byte	wrap
 6559 142b 41       		.uleb128 0x41
 6560 142c F3020000 		.4byte	.LASF125
 6561 1430 08       		.byte	0x8
 6562 1431 1301     		.2byte	0x113
 6563 1433 DB000000 		.4byte	0xdb
 6564 1437 50140000 		.4byte	0x1450
 6565 143b 42       		.uleb128 0x42
 6566 143c DB000000 		.4byte	0xdb
 6567 1440 42       		.uleb128 0x42
 6568 1441 60030000 		.4byte	0x360
 6569 1445 42       		.uleb128 0x42
 6570 1446 DB000000 		.4byte	0xdb
 6571 144a 42       		.uleb128 0x42
 6572 144b DB000000 		.4byte	0xdb
 6573 144f 00       		.byte	0
 6574 1450 43       		.uleb128 0x43
 6575 1451 1C030000 		.4byte	.LASF115
 6576 1455 08       		.byte	0x8
 6577 1456 0F01     		.2byte	0x10f
 6578 1458 DB000000 		.4byte	0xdb
 6579 145c 43       		.uleb128 0x43
 6580 145d 3C060000 		.4byte	.LASF116
 6581 1461 08       		.byte	0x8
 6582 1462 1601     		.2byte	0x116
 6583 1464 DB000000 		.4byte	0xdb
 6584 1468 43       		.uleb128 0x43
 6585 1469 EB050000 		.4byte	.LASF117
 6586 146d 08       		.byte	0x8
 6587 146e 1001     		.2byte	0x110
 6588 1470 DB000000 		.4byte	0xdb
 6589 1474 44       		.uleb128 0x44
 6590 1475 E1030000 		.4byte	.LASF118
 6591 1479 0E010000 		.4byte	0x10e
 6592 147d 91140000 		.4byte	0x1491
 6593 1481 42       		.uleb128 0x42
 6594 1482 0E010000 		.4byte	0x10e
 6595 1486 42       		.uleb128 0x42
 6596 1487 89000000 		.4byte	0x89
 6597 148b 42       		.uleb128 0x42
 6598 148c 07010000 		.4byte	0x107
ARM GAS  C:\Users\User\AppData\Local\Temp\cctjmLxv.s 			page 134


 6599 1490 00       		.byte	0
 6600 1491 44       		.uleb128 0x44
 6601 1492 C4050000 		.4byte	.LASF119
 6602 1496 0E010000 		.4byte	0x10e
 6603 149a AE140000 		.4byte	0x14ae
 6604 149e 42       		.uleb128 0x42
 6605 149f 0E010000 		.4byte	0x10e
 6606 14a3 42       		.uleb128 0x42
 6607 14a4 1B010000 		.4byte	0x11b
 6608 14a8 42       		.uleb128 0x42
 6609 14a9 07010000 		.4byte	0x107
 6610 14ad 00       		.byte	0
 6611 14ae 45       		.uleb128 0x45
 6612 14af 0E000000 		.4byte	.LASF120
 6613 14b3 09       		.byte	0x9
 6614 14b4 21       		.byte	0x21
 6615 14b5 FC000000 		.4byte	0xfc
 6616 14b9 42       		.uleb128 0x42
 6617 14ba 10010000 		.4byte	0x110
 6618 14be 00       		.byte	0
 6619 14bf 00       		.byte	0
 6620              		.section	.debug_abbrev,"",%progbits
 6621              	.Ldebug_abbrev0:
 6622 0000 01       		.uleb128 0x1
 6623 0001 11       		.uleb128 0x11
 6624 0002 01       		.byte	0x1
 6625 0003 25       		.uleb128 0x25
 6626 0004 0E       		.uleb128 0xe
 6627 0005 13       		.uleb128 0x13
 6628 0006 0B       		.uleb128 0xb
 6629 0007 03       		.uleb128 0x3
 6630 0008 0E       		.uleb128 0xe
 6631 0009 1B       		.uleb128 0x1b
 6632 000a 0E       		.uleb128 0xe
 6633 000b 55       		.uleb128 0x55
 6634 000c 17       		.uleb128 0x17
 6635 000d 11       		.uleb128 0x11
 6636 000e 01       		.uleb128 0x1
 6637 000f 10       		.uleb128 0x10
 6638 0010 17       		.uleb128 0x17
 6639 0011 00       		.byte	0
 6640 0012 00       		.byte	0
 6641 0013 02       		.uleb128 0x2
 6642 0014 16       		.uleb128 0x16
 6643 0015 00       		.byte	0
 6644 0016 03       		.uleb128 0x3
 6645 0017 0E       		.uleb128 0xe
 6646 0018 3A       		.uleb128 0x3a
 6647 0019 0B       		.uleb128 0xb
 6648 001a 3B       		.uleb128 0x3b
 6649 001b 0B       		.uleb128 0xb
 6650 001c 49       		.uleb128 0x49
 6651 001d 13       		.uleb128 0x13
 6652 001e 00       		.byte	0
 6653 001f 00       		.byte	0
 6654 0020 03       		.uleb128 0x3
 6655 0021 24       		.uleb128 0x24
ARM GAS  C:\Users\User\AppData\Local\Temp\cctjmLxv.s 			page 135


 6656 0022 00       		.byte	0
 6657 0023 0B       		.uleb128 0xb
 6658 0024 0B       		.uleb128 0xb
 6659 0025 3E       		.uleb128 0x3e
 6660 0026 0B       		.uleb128 0xb
 6661 0027 03       		.uleb128 0x3
 6662 0028 0E       		.uleb128 0xe
 6663 0029 00       		.byte	0
 6664 002a 00       		.byte	0
 6665 002b 04       		.uleb128 0x4
 6666 002c 24       		.uleb128 0x24
 6667 002d 00       		.byte	0
 6668 002e 0B       		.uleb128 0xb
 6669 002f 0B       		.uleb128 0xb
 6670 0030 3E       		.uleb128 0x3e
 6671 0031 0B       		.uleb128 0xb
 6672 0032 03       		.uleb128 0x3
 6673 0033 08       		.uleb128 0x8
 6674 0034 00       		.byte	0
 6675 0035 00       		.byte	0
 6676 0036 05       		.uleb128 0x5
 6677 0037 16       		.uleb128 0x16
 6678 0038 00       		.byte	0
 6679 0039 03       		.uleb128 0x3
 6680 003a 0E       		.uleb128 0xe
 6681 003b 3A       		.uleb128 0x3a
 6682 003c 0B       		.uleb128 0xb
 6683 003d 3B       		.uleb128 0x3b
 6684 003e 05       		.uleb128 0x5
 6685 003f 49       		.uleb128 0x49
 6686 0040 13       		.uleb128 0x13
 6687 0041 00       		.byte	0
 6688 0042 00       		.byte	0
 6689 0043 06       		.uleb128 0x6
 6690 0044 0F       		.uleb128 0xf
 6691 0045 00       		.byte	0
 6692 0046 0B       		.uleb128 0xb
 6693 0047 0B       		.uleb128 0xb
 6694 0048 00       		.byte	0
 6695 0049 00       		.byte	0
 6696 004a 07       		.uleb128 0x7
 6697 004b 0F       		.uleb128 0xf
 6698 004c 00       		.byte	0
 6699 004d 0B       		.uleb128 0xb
 6700 004e 0B       		.uleb128 0xb
 6701 004f 49       		.uleb128 0x49
 6702 0050 13       		.uleb128 0x13
 6703 0051 00       		.byte	0
 6704 0052 00       		.byte	0
 6705 0053 08       		.uleb128 0x8
 6706 0054 26       		.uleb128 0x26
 6707 0055 00       		.byte	0
 6708 0056 49       		.uleb128 0x49
 6709 0057 13       		.uleb128 0x13
 6710 0058 00       		.byte	0
 6711 0059 00       		.byte	0
 6712 005a 09       		.uleb128 0x9
ARM GAS  C:\Users\User\AppData\Local\Temp\cctjmLxv.s 			page 136


 6713 005b 26       		.uleb128 0x26
 6714 005c 00       		.byte	0
 6715 005d 00       		.byte	0
 6716 005e 00       		.byte	0
 6717 005f 0A       		.uleb128 0xa
 6718 0060 04       		.uleb128 0x4
 6719 0061 01       		.byte	0x1
 6720 0062 0B       		.uleb128 0xb
 6721 0063 0B       		.uleb128 0xb
 6722 0064 3A       		.uleb128 0x3a
 6723 0065 0B       		.uleb128 0xb
 6724 0066 3B       		.uleb128 0x3b
 6725 0067 0B       		.uleb128 0xb
 6726 0068 01       		.uleb128 0x1
 6727 0069 13       		.uleb128 0x13
 6728 006a 00       		.byte	0
 6729 006b 00       		.byte	0
 6730 006c 0B       		.uleb128 0xb
 6731 006d 28       		.uleb128 0x28
 6732 006e 00       		.byte	0
 6733 006f 03       		.uleb128 0x3
 6734 0070 0E       		.uleb128 0xe
 6735 0071 1C       		.uleb128 0x1c
 6736 0072 0D       		.uleb128 0xd
 6737 0073 00       		.byte	0
 6738 0074 00       		.byte	0
 6739 0075 0C       		.uleb128 0xc
 6740 0076 2E       		.uleb128 0x2e
 6741 0077 01       		.byte	0x1
 6742 0078 03       		.uleb128 0x3
 6743 0079 0E       		.uleb128 0xe
 6744 007a 3A       		.uleb128 0x3a
 6745 007b 0B       		.uleb128 0xb
 6746 007c 3B       		.uleb128 0x3b
 6747 007d 05       		.uleb128 0x5
 6748 007e 27       		.uleb128 0x27
 6749 007f 19       		.uleb128 0x19
 6750 0080 20       		.uleb128 0x20
 6751 0081 0B       		.uleb128 0xb
 6752 0082 01       		.uleb128 0x1
 6753 0083 13       		.uleb128 0x13
 6754 0084 00       		.byte	0
 6755 0085 00       		.byte	0
 6756 0086 0D       		.uleb128 0xd
 6757 0087 05       		.uleb128 0x5
 6758 0088 00       		.byte	0
 6759 0089 03       		.uleb128 0x3
 6760 008a 08       		.uleb128 0x8
 6761 008b 3A       		.uleb128 0x3a
 6762 008c 0B       		.uleb128 0xb
 6763 008d 3B       		.uleb128 0x3b
 6764 008e 05       		.uleb128 0x5
 6765 008f 49       		.uleb128 0x49
 6766 0090 13       		.uleb128 0x13
 6767 0091 00       		.byte	0
 6768 0092 00       		.byte	0
 6769 0093 0E       		.uleb128 0xe
ARM GAS  C:\Users\User\AppData\Local\Temp\cctjmLxv.s 			page 137


 6770 0094 34       		.uleb128 0x34
 6771 0095 00       		.byte	0
 6772 0096 03       		.uleb128 0x3
 6773 0097 08       		.uleb128 0x8
 6774 0098 3A       		.uleb128 0x3a
 6775 0099 0B       		.uleb128 0xb
 6776 009a 3B       		.uleb128 0x3b
 6777 009b 05       		.uleb128 0x5
 6778 009c 49       		.uleb128 0x49
 6779 009d 13       		.uleb128 0x13
 6780 009e 00       		.byte	0
 6781 009f 00       		.byte	0
 6782 00a0 0F       		.uleb128 0xf
 6783 00a1 2E       		.uleb128 0x2e
 6784 00a2 01       		.byte	0x1
 6785 00a3 3F       		.uleb128 0x3f
 6786 00a4 19       		.uleb128 0x19
 6787 00a5 03       		.uleb128 0x3
 6788 00a6 0E       		.uleb128 0xe
 6789 00a7 3A       		.uleb128 0x3a
 6790 00a8 0B       		.uleb128 0xb
 6791 00a9 3B       		.uleb128 0x3b
 6792 00aa 05       		.uleb128 0x5
 6793 00ab 27       		.uleb128 0x27
 6794 00ac 19       		.uleb128 0x19
 6795 00ad 20       		.uleb128 0x20
 6796 00ae 0B       		.uleb128 0xb
 6797 00af 01       		.uleb128 0x1
 6798 00b0 13       		.uleb128 0x13
 6799 00b1 00       		.byte	0
 6800 00b2 00       		.byte	0
 6801 00b3 10       		.uleb128 0x10
 6802 00b4 05       		.uleb128 0x5
 6803 00b5 00       		.byte	0
 6804 00b6 03       		.uleb128 0x3
 6805 00b7 0E       		.uleb128 0xe
 6806 00b8 3A       		.uleb128 0x3a
 6807 00b9 0B       		.uleb128 0xb
 6808 00ba 3B       		.uleb128 0x3b
 6809 00bb 05       		.uleb128 0x5
 6810 00bc 49       		.uleb128 0x49
 6811 00bd 13       		.uleb128 0x13
 6812 00be 00       		.byte	0
 6813 00bf 00       		.byte	0
 6814 00c0 11       		.uleb128 0x11
 6815 00c1 0B       		.uleb128 0xb
 6816 00c2 01       		.byte	0x1
 6817 00c3 00       		.byte	0
 6818 00c4 00       		.byte	0
 6819 00c5 12       		.uleb128 0x12
 6820 00c6 34       		.uleb128 0x34
 6821 00c7 00       		.byte	0
 6822 00c8 03       		.uleb128 0x3
 6823 00c9 0E       		.uleb128 0xe
 6824 00ca 3A       		.uleb128 0x3a
 6825 00cb 0B       		.uleb128 0xb
 6826 00cc 3B       		.uleb128 0x3b
ARM GAS  C:\Users\User\AppData\Local\Temp\cctjmLxv.s 			page 138


 6827 00cd 05       		.uleb128 0x5
 6828 00ce 49       		.uleb128 0x49
 6829 00cf 13       		.uleb128 0x13
 6830 00d0 00       		.byte	0
 6831 00d1 00       		.byte	0
 6832 00d2 13       		.uleb128 0x13
 6833 00d3 2E       		.uleb128 0x2e
 6834 00d4 01       		.byte	0x1
 6835 00d5 03       		.uleb128 0x3
 6836 00d6 0E       		.uleb128 0xe
 6837 00d7 3A       		.uleb128 0x3a
 6838 00d8 0B       		.uleb128 0xb
 6839 00d9 3B       		.uleb128 0x3b
 6840 00da 0B       		.uleb128 0xb
 6841 00db 27       		.uleb128 0x27
 6842 00dc 19       		.uleb128 0x19
 6843 00dd 49       		.uleb128 0x49
 6844 00de 13       		.uleb128 0x13
 6845 00df 11       		.uleb128 0x11
 6846 00e0 01       		.uleb128 0x1
 6847 00e1 12       		.uleb128 0x12
 6848 00e2 06       		.uleb128 0x6
 6849 00e3 40       		.uleb128 0x40
 6850 00e4 18       		.uleb128 0x18
 6851 00e5 9742     		.uleb128 0x2117
 6852 00e7 19       		.uleb128 0x19
 6853 00e8 01       		.uleb128 0x1
 6854 00e9 13       		.uleb128 0x13
 6855 00ea 00       		.byte	0
 6856 00eb 00       		.byte	0
 6857 00ec 14       		.uleb128 0x14
 6858 00ed 05       		.uleb128 0x5
 6859 00ee 00       		.byte	0
 6860 00ef 03       		.uleb128 0x3
 6861 00f0 08       		.uleb128 0x8
 6862 00f1 3A       		.uleb128 0x3a
 6863 00f2 0B       		.uleb128 0xb
 6864 00f3 3B       		.uleb128 0x3b
 6865 00f4 0B       		.uleb128 0xb
 6866 00f5 49       		.uleb128 0x49
 6867 00f6 13       		.uleb128 0x13
 6868 00f7 02       		.uleb128 0x2
 6869 00f8 17       		.uleb128 0x17
 6870 00f9 00       		.byte	0
 6871 00fa 00       		.byte	0
 6872 00fb 15       		.uleb128 0x15
 6873 00fc 05       		.uleb128 0x5
 6874 00fd 00       		.byte	0
 6875 00fe 03       		.uleb128 0x3
 6876 00ff 0E       		.uleb128 0xe
 6877 0100 3A       		.uleb128 0x3a
 6878 0101 0B       		.uleb128 0xb
 6879 0102 3B       		.uleb128 0x3b
 6880 0103 0B       		.uleb128 0xb
 6881 0104 49       		.uleb128 0x49
 6882 0105 13       		.uleb128 0x13
 6883 0106 02       		.uleb128 0x2
ARM GAS  C:\Users\User\AppData\Local\Temp\cctjmLxv.s 			page 139


 6884 0107 17       		.uleb128 0x17
 6885 0108 00       		.byte	0
 6886 0109 00       		.byte	0
 6887 010a 16       		.uleb128 0x16
 6888 010b 34       		.uleb128 0x34
 6889 010c 00       		.byte	0
 6890 010d 03       		.uleb128 0x3
 6891 010e 0E       		.uleb128 0xe
 6892 010f 3A       		.uleb128 0x3a
 6893 0110 0B       		.uleb128 0xb
 6894 0111 3B       		.uleb128 0x3b
 6895 0112 0B       		.uleb128 0xb
 6896 0113 49       		.uleb128 0x49
 6897 0114 13       		.uleb128 0x13
 6898 0115 02       		.uleb128 0x2
 6899 0116 17       		.uleb128 0x17
 6900 0117 00       		.byte	0
 6901 0118 00       		.byte	0
 6902 0119 17       		.uleb128 0x17
 6903 011a 898201   		.uleb128 0x4109
 6904 011d 01       		.byte	0x1
 6905 011e 11       		.uleb128 0x11
 6906 011f 01       		.uleb128 0x1
 6907 0120 31       		.uleb128 0x31
 6908 0121 13       		.uleb128 0x13
 6909 0122 01       		.uleb128 0x1
 6910 0123 13       		.uleb128 0x13
 6911 0124 00       		.byte	0
 6912 0125 00       		.byte	0
 6913 0126 18       		.uleb128 0x18
 6914 0127 8A8201   		.uleb128 0x410a
 6915 012a 00       		.byte	0
 6916 012b 02       		.uleb128 0x2
 6917 012c 18       		.uleb128 0x18
 6918 012d 9142     		.uleb128 0x2111
 6919 012f 18       		.uleb128 0x18
 6920 0130 00       		.byte	0
 6921 0131 00       		.byte	0
 6922 0132 19       		.uleb128 0x19
 6923 0133 898201   		.uleb128 0x4109
 6924 0136 00       		.byte	0
 6925 0137 11       		.uleb128 0x11
 6926 0138 01       		.uleb128 0x1
 6927 0139 31       		.uleb128 0x31
 6928 013a 13       		.uleb128 0x13
 6929 013b 00       		.byte	0
 6930 013c 00       		.byte	0
 6931 013d 1A       		.uleb128 0x1a
 6932 013e 2E       		.uleb128 0x2e
 6933 013f 01       		.byte	0x1
 6934 0140 31       		.uleb128 0x31
 6935 0141 13       		.uleb128 0x13
 6936 0142 11       		.uleb128 0x11
 6937 0143 01       		.uleb128 0x1
 6938 0144 12       		.uleb128 0x12
 6939 0145 06       		.uleb128 0x6
 6940 0146 40       		.uleb128 0x40
ARM GAS  C:\Users\User\AppData\Local\Temp\cctjmLxv.s 			page 140


 6941 0147 18       		.uleb128 0x18
 6942 0148 9742     		.uleb128 0x2117
 6943 014a 19       		.uleb128 0x19
 6944 014b 01       		.uleb128 0x1
 6945 014c 13       		.uleb128 0x13
 6946 014d 00       		.byte	0
 6947 014e 00       		.byte	0
 6948 014f 1B       		.uleb128 0x1b
 6949 0150 05       		.uleb128 0x5
 6950 0151 00       		.byte	0
 6951 0152 31       		.uleb128 0x31
 6952 0153 13       		.uleb128 0x13
 6953 0154 02       		.uleb128 0x2
 6954 0155 18       		.uleb128 0x18
 6955 0156 00       		.byte	0
 6956 0157 00       		.byte	0
 6957 0158 1C       		.uleb128 0x1c
 6958 0159 34       		.uleb128 0x34
 6959 015a 00       		.byte	0
 6960 015b 31       		.uleb128 0x31
 6961 015c 13       		.uleb128 0x13
 6962 015d 02       		.uleb128 0x2
 6963 015e 17       		.uleb128 0x17
 6964 015f 00       		.byte	0
 6965 0160 00       		.byte	0
 6966 0161 1D       		.uleb128 0x1d
 6967 0162 0B       		.uleb128 0xb
 6968 0163 01       		.byte	0x1
 6969 0164 11       		.uleb128 0x11
 6970 0165 01       		.uleb128 0x1
 6971 0166 12       		.uleb128 0x12
 6972 0167 06       		.uleb128 0x6
 6973 0168 00       		.byte	0
 6974 0169 00       		.byte	0
 6975 016a 1E       		.uleb128 0x1e
 6976 016b 05       		.uleb128 0x5
 6977 016c 00       		.byte	0
 6978 016d 31       		.uleb128 0x31
 6979 016e 13       		.uleb128 0x13
 6980 016f 02       		.uleb128 0x2
 6981 0170 17       		.uleb128 0x17
 6982 0171 00       		.byte	0
 6983 0172 00       		.byte	0
 6984 0173 1F       		.uleb128 0x1f
 6985 0174 34       		.uleb128 0x34
 6986 0175 00       		.byte	0
 6987 0176 31       		.uleb128 0x31
 6988 0177 13       		.uleb128 0x13
 6989 0178 00       		.byte	0
 6990 0179 00       		.byte	0
 6991 017a 20       		.uleb128 0x20
 6992 017b 2E       		.uleb128 0x2e
 6993 017c 01       		.byte	0x1
 6994 017d 3F       		.uleb128 0x3f
 6995 017e 19       		.uleb128 0x19
 6996 017f 03       		.uleb128 0x3
 6997 0180 0E       		.uleb128 0xe
ARM GAS  C:\Users\User\AppData\Local\Temp\cctjmLxv.s 			page 141


 6998 0181 3A       		.uleb128 0x3a
 6999 0182 0B       		.uleb128 0xb
 7000 0183 3B       		.uleb128 0x3b
 7001 0184 0B       		.uleb128 0xb
 7002 0185 27       		.uleb128 0x27
 7003 0186 19       		.uleb128 0x19
 7004 0187 11       		.uleb128 0x11
 7005 0188 01       		.uleb128 0x1
 7006 0189 12       		.uleb128 0x12
 7007 018a 06       		.uleb128 0x6
 7008 018b 40       		.uleb128 0x40
 7009 018c 18       		.uleb128 0x18
 7010 018d 9742     		.uleb128 0x2117
 7011 018f 19       		.uleb128 0x19
 7012 0190 01       		.uleb128 0x1
 7013 0191 13       		.uleb128 0x13
 7014 0192 00       		.byte	0
 7015 0193 00       		.byte	0
 7016 0194 21       		.uleb128 0x21
 7017 0195 898201   		.uleb128 0x4109
 7018 0198 01       		.byte	0x1
 7019 0199 11       		.uleb128 0x11
 7020 019a 01       		.uleb128 0x1
 7021 019b 31       		.uleb128 0x31
 7022 019c 13       		.uleb128 0x13
 7023 019d 00       		.byte	0
 7024 019e 00       		.byte	0
 7025 019f 22       		.uleb128 0x22
 7026 01a0 34       		.uleb128 0x34
 7027 01a1 00       		.byte	0
 7028 01a2 03       		.uleb128 0x3
 7029 01a3 0E       		.uleb128 0xe
 7030 01a4 3A       		.uleb128 0x3a
 7031 01a5 0B       		.uleb128 0xb
 7032 01a6 3B       		.uleb128 0x3b
 7033 01a7 0B       		.uleb128 0xb
 7034 01a8 49       		.uleb128 0x49
 7035 01a9 13       		.uleb128 0x13
 7036 01aa 02       		.uleb128 0x2
 7037 01ab 18       		.uleb128 0x18
 7038 01ac 00       		.byte	0
 7039 01ad 00       		.byte	0
 7040 01ae 23       		.uleb128 0x23
 7041 01af 01       		.uleb128 0x1
 7042 01b0 01       		.byte	0x1
 7043 01b1 49       		.uleb128 0x49
 7044 01b2 13       		.uleb128 0x13
 7045 01b3 01       		.uleb128 0x1
 7046 01b4 13       		.uleb128 0x13
 7047 01b5 00       		.byte	0
 7048 01b6 00       		.byte	0
 7049 01b7 24       		.uleb128 0x24
 7050 01b8 21       		.uleb128 0x21
 7051 01b9 00       		.byte	0
 7052 01ba 49       		.uleb128 0x49
 7053 01bb 13       		.uleb128 0x13
 7054 01bc 2F       		.uleb128 0x2f
ARM GAS  C:\Users\User\AppData\Local\Temp\cctjmLxv.s 			page 142


 7055 01bd 0B       		.uleb128 0xb
 7056 01be 00       		.byte	0
 7057 01bf 00       		.byte	0
 7058 01c0 25       		.uleb128 0x25
 7059 01c1 2E       		.uleb128 0x2e
 7060 01c2 01       		.byte	0x1
 7061 01c3 3F       		.uleb128 0x3f
 7062 01c4 19       		.uleb128 0x19
 7063 01c5 03       		.uleb128 0x3
 7064 01c6 0E       		.uleb128 0xe
 7065 01c7 3A       		.uleb128 0x3a
 7066 01c8 0B       		.uleb128 0xb
 7067 01c9 3B       		.uleb128 0x3b
 7068 01ca 05       		.uleb128 0x5
 7069 01cb 27       		.uleb128 0x27
 7070 01cc 19       		.uleb128 0x19
 7071 01cd 11       		.uleb128 0x11
 7072 01ce 01       		.uleb128 0x1
 7073 01cf 12       		.uleb128 0x12
 7074 01d0 06       		.uleb128 0x6
 7075 01d1 40       		.uleb128 0x40
 7076 01d2 18       		.uleb128 0x18
 7077 01d3 9742     		.uleb128 0x2117
 7078 01d5 19       		.uleb128 0x19
 7079 01d6 01       		.uleb128 0x1
 7080 01d7 13       		.uleb128 0x13
 7081 01d8 00       		.byte	0
 7082 01d9 00       		.byte	0
 7083 01da 26       		.uleb128 0x26
 7084 01db 34       		.uleb128 0x34
 7085 01dc 00       		.byte	0
 7086 01dd 03       		.uleb128 0x3
 7087 01de 0E       		.uleb128 0xe
 7088 01df 3A       		.uleb128 0x3a
 7089 01e0 0B       		.uleb128 0xb
 7090 01e1 3B       		.uleb128 0x3b
 7091 01e2 05       		.uleb128 0x5
 7092 01e3 49       		.uleb128 0x49
 7093 01e4 13       		.uleb128 0x13
 7094 01e5 02       		.uleb128 0x2
 7095 01e6 18       		.uleb128 0x18
 7096 01e7 00       		.byte	0
 7097 01e8 00       		.byte	0
 7098 01e9 27       		.uleb128 0x27
 7099 01ea 05       		.uleb128 0x5
 7100 01eb 00       		.byte	0
 7101 01ec 03       		.uleb128 0x3
 7102 01ed 0E       		.uleb128 0xe
 7103 01ee 3A       		.uleb128 0x3a
 7104 01ef 0B       		.uleb128 0xb
 7105 01f0 3B       		.uleb128 0x3b
 7106 01f1 05       		.uleb128 0x5
 7107 01f2 49       		.uleb128 0x49
 7108 01f3 13       		.uleb128 0x13
 7109 01f4 02       		.uleb128 0x2
 7110 01f5 17       		.uleb128 0x17
 7111 01f6 00       		.byte	0
ARM GAS  C:\Users\User\AppData\Local\Temp\cctjmLxv.s 			page 143


 7112 01f7 00       		.byte	0
 7113 01f8 28       		.uleb128 0x28
 7114 01f9 05       		.uleb128 0x5
 7115 01fa 00       		.byte	0
 7116 01fb 03       		.uleb128 0x3
 7117 01fc 08       		.uleb128 0x8
 7118 01fd 3A       		.uleb128 0x3a
 7119 01fe 0B       		.uleb128 0xb
 7120 01ff 3B       		.uleb128 0x3b
 7121 0200 05       		.uleb128 0x5
 7122 0201 49       		.uleb128 0x49
 7123 0202 13       		.uleb128 0x13
 7124 0203 02       		.uleb128 0x2
 7125 0204 17       		.uleb128 0x17
 7126 0205 00       		.byte	0
 7127 0206 00       		.byte	0
 7128 0207 29       		.uleb128 0x29
 7129 0208 05       		.uleb128 0x5
 7130 0209 00       		.byte	0
 7131 020a 03       		.uleb128 0x3
 7132 020b 0E       		.uleb128 0xe
 7133 020c 3A       		.uleb128 0x3a
 7134 020d 0B       		.uleb128 0xb
 7135 020e 3B       		.uleb128 0x3b
 7136 020f 05       		.uleb128 0x5
 7137 0210 49       		.uleb128 0x49
 7138 0211 13       		.uleb128 0x13
 7139 0212 02       		.uleb128 0x2
 7140 0213 18       		.uleb128 0x18
 7141 0214 00       		.byte	0
 7142 0215 00       		.byte	0
 7143 0216 2A       		.uleb128 0x2a
 7144 0217 2E       		.uleb128 0x2e
 7145 0218 00       		.byte	0
 7146 0219 3F       		.uleb128 0x3f
 7147 021a 19       		.uleb128 0x19
 7148 021b 03       		.uleb128 0x3
 7149 021c 0E       		.uleb128 0xe
 7150 021d 3A       		.uleb128 0x3a
 7151 021e 0B       		.uleb128 0xb
 7152 021f 3B       		.uleb128 0x3b
 7153 0220 05       		.uleb128 0x5
 7154 0221 27       		.uleb128 0x27
 7155 0222 19       		.uleb128 0x19
 7156 0223 49       		.uleb128 0x49
 7157 0224 13       		.uleb128 0x13
 7158 0225 11       		.uleb128 0x11
 7159 0226 01       		.uleb128 0x1
 7160 0227 12       		.uleb128 0x12
 7161 0228 06       		.uleb128 0x6
 7162 0229 40       		.uleb128 0x40
 7163 022a 18       		.uleb128 0x18
 7164 022b 9742     		.uleb128 0x2117
 7165 022d 19       		.uleb128 0x19
 7166 022e 00       		.byte	0
 7167 022f 00       		.byte	0
 7168 0230 2B       		.uleb128 0x2b
ARM GAS  C:\Users\User\AppData\Local\Temp\cctjmLxv.s 			page 144


 7169 0231 05       		.uleb128 0x5
 7170 0232 00       		.byte	0
 7171 0233 03       		.uleb128 0x3
 7172 0234 08       		.uleb128 0x8
 7173 0235 3A       		.uleb128 0x3a
 7174 0236 0B       		.uleb128 0xb
 7175 0237 3B       		.uleb128 0x3b
 7176 0238 05       		.uleb128 0x5
 7177 0239 49       		.uleb128 0x49
 7178 023a 13       		.uleb128 0x13
 7179 023b 02       		.uleb128 0x2
 7180 023c 18       		.uleb128 0x18
 7181 023d 00       		.byte	0
 7182 023e 00       		.byte	0
 7183 023f 2C       		.uleb128 0x2c
 7184 0240 2E       		.uleb128 0x2e
 7185 0241 01       		.byte	0x1
 7186 0242 03       		.uleb128 0x3
 7187 0243 0E       		.uleb128 0xe
 7188 0244 3A       		.uleb128 0x3a
 7189 0245 0B       		.uleb128 0xb
 7190 0246 3B       		.uleb128 0x3b
 7191 0247 0B       		.uleb128 0xb
 7192 0248 27       		.uleb128 0x27
 7193 0249 19       		.uleb128 0x19
 7194 024a 20       		.uleb128 0x20
 7195 024b 0B       		.uleb128 0xb
 7196 024c 01       		.uleb128 0x1
 7197 024d 13       		.uleb128 0x13
 7198 024e 00       		.byte	0
 7199 024f 00       		.byte	0
 7200 0250 2D       		.uleb128 0x2d
 7201 0251 05       		.uleb128 0x5
 7202 0252 00       		.byte	0
 7203 0253 03       		.uleb128 0x3
 7204 0254 08       		.uleb128 0x8
 7205 0255 3A       		.uleb128 0x3a
 7206 0256 0B       		.uleb128 0xb
 7207 0257 3B       		.uleb128 0x3b
 7208 0258 0B       		.uleb128 0xb
 7209 0259 49       		.uleb128 0x49
 7210 025a 13       		.uleb128 0x13
 7211 025b 00       		.byte	0
 7212 025c 00       		.byte	0
 7213 025d 2E       		.uleb128 0x2e
 7214 025e 05       		.uleb128 0x5
 7215 025f 00       		.byte	0
 7216 0260 03       		.uleb128 0x3
 7217 0261 0E       		.uleb128 0xe
 7218 0262 3A       		.uleb128 0x3a
 7219 0263 0B       		.uleb128 0xb
 7220 0264 3B       		.uleb128 0x3b
 7221 0265 0B       		.uleb128 0xb
 7222 0266 49       		.uleb128 0x49
 7223 0267 13       		.uleb128 0x13
 7224 0268 00       		.byte	0
 7225 0269 00       		.byte	0
ARM GAS  C:\Users\User\AppData\Local\Temp\cctjmLxv.s 			page 145


 7226 026a 2F       		.uleb128 0x2f
 7227 026b 1D       		.uleb128 0x1d
 7228 026c 01       		.byte	0x1
 7229 026d 31       		.uleb128 0x31
 7230 026e 13       		.uleb128 0x13
 7231 026f 11       		.uleb128 0x11
 7232 0270 01       		.uleb128 0x1
 7233 0271 12       		.uleb128 0x12
 7234 0272 06       		.uleb128 0x6
 7235 0273 58       		.uleb128 0x58
 7236 0274 0B       		.uleb128 0xb
 7237 0275 59       		.uleb128 0x59
 7238 0276 05       		.uleb128 0x5
 7239 0277 01       		.uleb128 0x1
 7240 0278 13       		.uleb128 0x13
 7241 0279 00       		.byte	0
 7242 027a 00       		.byte	0
 7243 027b 30       		.uleb128 0x30
 7244 027c 0B       		.uleb128 0xb
 7245 027d 01       		.byte	0x1
 7246 027e 01       		.uleb128 0x1
 7247 027f 13       		.uleb128 0x13
 7248 0280 00       		.byte	0
 7249 0281 00       		.byte	0
 7250 0282 31       		.uleb128 0x31
 7251 0283 34       		.uleb128 0x34
 7252 0284 00       		.byte	0
 7253 0285 03       		.uleb128 0x3
 7254 0286 0E       		.uleb128 0xe
 7255 0287 3A       		.uleb128 0x3a
 7256 0288 0B       		.uleb128 0xb
 7257 0289 3B       		.uleb128 0x3b
 7258 028a 0B       		.uleb128 0xb
 7259 028b 49       		.uleb128 0x49
 7260 028c 13       		.uleb128 0x13
 7261 028d 00       		.byte	0
 7262 028e 00       		.byte	0
 7263 028f 32       		.uleb128 0x32
 7264 0290 34       		.uleb128 0x34
 7265 0291 00       		.byte	0
 7266 0292 03       		.uleb128 0x3
 7267 0293 08       		.uleb128 0x8
 7268 0294 3A       		.uleb128 0x3a
 7269 0295 0B       		.uleb128 0xb
 7270 0296 3B       		.uleb128 0x3b
 7271 0297 0B       		.uleb128 0xb
 7272 0298 49       		.uleb128 0x49
 7273 0299 13       		.uleb128 0x13
 7274 029a 00       		.byte	0
 7275 029b 00       		.byte	0
 7276 029c 33       		.uleb128 0x33
 7277 029d 34       		.uleb128 0x34
 7278 029e 00       		.byte	0
 7279 029f 03       		.uleb128 0x3
 7280 02a0 08       		.uleb128 0x8
 7281 02a1 3A       		.uleb128 0x3a
 7282 02a2 0B       		.uleb128 0xb
ARM GAS  C:\Users\User\AppData\Local\Temp\cctjmLxv.s 			page 146


 7283 02a3 3B       		.uleb128 0x3b
 7284 02a4 05       		.uleb128 0x5
 7285 02a5 49       		.uleb128 0x49
 7286 02a6 13       		.uleb128 0x13
 7287 02a7 02       		.uleb128 0x2
 7288 02a8 17       		.uleb128 0x17
 7289 02a9 00       		.byte	0
 7290 02aa 00       		.byte	0
 7291 02ab 34       		.uleb128 0x34
 7292 02ac 34       		.uleb128 0x34
 7293 02ad 00       		.byte	0
 7294 02ae 03       		.uleb128 0x3
 7295 02af 0E       		.uleb128 0xe
 7296 02b0 3A       		.uleb128 0x3a
 7297 02b1 0B       		.uleb128 0xb
 7298 02b2 3B       		.uleb128 0x3b
 7299 02b3 05       		.uleb128 0x5
 7300 02b4 49       		.uleb128 0x49
 7301 02b5 13       		.uleb128 0x13
 7302 02b6 02       		.uleb128 0x2
 7303 02b7 17       		.uleb128 0x17
 7304 02b8 00       		.byte	0
 7305 02b9 00       		.byte	0
 7306 02ba 35       		.uleb128 0x35
 7307 02bb 1D       		.uleb128 0x1d
 7308 02bc 01       		.byte	0x1
 7309 02bd 31       		.uleb128 0x31
 7310 02be 13       		.uleb128 0x13
 7311 02bf 52       		.uleb128 0x52
 7312 02c0 01       		.uleb128 0x1
 7313 02c1 55       		.uleb128 0x55
 7314 02c2 17       		.uleb128 0x17
 7315 02c3 58       		.uleb128 0x58
 7316 02c4 0B       		.uleb128 0xb
 7317 02c5 59       		.uleb128 0x59
 7318 02c6 05       		.uleb128 0x5
 7319 02c7 01       		.uleb128 0x1
 7320 02c8 13       		.uleb128 0x13
 7321 02c9 00       		.byte	0
 7322 02ca 00       		.byte	0
 7323 02cb 36       		.uleb128 0x36
 7324 02cc 0B       		.uleb128 0xb
 7325 02cd 01       		.byte	0x1
 7326 02ce 11       		.uleb128 0x11
 7327 02cf 01       		.uleb128 0x1
 7328 02d0 12       		.uleb128 0x12
 7329 02d1 06       		.uleb128 0x6
 7330 02d2 01       		.uleb128 0x1
 7331 02d3 13       		.uleb128 0x13
 7332 02d4 00       		.byte	0
 7333 02d5 00       		.byte	0
 7334 02d6 37       		.uleb128 0x37
 7335 02d7 0B       		.uleb128 0xb
 7336 02d8 01       		.byte	0x1
 7337 02d9 55       		.uleb128 0x55
 7338 02da 17       		.uleb128 0x17
 7339 02db 01       		.uleb128 0x1
ARM GAS  C:\Users\User\AppData\Local\Temp\cctjmLxv.s 			page 147


 7340 02dc 13       		.uleb128 0x13
 7341 02dd 00       		.byte	0
 7342 02de 00       		.byte	0
 7343 02df 38       		.uleb128 0x38
 7344 02e0 0B       		.uleb128 0xb
 7345 02e1 01       		.byte	0x1
 7346 02e2 55       		.uleb128 0x55
 7347 02e3 17       		.uleb128 0x17
 7348 02e4 00       		.byte	0
 7349 02e5 00       		.byte	0
 7350 02e6 39       		.uleb128 0x39
 7351 02e7 34       		.uleb128 0x34
 7352 02e8 00       		.byte	0
 7353 02e9 31       		.uleb128 0x31
 7354 02ea 13       		.uleb128 0x13
 7355 02eb 02       		.uleb128 0x2
 7356 02ec 18       		.uleb128 0x18
 7357 02ed 00       		.byte	0
 7358 02ee 00       		.byte	0
 7359 02ef 3A       		.uleb128 0x3a
 7360 02f0 05       		.uleb128 0x5
 7361 02f1 00       		.byte	0
 7362 02f2 31       		.uleb128 0x31
 7363 02f3 13       		.uleb128 0x13
 7364 02f4 00       		.byte	0
 7365 02f5 00       		.byte	0
 7366 02f6 3B       		.uleb128 0x3b
 7367 02f7 34       		.uleb128 0x34
 7368 02f8 00       		.byte	0
 7369 02f9 03       		.uleb128 0x3
 7370 02fa 08       		.uleb128 0x8
 7371 02fb 3A       		.uleb128 0x3a
 7372 02fc 0B       		.uleb128 0xb
 7373 02fd 3B       		.uleb128 0x3b
 7374 02fe 05       		.uleb128 0x5
 7375 02ff 49       		.uleb128 0x49
 7376 0300 13       		.uleb128 0x13
 7377 0301 02       		.uleb128 0x2
 7378 0302 18       		.uleb128 0x18
 7379 0303 00       		.byte	0
 7380 0304 00       		.byte	0
 7381 0305 3C       		.uleb128 0x3c
 7382 0306 8A8201   		.uleb128 0x410a
 7383 0309 00       		.byte	0
 7384 030a 31       		.uleb128 0x31
 7385 030b 13       		.uleb128 0x13
 7386 030c 9142     		.uleb128 0x2111
 7387 030e 18       		.uleb128 0x18
 7388 030f 00       		.byte	0
 7389 0310 00       		.byte	0
 7390 0311 3D       		.uleb128 0x3d
 7391 0312 05       		.uleb128 0x5
 7392 0313 00       		.byte	0
 7393 0314 31       		.uleb128 0x31
 7394 0315 13       		.uleb128 0x13
 7395 0316 1C       		.uleb128 0x1c
 7396 0317 0B       		.uleb128 0xb
ARM GAS  C:\Users\User\AppData\Local\Temp\cctjmLxv.s 			page 148


 7397 0318 00       		.byte	0
 7398 0319 00       		.byte	0
 7399 031a 3E       		.uleb128 0x3e
 7400 031b 21       		.uleb128 0x21
 7401 031c 00       		.byte	0
 7402 031d 49       		.uleb128 0x49
 7403 031e 13       		.uleb128 0x13
 7404 031f 2F       		.uleb128 0x2f
 7405 0320 05       		.uleb128 0x5
 7406 0321 00       		.byte	0
 7407 0322 00       		.byte	0
 7408 0323 3F       		.uleb128 0x3f
 7409 0324 34       		.uleb128 0x34
 7410 0325 00       		.byte	0
 7411 0326 03       		.uleb128 0x3
 7412 0327 0E       		.uleb128 0xe
 7413 0328 3A       		.uleb128 0x3a
 7414 0329 0B       		.uleb128 0xb
 7415 032a 3B       		.uleb128 0x3b
 7416 032b 0B       		.uleb128 0xb
 7417 032c 49       		.uleb128 0x49
 7418 032d 13       		.uleb128 0x13
 7419 032e 1C       		.uleb128 0x1c
 7420 032f 05       		.uleb128 0x5
 7421 0330 00       		.byte	0
 7422 0331 00       		.byte	0
 7423 0332 40       		.uleb128 0x40
 7424 0333 34       		.uleb128 0x34
 7425 0334 00       		.byte	0
 7426 0335 03       		.uleb128 0x3
 7427 0336 0E       		.uleb128 0xe
 7428 0337 3A       		.uleb128 0x3a
 7429 0338 0B       		.uleb128 0xb
 7430 0339 3B       		.uleb128 0x3b
 7431 033a 05       		.uleb128 0x5
 7432 033b 49       		.uleb128 0x49
 7433 033c 13       		.uleb128 0x13
 7434 033d 3F       		.uleb128 0x3f
 7435 033e 19       		.uleb128 0x19
 7436 033f 02       		.uleb128 0x2
 7437 0340 18       		.uleb128 0x18
 7438 0341 00       		.byte	0
 7439 0342 00       		.byte	0
 7440 0343 41       		.uleb128 0x41
 7441 0344 2E       		.uleb128 0x2e
 7442 0345 01       		.byte	0x1
 7443 0346 3F       		.uleb128 0x3f
 7444 0347 19       		.uleb128 0x19
 7445 0348 03       		.uleb128 0x3
 7446 0349 0E       		.uleb128 0xe
 7447 034a 3A       		.uleb128 0x3a
 7448 034b 0B       		.uleb128 0xb
 7449 034c 3B       		.uleb128 0x3b
 7450 034d 05       		.uleb128 0x5
 7451 034e 27       		.uleb128 0x27
 7452 034f 19       		.uleb128 0x19
 7453 0350 49       		.uleb128 0x49
ARM GAS  C:\Users\User\AppData\Local\Temp\cctjmLxv.s 			page 149


 7454 0351 13       		.uleb128 0x13
 7455 0352 3C       		.uleb128 0x3c
 7456 0353 19       		.uleb128 0x19
 7457 0354 01       		.uleb128 0x1
 7458 0355 13       		.uleb128 0x13
 7459 0356 00       		.byte	0
 7460 0357 00       		.byte	0
 7461 0358 42       		.uleb128 0x42
 7462 0359 05       		.uleb128 0x5
 7463 035a 00       		.byte	0
 7464 035b 49       		.uleb128 0x49
 7465 035c 13       		.uleb128 0x13
 7466 035d 00       		.byte	0
 7467 035e 00       		.byte	0
 7468 035f 43       		.uleb128 0x43
 7469 0360 2E       		.uleb128 0x2e
 7470 0361 00       		.byte	0
 7471 0362 3F       		.uleb128 0x3f
 7472 0363 19       		.uleb128 0x19
 7473 0364 03       		.uleb128 0x3
 7474 0365 0E       		.uleb128 0xe
 7475 0366 3A       		.uleb128 0x3a
 7476 0367 0B       		.uleb128 0xb
 7477 0368 3B       		.uleb128 0x3b
 7478 0369 05       		.uleb128 0x5
 7479 036a 27       		.uleb128 0x27
 7480 036b 19       		.uleb128 0x19
 7481 036c 49       		.uleb128 0x49
 7482 036d 13       		.uleb128 0x13
 7483 036e 3C       		.uleb128 0x3c
 7484 036f 19       		.uleb128 0x19
 7485 0370 00       		.byte	0
 7486 0371 00       		.byte	0
 7487 0372 44       		.uleb128 0x44
 7488 0373 2E       		.uleb128 0x2e
 7489 0374 01       		.byte	0x1
 7490 0375 3F       		.uleb128 0x3f
 7491 0376 19       		.uleb128 0x19
 7492 0377 03       		.uleb128 0x3
 7493 0378 0E       		.uleb128 0xe
 7494 0379 27       		.uleb128 0x27
 7495 037a 19       		.uleb128 0x19
 7496 037b 49       		.uleb128 0x49
 7497 037c 13       		.uleb128 0x13
 7498 037d 34       		.uleb128 0x34
 7499 037e 19       		.uleb128 0x19
 7500 037f 3C       		.uleb128 0x3c
 7501 0380 19       		.uleb128 0x19
 7502 0381 01       		.uleb128 0x1
 7503 0382 13       		.uleb128 0x13
 7504 0383 00       		.byte	0
 7505 0384 00       		.byte	0
 7506 0385 45       		.uleb128 0x45
 7507 0386 2E       		.uleb128 0x2e
 7508 0387 01       		.byte	0x1
 7509 0388 3F       		.uleb128 0x3f
 7510 0389 19       		.uleb128 0x19
ARM GAS  C:\Users\User\AppData\Local\Temp\cctjmLxv.s 			page 150


 7511 038a 03       		.uleb128 0x3
 7512 038b 0E       		.uleb128 0xe
 7513 038c 3A       		.uleb128 0x3a
 7514 038d 0B       		.uleb128 0xb
 7515 038e 3B       		.uleb128 0x3b
 7516 038f 0B       		.uleb128 0xb
 7517 0390 27       		.uleb128 0x27
 7518 0391 19       		.uleb128 0x19
 7519 0392 49       		.uleb128 0x49
 7520 0393 13       		.uleb128 0x13
 7521 0394 3C       		.uleb128 0x3c
 7522 0395 19       		.uleb128 0x19
 7523 0396 00       		.byte	0
 7524 0397 00       		.byte	0
 7525 0398 00       		.byte	0
 7526              		.section	.debug_loc,"",%progbits
 7527              	.Ldebug_loc0:
 7528              	.LLST0:
 7529 0000 00000000 		.4byte	.LVL0
 7530 0004 0C000000 		.4byte	.LVL2
 7531 0008 0100     		.2byte	0x1
 7532 000a 50       		.byte	0x50
 7533 000b 0C000000 		.4byte	.LVL2
 7534 000f 13000000 		.4byte	.LVL3-1
 7535 0013 0100     		.2byte	0x1
 7536 0015 51       		.byte	0x51
 7537 0016 13000000 		.4byte	.LVL3-1
 7538 001a 44000000 		.4byte	.LFE35
 7539 001e 0400     		.2byte	0x4
 7540 0020 F3       		.byte	0xf3
 7541 0021 01       		.uleb128 0x1
 7542 0022 50       		.byte	0x50
 7543 0023 9F       		.byte	0x9f
 7544 0024 00000000 		.4byte	0
 7545 0028 00000000 		.4byte	0
 7546              	.LLST1:
 7547 002c 00000000 		.4byte	.LVL0
 7548 0030 0A000000 		.4byte	.LVL1
 7549 0034 0100     		.2byte	0x1
 7550 0036 51       		.byte	0x51
 7551 0037 0A000000 		.4byte	.LVL1
 7552 003b 44000000 		.4byte	.LFE35
 7553 003f 0400     		.2byte	0x4
 7554 0041 F3       		.byte	0xf3
 7555 0042 01       		.uleb128 0x1
 7556 0043 51       		.byte	0x51
 7557 0044 9F       		.byte	0x9f
 7558 0045 00000000 		.4byte	0
 7559 0049 00000000 		.4byte	0
 7560              	.LLST2:
 7561 004d 00000000 		.4byte	.LVL0
 7562 0051 36000000 		.4byte	.LVL7
 7563 0055 0300     		.2byte	0x3
 7564 0057 08       		.byte	0x8
 7565 0058 FF       		.byte	0xff
 7566 0059 9F       		.byte	0x9f
 7567 005a 36000000 		.4byte	.LVL7
ARM GAS  C:\Users\User\AppData\Local\Temp\cctjmLxv.s 			page 151


 7568 005e 3C000000 		.4byte	.LVL9
 7569 0062 0100     		.2byte	0x1
 7570 0064 54       		.byte	0x54
 7571 0065 3C000000 		.4byte	.LVL9
 7572 0069 44000000 		.4byte	.LFE35
 7573 006d 0100     		.2byte	0x1
 7574 006f 50       		.byte	0x50
 7575 0070 00000000 		.4byte	0
 7576 0074 00000000 		.4byte	0
 7577              	.LLST3:
 7578 0078 06000000 		.4byte	.LVL11
 7579 007c 4C000000 		.4byte	.LVL14
 7580 0080 0100     		.2byte	0x1
 7581 0082 54       		.byte	0x54
 7582 0083 00000000 		.4byte	0
 7583 0087 00000000 		.4byte	0
 7584              	.LLST4:
 7585 008b 24000000 		.4byte	.LVL12
 7586 008f 3E000000 		.4byte	.LVL13
 7587 0093 0100     		.2byte	0x1
 7588 0095 51       		.byte	0x51
 7589 0096 00000000 		.4byte	0
 7590 009a 00000000 		.4byte	0
 7591              	.LLST5:
 7592 009e 24000000 		.4byte	.LVL12
 7593 00a2 3E000000 		.4byte	.LVL13
 7594 00a6 0100     		.2byte	0x1
 7595 00a8 50       		.byte	0x50
 7596 00a9 00000000 		.4byte	0
 7597 00ad 00000000 		.4byte	0
 7598              	.LLST6:
 7599 00b1 00000000 		.4byte	.LVL17
 7600 00b5 0E000000 		.4byte	.LVL18
 7601 00b9 0100     		.2byte	0x1
 7602 00bb 50       		.byte	0x50
 7603 00bc 0E000000 		.4byte	.LVL18
 7604 00c0 15000000 		.4byte	.LVL19-1
 7605 00c4 0200     		.2byte	0x2
 7606 00c6 70       		.byte	0x70
 7607 00c7 02       		.sleb128 2
 7608 00c8 15000000 		.4byte	.LVL19-1
 7609 00cc 18000000 		.4byte	.LFE38
 7610 00d0 0400     		.2byte	0x4
 7611 00d2 F3       		.byte	0xf3
 7612 00d3 01       		.uleb128 0x1
 7613 00d4 50       		.byte	0x50
 7614 00d5 9F       		.byte	0x9f
 7615 00d6 00000000 		.4byte	0
 7616 00da 00000000 		.4byte	0
 7617              	.LLST7:
 7618 00de 00000000 		.4byte	.LVL20
 7619 00e2 08000000 		.4byte	.LVL21
 7620 00e6 0100     		.2byte	0x1
 7621 00e8 50       		.byte	0x50
 7622 00e9 08000000 		.4byte	.LVL21
 7623 00ed 1A000000 		.4byte	.LFE39
 7624 00f1 0400     		.2byte	0x4
ARM GAS  C:\Users\User\AppData\Local\Temp\cctjmLxv.s 			page 152


 7625 00f3 F3       		.byte	0xf3
 7626 00f4 01       		.uleb128 0x1
 7627 00f5 50       		.byte	0x50
 7628 00f6 9F       		.byte	0x9f
 7629 00f7 00000000 		.4byte	0
 7630 00fb 00000000 		.4byte	0
 7631              	.LLST8:
 7632 00ff 00000000 		.4byte	.LVL27
 7633 0103 14000000 		.4byte	.LVL29
 7634 0107 0100     		.2byte	0x1
 7635 0109 50       		.byte	0x50
 7636 010a 14000000 		.4byte	.LVL29
 7637 010e 25000000 		.4byte	.LVL31-1
 7638 0112 0200     		.2byte	0x2
 7639 0114 74       		.byte	0x74
 7640 0115 03       		.sleb128 3
 7641 0116 25000000 		.4byte	.LVL31-1
 7642 011a 2A000000 		.4byte	.LFE43
 7643 011e 0400     		.2byte	0x4
 7644 0120 F3       		.byte	0xf3
 7645 0121 01       		.uleb128 0x1
 7646 0122 50       		.byte	0x50
 7647 0123 9F       		.byte	0x9f
 7648 0124 00000000 		.4byte	0
 7649 0128 00000000 		.4byte	0
 7650              	.LLST9:
 7651 012c 00000000 		.4byte	.LVL27
 7652 0130 18000000 		.4byte	.LVL30
 7653 0134 0100     		.2byte	0x1
 7654 0136 51       		.byte	0x51
 7655 0137 18000000 		.4byte	.LVL30
 7656 013b 25000000 		.4byte	.LVL31-1
 7657 013f 0200     		.2byte	0x2
 7658 0141 74       		.byte	0x74
 7659 0142 05       		.sleb128 5
 7660 0143 25000000 		.4byte	.LVL31-1
 7661 0147 2A000000 		.4byte	.LFE43
 7662 014b 0400     		.2byte	0x4
 7663 014d F3       		.byte	0xf3
 7664 014e 01       		.uleb128 0x1
 7665 014f 51       		.byte	0x51
 7666 0150 9F       		.byte	0x9f
 7667 0151 00000000 		.4byte	0
 7668 0155 00000000 		.4byte	0
 7669              	.LLST10:
 7670 0159 00000000 		.4byte	.LVL27
 7671 015d 25000000 		.4byte	.LVL31-1
 7672 0161 0100     		.2byte	0x1
 7673 0163 52       		.byte	0x52
 7674 0164 25000000 		.4byte	.LVL31-1
 7675 0168 2A000000 		.4byte	.LFE43
 7676 016c 0400     		.2byte	0x4
 7677 016e F3       		.byte	0xf3
 7678 016f 01       		.uleb128 0x1
 7679 0170 52       		.byte	0x52
 7680 0171 9F       		.byte	0x9f
 7681 0172 00000000 		.4byte	0
ARM GAS  C:\Users\User\AppData\Local\Temp\cctjmLxv.s 			page 153


 7682 0176 00000000 		.4byte	0
 7683              	.LLST11:
 7684 017a 00000000 		.4byte	.LVL27
 7685 017e 0A000000 		.4byte	.LVL28
 7686 0182 0100     		.2byte	0x1
 7687 0184 53       		.byte	0x53
 7688 0185 0A000000 		.4byte	.LVL28
 7689 0189 25000000 		.4byte	.LVL31-1
 7690 018d 0200     		.2byte	0x2
 7691 018f 74       		.byte	0x74
 7692 0190 04       		.sleb128 4
 7693 0191 25000000 		.4byte	.LVL31-1
 7694 0195 2A000000 		.4byte	.LFE43
 7695 0199 0400     		.2byte	0x4
 7696 019b F3       		.byte	0xf3
 7697 019c 01       		.uleb128 0x1
 7698 019d 53       		.byte	0x53
 7699 019e 9F       		.byte	0x9f
 7700 019f 00000000 		.4byte	0
 7701 01a3 00000000 		.4byte	0
 7702              	.LLST12:
 7703 01a7 00000000 		.4byte	.LVL32
 7704 01ab 10000000 		.4byte	.LVL33
 7705 01af 0100     		.2byte	0x1
 7706 01b1 51       		.byte	0x51
 7707 01b2 10000000 		.4byte	.LVL33
 7708 01b6 40000000 		.4byte	.LFE44
 7709 01ba 0500     		.2byte	0x5
 7710 01bc 03       		.byte	0x3
 7711 01bd 00000000 		.4byte	HEIGHT
 7712 01c1 00000000 		.4byte	0
 7713 01c5 00000000 		.4byte	0
 7714              	.LLST13:
 7715 01c9 00000000 		.4byte	.LVL34
 7716 01cd 0E000000 		.4byte	.LVL35
 7717 01d1 0100     		.2byte	0x1
 7718 01d3 50       		.byte	0x50
 7719 01d4 0E000000 		.4byte	.LVL35
 7720 01d8 11000000 		.4byte	.LVL36-1
 7721 01dc 0500     		.2byte	0x5
 7722 01de 03       		.byte	0x3
 7723 01df 00000000 		.4byte	_i2caddr
 7724 01e3 11000000 		.4byte	.LVL36-1
 7725 01e7 34000000 		.4byte	.LFE34
 7726 01eb 0400     		.2byte	0x4
 7727 01ed F3       		.byte	0xf3
 7728 01ee 01       		.uleb128 0x1
 7729 01ef 50       		.byte	0x50
 7730 01f0 9F       		.byte	0x9f
 7731 01f1 00000000 		.4byte	0
 7732 01f5 00000000 		.4byte	0
 7733              	.LLST14:
 7734 01f9 00000000 		.4byte	.LVL44
 7735 01fd 04000000 		.4byte	.LVL45
 7736 0201 0100     		.2byte	0x1
 7737 0203 50       		.byte	0x50
 7738 0204 04000000 		.4byte	.LVL45
ARM GAS  C:\Users\User\AppData\Local\Temp\cctjmLxv.s 			page 154


 7739 0208 38000000 		.4byte	.LFE53
 7740 020c 0400     		.2byte	0x4
 7741 020e F3       		.byte	0xf3
 7742 020f 01       		.uleb128 0x1
 7743 0210 50       		.byte	0x50
 7744 0211 9F       		.byte	0x9f
 7745 0212 00000000 		.4byte	0
 7746 0216 00000000 		.4byte	0
 7747              	.LLST15:
 7748 021a 00000000 		.4byte	.LVL46
 7749 021e 2E000000 		.4byte	.LVL49
 7750 0222 0100     		.2byte	0x1
 7751 0224 50       		.byte	0x50
 7752 0225 2E000000 		.4byte	.LVL49
 7753 0229 33000000 		.4byte	.LVL50-1
 7754 022d 0200     		.2byte	0x2
 7755 022f 70       		.byte	0x70
 7756 0230 00       		.sleb128 0
 7757 0231 33000000 		.4byte	.LVL50-1
 7758 0235 AE000000 		.4byte	.LVL66
 7759 0239 0200     		.2byte	0x2
 7760 023b 76       		.byte	0x76
 7761 023c 00       		.sleb128 0
 7762 023d AE000000 		.4byte	.LVL66
 7763 0241 B8000000 		.4byte	.LFE55
 7764 0245 0200     		.2byte	0x2
 7765 0247 7D       		.byte	0x7d
 7766 0248 06       		.sleb128 6
 7767 0249 00000000 		.4byte	0
 7768 024d 00000000 		.4byte	0
 7769              	.LLST16:
 7770 0251 00000000 		.4byte	.LVL46
 7771 0255 18000000 		.4byte	.LVL48
 7772 0259 0100     		.2byte	0x1
 7773 025b 51       		.byte	0x51
 7774 025c 18000000 		.4byte	.LVL48
 7775 0260 AE000000 		.4byte	.LVL65
 7776 0264 0200     		.2byte	0x2
 7777 0266 75       		.byte	0x75
 7778 0267 00       		.sleb128 0
 7779 0268 AE000000 		.4byte	.LVL65
 7780 026c B8000000 		.4byte	.LFE55
 7781 0270 0200     		.2byte	0x2
 7782 0272 91       		.byte	0x91
 7783 0273 6C       		.sleb128 -20
 7784 0274 00000000 		.4byte	0
 7785 0278 00000000 		.4byte	0
 7786              	.LLST17:
 7787 027c 00000000 		.4byte	.LVL46
 7788 0280 14000000 		.4byte	.LVL47
 7789 0284 0100     		.2byte	0x1
 7790 0286 52       		.byte	0x52
 7791 0287 14000000 		.4byte	.LVL47
 7792 028b B8000000 		.4byte	.LFE55
 7793 028f 0400     		.2byte	0x4
 7794 0291 F3       		.byte	0xf3
 7795 0292 01       		.uleb128 0x1
ARM GAS  C:\Users\User\AppData\Local\Temp\cctjmLxv.s 			page 155


 7796 0293 52       		.byte	0x52
 7797 0294 9F       		.byte	0x9f
 7798 0295 00000000 		.4byte	0
 7799 0299 00000000 		.4byte	0
 7800              	.LLST18:
 7801 029d 38000000 		.4byte	.LVL51
 7802 02a1 86000000 		.4byte	.LVL59
 7803 02a5 0100     		.2byte	0x1
 7804 02a7 54       		.byte	0x54
 7805 02a8 8E000000 		.4byte	.LVL60
 7806 02ac AE000000 		.4byte	.LVL64
 7807 02b0 0100     		.2byte	0x1
 7808 02b2 54       		.byte	0x54
 7809 02b3 00000000 		.4byte	0
 7810 02b7 00000000 		.4byte	0
 7811              	.LLST19:
 7812 02bb 38000000 		.4byte	.LVL51
 7813 02bf 52000000 		.4byte	.LVL52
 7814 02c3 0100     		.2byte	0x1
 7815 02c5 52       		.byte	0x52
 7816 02c6 52000000 		.4byte	.LVL52
 7817 02ca 62000000 		.4byte	.LVL54
 7818 02ce 0100     		.2byte	0x1
 7819 02d0 51       		.byte	0x51
 7820 02d1 62000000 		.4byte	.LVL54
 7821 02d5 70000000 		.4byte	.LVL55
 7822 02d9 0200     		.2byte	0x2
 7823 02db 75       		.byte	0x75
 7824 02dc 00       		.sleb128 0
 7825 02dd 70000000 		.4byte	.LVL55
 7826 02e1 74000000 		.4byte	.LVL56
 7827 02e5 0100     		.2byte	0x1
 7828 02e7 52       		.byte	0x52
 7829 02e8 74000000 		.4byte	.LVL56
 7830 02ec 84000000 		.4byte	.LVL58
 7831 02f0 0100     		.2byte	0x1
 7832 02f2 51       		.byte	0x51
 7833 02f3 84000000 		.4byte	.LVL58
 7834 02f7 8E000000 		.4byte	.LVL60
 7835 02fb 0200     		.2byte	0x2
 7836 02fd 75       		.byte	0x75
 7837 02fe 00       		.sleb128 0
 7838 02ff 8E000000 		.4byte	.LVL60
 7839 0303 92000000 		.4byte	.LVL61
 7840 0307 0100     		.2byte	0x1
 7841 0309 52       		.byte	0x52
 7842 030a 92000000 		.4byte	.LVL61
 7843 030e A2000000 		.4byte	.LVL63
 7844 0312 0100     		.2byte	0x1
 7845 0314 51       		.byte	0x51
 7846 0315 A2000000 		.4byte	.LVL63
 7847 0319 AE000000 		.4byte	.LVL64
 7848 031d 0200     		.2byte	0x2
 7849 031f 75       		.byte	0x75
 7850 0320 00       		.sleb128 0
 7851 0321 00000000 		.4byte	0
 7852 0325 00000000 		.4byte	0
ARM GAS  C:\Users\User\AppData\Local\Temp\cctjmLxv.s 			page 156


 7853              	.LLST20:
 7854 0329 38000000 		.4byte	.LVL51
 7855 032d 58000000 		.4byte	.LVL53
 7856 0331 0100     		.2byte	0x1
 7857 0333 53       		.byte	0x53
 7858 0334 58000000 		.4byte	.LVL53
 7859 0338 70000000 		.4byte	.LVL55
 7860 033c 0200     		.2byte	0x2
 7861 033e 76       		.byte	0x76
 7862 033f 00       		.sleb128 0
 7863 0340 70000000 		.4byte	.LVL55
 7864 0344 7A000000 		.4byte	.LVL57
 7865 0348 0100     		.2byte	0x1
 7866 034a 53       		.byte	0x53
 7867 034b 7A000000 		.4byte	.LVL57
 7868 034f 8E000000 		.4byte	.LVL60
 7869 0353 0200     		.2byte	0x2
 7870 0355 76       		.byte	0x76
 7871 0356 00       		.sleb128 0
 7872 0357 8E000000 		.4byte	.LVL60
 7873 035b 98000000 		.4byte	.LVL62
 7874 035f 0100     		.2byte	0x1
 7875 0361 53       		.byte	0x53
 7876 0362 98000000 		.4byte	.LVL62
 7877 0366 AE000000 		.4byte	.LVL64
 7878 036a 0200     		.2byte	0x2
 7879 036c 76       		.byte	0x76
 7880 036d 00       		.sleb128 0
 7881 036e 00000000 		.4byte	0
 7882 0372 00000000 		.4byte	0
 7883              	.LLST21:
 7884 0376 00000000 		.4byte	.LVL67
 7885 037a BA000000 		.4byte	.LVL75
 7886 037e 0100     		.2byte	0x1
 7887 0380 50       		.byte	0x50
 7888 0381 BA000000 		.4byte	.LVL75
 7889 0385 24020000 		.4byte	.LVL105
 7890 0389 0400     		.2byte	0x4
 7891 038b F3       		.byte	0xf3
 7892 038c 01       		.uleb128 0x1
 7893 038d 50       		.byte	0x50
 7894 038e 9F       		.byte	0x9f
 7895 038f 24020000 		.4byte	.LVL105
 7896 0393 30020000 		.4byte	.LVL107
 7897 0397 0100     		.2byte	0x1
 7898 0399 50       		.byte	0x50
 7899 039a 30020000 		.4byte	.LVL107
 7900 039e 4E020000 		.4byte	.LVL110
 7901 03a2 0400     		.2byte	0x4
 7902 03a4 F3       		.byte	0xf3
 7903 03a5 01       		.uleb128 0x1
 7904 03a6 50       		.byte	0x50
 7905 03a7 9F       		.byte	0x9f
 7906 03a8 4E020000 		.4byte	.LVL110
 7907 03ac 5C020000 		.4byte	.LVL113
 7908 03b0 0100     		.2byte	0x1
 7909 03b2 54       		.byte	0x54
ARM GAS  C:\Users\User\AppData\Local\Temp\cctjmLxv.s 			page 157


 7910 03b3 5E020000 		.4byte	.LVL114
 7911 03b7 B6020000 		.4byte	.LVL127
 7912 03bb 0100     		.2byte	0x1
 7913 03bd 54       		.byte	0x54
 7914 03be B8020000 		.4byte	.LVL128
 7915 03c2 C4020000 		.4byte	.LVL129
 7916 03c6 0100     		.2byte	0x1
 7917 03c8 54       		.byte	0x54
 7918 03c9 C4020000 		.4byte	.LVL129
 7919 03cd D8020000 		.4byte	.LVL130
 7920 03d1 0400     		.2byte	0x4
 7921 03d3 F3       		.byte	0xf3
 7922 03d4 01       		.uleb128 0x1
 7923 03d5 50       		.byte	0x50
 7924 03d6 9F       		.byte	0x9f
 7925 03d7 00000000 		.4byte	0
 7926 03db 00000000 		.4byte	0
 7927              	.LLST22:
 7928 03df 00000000 		.4byte	.LVL67
 7929 03e3 36000000 		.4byte	.LVL73
 7930 03e7 0100     		.2byte	0x1
 7931 03e9 51       		.byte	0x51
 7932 03ea 36000000 		.4byte	.LVL73
 7933 03ee 24020000 		.4byte	.LVL105
 7934 03f2 0400     		.2byte	0x4
 7935 03f4 F3       		.byte	0xf3
 7936 03f5 01       		.uleb128 0x1
 7937 03f6 51       		.byte	0x51
 7938 03f7 9F       		.byte	0x9f
 7939 03f8 24020000 		.4byte	.LVL105
 7940 03fc 26020000 		.4byte	.LVL106
 7941 0400 0100     		.2byte	0x1
 7942 0402 51       		.byte	0x51
 7943 0403 26020000 		.4byte	.LVL106
 7944 0407 4E020000 		.4byte	.LVL110
 7945 040b 0400     		.2byte	0x4
 7946 040d F3       		.byte	0xf3
 7947 040e 01       		.uleb128 0x1
 7948 040f 51       		.byte	0x51
 7949 0410 9F       		.byte	0x9f
 7950 0411 4E020000 		.4byte	.LVL110
 7951 0415 56020000 		.4byte	.LVL111
 7952 0419 0100     		.2byte	0x1
 7953 041b 55       		.byte	0x55
 7954 041c 5E020000 		.4byte	.LVL114
 7955 0420 AC020000 		.4byte	.LVL123
 7956 0424 0100     		.2byte	0x1
 7957 0426 55       		.byte	0x55
 7958 0427 B0020000 		.4byte	.LVL124
 7959 042b C4020000 		.4byte	.LVL129
 7960 042f 0100     		.2byte	0x1
 7961 0431 55       		.byte	0x55
 7962 0432 C4020000 		.4byte	.LVL129
 7963 0436 D8020000 		.4byte	.LVL130
 7964 043a 0400     		.2byte	0x4
 7965 043c F3       		.byte	0xf3
 7966 043d 01       		.uleb128 0x1
ARM GAS  C:\Users\User\AppData\Local\Temp\cctjmLxv.s 			page 158


 7967 043e 51       		.byte	0x51
 7968 043f 9F       		.byte	0x9f
 7969 0440 00000000 		.4byte	0
 7970 0444 00000000 		.4byte	0
 7971              	.LLST23:
 7972 0448 00000000 		.4byte	.LVL67
 7973 044c 08000000 		.4byte	.LVL68
 7974 0450 0100     		.2byte	0x1
 7975 0452 52       		.byte	0x52
 7976 0453 08000000 		.4byte	.LVL68
 7977 0457 4E020000 		.4byte	.LVL110
 7978 045b 0400     		.2byte	0x4
 7979 045d F3       		.byte	0xf3
 7980 045e 01       		.uleb128 0x1
 7981 045f 52       		.byte	0x52
 7982 0460 9F       		.byte	0x9f
 7983 0461 4E020000 		.4byte	.LVL110
 7984 0465 C4020000 		.4byte	.LVL129
 7985 0469 0100     		.2byte	0x1
 7986 046b 56       		.byte	0x56
 7987 046c C4020000 		.4byte	.LVL129
 7988 0470 D8020000 		.4byte	.LVL130
 7989 0474 0400     		.2byte	0x4
 7990 0476 F3       		.byte	0xf3
 7991 0477 01       		.uleb128 0x1
 7992 0478 52       		.byte	0x52
 7993 0479 9F       		.byte	0x9f
 7994 047a 00000000 		.4byte	0
 7995 047e 00000000 		.4byte	0
 7996              	.LLST24:
 7997 0482 00000000 		.4byte	.LVL67
 7998 0486 A2000000 		.4byte	.LVL74
 7999 048a 0100     		.2byte	0x1
 8000 048c 53       		.byte	0x53
 8001 048d A2000000 		.4byte	.LVL74
 8002 0491 BA000000 		.4byte	.LVL75
 8003 0495 0200     		.2byte	0x2
 8004 0497 77       		.byte	0x77
 8005 0498 04       		.sleb128 4
 8006 0499 BA000000 		.4byte	.LVL75
 8007 049d BF000000 		.4byte	.LVL76-1
 8008 04a1 0200     		.2byte	0x2
 8009 04a3 70       		.byte	0x70
 8010 04a4 06       		.sleb128 6
 8011 04a5 BF000000 		.4byte	.LVL76-1
 8012 04a9 24020000 		.4byte	.LVL105
 8013 04ad 0400     		.2byte	0x4
 8014 04af F3       		.byte	0xf3
 8015 04b0 01       		.uleb128 0x1
 8016 04b1 53       		.byte	0x53
 8017 04b2 9F       		.byte	0x9f
 8018 04b3 24020000 		.4byte	.LVL105
 8019 04b7 42020000 		.4byte	.LVL108
 8020 04bb 0100     		.2byte	0x1
 8021 04bd 53       		.byte	0x53
 8022 04be 42020000 		.4byte	.LVL108
 8023 04c2 4A020000 		.4byte	.LVL109
ARM GAS  C:\Users\User\AppData\Local\Temp\cctjmLxv.s 			page 159


 8024 04c6 0400     		.2byte	0x4
 8025 04c8 F3       		.byte	0xf3
 8026 04c9 01       		.uleb128 0x1
 8027 04ca 53       		.byte	0x53
 8028 04cb 9F       		.byte	0x9f
 8029 04cc 4A020000 		.4byte	.LVL109
 8030 04d0 58020000 		.4byte	.LVL112
 8031 04d4 0100     		.2byte	0x1
 8032 04d6 53       		.byte	0x53
 8033 04d7 5E020000 		.4byte	.LVL114
 8034 04db 86020000 		.4byte	.LVL118
 8035 04df 0100     		.2byte	0x1
 8036 04e1 53       		.byte	0x53
 8037 04e2 C4020000 		.4byte	.LVL129
 8038 04e6 D8020000 		.4byte	.LVL130
 8039 04ea 0400     		.2byte	0x4
 8040 04ec F3       		.byte	0xf3
 8041 04ed 01       		.uleb128 0x1
 8042 04ee 53       		.byte	0x53
 8043 04ef 9F       		.byte	0x9f
 8044 04f0 00000000 		.4byte	0
 8045 04f4 00000000 		.4byte	0
 8046              	.LLST25:
 8047 04f8 00000000 		.4byte	.LVL67
 8048 04fc 08000000 		.4byte	.LVL68
 8049 0500 0200     		.2byte	0x2
 8050 0502 91       		.byte	0x91
 8051 0503 00       		.sleb128 0
 8052 0504 08000000 		.4byte	.LVL68
 8053 0508 0A000000 		.4byte	.LVL69
 8054 050c 0200     		.2byte	0x2
 8055 050e 72       		.byte	0x72
 8056 050f 00       		.sleb128 0
 8057 0510 0A000000 		.4byte	.LVL69
 8058 0514 F4020000 		.4byte	.LFE57
 8059 0518 0200     		.2byte	0x2
 8060 051a 91       		.byte	0x91
 8061 051b 00       		.sleb128 0
 8062 051c 00000000 		.4byte	0
 8063 0520 00000000 		.4byte	0
 8064              	.LLST26:
 8065 0524 64020000 		.4byte	.LVL115
 8066 0528 C4020000 		.4byte	.LVL129
 8067 052c 0200     		.2byte	0x2
 8068 052e 91       		.byte	0x91
 8069 052f 54       		.sleb128 -44
 8070 0530 00000000 		.4byte	0
 8071 0534 00000000 		.4byte	0
 8072              	.LLST27:
 8073 0538 6E020000 		.4byte	.LVL116
 8074 053c C4020000 		.4byte	.LVL129
 8075 0540 0200     		.2byte	0x2
 8076 0542 91       		.byte	0x91
 8077 0543 5C       		.sleb128 -36
 8078 0544 00000000 		.4byte	0
 8079 0548 00000000 		.4byte	0
 8080              	.LLST28:
ARM GAS  C:\Users\User\AppData\Local\Temp\cctjmLxv.s 			page 160


 8081 054c 7C020000 		.4byte	.LVL117
 8082 0550 9E020000 		.4byte	.LVL121
 8083 0554 0100     		.2byte	0x1
 8084 0556 57       		.byte	0x57
 8085 0557 A2020000 		.4byte	.LVL122
 8086 055b B2020000 		.4byte	.LVL125
 8087 055f 0100     		.2byte	0x1
 8088 0561 57       		.byte	0x57
 8089 0562 B2020000 		.4byte	.LVL125
 8090 0566 B4020000 		.4byte	.LVL126
 8091 056a 0100     		.2byte	0x1
 8092 056c 53       		.byte	0x53
 8093 056d B4020000 		.4byte	.LVL126
 8094 0571 C4020000 		.4byte	.LVL129
 8095 0575 0100     		.2byte	0x1
 8096 0577 57       		.byte	0x57
 8097 0578 00000000 		.4byte	0
 8098 057c 00000000 		.4byte	0
 8099              	.LLST29:
 8100 0580 8A020000 		.4byte	.LVL119
 8101 0584 C4020000 		.4byte	.LVL129
 8102 0588 0200     		.2byte	0x2
 8103 058a 91       		.byte	0x91
 8104 058b 58       		.sleb128 -40
 8105 058c 00000000 		.4byte	0
 8106 0590 00000000 		.4byte	0
 8107              	.LLST30:
 8108 0594 2A000000 		.4byte	.LVL72
 8109 0598 24020000 		.4byte	.LVL105
 8110 059c 0200     		.2byte	0x2
 8111 059e 91       		.byte	0x91
 8112 059f 4C       		.sleb128 -52
 8113 05a0 C4020000 		.4byte	.LVL129
 8114 05a4 D8020000 		.4byte	.LVL130
 8115 05a8 0200     		.2byte	0x2
 8116 05aa 91       		.byte	0x91
 8117 05ab 4C       		.sleb128 -52
 8118 05ac 00000000 		.4byte	0
 8119 05b0 00000000 		.4byte	0
 8120              	.LLST31:
 8121 05b4 2A000000 		.4byte	.LVL72
 8122 05b8 24020000 		.4byte	.LVL105
 8123 05bc 0200     		.2byte	0x2
 8124 05be 91       		.byte	0x91
 8125 05bf 66       		.sleb128 -26
 8126 05c0 C4020000 		.4byte	.LVL129
 8127 05c4 D8020000 		.4byte	.LVL130
 8128 05c8 0200     		.2byte	0x2
 8129 05ca 91       		.byte	0x91
 8130 05cb 66       		.sleb128 -26
 8131 05cc 00000000 		.4byte	0
 8132 05d0 00000000 		.4byte	0
 8133              	.LLST32:
 8134 05d4 28000000 		.4byte	.LVL71
 8135 05d8 E6000000 		.4byte	.LVL81
 8136 05dc 0100     		.2byte	0x1
 8137 05de 56       		.byte	0x56
ARM GAS  C:\Users\User\AppData\Local\Temp\cctjmLxv.s 			page 161


 8138 05df E6000000 		.4byte	.LVL81
 8139 05e3 2C010000 		.4byte	.LVL91
 8140 05e7 0200     		.2byte	0x2
 8141 05e9 75       		.byte	0x75
 8142 05ea 00       		.sleb128 0
 8143 05eb 2C010000 		.4byte	.LVL91
 8144 05ef DC010000 		.4byte	.LVL98
 8145 05f3 0200     		.2byte	0x2
 8146 05f5 91       		.byte	0x91
 8147 05f6 64       		.sleb128 -28
 8148 05f7 DC010000 		.4byte	.LVL98
 8149 05fb DE010000 		.4byte	.LVL99
 8150 05ff 0200     		.2byte	0x2
 8151 0601 75       		.byte	0x75
 8152 0602 00       		.sleb128 0
 8153 0603 DE010000 		.4byte	.LVL99
 8154 0607 24020000 		.4byte	.LVL105
 8155 060b 0200     		.2byte	0x2
 8156 060d 91       		.byte	0x91
 8157 060e 64       		.sleb128 -28
 8158 060f C4020000 		.4byte	.LVL129
 8159 0613 D8020000 		.4byte	.LVL130
 8160 0617 0200     		.2byte	0x2
 8161 0619 91       		.byte	0x91
 8162 061a 64       		.sleb128 -28
 8163 061b 00000000 		.4byte	0
 8164 061f 00000000 		.4byte	0
 8165              	.LLST33:
 8166 0623 28000000 		.4byte	.LVL71
 8167 0627 24020000 		.4byte	.LVL105
 8168 062b 0200     		.2byte	0x2
 8169 062d 91       		.byte	0x91
 8170 062e 62       		.sleb128 -30
 8171 062f C4020000 		.4byte	.LVL129
 8172 0633 D8020000 		.4byte	.LVL130
 8173 0637 0200     		.2byte	0x2
 8174 0639 91       		.byte	0x91
 8175 063a 62       		.sleb128 -30
 8176 063b 00000000 		.4byte	0
 8177 063f 00000000 		.4byte	0
 8178              	.LLST34:
 8179 0643 1E000000 		.4byte	.LVL70
 8180 0647 C4000000 		.4byte	.LVL77
 8181 064b 0100     		.2byte	0x1
 8182 064d 54       		.byte	0x54
 8183 064e C4000000 		.4byte	.LVL77
 8184 0652 CD000000 		.4byte	.LVL78-1
 8185 0656 0200     		.2byte	0x2
 8186 0658 73       		.byte	0x73
 8187 0659 00       		.sleb128 0
 8188 065a CD000000 		.4byte	.LVL78-1
 8189 065e D0000000 		.4byte	.LVL79
 8190 0662 0200     		.2byte	0x2
 8191 0664 74       		.byte	0x74
 8192 0665 7A       		.sleb128 -6
 8193 0666 D0000000 		.4byte	.LVL79
 8194 066a D2000000 		.4byte	.LVL80
ARM GAS  C:\Users\User\AppData\Local\Temp\cctjmLxv.s 			page 162


 8195 066e 0200     		.2byte	0x2
 8196 0670 73       		.byte	0x73
 8197 0671 00       		.sleb128 0
 8198 0672 D2000000 		.4byte	.LVL80
 8199 0676 08010000 		.4byte	.LVL83
 8200 067a 0200     		.2byte	0x2
 8201 067c 74       		.byte	0x74
 8202 067d 7A       		.sleb128 -6
 8203 067e 08010000 		.4byte	.LVL83
 8204 0682 14010000 		.4byte	.LVL85
 8205 0686 0200     		.2byte	0x2
 8206 0688 71       		.byte	0x71
 8207 0689 00       		.sleb128 0
 8208 068a 14010000 		.4byte	.LVL85
 8209 068e 16010000 		.4byte	.LVL86
 8210 0692 0200     		.2byte	0x2
 8211 0694 74       		.byte	0x74
 8212 0695 7A       		.sleb128 -6
 8213 0696 16010000 		.4byte	.LVL86
 8214 069a 1A010000 		.4byte	.LVL87
 8215 069e 0200     		.2byte	0x2
 8216 06a0 73       		.byte	0x73
 8217 06a1 00       		.sleb128 0
 8218 06a2 1A010000 		.4byte	.LVL87
 8219 06a6 22010000 		.4byte	.LVL89
 8220 06aa 0200     		.2byte	0x2
 8221 06ac 74       		.byte	0x74
 8222 06ad 7A       		.sleb128 -6
 8223 06ae 22010000 		.4byte	.LVL89
 8224 06b2 2E010000 		.4byte	.LVL92
 8225 06b6 0200     		.2byte	0x2
 8226 06b8 77       		.byte	0x77
 8227 06b9 7E       		.sleb128 -2
 8228 06ba 2E010000 		.4byte	.LVL92
 8229 06be 24020000 		.4byte	.LVL105
 8230 06c2 0200     		.2byte	0x2
 8231 06c4 91       		.byte	0x91
 8232 06c5 60       		.sleb128 -32
 8233 06c6 C4020000 		.4byte	.LVL129
 8234 06ca D8020000 		.4byte	.LVL130
 8235 06ce 0200     		.2byte	0x2
 8236 06d0 91       		.byte	0x91
 8237 06d1 60       		.sleb128 -32
 8238 06d2 00000000 		.4byte	0
 8239 06d6 00000000 		.4byte	0
 8240              	.LLST35:
 8241 06da 02010000 		.4byte	.LVL82
 8242 06de 10010000 		.4byte	.LVL84
 8243 06e2 0200     		.2byte	0x2
 8244 06e4 91       		.byte	0x91
 8245 06e5 50       		.sleb128 -48
 8246 06e6 10010000 		.4byte	.LVL84
 8247 06ea 14010000 		.4byte	.LVL85
 8248 06ee 0100     		.2byte	0x1
 8249 06f0 53       		.byte	0x53
 8250 06f1 00000000 		.4byte	0
 8251 06f5 00000000 		.4byte	0
ARM GAS  C:\Users\User\AppData\Local\Temp\cctjmLxv.s 			page 163


 8252              	.LLST36:
 8253 06f9 1E010000 		.4byte	.LVL88
 8254 06fd 24020000 		.4byte	.LVL105
 8255 0701 0200     		.2byte	0x2
 8256 0703 91       		.byte	0x91
 8257 0704 4C       		.sleb128 -52
 8258 0705 C4020000 		.4byte	.LVL129
 8259 0709 D8020000 		.4byte	.LVL130
 8260 070d 0200     		.2byte	0x2
 8261 070f 91       		.byte	0x91
 8262 0710 4C       		.sleb128 -52
 8263 0711 00000000 		.4byte	0
 8264 0715 00000000 		.4byte	0
 8265              	.LLST37:
 8266 0719 1E010000 		.4byte	.LVL88
 8267 071d 60010000 		.4byte	.LVL95
 8268 0721 0100     		.2byte	0x1
 8269 0723 56       		.byte	0x56
 8270 0724 60010000 		.4byte	.LVL95
 8271 0728 DC010000 		.4byte	.LVL98
 8272 072c 0200     		.2byte	0x2
 8273 072e 91       		.byte	0x91
 8274 072f 66       		.sleb128 -26
 8275 0730 DC010000 		.4byte	.LVL98
 8276 0734 24020000 		.4byte	.LVL105
 8277 0738 0100     		.2byte	0x1
 8278 073a 56       		.byte	0x56
 8279 073b C4020000 		.4byte	.LVL129
 8280 073f D8020000 		.4byte	.LVL130
 8281 0743 0200     		.2byte	0x2
 8282 0745 91       		.byte	0x91
 8283 0746 66       		.sleb128 -26
 8284 0747 00000000 		.4byte	0
 8285 074b 00000000 		.4byte	0
 8286              	.LLST38:
 8287 074f 1E010000 		.4byte	.LVL88
 8288 0753 2A010000 		.4byte	.LVL90
 8289 0757 0200     		.2byte	0x2
 8290 0759 75       		.byte	0x75
 8291 075a 00       		.sleb128 0
 8292 075b 00000000 		.4byte	0
 8293 075f 00000000 		.4byte	0
 8294              	.LLST39:
 8295 0763 1E010000 		.4byte	.LVL88
 8296 0767 5E010000 		.4byte	.LVL94
 8297 076b 0100     		.2byte	0x1
 8298 076d 51       		.byte	0x51
 8299 076e 5E010000 		.4byte	.LVL94
 8300 0772 DC010000 		.4byte	.LVL98
 8301 0776 0200     		.2byte	0x2
 8302 0778 91       		.byte	0x91
 8303 0779 62       		.sleb128 -30
 8304 077a DC010000 		.4byte	.LVL98
 8305 077e F0010000 		.4byte	.LVL101
 8306 0782 0100     		.2byte	0x1
 8307 0784 51       		.byte	0x51
 8308 0785 F0010000 		.4byte	.LVL101
ARM GAS  C:\Users\User\AppData\Local\Temp\cctjmLxv.s 			page 164


 8309 0789 24020000 		.4byte	.LVL105
 8310 078d 0200     		.2byte	0x2
 8311 078f 77       		.byte	0x77
 8312 0790 00       		.sleb128 0
 8313 0791 C4020000 		.4byte	.LVL129
 8314 0795 D8020000 		.4byte	.LVL130
 8315 0799 0200     		.2byte	0x2
 8316 079b 91       		.byte	0x91
 8317 079c 62       		.sleb128 -30
 8318 079d 00000000 		.4byte	0
 8319 07a1 00000000 		.4byte	0
 8320              	.LLST40:
 8321 07a5 1E010000 		.4byte	.LVL88
 8322 07a9 22010000 		.4byte	.LVL89
 8323 07ad 0200     		.2byte	0x2
 8324 07af 74       		.byte	0x74
 8325 07b0 7A       		.sleb128 -6
 8326 07b1 22010000 		.4byte	.LVL89
 8327 07b5 2A010000 		.4byte	.LVL90
 8328 07b9 0200     		.2byte	0x2
 8329 07bb 77       		.byte	0x77
 8330 07bc 7E       		.sleb128 -2
 8331 07bd 00000000 		.4byte	0
 8332 07c1 00000000 		.4byte	0
 8333              	.LLST41:
 8334 07c5 4C010000 		.4byte	.LVL93
 8335 07c9 DC010000 		.4byte	.LVL98
 8336 07cd 0100     		.2byte	0x1
 8337 07cf 54       		.byte	0x54
 8338 07d0 C4020000 		.4byte	.LVL129
 8339 07d4 D8020000 		.4byte	.LVL130
 8340 07d8 0100     		.2byte	0x1
 8341 07da 54       		.byte	0x54
 8342 07db 00000000 		.4byte	0
 8343 07df 00000000 		.4byte	0
 8344              	.LLST42:
 8345 07e3 4C010000 		.4byte	.LVL93
 8346 07e7 DC010000 		.4byte	.LVL98
 8347 07eb 0100     		.2byte	0x1
 8348 07ed 53       		.byte	0x53
 8349 07ee C4020000 		.4byte	.LVL129
 8350 07f2 D8020000 		.4byte	.LVL130
 8351 07f6 0100     		.2byte	0x1
 8352 07f8 53       		.byte	0x53
 8353 07f9 00000000 		.4byte	0
 8354 07fd 00000000 		.4byte	0
 8355              	.LLST43:
 8356 0801 4C010000 		.4byte	.LVL93
 8357 0805 98010000 		.4byte	.LVL96
 8358 0809 0100     		.2byte	0x1
 8359 080b 54       		.byte	0x54
 8360 080c 98010000 		.4byte	.LVL96
 8361 0810 DC010000 		.4byte	.LVL98
 8362 0814 0100     		.2byte	0x1
 8363 0816 51       		.byte	0x51
 8364 0817 C4020000 		.4byte	.LVL129
 8365 081b D8020000 		.4byte	.LVL130
ARM GAS  C:\Users\User\AppData\Local\Temp\cctjmLxv.s 			page 165


 8366 081f 0100     		.2byte	0x1
 8367 0821 51       		.byte	0x51
 8368 0822 00000000 		.4byte	0
 8369 0826 00000000 		.4byte	0
 8370              	.LLST44:
 8371 082a EC010000 		.4byte	.LVL100
 8372 082e FC010000 		.4byte	.LVL103
 8373 0832 0100     		.2byte	0x1
 8374 0834 53       		.byte	0x53
 8375 0835 FC010000 		.4byte	.LVL103
 8376 0839 24020000 		.4byte	.LVL105
 8377 083d 1F00     		.2byte	0x1f
 8378 083f 77       		.byte	0x77
 8379 0840 00       		.sleb128 0
 8380 0841 94       		.byte	0x94
 8381 0842 02       		.byte	0x2
 8382 0843 40       		.byte	0x40
 8383 0844 24       		.byte	0x24
 8384 0845 40       		.byte	0x40
 8385 0846 26       		.byte	0x26
 8386 0847 75       		.byte	0x75
 8387 0848 00       		.sleb128 0
 8388 0849 22       		.byte	0x22
 8389 084a 33       		.byte	0x33
 8390 084b 26       		.byte	0x26
 8391 084c 37       		.byte	0x37
 8392 084d 24       		.byte	0x24
 8393 084e 91       		.byte	0x91
 8394 084f 60       		.sleb128 -32
 8395 0850 94       		.byte	0x94
 8396 0851 02       		.byte	0x2
 8397 0852 40       		.byte	0x40
 8398 0853 24       		.byte	0x24
 8399 0854 40       		.byte	0x40
 8400 0855 26       		.byte	0x26
 8401 0856 22       		.byte	0x22
 8402 0857 03       		.byte	0x3
 8403 0858 01000000 		.4byte	.LANCHOR1+1
 8404 085c 22       		.byte	0x22
 8405 085d 9F       		.byte	0x9f
 8406 085e 00000000 		.4byte	0
 8407 0862 00000000 		.4byte	0
 8408              	.LLST45:
 8409 0866 FA010000 		.4byte	.LVL102
 8410 086a 24020000 		.4byte	.LVL105
 8411 086e 0100     		.2byte	0x1
 8412 0870 50       		.byte	0x50
 8413 0871 00000000 		.4byte	0
 8414 0875 00000000 		.4byte	0
 8415              	.LLST46:
 8416 0879 FC010000 		.4byte	.LVL103
 8417 087d 24020000 		.4byte	.LVL105
 8418 0881 0100     		.2byte	0x1
 8419 0883 54       		.byte	0x54
 8420 0884 00000000 		.4byte	0
 8421 0888 00000000 		.4byte	0
 8422              	.LLST47:
ARM GAS  C:\Users\User\AppData\Local\Temp\cctjmLxv.s 			page 166


 8423 088c FC010000 		.4byte	.LVL103
 8424 0890 24020000 		.4byte	.LVL105
 8425 0894 0100     		.2byte	0x1
 8426 0896 53       		.byte	0x53
 8427 0897 00000000 		.4byte	0
 8428 089b 00000000 		.4byte	0
 8429              	.LLST48:
 8430 089f 00000000 		.4byte	.LVL131
 8431 08a3 21000000 		.4byte	.LVL135-1
 8432 08a7 0100     		.2byte	0x1
 8433 08a9 50       		.byte	0x50
 8434 08aa 21000000 		.4byte	.LVL135-1
 8435 08ae 5A000000 		.4byte	.LFE58
 8436 08b2 0400     		.2byte	0x4
 8437 08b4 F3       		.byte	0xf3
 8438 08b5 01       		.uleb128 0x1
 8439 08b6 50       		.byte	0x50
 8440 08b7 9F       		.byte	0x9f
 8441 08b8 00000000 		.4byte	0
 8442 08bc 00000000 		.4byte	0
 8443              	.LLST49:
 8444 08c0 00000000 		.4byte	.LVL131
 8445 08c4 21000000 		.4byte	.LVL135-1
 8446 08c8 0100     		.2byte	0x1
 8447 08ca 51       		.byte	0x51
 8448 08cb 21000000 		.4byte	.LVL135-1
 8449 08cf 5A000000 		.4byte	.LFE58
 8450 08d3 0400     		.2byte	0x4
 8451 08d5 F3       		.byte	0xf3
 8452 08d6 01       		.uleb128 0x1
 8453 08d7 51       		.byte	0x51
 8454 08d8 9F       		.byte	0x9f
 8455 08d9 00000000 		.4byte	0
 8456 08dd 00000000 		.4byte	0
 8457              	.LLST50:
 8458 08e1 00000000 		.4byte	.LVL131
 8459 08e5 1A000000 		.4byte	.LVL134
 8460 08e9 0100     		.2byte	0x1
 8461 08eb 52       		.byte	0x52
 8462 08ec 1A000000 		.4byte	.LVL134
 8463 08f0 5A000000 		.4byte	.LFE58
 8464 08f4 0400     		.2byte	0x4
 8465 08f6 F3       		.byte	0xf3
 8466 08f7 01       		.uleb128 0x1
 8467 08f8 52       		.byte	0x52
 8468 08f9 9F       		.byte	0x9f
 8469 08fa 00000000 		.4byte	0
 8470 08fe 00000000 		.4byte	0
 8471              	.LLST51:
 8472 0902 00000000 		.4byte	.LVL131
 8473 0906 0C000000 		.4byte	.LVL132
 8474 090a 0100     		.2byte	0x1
 8475 090c 53       		.byte	0x53
 8476 090d 0C000000 		.4byte	.LVL132
 8477 0911 5A000000 		.4byte	.LFE58
 8478 0915 0400     		.2byte	0x4
 8479 0917 F3       		.byte	0xf3
ARM GAS  C:\Users\User\AppData\Local\Temp\cctjmLxv.s 			page 167


 8480 0918 01       		.uleb128 0x1
 8481 0919 53       		.byte	0x53
 8482 091a 9F       		.byte	0x9f
 8483 091b 00000000 		.4byte	0
 8484 091f 00000000 		.4byte	0
 8485              	.LLST52:
 8486 0923 00000000 		.4byte	.LVL131
 8487 0927 0C000000 		.4byte	.LVL132
 8488 092b 0200     		.2byte	0x2
 8489 092d 91       		.byte	0x91
 8490 092e 00       		.sleb128 0
 8491 092f 0C000000 		.4byte	.LVL132
 8492 0933 10000000 		.4byte	.LVL133
 8493 0937 0200     		.2byte	0x2
 8494 0939 73       		.byte	0x73
 8495 093a 00       		.sleb128 0
 8496 093b 10000000 		.4byte	.LVL133
 8497 093f 5A000000 		.4byte	.LFE58
 8498 0943 0200     		.2byte	0x2
 8499 0945 91       		.byte	0x91
 8500 0946 00       		.sleb128 0
 8501 0947 00000000 		.4byte	0
 8502 094b 00000000 		.4byte	0
 8503              	.LLST53:
 8504 094f 00000000 		.4byte	.LVL139
 8505 0953 1C000000 		.4byte	.LVL142
 8506 0957 0100     		.2byte	0x1
 8507 0959 50       		.byte	0x50
 8508 095a 1C000000 		.4byte	.LVL142
 8509 095e 64000000 		.4byte	.LFE59
 8510 0962 0400     		.2byte	0x4
 8511 0964 F3       		.byte	0xf3
 8512 0965 01       		.uleb128 0x1
 8513 0966 50       		.byte	0x50
 8514 0967 9F       		.byte	0x9f
 8515 0968 00000000 		.4byte	0
 8516 096c 00000000 		.4byte	0
 8517              	.LLST54:
 8518 0970 00000000 		.4byte	.LVL139
 8519 0974 1C000000 		.4byte	.LVL142
 8520 0978 0100     		.2byte	0x1
 8521 097a 51       		.byte	0x51
 8522 097b 1C000000 		.4byte	.LVL142
 8523 097f 64000000 		.4byte	.LFE59
 8524 0983 0400     		.2byte	0x4
 8525 0985 F3       		.byte	0xf3
 8526 0986 01       		.uleb128 0x1
 8527 0987 51       		.byte	0x51
 8528 0988 9F       		.byte	0x9f
 8529 0989 00000000 		.4byte	0
 8530 098d 00000000 		.4byte	0
 8531              	.LLST55:
 8532 0991 00000000 		.4byte	.LVL139
 8533 0995 1C000000 		.4byte	.LVL142
 8534 0999 0100     		.2byte	0x1
 8535 099b 52       		.byte	0x52
 8536 099c 1C000000 		.4byte	.LVL142
ARM GAS  C:\Users\User\AppData\Local\Temp\cctjmLxv.s 			page 168


 8537 09a0 64000000 		.4byte	.LFE59
 8538 09a4 0400     		.2byte	0x4
 8539 09a6 F3       		.byte	0xf3
 8540 09a7 01       		.uleb128 0x1
 8541 09a8 52       		.byte	0x52
 8542 09a9 9F       		.byte	0x9f
 8543 09aa 00000000 		.4byte	0
 8544 09ae 00000000 		.4byte	0
 8545              	.LLST56:
 8546 09b2 00000000 		.4byte	.LVL139
 8547 09b6 08000000 		.4byte	.LVL140
 8548 09ba 0100     		.2byte	0x1
 8549 09bc 53       		.byte	0x53
 8550 09bd 08000000 		.4byte	.LVL140
 8551 09c1 64000000 		.4byte	.LFE59
 8552 09c5 0400     		.2byte	0x4
 8553 09c7 F3       		.byte	0xf3
 8554 09c8 01       		.uleb128 0x1
 8555 09c9 53       		.byte	0x53
 8556 09ca 9F       		.byte	0x9f
 8557 09cb 00000000 		.4byte	0
 8558 09cf 00000000 		.4byte	0
 8559              	.LLST57:
 8560 09d3 00000000 		.4byte	.LVL139
 8561 09d7 08000000 		.4byte	.LVL140
 8562 09db 0200     		.2byte	0x2
 8563 09dd 91       		.byte	0x91
 8564 09de 00       		.sleb128 0
 8565 09df 08000000 		.4byte	.LVL140
 8566 09e3 0A000000 		.4byte	.LVL141
 8567 09e7 0200     		.2byte	0x2
 8568 09e9 73       		.byte	0x73
 8569 09ea 00       		.sleb128 0
 8570 09eb 0A000000 		.4byte	.LVL141
 8571 09ef 64000000 		.4byte	.LFE59
 8572 09f3 0200     		.2byte	0x2
 8573 09f5 91       		.byte	0x91
 8574 09f6 00       		.sleb128 0
 8575 09f7 00000000 		.4byte	0
 8576 09fb 00000000 		.4byte	0
 8577              	.LLST58:
 8578 09ff 00000000 		.4byte	.LVL139
 8579 0a03 3E000000 		.4byte	.LVL146
 8580 0a07 0200     		.2byte	0x2
 8581 0a09 30       		.byte	0x30
 8582 0a0a 9F       		.byte	0x9f
 8583 0a0b 3E000000 		.4byte	.LVL146
 8584 0a0f 58000000 		.4byte	.LVL147
 8585 0a13 0100     		.2byte	0x1
 8586 0a15 54       		.byte	0x54
 8587 0a16 5E000000 		.4byte	.LVL149
 8588 0a1a 60000000 		.4byte	.LVL150
 8589 0a1e 0100     		.2byte	0x1
 8590 0a20 54       		.byte	0x54
 8591 0a21 00000000 		.4byte	0
 8592 0a25 00000000 		.4byte	0
 8593              	.LLST59:
ARM GAS  C:\Users\User\AppData\Local\Temp\cctjmLxv.s 			page 169


 8594 0a29 1C000000 		.4byte	.LVL142
 8595 0a2d 36000000 		.4byte	.LVL143
 8596 0a31 0100     		.2byte	0x1
 8597 0a33 54       		.byte	0x54
 8598 0a34 3C000000 		.4byte	.LVL145
 8599 0a38 3E000000 		.4byte	.LVL146
 8600 0a3c 0100     		.2byte	0x1
 8601 0a3e 54       		.byte	0x54
 8602 0a3f 00000000 		.4byte	0
 8603 0a43 00000000 		.4byte	0
 8604              	.LLST60:
 8605 0a47 00000000 		.4byte	.LVL151
 8606 0a4b 2D000000 		.4byte	.LVL157-1
 8607 0a4f 0100     		.2byte	0x1
 8608 0a51 50       		.byte	0x50
 8609 0a52 2D000000 		.4byte	.LVL157-1
 8610 0a56 46010000 		.4byte	.LFE60
 8611 0a5a 0400     		.2byte	0x4
 8612 0a5c F3       		.byte	0xf3
 8613 0a5d 01       		.uleb128 0x1
 8614 0a5e 50       		.byte	0x50
 8615 0a5f 9F       		.byte	0x9f
 8616 0a60 00000000 		.4byte	0
 8617 0a64 00000000 		.4byte	0
 8618              	.LLST61:
 8619 0a68 00000000 		.4byte	.LVL151
 8620 0a6c 24000000 		.4byte	.LVL155
 8621 0a70 0100     		.2byte	0x1
 8622 0a72 51       		.byte	0x51
 8623 0a73 24000000 		.4byte	.LVL155
 8624 0a77 2D000000 		.4byte	.LVL157-1
 8625 0a7b 0100     		.2byte	0x1
 8626 0a7d 53       		.byte	0x53
 8627 0a7e 2D000000 		.4byte	.LVL157-1
 8628 0a82 44010000 		.4byte	.LVL177
 8629 0a86 0200     		.2byte	0x2
 8630 0a88 7D       		.byte	0x7d
 8631 0a89 00       		.sleb128 0
 8632 0a8a 44010000 		.4byte	.LVL177
 8633 0a8e 46010000 		.4byte	.LFE60
 8634 0a92 0200     		.2byte	0x2
 8635 0a94 91       		.byte	0x91
 8636 0a95 48       		.sleb128 -56
 8637 0a96 00000000 		.4byte	0
 8638 0a9a 00000000 		.4byte	0
 8639              	.LLST62:
 8640 0a9e 00000000 		.4byte	.LVL151
 8641 0aa2 28000000 		.4byte	.LVL156
 8642 0aa6 0100     		.2byte	0x1
 8643 0aa8 52       		.byte	0x52
 8644 0aa9 28000000 		.4byte	.LVL156
 8645 0aad 46010000 		.4byte	.LFE60
 8646 0ab1 0400     		.2byte	0x4
 8647 0ab3 F3       		.byte	0xf3
 8648 0ab4 01       		.uleb128 0x1
 8649 0ab5 52       		.byte	0x52
 8650 0ab6 9F       		.byte	0x9f
ARM GAS  C:\Users\User\AppData\Local\Temp\cctjmLxv.s 			page 170


 8651 0ab7 00000000 		.4byte	0
 8652 0abb 00000000 		.4byte	0
 8653              	.LLST63:
 8654 0abf 00000000 		.4byte	.LVL151
 8655 0ac3 08000000 		.4byte	.LVL152
 8656 0ac7 0100     		.2byte	0x1
 8657 0ac9 53       		.byte	0x53
 8658 0aca 08000000 		.4byte	.LVL152
 8659 0ace 46010000 		.4byte	.LFE60
 8660 0ad2 0400     		.2byte	0x4
 8661 0ad4 F3       		.byte	0xf3
 8662 0ad5 01       		.uleb128 0x1
 8663 0ad6 53       		.byte	0x53
 8664 0ad7 9F       		.byte	0x9f
 8665 0ad8 00000000 		.4byte	0
 8666 0adc 00000000 		.4byte	0
 8667              	.LLST64:
 8668 0ae0 18000000 		.4byte	.LVL153
 8669 0ae4 5C000000 		.4byte	.LVL161
 8670 0ae8 0200     		.2byte	0x2
 8671 0aea 31       		.byte	0x31
 8672 0aeb 9F       		.byte	0x9f
 8673 0aec 5E000000 		.4byte	.LVL162
 8674 0af0 96000000 		.4byte	.LVL166
 8675 0af4 0900     		.2byte	0x9
 8676 0af6 91       		.byte	0x91
 8677 0af7 60       		.sleb128 -32
 8678 0af8 94       		.byte	0x94
 8679 0af9 02       		.byte	0x2
 8680 0afa 31       		.byte	0x31
 8681 0afb 24       		.byte	0x24
 8682 0afc 23       		.byte	0x23
 8683 0afd 01       		.uleb128 0x1
 8684 0afe 9F       		.byte	0x9f
 8685 0aff 96000000 		.4byte	.LVL166
 8686 0b03 42010000 		.4byte	.LVL176
 8687 0b07 0900     		.2byte	0x9
 8688 0b09 91       		.byte	0x91
 8689 0b0a 60       		.sleb128 -32
 8690 0b0b 94       		.byte	0x94
 8691 0b0c 02       		.byte	0x2
 8692 0b0d 31       		.byte	0x31
 8693 0b0e 24       		.byte	0x24
 8694 0b0f 23       		.byte	0x23
 8695 0b10 03       		.uleb128 0x3
 8696 0b11 9F       		.byte	0x9f
 8697 0b12 42010000 		.4byte	.LVL176
 8698 0b16 46010000 		.4byte	.LFE60
 8699 0b1a 0900     		.2byte	0x9
 8700 0b1c 91       		.byte	0x91
 8701 0b1d 60       		.sleb128 -32
 8702 0b1e 94       		.byte	0x94
 8703 0b1f 02       		.byte	0x2
 8704 0b20 31       		.byte	0x31
 8705 0b21 24       		.byte	0x24
 8706 0b22 23       		.byte	0x23
 8707 0b23 01       		.uleb128 0x1
ARM GAS  C:\Users\User\AppData\Local\Temp\cctjmLxv.s 			page 171


 8708 0b24 9F       		.byte	0x9f
 8709 0b25 00000000 		.4byte	0
 8710 0b29 00000000 		.4byte	0
 8711              	.LLST65:
 8712 0b2d 20000000 		.4byte	.LVL154
 8713 0b31 5C000000 		.4byte	.LVL161
 8714 0b35 0200     		.2byte	0x2
 8715 0b37 30       		.byte	0x30
 8716 0b38 9F       		.byte	0x9f
 8717 0b39 5E000000 		.4byte	.LVL162
 8718 0b3d 8E000000 		.4byte	.LVL165
 8719 0b41 0200     		.2byte	0x2
 8720 0b43 91       		.byte	0x91
 8721 0b44 60       		.sleb128 -32
 8722 0b45 8E000000 		.4byte	.LVL165
 8723 0b49 42010000 		.4byte	.LVL176
 8724 0b4d 0700     		.2byte	0x7
 8725 0b4f 91       		.byte	0x91
 8726 0b50 60       		.sleb128 -32
 8727 0b51 94       		.byte	0x94
 8728 0b52 02       		.byte	0x2
 8729 0b53 23       		.byte	0x23
 8730 0b54 01       		.uleb128 0x1
 8731 0b55 9F       		.byte	0x9f
 8732 0b56 42010000 		.4byte	.LVL176
 8733 0b5a 46010000 		.4byte	.LFE60
 8734 0b5e 0200     		.2byte	0x2
 8735 0b60 91       		.byte	0x91
 8736 0b61 60       		.sleb128 -32
 8737 0b62 00000000 		.4byte	0
 8738 0b66 00000000 		.4byte	0
 8739              	.LLST66:
 8740 0b6a 00000000 		.4byte	.LVL178
 8741 0b6e 29000000 		.4byte	.LVL185-1
 8742 0b72 0100     		.2byte	0x1
 8743 0b74 50       		.byte	0x50
 8744 0b75 29000000 		.4byte	.LVL185-1
 8745 0b79 4A000000 		.4byte	.LFE61
 8746 0b7d 0400     		.2byte	0x4
 8747 0b7f F3       		.byte	0xf3
 8748 0b80 01       		.uleb128 0x1
 8749 0b81 50       		.byte	0x50
 8750 0b82 9F       		.byte	0x9f
 8751 0b83 00000000 		.4byte	0
 8752 0b87 00000000 		.4byte	0
 8753              	.LLST67:
 8754 0b8b 00000000 		.4byte	.LVL178
 8755 0b8f 29000000 		.4byte	.LVL185-1
 8756 0b93 0100     		.2byte	0x1
 8757 0b95 51       		.byte	0x51
 8758 0b96 29000000 		.4byte	.LVL185-1
 8759 0b9a 4A000000 		.4byte	.LFE61
 8760 0b9e 0400     		.2byte	0x4
 8761 0ba0 F3       		.byte	0xf3
 8762 0ba1 01       		.uleb128 0x1
 8763 0ba2 51       		.byte	0x51
 8764 0ba3 9F       		.byte	0x9f
ARM GAS  C:\Users\User\AppData\Local\Temp\cctjmLxv.s 			page 172


 8765 0ba4 00000000 		.4byte	0
 8766 0ba8 00000000 		.4byte	0
 8767              	.LLST68:
 8768 0bac 00000000 		.4byte	.LVL178
 8769 0bb0 10000000 		.4byte	.LVL180
 8770 0bb4 0100     		.2byte	0x1
 8771 0bb6 52       		.byte	0x52
 8772 0bb7 10000000 		.4byte	.LVL180
 8773 0bbb 4A000000 		.4byte	.LFE61
 8774 0bbf 0400     		.2byte	0x4
 8775 0bc1 F3       		.byte	0xf3
 8776 0bc2 01       		.uleb128 0x1
 8777 0bc3 52       		.byte	0x52
 8778 0bc4 9F       		.byte	0x9f
 8779 0bc5 00000000 		.4byte	0
 8780 0bc9 00000000 		.4byte	0
 8781              	.LLST69:
 8782 0bcd 00000000 		.4byte	.LVL178
 8783 0bd1 0C000000 		.4byte	.LVL179
 8784 0bd5 0100     		.2byte	0x1
 8785 0bd7 53       		.byte	0x53
 8786 0bd8 0C000000 		.4byte	.LVL179
 8787 0bdc 4A000000 		.4byte	.LFE61
 8788 0be0 0400     		.2byte	0x4
 8789 0be2 F3       		.byte	0xf3
 8790 0be3 01       		.uleb128 0x1
 8791 0be4 53       		.byte	0x53
 8792 0be5 9F       		.byte	0x9f
 8793 0be6 00000000 		.4byte	0
 8794 0bea 00000000 		.4byte	0
 8795              	.LLST70:
 8796 0bee 00000000 		.4byte	.LVL178
 8797 0bf2 0C000000 		.4byte	.LVL179
 8798 0bf6 0200     		.2byte	0x2
 8799 0bf8 91       		.byte	0x91
 8800 0bf9 00       		.sleb128 0
 8801 0bfa 0C000000 		.4byte	.LVL179
 8802 0bfe 10000000 		.4byte	.LVL180
 8803 0c02 0200     		.2byte	0x2
 8804 0c04 73       		.byte	0x73
 8805 0c05 00       		.sleb128 0
 8806 0c06 10000000 		.4byte	.LVL180
 8807 0c0a 4A000000 		.4byte	.LFE61
 8808 0c0e 0200     		.2byte	0x2
 8809 0c10 91       		.byte	0x91
 8810 0c11 00       		.sleb128 0
 8811 0c12 00000000 		.4byte	0
 8812 0c16 00000000 		.4byte	0
 8813              	.LLST71:
 8814 0c1a 00000000 		.4byte	.LVL178
 8815 0c1e 0C000000 		.4byte	.LVL179
 8816 0c22 0200     		.2byte	0x2
 8817 0c24 91       		.byte	0x91
 8818 0c25 04       		.sleb128 4
 8819 0c26 0C000000 		.4byte	.LVL179
 8820 0c2a 10000000 		.4byte	.LVL180
 8821 0c2e 0200     		.2byte	0x2
ARM GAS  C:\Users\User\AppData\Local\Temp\cctjmLxv.s 			page 173


 8822 0c30 73       		.byte	0x73
 8823 0c31 04       		.sleb128 4
 8824 0c32 10000000 		.4byte	.LVL180
 8825 0c36 16000000 		.4byte	.LVL181
 8826 0c3a 0200     		.2byte	0x2
 8827 0c3c 91       		.byte	0x91
 8828 0c3d 04       		.sleb128 4
 8829 0c3e 16000000 		.4byte	.LVL181
 8830 0c42 1A000000 		.4byte	.LVL182
 8831 0c46 0200     		.2byte	0x2
 8832 0c48 73       		.byte	0x73
 8833 0c49 00       		.sleb128 0
 8834 0c4a 1A000000 		.4byte	.LVL182
 8835 0c4e 4A000000 		.4byte	.LFE61
 8836 0c52 0200     		.2byte	0x2
 8837 0c54 91       		.byte	0x91
 8838 0c55 04       		.sleb128 4
 8839 0c56 00000000 		.4byte	0
 8840 0c5a 00000000 		.4byte	0
 8841              	.LLST72:
 8842 0c5e 00000000 		.4byte	.LVL178
 8843 0c62 0C000000 		.4byte	.LVL179
 8844 0c66 0200     		.2byte	0x2
 8845 0c68 91       		.byte	0x91
 8846 0c69 08       		.sleb128 8
 8847 0c6a 0C000000 		.4byte	.LVL179
 8848 0c6e 10000000 		.4byte	.LVL180
 8849 0c72 0200     		.2byte	0x2
 8850 0c74 73       		.byte	0x73
 8851 0c75 08       		.sleb128 8
 8852 0c76 10000000 		.4byte	.LVL180
 8853 0c7a 20000000 		.4byte	.LVL183
 8854 0c7e 0200     		.2byte	0x2
 8855 0c80 91       		.byte	0x91
 8856 0c81 08       		.sleb128 8
 8857 0c82 20000000 		.4byte	.LVL183
 8858 0c86 24000000 		.4byte	.LVL184
 8859 0c8a 0200     		.2byte	0x2
 8860 0c8c 73       		.byte	0x73
 8861 0c8d 00       		.sleb128 0
 8862 0c8e 24000000 		.4byte	.LVL184
 8863 0c92 4A000000 		.4byte	.LFE61
 8864 0c96 0200     		.2byte	0x2
 8865 0c98 91       		.byte	0x91
 8866 0c99 08       		.sleb128 8
 8867 0c9a 00000000 		.4byte	0
 8868 0c9e 00000000 		.4byte	0
 8869              	.LLST73:
 8870 0ca2 00000000 		.4byte	.LVL188
 8871 0ca6 1A000000 		.4byte	.LVL193
 8872 0caa 0100     		.2byte	0x1
 8873 0cac 50       		.byte	0x50
 8874 0cad 1A000000 		.4byte	.LVL193
 8875 0cb1 24010000 		.4byte	.LFE62
 8876 0cb5 0400     		.2byte	0x4
 8877 0cb7 F3       		.byte	0xf3
 8878 0cb8 01       		.uleb128 0x1
ARM GAS  C:\Users\User\AppData\Local\Temp\cctjmLxv.s 			page 174


 8879 0cb9 50       		.byte	0x50
 8880 0cba 9F       		.byte	0x9f
 8881 0cbb 00000000 		.4byte	0
 8882 0cbf 00000000 		.4byte	0
 8883              	.LLST74:
 8884 0cc3 00000000 		.4byte	.LVL188
 8885 0cc7 1A000000 		.4byte	.LVL193
 8886 0ccb 0100     		.2byte	0x1
 8887 0ccd 51       		.byte	0x51
 8888 0cce 1A000000 		.4byte	.LVL193
 8889 0cd2 24010000 		.4byte	.LFE62
 8890 0cd6 0400     		.2byte	0x4
 8891 0cd8 F3       		.byte	0xf3
 8892 0cd9 01       		.uleb128 0x1
 8893 0cda 51       		.byte	0x51
 8894 0cdb 9F       		.byte	0x9f
 8895 0cdc 00000000 		.4byte	0
 8896 0ce0 00000000 		.4byte	0
 8897              	.LLST75:
 8898 0ce4 00000000 		.4byte	.LVL188
 8899 0ce8 4C000000 		.4byte	.LVL194
 8900 0cec 0100     		.2byte	0x1
 8901 0cee 52       		.byte	0x52
 8902 0cef 4C000000 		.4byte	.LVL194
 8903 0cf3 24010000 		.4byte	.LFE62
 8904 0cf7 0400     		.2byte	0x4
 8905 0cf9 F3       		.byte	0xf3
 8906 0cfa 01       		.uleb128 0x1
 8907 0cfb 52       		.byte	0x52
 8908 0cfc 9F       		.byte	0x9f
 8909 0cfd 00000000 		.4byte	0
 8910 0d01 00000000 		.4byte	0
 8911              	.LLST76:
 8912 0d05 00000000 		.4byte	.LVL188
 8913 0d09 08000000 		.4byte	.LVL189
 8914 0d0d 0100     		.2byte	0x1
 8915 0d0f 53       		.byte	0x53
 8916 0d10 08000000 		.4byte	.LVL189
 8917 0d14 24010000 		.4byte	.LFE62
 8918 0d18 0400     		.2byte	0x4
 8919 0d1a F3       		.byte	0xf3
 8920 0d1b 01       		.uleb128 0x1
 8921 0d1c 53       		.byte	0x53
 8922 0d1d 9F       		.byte	0x9f
 8923 0d1e 00000000 		.4byte	0
 8924 0d22 00000000 		.4byte	0
 8925              	.LLST77:
 8926 0d26 00000000 		.4byte	.LVL188
 8927 0d2a 08000000 		.4byte	.LVL189
 8928 0d2e 0200     		.2byte	0x2
 8929 0d30 91       		.byte	0x91
 8930 0d31 00       		.sleb128 0
 8931 0d32 08000000 		.4byte	.LVL189
 8932 0d36 0A000000 		.4byte	.LVL190
 8933 0d3a 0200     		.2byte	0x2
 8934 0d3c 73       		.byte	0x73
 8935 0d3d 00       		.sleb128 0
ARM GAS  C:\Users\User\AppData\Local\Temp\cctjmLxv.s 			page 175


 8936 0d3e 0A000000 		.4byte	.LVL190
 8937 0d42 24010000 		.4byte	.LFE62
 8938 0d46 0200     		.2byte	0x2
 8939 0d48 91       		.byte	0x91
 8940 0d49 00       		.sleb128 0
 8941 0d4a 00000000 		.4byte	0
 8942 0d4e 00000000 		.4byte	0
 8943              	.LLST78:
 8944 0d52 00000000 		.4byte	.LVL188
 8945 0d56 08000000 		.4byte	.LVL189
 8946 0d5a 0200     		.2byte	0x2
 8947 0d5c 91       		.byte	0x91
 8948 0d5d 04       		.sleb128 4
 8949 0d5e 08000000 		.4byte	.LVL189
 8950 0d62 0A000000 		.4byte	.LVL190
 8951 0d66 0200     		.2byte	0x2
 8952 0d68 73       		.byte	0x73
 8953 0d69 04       		.sleb128 4
 8954 0d6a 0A000000 		.4byte	.LVL190
 8955 0d6e 10000000 		.4byte	.LVL191
 8956 0d72 0200     		.2byte	0x2
 8957 0d74 91       		.byte	0x91
 8958 0d75 04       		.sleb128 4
 8959 0d76 10000000 		.4byte	.LVL191
 8960 0d7a 14000000 		.4byte	.LVL192
 8961 0d7e 0200     		.2byte	0x2
 8962 0d80 73       		.byte	0x73
 8963 0d81 00       		.sleb128 0
 8964 0d82 14000000 		.4byte	.LVL192
 8965 0d86 24010000 		.4byte	.LFE62
 8966 0d8a 0200     		.2byte	0x2
 8967 0d8c 91       		.byte	0x91
 8968 0d8d 04       		.sleb128 4
 8969 0d8e 00000000 		.4byte	0
 8970 0d92 00000000 		.4byte	0
 8971              	.LLST79:
 8972 0d96 4C000000 		.4byte	.LVL194
 8973 0d9a 18010000 		.4byte	.LVL202
 8974 0d9e 0200     		.2byte	0x2
 8975 0da0 91       		.byte	0x91
 8976 0da1 44       		.sleb128 -60
 8977 0da2 00000000 		.4byte	0
 8978 0da6 00000000 		.4byte	0
 8979              	.LLST80:
 8980 0daa 66000000 		.4byte	.LVL195
 8981 0dae 18010000 		.4byte	.LVL202
 8982 0db2 0300     		.2byte	0x3
 8983 0db4 91       		.byte	0x91
 8984 0db5 B47F     		.sleb128 -76
 8985 0db7 00000000 		.4byte	0
 8986 0dbb 00000000 		.4byte	0
 8987              	.LLST81:
 8988 0dbf 66000000 		.4byte	.LVL195
 8989 0dc3 92000000 		.4byte	.LVL196
 8990 0dc7 0200     		.2byte	0x2
 8991 0dc9 30       		.byte	0x30
 8992 0dca 9F       		.byte	0x9f
ARM GAS  C:\Users\User\AppData\Local\Temp\cctjmLxv.s 			page 176


 8993 0dcb 92000000 		.4byte	.LVL196
 8994 0dcf EE000000 		.4byte	.LVL199
 8995 0dd3 0800     		.2byte	0x8
 8996 0dd5 76       		.byte	0x76
 8997 0dd6 00       		.sleb128 0
 8998 0dd7 91       		.byte	0x91
 8999 0dd8 50       		.sleb128 -48
 9000 0dd9 94       		.byte	0x94
 9001 0dda 01       		.byte	0x1
 9002 0ddb 1C       		.byte	0x1c
 9003 0ddc 9F       		.byte	0x9f
 9004 0ddd 00000000 		.4byte	0
 9005 0de1 00000000 		.4byte	0
 9006              	.LLST82:
 9007 0de5 00000000 		.4byte	.LVL203
 9008 0de9 0D000000 		.4byte	.LVL204-1
 9009 0ded 0100     		.2byte	0x1
 9010 0def 50       		.byte	0x50
 9011 0df0 0D000000 		.4byte	.LVL204-1
 9012 0df4 10000000 		.4byte	.LVL205
 9013 0df8 0400     		.2byte	0x4
 9014 0dfa F3       		.byte	0xf3
 9015 0dfb 01       		.uleb128 0x1
 9016 0dfc 50       		.byte	0x50
 9017 0dfd 9F       		.byte	0x9f
 9018 0dfe 10000000 		.4byte	.LVL205
 9019 0e02 24000000 		.4byte	.LVL206
 9020 0e06 0100     		.2byte	0x1
 9021 0e08 50       		.byte	0x50
 9022 0e09 24000000 		.4byte	.LVL206
 9023 0e0d 6C000000 		.4byte	.LFE63
 9024 0e11 0400     		.2byte	0x4
 9025 0e13 F3       		.byte	0xf3
 9026 0e14 01       		.uleb128 0x1
 9027 0e15 50       		.byte	0x50
 9028 0e16 9F       		.byte	0x9f
 9029 0e17 00000000 		.4byte	0
 9030 0e1b 00000000 		.4byte	0
 9031              	.LLST83:
 9032 0e1f 00000000 		.4byte	.LVL208
 9033 0e23 07000000 		.4byte	.LVL209-1
 9034 0e27 0100     		.2byte	0x1
 9035 0e29 50       		.byte	0x50
 9036 0e2a 07000000 		.4byte	.LVL209-1
 9037 0e2e 0A000000 		.4byte	.LVL210
 9038 0e32 0100     		.2byte	0x1
 9039 0e34 54       		.byte	0x54
 9040 0e35 0A000000 		.4byte	.LVL210
 9041 0e39 1A000000 		.4byte	.LFE64
 9042 0e3d 0400     		.2byte	0x4
 9043 0e3f F3       		.byte	0xf3
 9044 0e40 01       		.uleb128 0x1
 9045 0e41 50       		.byte	0x50
 9046 0e42 9F       		.byte	0x9f
 9047 0e43 00000000 		.4byte	0
 9048 0e47 00000000 		.4byte	0
 9049              	.LLST84:
ARM GAS  C:\Users\User\AppData\Local\Temp\cctjmLxv.s 			page 177


 9050 0e4b 08000000 		.4byte	.LVL209
 9051 0e4f 0A000000 		.4byte	.LVL210
 9052 0e53 0100     		.2byte	0x1
 9053 0e55 50       		.byte	0x50
 9054 0e56 00000000 		.4byte	0
 9055 0e5a 00000000 		.4byte	0
 9056              	.LLST85:
 9057 0e5e 08000000 		.4byte	.LVL209
 9058 0e62 0A000000 		.4byte	.LVL210
 9059 0e66 0200     		.2byte	0x2
 9060 0e68 30       		.byte	0x30
 9061 0e69 9F       		.byte	0x9f
 9062 0e6a 0A000000 		.4byte	.LVL210
 9063 0e6e 14000000 		.4byte	.LVL211
 9064 0e72 0700     		.2byte	0x7
 9065 0e74 74       		.byte	0x74
 9066 0e75 00       		.sleb128 0
 9067 0e76 F3       		.byte	0xf3
 9068 0e77 01       		.uleb128 0x1
 9069 0e78 50       		.byte	0x50
 9070 0e79 1C       		.byte	0x1c
 9071 0e7a 9F       		.byte	0x9f
 9072 0e7b 14000000 		.4byte	.LVL211
 9073 0e7f 16000000 		.4byte	.LVL212
 9074 0e83 0900     		.2byte	0x9
 9075 0e85 74       		.byte	0x74
 9076 0e86 00       		.sleb128 0
 9077 0e87 F3       		.byte	0xf3
 9078 0e88 01       		.uleb128 0x1
 9079 0e89 50       		.byte	0x50
 9080 0e8a 1C       		.byte	0x1c
 9081 0e8b 23       		.byte	0x23
 9082 0e8c 01       		.uleb128 0x1
 9083 0e8d 9F       		.byte	0x9f
 9084 0e8e 16000000 		.4byte	.LVL212
 9085 0e92 18000000 		.4byte	.LVL213
 9086 0e96 0700     		.2byte	0x7
 9087 0e98 74       		.byte	0x74
 9088 0e99 00       		.sleb128 0
 9089 0e9a F3       		.byte	0xf3
 9090 0e9b 01       		.uleb128 0x1
 9091 0e9c 50       		.byte	0x50
 9092 0e9d 1C       		.byte	0x1c
 9093 0e9e 9F       		.byte	0x9f
 9094 0e9f 00000000 		.4byte	0
 9095 0ea3 00000000 		.4byte	0
 9096              	.LLST86:
 9097 0ea7 00000000 		.4byte	.LVL214
 9098 0eab 05000000 		.4byte	.LVL215-1
 9099 0eaf 0100     		.2byte	0x1
 9100 0eb1 50       		.byte	0x50
 9101 0eb2 05000000 		.4byte	.LVL215-1
 9102 0eb6 0C000000 		.4byte	.LFE65
 9103 0eba 0400     		.2byte	0x4
 9104 0ebc F3       		.byte	0xf3
 9105 0ebd 01       		.uleb128 0x1
 9106 0ebe 50       		.byte	0x50
ARM GAS  C:\Users\User\AppData\Local\Temp\cctjmLxv.s 			page 178


 9107 0ebf 9F       		.byte	0x9f
 9108 0ec0 00000000 		.4byte	0
 9109 0ec4 00000000 		.4byte	0
 9110              		.section	.debug_aranges,"",%progbits
 9111 0000 04010000 		.4byte	0x104
 9112 0004 0200     		.2byte	0x2
 9113 0006 00000000 		.4byte	.Ldebug_info0
 9114 000a 04       		.byte	0x4
 9115 000b 00       		.byte	0
 9116 000c 0000     		.2byte	0
 9117 000e 0000     		.2byte	0
 9118 0010 00000000 		.4byte	.LFB35
 9119 0014 44000000 		.4byte	.LFE35-.LFB35
 9120 0018 00000000 		.4byte	.LFB54
 9121 001c 5C000000 		.4byte	.LFE54-.LFB54
 9122 0020 00000000 		.4byte	.LFB69
 9123 0024 18000000 		.4byte	.LFE69-.LFB69
 9124 0028 00000000 		.4byte	.LFB37
 9125 002c 1C000000 		.4byte	.LFE37-.LFB37
 9126 0030 00000000 		.4byte	.LFB38
 9127 0034 18000000 		.4byte	.LFE38-.LFB38
 9128 0038 00000000 		.4byte	.LFB39
 9129 003c 1A000000 		.4byte	.LFE39-.LFB39
 9130 0040 00000000 		.4byte	.LFB40
 9131 0044 2C000000 		.4byte	.LFE40-.LFB40
 9132 0048 00000000 		.4byte	.LFB42
 9133 004c 14000000 		.4byte	.LFE42-.LFB42
 9134 0050 00000000 		.4byte	.LFB43
 9135 0054 2A000000 		.4byte	.LFE43-.LFB43
 9136 0058 00000000 		.4byte	.LFB44
 9137 005c 40000000 		.4byte	.LFE44-.LFB44
 9138 0060 00000000 		.4byte	.LFB34
 9139 0064 34000000 		.4byte	.LFE34-.LFB34
 9140 0068 00000000 		.4byte	.LFB45
 9141 006c 0C000000 		.4byte	.LFE45-.LFB45
 9142 0070 00000000 		.4byte	.LFB46
 9143 0074 0C000000 		.4byte	.LFE46-.LFB46
 9144 0078 00000000 		.4byte	.LFB47
 9145 007c 0C000000 		.4byte	.LFE47-.LFB47
 9146 0080 00000000 		.4byte	.LFB48
 9147 0084 0C000000 		.4byte	.LFE48-.LFB48
 9148 0088 00000000 		.4byte	.LFB49
 9149 008c 14000000 		.4byte	.LFE49-.LFB49
 9150 0090 00000000 		.4byte	.LFB50
 9151 0094 0C000000 		.4byte	.LFE50-.LFB50
 9152 0098 00000000 		.4byte	.LFB51
 9153 009c 0C000000 		.4byte	.LFE51-.LFB51
 9154 00a0 00000000 		.4byte	.LFB52
 9155 00a4 0C000000 		.4byte	.LFE52-.LFB52
 9156 00a8 00000000 		.4byte	.LFB53
 9157 00ac 38000000 		.4byte	.LFE53-.LFB53
 9158 00b0 00000000 		.4byte	.LFB55
 9159 00b4 B8000000 		.4byte	.LFE55-.LFB55
 9160 00b8 00000000 		.4byte	.LFB57
 9161 00bc F4020000 		.4byte	.LFE57-.LFB57
 9162 00c0 00000000 		.4byte	.LFB58
 9163 00c4 5A000000 		.4byte	.LFE58-.LFB58
ARM GAS  C:\Users\User\AppData\Local\Temp\cctjmLxv.s 			page 179


 9164 00c8 00000000 		.4byte	.LFB59
 9165 00cc 64000000 		.4byte	.LFE59-.LFB59
 9166 00d0 00000000 		.4byte	.LFB60
 9167 00d4 46010000 		.4byte	.LFE60-.LFB60
 9168 00d8 00000000 		.4byte	.LFB61
 9169 00dc 4A000000 		.4byte	.LFE61-.LFB61
 9170 00e0 00000000 		.4byte	.LFB62
 9171 00e4 24010000 		.4byte	.LFE62-.LFB62
 9172 00e8 00000000 		.4byte	.LFB63
 9173 00ec 6C000000 		.4byte	.LFE63-.LFB63
 9174 00f0 00000000 		.4byte	.LFB64
 9175 00f4 1A000000 		.4byte	.LFE64-.LFB64
 9176 00f8 00000000 		.4byte	.LFB65
 9177 00fc 0C000000 		.4byte	.LFE65-.LFB65
 9178 0100 00000000 		.4byte	0
 9179 0104 00000000 		.4byte	0
 9180              		.section	.debug_ranges,"",%progbits
 9181              	.Ldebug_ranges0:
 9182 0000 2A000000 		.4byte	.LBB20
 9183 0004 24020000 		.4byte	.LBE20
 9184 0008 C4020000 		.4byte	.LBB42
 9185 000c D8020000 		.4byte	.LBE42
 9186 0010 00000000 		.4byte	0
 9187 0014 00000000 		.4byte	0
 9188 0018 14010000 		.4byte	.LBB23
 9189 001c 1A010000 		.4byte	.LBE23
 9190 0020 1E010000 		.4byte	.LBB39
 9191 0024 24020000 		.4byte	.LBE39
 9192 0028 C4020000 		.4byte	.LBB40
 9193 002c D8020000 		.4byte	.LBE40
 9194 0030 00000000 		.4byte	0
 9195 0034 00000000 		.4byte	0
 9196 0038 2A010000 		.4byte	.LBB25
 9197 003c DC010000 		.4byte	.LBE25
 9198 0040 C4020000 		.4byte	.LBB36
 9199 0044 D8020000 		.4byte	.LBE36
 9200 0048 00000000 		.4byte	0
 9201 004c 00000000 		.4byte	0
 9202 0050 48010000 		.4byte	.LBB26
 9203 0054 4A010000 		.4byte	.LBE26
 9204 0058 4C010000 		.4byte	.LBB31
 9205 005c 92010000 		.4byte	.LBE31
 9206 0060 94010000 		.4byte	.LBB32
 9207 0064 98010000 		.4byte	.LBE32
 9208 0068 9E010000 		.4byte	.LBB33
 9209 006c DC010000 		.4byte	.LBE33
 9210 0070 C4020000 		.4byte	.LBB34
 9211 0074 D8020000 		.4byte	.LBE34
 9212 0078 00000000 		.4byte	0
 9213 007c 00000000 		.4byte	0
 9214 0080 48010000 		.4byte	.LBB27
 9215 0084 4A010000 		.4byte	.LBE27
 9216 0088 4C010000 		.4byte	.LBB28
 9217 008c 7A010000 		.4byte	.LBE28
 9218 0090 7C010000 		.4byte	.LBB29
 9219 0094 7E010000 		.4byte	.LBE29
 9220 0098 AA010000 		.4byte	.LBB30
ARM GAS  C:\Users\User\AppData\Local\Temp\cctjmLxv.s 			page 180


 9221 009c AC010000 		.4byte	.LBE30
 9222 00a0 00000000 		.4byte	0
 9223 00a4 00000000 		.4byte	0
 9224 00a8 00000000 		.4byte	.LFB35
 9225 00ac 44000000 		.4byte	.LFE35
 9226 00b0 00000000 		.4byte	.LFB54
 9227 00b4 5C000000 		.4byte	.LFE54
 9228 00b8 00000000 		.4byte	.LFB69
 9229 00bc 18000000 		.4byte	.LFE69
 9230 00c0 00000000 		.4byte	.LFB37
 9231 00c4 1C000000 		.4byte	.LFE37
 9232 00c8 00000000 		.4byte	.LFB38
 9233 00cc 18000000 		.4byte	.LFE38
 9234 00d0 00000000 		.4byte	.LFB39
 9235 00d4 1A000000 		.4byte	.LFE39
 9236 00d8 00000000 		.4byte	.LFB40
 9237 00dc 2C000000 		.4byte	.LFE40
 9238 00e0 00000000 		.4byte	.LFB42
 9239 00e4 14000000 		.4byte	.LFE42
 9240 00e8 00000000 		.4byte	.LFB43
 9241 00ec 2A000000 		.4byte	.LFE43
 9242 00f0 00000000 		.4byte	.LFB44
 9243 00f4 40000000 		.4byte	.LFE44
 9244 00f8 00000000 		.4byte	.LFB34
 9245 00fc 34000000 		.4byte	.LFE34
 9246 0100 00000000 		.4byte	.LFB45
 9247 0104 0C000000 		.4byte	.LFE45
 9248 0108 00000000 		.4byte	.LFB46
 9249 010c 0C000000 		.4byte	.LFE46
 9250 0110 00000000 		.4byte	.LFB47
 9251 0114 0C000000 		.4byte	.LFE47
 9252 0118 00000000 		.4byte	.LFB48
 9253 011c 0C000000 		.4byte	.LFE48
 9254 0120 00000000 		.4byte	.LFB49
 9255 0124 14000000 		.4byte	.LFE49
 9256 0128 00000000 		.4byte	.LFB50
 9257 012c 0C000000 		.4byte	.LFE50
 9258 0130 00000000 		.4byte	.LFB51
 9259 0134 0C000000 		.4byte	.LFE51
 9260 0138 00000000 		.4byte	.LFB52
 9261 013c 0C000000 		.4byte	.LFE52
 9262 0140 00000000 		.4byte	.LFB53
 9263 0144 38000000 		.4byte	.LFE53
 9264 0148 00000000 		.4byte	.LFB55
 9265 014c B8000000 		.4byte	.LFE55
 9266 0150 00000000 		.4byte	.LFB57
 9267 0154 F4020000 		.4byte	.LFE57
 9268 0158 00000000 		.4byte	.LFB58
 9269 015c 5A000000 		.4byte	.LFE58
 9270 0160 00000000 		.4byte	.LFB59
 9271 0164 64000000 		.4byte	.LFE59
 9272 0168 00000000 		.4byte	.LFB60
 9273 016c 46010000 		.4byte	.LFE60
 9274 0170 00000000 		.4byte	.LFB61
 9275 0174 4A000000 		.4byte	.LFE61
 9276 0178 00000000 		.4byte	.LFB62
 9277 017c 24010000 		.4byte	.LFE62
ARM GAS  C:\Users\User\AppData\Local\Temp\cctjmLxv.s 			page 181


 9278 0180 00000000 		.4byte	.LFB63
 9279 0184 6C000000 		.4byte	.LFE63
 9280 0188 00000000 		.4byte	.LFB64
 9281 018c 1A000000 		.4byte	.LFE64
 9282 0190 00000000 		.4byte	.LFB65
 9283 0194 0C000000 		.4byte	.LFE65
 9284 0198 00000000 		.4byte	0
 9285 019c 00000000 		.4byte	0
 9286              		.section	.debug_line,"",%progbits
 9287              	.Ldebug_line0:
 9288 0000 8B050000 		.section	.debug_str,"MS",%progbits,1
 9288      0200BC01 
 9288      00000201 
 9288      FB0E0D00 
 9288      01010101 
 9289              	.LASF80:
 9290 0000 6766785F 		.ascii	"gfx_drawPixel\000"
 9290      64726177 
 9290      50697865 
 9290      6C00
 9291              	.LASF120:
 9292 000e 7374726C 		.ascii	"strlen\000"
 9292      656E00
 9293              	.LASF82:
 9294 0015 64697370 		.ascii	"display_line\000"
 9294      6C61795F 
 9294      6C696E65 
 9294      00
 9295              	.LASF71:
 9296 0022 6766785F 		.ascii	"gfx_rotation\000"
 9296      726F7461 
 9296      74696F6E 
 9296      00
 9297              	.LASF12:
 9298 002f 756E7369 		.ascii	"unsigned int\000"
 9298      676E6564 
 9298      20696E74 
 9298      00
 9299              	.LASF68:
 9300 003c 69326361 		.ascii	"i2caddr\000"
 9300      64647200 
 9301              	.LASF77:
 9302 0044 6766785F 		.ascii	"gfx_setRotation\000"
 9302      73657452 
 9302      6F746174 
 9302      696F6E00 
 9303              	.LASF81:
 9304 0054 6766785F 		.ascii	"gfx_hvLine\000"
 9304      68764C69 
 9304      6E6500
 9305              	.LASF27:
 9306 005f 5343524F 		.ascii	"SCROLL_DIR\000"
 9306      4C4C5F44 
 9306      495200
 9307              	.LASF113:
 9308 006a 726F7461 		.ascii	"rotation\000"
 9308      74696F6E 
ARM GAS  C:\Users\User\AppData\Local\Temp\cctjmLxv.s 			page 182


 9308      00
 9309              	.LASF63:
 9310 0073 73706565 		.ascii	"speed\000"
 9310      6400
 9311              	.LASF67:
 9312 0079 64697370 		.ascii	"display_init\000"
 9312      6C61795F 
 9312      696E6974 
 9312      00
 9313              	.LASF28:
 9314 0086 5343524F 		.ascii	"SCROLL_SPEED_0\000"
 9314      4C4C5F53 
 9314      50454544 
 9314      5F3000
 9315              	.LASF29:
 9316 0095 5343524F 		.ascii	"SCROLL_SPEED_1\000"
 9316      4C4C5F53 
 9316      50454544 
 9316      5F3100
 9317              	.LASF30:
 9318 00a4 5343524F 		.ascii	"SCROLL_SPEED_2\000"
 9318      4C4C5F53 
 9318      50454544 
 9318      5F3200
 9319              	.LASF31:
 9320 00b3 5343524F 		.ascii	"SCROLL_SPEED_3\000"
 9320      4C4C5F53 
 9320      50454544 
 9320      5F3300
 9321              	.LASF32:
 9322 00c2 5343524F 		.ascii	"SCROLL_SPEED_4\000"
 9322      4C4C5F53 
 9322      50454544 
 9322      5F3400
 9323              	.LASF33:
 9324 00d1 5343524F 		.ascii	"SCROLL_SPEED_5\000"
 9324      4C4C5F53 
 9324      50454544 
 9324      5F3500
 9325              	.LASF34:
 9326 00e0 5343524F 		.ascii	"SCROLL_SPEED_6\000"
 9326      4C4C5F53 
 9326      50454544 
 9326      5F3600
 9327              	.LASF35:
 9328 00ef 5343524F 		.ascii	"SCROLL_SPEED_7\000"
 9328      4C4C5F53 
 9328      50454544 
 9328      5F3700
 9329              	.LASF112:
 9330 00fe 48454947 		.ascii	"HEIGHT\000"
 9330      485400
 9331              	.LASF13:
 9332 0105 696E7438 		.ascii	"int8_t\000"
 9332      5F7400
 9333              	.LASF20:
 9334 010c 666C6F61 		.ascii	"float\000"
ARM GAS  C:\Users\User\AppData\Local\Temp\cctjmLxv.s 			page 183


 9334      7400
 9335              	.LASF83:
 9336 0112 70737461 		.ascii	"pstart\000"
 9336      727400
 9337              	.LASF106:
 9338 0119 63757273 		.ascii	"cursor_x\000"
 9338      6F725F78 
 9338      00
 9339              	.LASF107:
 9340 0122 63757273 		.ascii	"cursor_y\000"
 9340      6F725F79 
 9340      00
 9341              	.LASF96:
 9342 012b 6766785F 		.ascii	"gfx_drawTriangle\000"
 9342      64726177 
 9342      54726961 
 9342      6E676C65 
 9342      00
 9343              	.LASF110:
 9344 013c 74657874 		.ascii	"textsize\000"
 9344      73697A65 
 9344      00
 9345              	.LASF15:
 9346 0145 696E7431 		.ascii	"int16_t\000"
 9346      365F7400 
 9347              	.LASF11:
 9348 014d 6C6F6E67 		.ascii	"long long unsigned int\000"
 9348      206C6F6E 
 9348      6720756E 
 9348      7369676E 
 9348      65642069 
 9349              	.LASF6:
 9350 0164 5F5F7569 		.ascii	"__uint16_t\000"
 9350      6E743136 
 9350      5F7400
 9351              	.LASF121:
 9352 016f 474E5520 		.ascii	"GNU C 4.9.3 20150303 (release) [ARM/embedded-4_9-br"
 9352      4320342E 
 9352      392E3320 
 9352      32303135 
 9352      30333033 
 9353 01a2 616E6368 		.ascii	"anch revision 221220] -mcpu=cortex-m0 -mthumb -g -O"
 9353      20726576 
 9353      6973696F 
 9353      6E203232 
 9353      31323230 
 9354 01d5 73202D66 		.ascii	"s -ffunction-sections -ffat-lto-objects\000"
 9354      66756E63 
 9354      74696F6E 
 9354      2D736563 
 9354      74696F6E 
 9355              	.LASF123:
 9356 01fd 433A5C55 		.ascii	"C:\\Users\\User\\Documents\\PSoC Creator\\FFT\\FFT."
 9356      73657273 
 9356      5C557365 
 9356      725C446F 
 9356      63756D65 
ARM GAS  C:\Users\User\AppData\Local\Temp\cctjmLxv.s 			page 184


 9357 022a 63796473 		.ascii	"cydsn\000"
 9357      6E00
 9358              	.LASF78:
 9359 0230 6766785F 		.ascii	"gfx_rotation_adjust\000"
 9359      726F7461 
 9359      74696F6E 
 9359      5F61646A 
 9359      75737400 
 9360              	.LASF111:
 9361 0244 57494454 		.ascii	"WIDTH\000"
 9361      4800
 9362              	.LASF93:
 9363 024a 6766785F 		.ascii	"gfx_drawCircle\000"
 9363      64726177 
 9363      43697263 
 9363      6C6500
 9364              	.LASF23:
 9365 0259 73697A65 		.ascii	"size_t\000"
 9365      5F7400
 9366              	.LASF65:
 9367 0260 77696474 		.ascii	"width\000"
 9367      6800
 9368              	.LASF122:
 9369 0266 2E5C7373 		.ascii	".\\ssd1306.c\000"
 9369      64313330 
 9369      362E6300 
 9370              	.LASF79:
 9371 0272 64697370 		.ascii	"display_setPixel\000"
 9371      6C61795F 
 9371      73657450 
 9371      6978656C 
 9371      00
 9372              	.LASF37:
 9373 0283 5343524F 		.ascii	"SCROLL_PAGE_0\000"
 9373      4C4C5F50 
 9373      4147455F 
 9373      3000
 9374              	.LASF38:
 9375 0291 5343524F 		.ascii	"SCROLL_PAGE_1\000"
 9375      4C4C5F50 
 9375      4147455F 
 9375      3100
 9376              	.LASF39:
 9377 029f 5343524F 		.ascii	"SCROLL_PAGE_2\000"
 9377      4C4C5F50 
 9377      4147455F 
 9377      3200
 9378              	.LASF40:
 9379 02ad 5343524F 		.ascii	"SCROLL_PAGE_3\000"
 9379      4C4C5F50 
 9379      4147455F 
 9379      3300
 9380              	.LASF41:
 9381 02bb 5343524F 		.ascii	"SCROLL_PAGE_4\000"
 9381      4C4C5F50 
 9381      4147455F 
 9381      3400
ARM GAS  C:\Users\User\AppData\Local\Temp\cctjmLxv.s 			page 185


 9382              	.LASF42:
 9383 02c9 5343524F 		.ascii	"SCROLL_PAGE_5\000"
 9383      4C4C5F50 
 9383      4147455F 
 9383      3500
 9384              	.LASF43:
 9385 02d7 5343524F 		.ascii	"SCROLL_PAGE_6\000"
 9385      4C4C5F50 
 9385      4147455F 
 9385      3600
 9386              	.LASF44:
 9387 02e5 5343524F 		.ascii	"SCROLL_PAGE_7\000"
 9387      4C4C5F50 
 9387      4147455F 
 9387      3700
 9388              	.LASF125:
 9389 02f3 4932434F 		.ascii	"I2COLED_I2CMasterWriteBuf\000"
 9389      4C45445F 
 9389      4932434D 
 9389      61737465 
 9389      72577269 
 9390              	.LASF101:
 9391 030d 53534431 		.ascii	"SSD1306_buffer\000"
 9391      3330365F 
 9391      62756666 
 9391      657200
 9392              	.LASF115:
 9393 031c 4932434F 		.ascii	"I2COLED_I2CMasterStatus\000"
 9393      4C45445F 
 9393      4932434D 
 9393      61737465 
 9393      72537461 
 9394              	.LASF89:
 9395 0334 6766785F 		.ascii	"gfx_drawLine\000"
 9395      64726177 
 9395      4C696E65 
 9395      00
 9396              	.LASF59:
 9397 0341 64697370 		.ascii	"display_update\000"
 9397      6C61795F 
 9397      75706461 
 9397      746500
 9398              	.LASF22:
 9399 0350 63686172 		.ascii	"char\000"
 9399      00
 9400              	.LASF18:
 9401 0355 75696E74 		.ascii	"uint16\000"
 9401      313600
 9402              	.LASF58:
 9403 035c 696E7665 		.ascii	"invert\000"
 9403      727400
 9404              	.LASF14:
 9405 0363 75696E74 		.ascii	"uint8_t\000"
 9405      385F7400 
 9406              	.LASF55:
 9407 036b 73746174 		.ascii	"status\000"
 9407      757300
ARM GAS  C:\Users\User\AppData\Local\Temp\cctjmLxv.s 			page 186


 9408              	.LASF92:
 9409 0372 6766785F 		.ascii	"gfx_drawRect\000"
 9409      64726177 
 9409      52656374 
 9409      00
 9410              	.LASF64:
 9411 037f 6766785F 		.ascii	"gfx_init\000"
 9411      696E6974 
 9411      00
 9412              	.LASF104:
 9413 0388 5F776964 		.ascii	"_width\000"
 9413      746800
 9414              	.LASF90:
 9415 038f 73746565 		.ascii	"steep\000"
 9415      7000
 9416              	.LASF10:
 9417 0395 6C6F6E67 		.ascii	"long long int\000"
 9417      206C6F6E 
 9417      6720696E 
 9417      7400
 9418              	.LASF54:
 9419 03a3 636F6E74 		.ascii	"contrast\000"
 9419      72617374 
 9419      00
 9420              	.LASF36:
 9421 03ac 5343524F 		.ascii	"SCROLL_SPEED\000"
 9421      4C4C5F53 
 9421      50454544 
 9421      00
 9422              	.LASF45:
 9423 03b9 5343524F 		.ascii	"SCROLL_AREA\000"
 9423      4C4C5F41 
 9423      52454100 
 9424              	.LASF69:
 9425 03c5 6766785F 		.ascii	"gfx_width\000"
 9425      77696474 
 9425      6800
 9426              	.LASF4:
 9427 03cf 5F5F696E 		.ascii	"__int16_t\000"
 9427      7431365F 
 9427      7400
 9428              	.LASF105:
 9429 03d9 5F686569 		.ascii	"_height\000"
 9429      67687400 
 9430              	.LASF118:
 9431 03e1 6D656D73 		.ascii	"memset\000"
 9431      657400
 9432              	.LASF49:
 9433 03e8 73697A65 		.ascii	"size\000"
 9433      00
 9434              	.LASF103:
 9435 03ed 5F646973 		.ascii	"_displaybuf_size\000"
 9435      706C6179 
 9435      6275665F 
 9435      73697A65 
 9435      00
 9436              	.LASF19:
ARM GAS  C:\Users\User\AppData\Local\Temp\cctjmLxv.s 			page 187


 9437 03fe 75696E74 		.ascii	"uint32\000"
 9437      333200
 9438              	.LASF124:
 9439 0405 64697370 		.ascii	"display_write_buf\000"
 9439      6C61795F 
 9439      77726974 
 9439      655F6275 
 9439      6600
 9440              	.LASF85:
 9441 0417 6D61736B 		.ascii	"mask\000"
 9441      00
 9442              	.LASF100:
 9443 041c 5F693263 		.ascii	"_i2caddr\000"
 9443      61646472 
 9443      00
 9444              	.LASF66:
 9445 0425 68656967 		.ascii	"height\000"
 9445      687400
 9446              	.LASF74:
 9447 042c 6766785F 		.ascii	"gfx_setTextColor\000"
 9447      73657454 
 9447      65787443 
 9447      6F6C6F72 
 9447      00
 9448              	.LASF0:
 9449 043d 5F5F696E 		.ascii	"__int8_t\000"
 9449      74385F74 
 9449      00
 9450              	.LASF70:
 9451 0446 6766785F 		.ascii	"gfx_height\000"
 9451      68656967 
 9451      687400
 9452              	.LASF16:
 9453 0451 75696E74 		.ascii	"uint16_t\000"
 9453      31365F74 
 9453      00
 9454              	.LASF75:
 9455 045a 6766785F 		.ascii	"gfx_setTextBg\000"
 9455      73657454 
 9455      65787442 
 9455      6700
 9456              	.LASF47:
 9457 0468 6766785F 		.ascii	"gfx_fillRect\000"
 9457      66696C6C 
 9457      52656374 
 9457      00
 9458              	.LASF5:
 9459 0475 73686F72 		.ascii	"short int\000"
 9459      7420696E 
 9459      7400
 9460              	.LASF88:
 9461 047f 7069786D 		.ascii	"pixmask\000"
 9461      61736B00 
 9462              	.LASF8:
 9463 0487 6C6F6E67 		.ascii	"long int\000"
 9463      20696E74 
 9463      00
ARM GAS  C:\Users\User\AppData\Local\Temp\cctjmLxv.s 			page 188


 9464              	.LASF98:
 9465 0490 6766785F 		.ascii	"gfx_println\000"
 9465      7072696E 
 9465      746C6E00 
 9466              	.LASF51:
 9467 049c 6766785F 		.ascii	"gfx_write\000"
 9467      77726974 
 9467      6500
 9468              	.LASF57:
 9469 04a6 64697370 		.ascii	"display_invert\000"
 9469      6C61795F 
 9469      696E7665 
 9469      727400
 9470              	.LASF46:
 9471 04b5 636F6C6F 		.ascii	"color\000"
 9471      7200
 9472              	.LASF73:
 9473 04bb 6766785F 		.ascii	"gfx_setTextSize\000"
 9473      73657454 
 9473      65787453 
 9473      697A6500 
 9474              	.LASF1:
 9475 04cb 5F5F7569 		.ascii	"__uint8_t\000"
 9475      6E74385F 
 9475      7400
 9476              	.LASF86:
 9477 04d5 6C626974 		.ascii	"lbit\000"
 9477      00
 9478              	.LASF62:
 9479 04da 73746172 		.ascii	"start\000"
 9479      7400
 9480              	.LASF97:
 9481 04e0 6766785F 		.ascii	"gfx_print\000"
 9481      7072696E 
 9481      7400
 9482              	.LASF91:
 9483 04ea 79737465 		.ascii	"ystep\000"
 9483      7000
 9484              	.LASF99:
 9485 04f0 666F6E74 		.ascii	"font\000"
 9485      00
 9486              	.LASF24:
 9487 04f5 73697A65 		.ascii	"sizetype\000"
 9487      74797065 
 9487      00
 9488              	.LASF56:
 9489 04fe 636D6462 		.ascii	"cmdbuf\000"
 9489      756600
 9490              	.LASF9:
 9491 0505 6C6F6E67 		.ascii	"long unsigned int\000"
 9491      20756E73 
 9491      69676E65 
 9491      6420696E 
 9491      7400
 9492              	.LASF26:
 9493 0517 5343524F 		.ascii	"SCROLL_LEFT\000"
 9493      4C4C5F4C 
ARM GAS  C:\Users\User\AppData\Local\Temp\cctjmLxv.s 			page 189


 9493      45465400 
 9494              	.LASF52:
 9495 0523 64697370 		.ascii	"display_clear\000"
 9495      6C61795F 
 9495      636C6561 
 9495      7200
 9496              	.LASF114:
 9497 0531 77726170 		.ascii	"wrap\000"
 9497      00
 9498              	.LASF84:
 9499 0536 70656E64 		.ascii	"pend\000"
 9499      00
 9500              	.LASF25:
 9501 053b 5343524F 		.ascii	"SCROLL_RIGHT\000"
 9501      4C4C5F52 
 9501      49474854 
 9501      00
 9502              	.LASF3:
 9503 0548 756E7369 		.ascii	"unsigned char\000"
 9503      676E6564 
 9503      20636861 
 9503      7200
 9504              	.LASF87:
 9505 0556 75626974 		.ascii	"ubit\000"
 9505      00
 9506              	.LASF50:
 9507 055b 6C696E65 		.ascii	"line\000"
 9507      00
 9508              	.LASF48:
 9509 0560 6766785F 		.ascii	"gfx_drawChar\000"
 9509      64726177 
 9509      43686172 
 9509      00
 9510              	.LASF61:
 9511 056d 64697370 		.ascii	"display_scroll\000"
 9511      6C61795F 
 9511      7363726F 
 9511      6C6C00
 9512              	.LASF102:
 9513 057c 5F646973 		.ascii	"_displaybuf\000"
 9513      706C6179 
 9513      62756600 
 9514              	.LASF53:
 9515 0588 64697370 		.ascii	"display_contrast\000"
 9515      6C61795F 
 9515      636F6E74 
 9515      72617374 
 9515      00
 9516              	.LASF94:
 9517 0599 6464465F 		.ascii	"ddF_x\000"
 9517      7800
 9518              	.LASF95:
 9519 059f 6464465F 		.ascii	"ddF_y\000"
 9519      7900
 9520              	.LASF2:
 9521 05a5 7369676E 		.ascii	"signed char\000"
 9521      65642063 
ARM GAS  C:\Users\User\AppData\Local\Temp\cctjmLxv.s 			page 190


 9521      68617200 
 9522              	.LASF7:
 9523 05b1 73686F72 		.ascii	"short unsigned int\000"
 9523      7420756E 
 9523      7369676E 
 9523      65642069 
 9523      6E7400
 9524              	.LASF119:
 9525 05c4 6D656D63 		.ascii	"memcpy\000"
 9525      707900
 9526              	.LASF60:
 9527 05cb 64697370 		.ascii	"display_stopscroll\000"
 9527      6C61795F 
 9527      73746F70 
 9527      7363726F 
 9527      6C6C00
 9528              	.LASF17:
 9529 05de 75696E74 		.ascii	"uint8\000"
 9529      3800
 9530              	.LASF21:
 9531 05e4 646F7562 		.ascii	"double\000"
 9531      6C6500
 9532              	.LASF117:
 9533 05eb 4932434F 		.ascii	"I2COLED_I2CMasterClearStatus\000"
 9533      4C45445F 
 9533      4932434D 
 9533      61737465 
 9533      72436C65 
 9534              	.LASF108:
 9535 0608 74657874 		.ascii	"textcolor\000"
 9535      636F6C6F 
 9535      7200
 9536              	.LASF109:
 9537 0612 74657874 		.ascii	"textbgcolor\000"
 9537      6267636F 
 9537      6C6F7200 
 9538              	.LASF72:
 9539 061e 6766785F 		.ascii	"gfx_setCursor\000"
 9539      73657443 
 9539      7572736F 
 9539      7200
 9540              	.LASF76:
 9541 062c 6766785F 		.ascii	"gfx_setTextWrap\000"
 9541      73657454 
 9541      65787457 
 9541      72617000 
 9542              	.LASF116:
 9543 063c 4932434F 		.ascii	"I2COLED_I2CMasterGetWriteBufSize\000"
 9543      4C45445F 
 9543      4932434D 
 9543      61737465 
 9543      72476574 
 9544              		.ident	"GCC: (GNU Tools for ARM Embedded Processors) 4.9.3 20150303 (release) [ARM/embedded-4_9-br
