ARM GAS  C:\Users\User\AppData\Local\Temp\cctjmLxv.s 			page 1


   1              		.cpu cortex-m0
   2              		.fpu softvfp
   3              		.eabi_attribute 20, 1
   4              		.eabi_attribute 21, 1
   5              		.eabi_attribute 23, 3
   6              		.eabi_attribute 24, 1
   7              		.eabi_attribute 25, 1
   8              		.eabi_attribute 26, 1
   9              		.eabi_attribute 30, 4
  10              		.eabi_attribute 34, 0
  11              		.eabi_attribute 18, 4
  12              		.code	16
  13              		.file	"ssd1306.c"
  14              		.text
  15              	.Ltext0:
  16              		.cfi_sections	.debug_frame
  17              		.section	.text.display_write_buf,"ax",%progbits
  18              		.align	1
  19              		.code	16
  20              		.thumb_func
  21              		.type	display_write_buf, %function
  22              	display_write_buf:
  23              	.LFB35:
  24              		.file 1 ".\\ssd1306.c"
   1:.\ssd1306.c   **** /*
   2:.\ssd1306.c   **** 
   3:.\ssd1306.c   **** SSD1306 OLED - I2C driver
   4:.\ssd1306.c   **** 
   5:.\ssd1306.c   **** Derk Steggewentz, 3/2015 
   6:.\ssd1306.c   **** 
   7:.\ssd1306.c   **** This is a I2C driver for SSD1306 OLED displays including graphics library.
   8:.\ssd1306.c   **** 
   9:.\ssd1306.c   **** 
  10:.\ssd1306.c   **** The graphics library part (gfx_ functions) is based on the Adafruit graphics library.
  11:.\ssd1306.c   **** 
  12:.\ssd1306.c   **** 
  13:.\ssd1306.c   **** No license restrictions on my part, do whatever you want as long as you follow the inherited
  14:.\ssd1306.c   **** license requirements (applying to the Adafruit graphics library part).
  15:.\ssd1306.c   **** 
  16:.\ssd1306.c   **** 
  17:.\ssd1306.c   **** ===== derived license (for graphics library) ======
  18:.\ssd1306.c   **** 
  19:.\ssd1306.c   **** Copyright (c) 2013 Adafruit Industries. All rights reserved.
  20:.\ssd1306.c   **** 
  21:.\ssd1306.c   **** Redistribution and use in source and binary forms, with or without
  22:.\ssd1306.c   **** modification, are permitted provided that the following conditions are met:
  23:.\ssd1306.c   **** - Redistributions of source code must retain the above copyright notice,
  24:.\ssd1306.c   **** this list of conditions and the following disclaimer.
  25:.\ssd1306.c   **** - Redistributions in binary form must reproduce the above copyright notice,
  26:.\ssd1306.c   **** this list of conditions and the following disclaimer in the documentation
  27:.\ssd1306.c   **** and/or other materials provided with the distribution.
  28:.\ssd1306.c   **** THIS SOFTWARE IS PROVIDED BY THE COPYRIGHT HOLDERS AND CONTRIBUTORS "AS IS"
  29:.\ssd1306.c   **** AND ANY EXPRESS OR IMPLIED WARRANTIES, INCLUDING, BUT NOT LIMITED TO, THE
  30:.\ssd1306.c   **** IMPLIED WARRANTIES OF MERCHANTABILITY AND FITNESS FOR A PARTICULAR PURPOSE
  31:.\ssd1306.c   **** ARE DISCLAIMED. IN NO EVENT SHALL THE COPYRIGHT HOLDER OR CONTRIBUTORS BE
  32:.\ssd1306.c   **** LIABLE FOR ANY DIRECT, INDIRECT, INCIDENTAL, SPECIAL, EXEMPLARY, OR
  33:.\ssd1306.c   **** CONSEQUENTIAL DAMAGES (INCLUDING, BUT NOT LIMITED TO, PROCUREMENT OF
ARM GAS  C:\Users\User\AppData\Local\Temp\cctjmLxv.s 			page 2


  34:.\ssd1306.c   **** SUBSTITUTE GOODS OR SERVICES; LOSS OF USE, DATA, OR PROFITS; OR BUSINESS
  35:.\ssd1306.c   **** INTERRUPTION) HOWEVER CAUSED AND ON ANY THEORY OF LIABILITY, WHETHER IN
  36:.\ssd1306.c   **** CONTRACT, STRICT LIABILITY, OR TORT (INCLUDING NEGLIGENCE OR OTHERWISE)
  37:.\ssd1306.c   **** ARISING IN ANY WAY OUT OF THE USE OF THIS SOFTWARE, EVEN IF ADVISED OF THE
  38:.\ssd1306.c   **** POSSIBILITY OF SUCH DAMAGE.
  39:.\ssd1306.c   **** 
  40:.\ssd1306.c   **** */
  41:.\ssd1306.c   **** 
  42:.\ssd1306.c   **** 
  43:.\ssd1306.c   **** #include <project.h>
  44:.\ssd1306.c   **** #include <stdlib.h>
  45:.\ssd1306.c   **** 
  46:.\ssd1306.c   **** #include "font.h"
  47:.\ssd1306.c   **** #include "ssd1306.h"
  48:.\ssd1306.c   **** 
  49:.\ssd1306.c   **** 
  50:.\ssd1306.c   **** #define DISPLAYWIDTH 128
  51:.\ssd1306.c   **** #define DISPLAYHEIGHT 64
  52:.\ssd1306.c   ****     
  53:.\ssd1306.c   **** #define SSD1306_SETCONTRAST 0x81
  54:.\ssd1306.c   **** #define SSD1306_DISPLAYALLON_RESUME 0xA4
  55:.\ssd1306.c   **** #define SSD1306_DISPLAYALLON 0xA5
  56:.\ssd1306.c   **** #define SSD1306_NORMALDISPLAY 0xA6
  57:.\ssd1306.c   **** #define SSD1306_INVERTDISPLAY 0xA7
  58:.\ssd1306.c   **** #define SSD1306_DISPLAYOFF 0xAE
  59:.\ssd1306.c   **** #define SSD1306_DISPLAYON 0xAF
  60:.\ssd1306.c   **** #define SSD1306_SETDISPLAYOFFSET 0xD3
  61:.\ssd1306.c   **** #define SSD1306_SETCOMPINS 0xDA
  62:.\ssd1306.c   **** #define SSD1306_SETVCOMDETECT 0xDB
  63:.\ssd1306.c   **** #define SSD1306_SETDISPLAYCLOCKDIV 0xD5
  64:.\ssd1306.c   **** #define SSD1306_SETPRECHARGE 0xD9
  65:.\ssd1306.c   **** #define SSD1306_SETMULTIPLEX 0xA8
  66:.\ssd1306.c   **** #define SSD1306_SETLOWCOLUMN 0x00
  67:.\ssd1306.c   **** #define SSD1306_SETHIGHCOLUMN 0x10
  68:.\ssd1306.c   **** #define SSD1306_SETSTARTLINE 0x40
  69:.\ssd1306.c   **** #define SSD1306_MEMORYMODE 0x20
  70:.\ssd1306.c   **** #define SSD1306_COLUMNADDR 0x21
  71:.\ssd1306.c   **** #define SSD1306_PAGEADDR 0x22
  72:.\ssd1306.c   **** #define SSD1306_COMSCANINC 0xC0
  73:.\ssd1306.c   **** #define SSD1306_COMSCANDEC 0xC8
  74:.\ssd1306.c   **** #define SSD1306_SEGREMAP 0xA0
  75:.\ssd1306.c   **** #define SSD1306_CHARGEPUMP 0x8D
  76:.\ssd1306.c   **** #define SSD1306_EXTERNALVCC 0x1
  77:.\ssd1306.c   **** #define SSD1306_SWITCHCAPVCC 0x2
  78:.\ssd1306.c   **** #define SSD1306_ACTIVATE_SCROLL 0x2F
  79:.\ssd1306.c   **** #define SSD1306_DEACTIVATE_SCROLL 0x2E
  80:.\ssd1306.c   **** 
  81:.\ssd1306.c   **** 
  82:.\ssd1306.c   **** // I2C result status
  83:.\ssd1306.c   **** #define TRANSFER_CMPLT    (0x00u)
  84:.\ssd1306.c   **** #define TRANSFER_ERROR    (0xFFu)
  85:.\ssd1306.c   **** 
  86:.\ssd1306.c   **** 
  87:.\ssd1306.c   **** static uint32 display_write_buf( uint8* buf, uint16_t size );
  88:.\ssd1306.c   **** 
  89:.\ssd1306.c   **** void gfx_init( int16_t width, int16_t height );
  90:.\ssd1306.c   **** 
ARM GAS  C:\Users\User\AppData\Local\Temp\cctjmLxv.s 			page 3


  91:.\ssd1306.c   **** static uint8 _i2caddr;
  92:.\ssd1306.c   **** 
  93:.\ssd1306.c   **** // display memory buffer ( === MUST INCLUDE === the preceding I2C 0x40 control byte for the display
  94:.\ssd1306.c   **** static uint8_t SSD1306_buffer[DISPLAYHEIGHT * DISPLAYWIDTH / 8 + 1] = { 0x40 };
  95:.\ssd1306.c   **** // pointer to actual display memory buffer
  96:.\ssd1306.c   **** static uint8_t* _displaybuf = SSD1306_buffer+1;
  97:.\ssd1306.c   **** static uint16_t _displaybuf_size = sizeof(SSD1306_buffer) - 1;
  98:.\ssd1306.c   **** 
  99:.\ssd1306.c   **** // see data sheet page 25 for Graphic Display Data RAM organization
 100:.\ssd1306.c   **** // 8 pages, each page a row of DISPLAYWIDTH bytes
 101:.\ssd1306.c   **** // start address of of row: y/8*DISPLAYWIDTH
 102:.\ssd1306.c   **** // x pos in row: == x 
 103:.\ssd1306.c   **** #define GDDRAM_ADDRESS(X,Y) ((_displaybuf)+((Y)/8)*(DISPLAYWIDTH)+(X))
 104:.\ssd1306.c   **** 
 105:.\ssd1306.c   **** // lower 3 bit of y determine vertical pixel position (pos 0...7) in GDDRAM byte
 106:.\ssd1306.c   **** // (y&0x07) == position of pixel on row (page). LSB is top, MSB bottom
 107:.\ssd1306.c   **** #define GDDRAM_PIXMASK(Y) (1 << ((Y)&0x07))
 108:.\ssd1306.c   **** 
 109:.\ssd1306.c   **** #define PIXEL_ON(X,Y) (*GDDRAM_ADDRESS(x,y) |= GDDRAM_PIXMASK(y))
 110:.\ssd1306.c   **** #define PIXEL_OFF(X,Y) (*GDDRAM_ADDRESS(x,y) &= ~GDDRAM_PIXMASK(y))
 111:.\ssd1306.c   **** #define PIXEL_TOGGLE(X,Y) (*GDDRAM_ADDRESS(x,y) ^= GDDRAM_PIXMASK(y)) 
 112:.\ssd1306.c   **** 
 113:.\ssd1306.c   **** 
 114:.\ssd1306.c   **** 
 115:.\ssd1306.c   **** // call before first use of other functions
 116:.\ssd1306.c   **** void display_init( uint8 i2caddr ){
 117:.\ssd1306.c   ****     
 118:.\ssd1306.c   ****     _i2caddr = i2caddr;
 119:.\ssd1306.c   ****     gfx_init( DISPLAYWIDTH, DISPLAYHEIGHT );
 120:.\ssd1306.c   ****     
 121:.\ssd1306.c   ****     uint8 cmdbuf[] = {
 122:.\ssd1306.c   ****         0x00,
 123:.\ssd1306.c   ****         SSD1306_DISPLAYOFF,
 124:.\ssd1306.c   ****         SSD1306_SETDISPLAYCLOCKDIV,
 125:.\ssd1306.c   ****         0x80,
 126:.\ssd1306.c   ****         SSD1306_SETMULTIPLEX,
 127:.\ssd1306.c   ****         0x3f,
 128:.\ssd1306.c   ****         SSD1306_SETDISPLAYOFFSET,
 129:.\ssd1306.c   ****         0x00,
 130:.\ssd1306.c   ****         SSD1306_SETSTARTLINE | 0x0,
 131:.\ssd1306.c   ****         SSD1306_CHARGEPUMP,
 132:.\ssd1306.c   ****         0x14,
 133:.\ssd1306.c   ****         SSD1306_MEMORYMODE,
 134:.\ssd1306.c   ****         0x00,
 135:.\ssd1306.c   ****         SSD1306_SEGREMAP | 0x1,
 136:.\ssd1306.c   ****         SSD1306_COMSCANDEC,
 137:.\ssd1306.c   ****         SSD1306_SETCOMPINS,
 138:.\ssd1306.c   ****         0x12,
 139:.\ssd1306.c   ****         SSD1306_SETCONTRAST,
 140:.\ssd1306.c   ****         0xcf,
 141:.\ssd1306.c   ****         SSD1306_SETPRECHARGE,
 142:.\ssd1306.c   ****         0xf1,
 143:.\ssd1306.c   ****         SSD1306_SETVCOMDETECT,
 144:.\ssd1306.c   ****         0x40,
 145:.\ssd1306.c   ****         SSD1306_DISPLAYALLON_RESUME,
 146:.\ssd1306.c   ****         SSD1306_NORMALDISPLAY,
 147:.\ssd1306.c   ****         SSD1306_DISPLAYON
ARM GAS  C:\Users\User\AppData\Local\Temp\cctjmLxv.s 			page 4


 148:.\ssd1306.c   ****     };
 149:.\ssd1306.c   ****     
 150:.\ssd1306.c   ****     display_write_buf( cmdbuf, sizeof(cmdbuf) ); 
 151:.\ssd1306.c   **** }
 152:.\ssd1306.c   **** 
 153:.\ssd1306.c   **** 
 154:.\ssd1306.c   **** // for submitting command sequences:
 155:.\ssd1306.c   **** //  buf[0] must be 0x00
 156:.\ssd1306.c   **** // for submitting bulk data (writing to display RAM):
 157:.\ssd1306.c   **** //  buf[0] must be 0x40
 158:.\ssd1306.c   **** static uint32 display_write_buf( uint8* buf, uint16_t size ){
  25              		.loc 1 158 0
  26              		.cfi_startproc
  27              	.LVL0:
  28 0000 38B5     		push	{r3, r4, r5, lr}
  29              		.cfi_def_cfa_offset 16
  30              		.cfi_offset 3, -16
  31              		.cfi_offset 4, -12
  32              		.cfi_offset 5, -8
  33              		.cfi_offset 14, -4
  34              		.loc 1 158 0
  35 0002 031C     		mov	r3, r0
  36 0004 0D1C     		mov	r5, r1
 159:.\ssd1306.c   **** 
 160:.\ssd1306.c   ****     uint32 status = TRANSFER_ERROR;
 161:.\ssd1306.c   **** 
 162:.\ssd1306.c   ****     I2COLED_I2CMasterWriteBuf(_i2caddr, buf, size, I2COLED_I2C_MODE_COMPLETE_XFER);
  37              		.loc 1 162 0
  38 0006 0E4A     		ldr	r2, .L8
  39 0008 191C     		mov	r1, r3
  40              	.LVL1:
  41 000a 1078     		ldrb	r0, [r2]
  42              	.LVL2:
  43 000c 0023     		mov	r3, #0
  44 000e 2A1C     		mov	r2, r5
  45 0010 FFF7FEFF 		bl	I2COLED_I2CMasterWriteBuf
  46              	.LVL3:
  47              	.L2:
 163:.\ssd1306.c   ****     while( 0u == (I2COLED_I2CMasterStatus() & I2COLED_I2C_MSTAT_WR_CMPLT) );
  48              		.loc 1 163 0 discriminator 1
  49 0014 FFF7FEFF 		bl	I2COLED_I2CMasterStatus
  50              	.LVL4:
  51 0018 8307     		lsl	r3, r0, #30
  52 001a FBD5     		bpl	.L2
 164:.\ssd1306.c   **** 
 165:.\ssd1306.c   ****     if( 0u == (I2COLED_I2C_MSTAT_ERR_XFER & I2COLED_I2CMasterStatus()) ){
  53              		.loc 1 165 0
  54 001c FFF7FEFF 		bl	I2COLED_I2CMasterStatus
  55              	.LVL5:
  56 0020 8023     		mov	r3, #128
  57 0022 9B00     		lsl	r3, r3, #2
  58 0024 1840     		and	r0, r3
  59 0026 041E     		sub	r4, r0, #0
  60 0028 01D0     		beq	.L3
  61              	.L5:
 160:.\ssd1306.c   **** 
  62              		.loc 1 160 0
ARM GAS  C:\Users\User\AppData\Local\Temp\cctjmLxv.s 			page 5


  63 002a FF24     		mov	r4, #255
  64 002c 03E0     		b	.L4
  65              	.L3:
 166:.\ssd1306.c   ****         // Check if all bytes was written 
 167:.\ssd1306.c   ****         if( I2COLED_I2CMasterGetWriteBufSize() == size ){
  66              		.loc 1 167 0
  67 002e FFF7FEFF 		bl	I2COLED_I2CMasterGetWriteBufSize
  68              	.LVL6:
  69 0032 A842     		cmp	r0, r5
  70 0034 F9D1     		bne	.L5
  71              	.L4:
  72              	.LVL7:
 168:.\ssd1306.c   ****             status = TRANSFER_CMPLT;
 169:.\ssd1306.c   ****         }
 170:.\ssd1306.c   ****     }
 171:.\ssd1306.c   ****     I2COLED_I2CMasterClearStatus();
  73              		.loc 1 171 0
  74 0036 FFF7FEFF 		bl	I2COLED_I2CMasterClearStatus
  75              	.LVL8:
 172:.\ssd1306.c   **** 
 173:.\ssd1306.c   ****     return status;
 174:.\ssd1306.c   **** }
  76              		.loc 1 174 0
  77              		@ sp needed
  78 003a 201C     		mov	r0, r4
  79              	.LVL9:
  80 003c 38BD     		pop	{r3, r4, r5, pc}
  81              	.L9:
  82 003e C046     		.align	2
  83              	.L8:
  84 0040 00000000 		.word	.LANCHOR0
  85              		.cfi_endproc
  86              	.LFE35:
  87              		.size	display_write_buf, .-display_write_buf
  88              		.section	.text.gfx_rotation_adjust,"ax",%progbits
  89              		.align	1
  90              		.code	16
  91              		.thumb_func
  92              		.type	gfx_rotation_adjust, %function
  93              	gfx_rotation_adjust:
  94              	.LFB54:
 175:.\ssd1306.c   **** 
 176:.\ssd1306.c   **** 
 177:.\ssd1306.c   **** // used by gfx_ functions. Needs to be implemented by display_
 178:.\ssd1306.c   **** static void display_setPixel( int16_t x, int16_t y, uint16_t color ){
 179:.\ssd1306.c   ****     
 180:.\ssd1306.c   ****     if( (x < 0) || (x >= DISPLAYWIDTH) || (y < 0) || (y >= DISPLAYHEIGHT) )
 181:.\ssd1306.c   ****         return;
 182:.\ssd1306.c   **** 
 183:.\ssd1306.c   ****     switch( color ){
 184:.\ssd1306.c   ****         case WHITE: 
 185:.\ssd1306.c   ****             PIXEL_ON(x,y);
 186:.\ssd1306.c   ****             break;
 187:.\ssd1306.c   ****         case BLACK:
 188:.\ssd1306.c   ****             PIXEL_OFF(x,y);
 189:.\ssd1306.c   ****             break;
 190:.\ssd1306.c   ****         case INVERSE: 
ARM GAS  C:\Users\User\AppData\Local\Temp\cctjmLxv.s 			page 6


 191:.\ssd1306.c   ****             PIXEL_TOGGLE(x,y);
 192:.\ssd1306.c   ****             break;
 193:.\ssd1306.c   ****     }
 194:.\ssd1306.c   **** }
 195:.\ssd1306.c   **** 
 196:.\ssd1306.c   **** 
 197:.\ssd1306.c   **** void display_clear(void){
 198:.\ssd1306.c   ****     memset( _displaybuf, 0, _displaybuf_size );
 199:.\ssd1306.c   ****     SSD1306_buffer[0] = 0x40; // to be sure its there
 200:.\ssd1306.c   **** }
 201:.\ssd1306.c   **** 
 202:.\ssd1306.c   **** 
 203:.\ssd1306.c   **** // contrast: 0 ...255
 204:.\ssd1306.c   **** void display_contrast( uint8_t contrast ){
 205:.\ssd1306.c   ****         
 206:.\ssd1306.c   ****     uint8 cmdbuf[] = {
 207:.\ssd1306.c   ****         0x00,  
 208:.\ssd1306.c   ****         SSD1306_SETCONTRAST,
 209:.\ssd1306.c   ****         contrast
 210:.\ssd1306.c   ****     };
 211:.\ssd1306.c   ****     display_write_buf( cmdbuf, sizeof(cmdbuf) ); 
 212:.\ssd1306.c   **** }
 213:.\ssd1306.c   **** 
 214:.\ssd1306.c   **** 
 215:.\ssd1306.c   **** // invert <> 0 for inverse display, invert == 0 for normal display
 216:.\ssd1306.c   **** void display_invert( uint8_t invert ){
 217:.\ssd1306.c   **** 
 218:.\ssd1306.c   ****     uint8 cmdbuf[] = {
 219:.\ssd1306.c   ****         0x00,  
 220:.\ssd1306.c   ****         0
 221:.\ssd1306.c   ****     };
 222:.\ssd1306.c   ****     cmdbuf[1] = invert ? SSD1306_INVERTDISPLAY : SSD1306_NORMALDISPLAY;
 223:.\ssd1306.c   ****     display_write_buf( cmdbuf, sizeof(cmdbuf) ); 
 224:.\ssd1306.c   **** }
 225:.\ssd1306.c   **** 
 226:.\ssd1306.c   **** 
 227:.\ssd1306.c   **** void display_update(void) {
 228:.\ssd1306.c   ****       
 229:.\ssd1306.c   ****     uint8 cmdbuf[] = {
 230:.\ssd1306.c   ****         0x00,
 231:.\ssd1306.c   ****         SSD1306_COLUMNADDR,
 232:.\ssd1306.c   ****         0,                      // start
 233:.\ssd1306.c   ****         DISPLAYWIDTH-1, // end
 234:.\ssd1306.c   ****         SSD1306_PAGEADDR,
 235:.\ssd1306.c   ****         0,                      // start
 236:.\ssd1306.c   ****         7                       // end
 237:.\ssd1306.c   ****     };
 238:.\ssd1306.c   ****     display_write_buf( cmdbuf, sizeof(cmdbuf) ); 
 239:.\ssd1306.c   ****     display_write_buf( SSD1306_buffer, sizeof(SSD1306_buffer) );
 240:.\ssd1306.c   **** }
 241:.\ssd1306.c   **** 
 242:.\ssd1306.c   **** 
 243:.\ssd1306.c   **** // draws horizontal or vertical line
 244:.\ssd1306.c   **** // Note: no check for valid coords, this needs to be done by caller
 245:.\ssd1306.c   **** // should only be called from gfx_hvline which is doing all validity checking
 246:.\ssd1306.c   **** static void display_line( int16_t x1, int16_t y1, int16_t x2, int16_t y2, uint16_t color ){
 247:.\ssd1306.c   **** 
ARM GAS  C:\Users\User\AppData\Local\Temp\cctjmLxv.s 			page 7


 248:.\ssd1306.c   ****     if( x1 == x2 ){
 249:.\ssd1306.c   ****         // vertical
 250:.\ssd1306.c   ****         uint8_t* pstart = GDDRAM_ADDRESS(x1,y1);
 251:.\ssd1306.c   ****         uint8_t* pend = GDDRAM_ADDRESS(x2,y2);       
 252:.\ssd1306.c   ****         uint8_t* ptr = pstart;             
 253:.\ssd1306.c   ****         
 254:.\ssd1306.c   ****         while( ptr <= pend ){
 255:.\ssd1306.c   ****             
 256:.\ssd1306.c   ****             uint8_t mask;
 257:.\ssd1306.c   ****             if( ptr == pstart ){
 258:.\ssd1306.c   ****                 // top
 259:.\ssd1306.c   ****                 uint8_t lbit = y1 % 8;
 260:.\ssd1306.c   ****                 // bottom (line can be very short, all inside this one byte)
 261:.\ssd1306.c   ****                 uint8_t ubit = lbit + y2 - y1;
 262:.\ssd1306.c   ****                 if( ubit >= 7 )
 263:.\ssd1306.c   ****                     ubit = 7;
 264:.\ssd1306.c   ****                 mask = ((1 << (ubit-lbit+1)) - 1) << lbit;    
 265:.\ssd1306.c   ****             }else if( ptr == pend ){
 266:.\ssd1306.c   ****                 // top is always bit 0, that makes it easy
 267:.\ssd1306.c   ****                 // bottom
 268:.\ssd1306.c   ****                 mask = (1 << (y2 % 8)) - 1;    
 269:.\ssd1306.c   ****             }
 270:.\ssd1306.c   **** 
 271:.\ssd1306.c   ****             if( ptr == pstart || ptr == pend ){
 272:.\ssd1306.c   ****                 switch( color ){
 273:.\ssd1306.c   ****                     case WHITE:     *ptr |= mask; break;
 274:.\ssd1306.c   ****                     case BLACK:     *ptr &= ~mask; break;
 275:.\ssd1306.c   ****                     case INVERSE:   *ptr ^= mask; break;
 276:.\ssd1306.c   ****                 };  
 277:.\ssd1306.c   ****             }else{
 278:.\ssd1306.c   ****                 switch( color ){
 279:.\ssd1306.c   ****                     case WHITE:     *ptr = 0xff; break;
 280:.\ssd1306.c   ****                     case BLACK:     *ptr = 0x00; break;
 281:.\ssd1306.c   ****                     case INVERSE:   *ptr ^= 0xff; break;
 282:.\ssd1306.c   ****                 };  
 283:.\ssd1306.c   ****             }
 284:.\ssd1306.c   ****             
 285:.\ssd1306.c   ****             ptr += DISPLAYWIDTH;
 286:.\ssd1306.c   ****         }
 287:.\ssd1306.c   ****     }else{
 288:.\ssd1306.c   ****         // horizontal
 289:.\ssd1306.c   ****         uint8_t* pstart = GDDRAM_ADDRESS(x1,y1);
 290:.\ssd1306.c   ****         uint8_t* pend = pstart + x2 - x1;
 291:.\ssd1306.c   ****         uint8_t pixmask = GDDRAM_PIXMASK(y1);    
 292:.\ssd1306.c   **** 
 293:.\ssd1306.c   ****         uint8_t* ptr = pstart;
 294:.\ssd1306.c   ****         while( ptr <= pend ){
 295:.\ssd1306.c   ****             switch( color ){
 296:.\ssd1306.c   ****                 case WHITE:     *ptr |= pixmask; break;
 297:.\ssd1306.c   ****                 case BLACK:     *ptr &= ~pixmask; break;
 298:.\ssd1306.c   ****                 case INVERSE:   *ptr ^= pixmask; break;
 299:.\ssd1306.c   ****             };
 300:.\ssd1306.c   ****             ptr++;
 301:.\ssd1306.c   ****         }
 302:.\ssd1306.c   ****     }
 303:.\ssd1306.c   **** }
 304:.\ssd1306.c   **** 
ARM GAS  C:\Users\User\AppData\Local\Temp\cctjmLxv.s 			page 8


 305:.\ssd1306.c   **** 
 306:.\ssd1306.c   **** 
 307:.\ssd1306.c   **** void display_stopscroll(void){
 308:.\ssd1306.c   **** 
 309:.\ssd1306.c   ****     uint8 cmdbuf[] = {
 310:.\ssd1306.c   ****         0x00,
 311:.\ssd1306.c   ****         SSD1306_DEACTIVATE_SCROLL
 312:.\ssd1306.c   ****     };
 313:.\ssd1306.c   ****     display_write_buf( cmdbuf, sizeof(cmdbuf) ); 
 314:.\ssd1306.c   **** }
 315:.\ssd1306.c   **** 
 316:.\ssd1306.c   **** void display_scroll( SCROLL_AREA start, SCROLL_AREA end, SCROLL_DIR dir, SCROLL_SPEED speed ){
 317:.\ssd1306.c   ****    
 318:.\ssd1306.c   ****     uint8 cmdbuf[] = {
 319:.\ssd1306.c   ****         0x00,
 320:.\ssd1306.c   ****         dir,                    // 0x26 or 0x2a
 321:.\ssd1306.c   ****         0x00,                   // dummy byte
 322:.\ssd1306.c   ****         start,                  // start page
 323:.\ssd1306.c   ****         speed,                  // scroll step interval in terms of frame frequency 
 324:.\ssd1306.c   ****         end,                    // end page
 325:.\ssd1306.c   ****         0x00,                   // dummy byte
 326:.\ssd1306.c   ****         0xFF,                   // dummy byte
 327:.\ssd1306.c   ****         SSD1306_ACTIVATE_SCROLL // 0x2F
 328:.\ssd1306.c   ****     };
 329:.\ssd1306.c   ****     display_write_buf( cmdbuf, sizeof(cmdbuf) ); 
 330:.\ssd1306.c   **** }
 331:.\ssd1306.c   **** 
 332:.\ssd1306.c   **** 
 333:.\ssd1306.c   **** 
 334:.\ssd1306.c   **** // ============================================================
 335:.\ssd1306.c   **** // graphics library stuff
 336:.\ssd1306.c   **** 
 337:.\ssd1306.c   **** int16_t WIDTH, HEIGHT; // This is the 'raw' display w/h - never changes
 338:.\ssd1306.c   **** static int16_t _width, _height; // Display w/h as modified by current rotation
 339:.\ssd1306.c   **** static int16_t cursor_x, cursor_y;
 340:.\ssd1306.c   **** static uint16_t textcolor, textbgcolor;
 341:.\ssd1306.c   **** static uint8_t textsize;
 342:.\ssd1306.c   **** uint8_t rotation;
 343:.\ssd1306.c   **** uint8_t wrap; // If set, 'wrap' text at right edge of display
 344:.\ssd1306.c   **** 
 345:.\ssd1306.c   **** 
 346:.\ssd1306.c   **** 
 347:.\ssd1306.c   **** void gfx_init( int16_t width, int16_t height ){
 348:.\ssd1306.c   ****     WIDTH = width;
 349:.\ssd1306.c   ****     HEIGHT = height;
 350:.\ssd1306.c   ****     _width = WIDTH;
 351:.\ssd1306.c   ****     _height = HEIGHT;
 352:.\ssd1306.c   ****     
 353:.\ssd1306.c   ****     rotation = 0;
 354:.\ssd1306.c   ****     cursor_y = cursor_x = 0;
 355:.\ssd1306.c   ****     textsize = 1;
 356:.\ssd1306.c   ****     textcolor = textbgcolor = 0xFFFF;
 357:.\ssd1306.c   ****     wrap = 1;
 358:.\ssd1306.c   **** }
 359:.\ssd1306.c   **** 
 360:.\ssd1306.c   **** // Return the size of the display (per current rotation)
 361:.\ssd1306.c   **** int16_t gfx_width(void){
ARM GAS  C:\Users\User\AppData\Local\Temp\cctjmLxv.s 			page 9


 362:.\ssd1306.c   ****     return _width;
 363:.\ssd1306.c   **** }
 364:.\ssd1306.c   **** 
 365:.\ssd1306.c   **** int16_t gfx_height(void){
 366:.\ssd1306.c   ****     return _height;
 367:.\ssd1306.c   **** }
 368:.\ssd1306.c   **** 
 369:.\ssd1306.c   **** uint8_t gfx_rotation(void){
 370:.\ssd1306.c   ****     return rotation;
 371:.\ssd1306.c   **** }
 372:.\ssd1306.c   **** 
 373:.\ssd1306.c   **** void gfx_setCursor( int16_t x, int16_t y ){
 374:.\ssd1306.c   ****     cursor_x = x;
 375:.\ssd1306.c   ****     cursor_y = y;
 376:.\ssd1306.c   **** }
 377:.\ssd1306.c   **** 
 378:.\ssd1306.c   **** void gfx_setTextSize( uint8_t size ){
 379:.\ssd1306.c   ****     textsize = (size > 0) ? size : 1;
 380:.\ssd1306.c   **** }
 381:.\ssd1306.c   **** 
 382:.\ssd1306.c   **** void gfx_setTextColor( uint16_t color ){
 383:.\ssd1306.c   ****     // For 'transparent' background, we'll set the bg
 384:.\ssd1306.c   ****     // to the same as fg instead of using a flag
 385:.\ssd1306.c   ****     textcolor = textbgcolor = color;
 386:.\ssd1306.c   **** }
 387:.\ssd1306.c   **** 
 388:.\ssd1306.c   **** void gfx_setTextBg( uint16_t color ){
 389:.\ssd1306.c   ****     textbgcolor = color;
 390:.\ssd1306.c   **** }
 391:.\ssd1306.c   **** 
 392:.\ssd1306.c   **** void gfx_setTextWrap( uint8 w ){
 393:.\ssd1306.c   ****     wrap = w;
 394:.\ssd1306.c   **** }
 395:.\ssd1306.c   **** 
 396:.\ssd1306.c   **** void gfx_setRotation( uint8_t x ){
 397:.\ssd1306.c   ****     
 398:.\ssd1306.c   ****     rotation = (x & 3);
 399:.\ssd1306.c   ****     switch( rotation ){
 400:.\ssd1306.c   ****         case 0:
 401:.\ssd1306.c   ****         case 2:
 402:.\ssd1306.c   ****             _width = WIDTH;
 403:.\ssd1306.c   ****             _height = HEIGHT;
 404:.\ssd1306.c   ****             break;
 405:.\ssd1306.c   ****         case 1:
 406:.\ssd1306.c   ****         case 3:
 407:.\ssd1306.c   ****             _width = HEIGHT;
 408:.\ssd1306.c   ****             _height = WIDTH;
 409:.\ssd1306.c   ****         break;
 410:.\ssd1306.c   ****     }
 411:.\ssd1306.c   **** }
 412:.\ssd1306.c   **** 
 413:.\ssd1306.c   **** static void gfx_rotation_adjust( int16_t* px, int16_t* py ){
  95              		.loc 1 413 0
  96              		.cfi_startproc
  97              	.LVL10:
  98 0000 10B5     		push	{r4, lr}
  99              		.cfi_def_cfa_offset 8
ARM GAS  C:\Users\User\AppData\Local\Temp\cctjmLxv.s 			page 10


 100              		.cfi_offset 4, -8
 101              		.cfi_offset 14, -4
 414:.\ssd1306.c   **** 
 415:.\ssd1306.c   ****     int16_t y0 = *py;
 416:.\ssd1306.c   ****     
 417:.\ssd1306.c   ****     switch( rotation ){
 102              		.loc 1 417 0
 103 0002 134B     		ldr	r3, .L15
 415:.\ssd1306.c   ****     
 104              		.loc 1 415 0
 105 0004 0C88     		ldrh	r4, [r1]
 106              	.LVL11:
 107              		.loc 1 417 0
 108 0006 1A78     		ldrb	r2, [r3]
 109 0008 022A     		cmp	r2, #2
 110 000a 0BD0     		beq	.L12
 111 000c 032A     		cmp	r2, #3
 112 000e 16D0     		beq	.L13
 113 0010 012A     		cmp	r2, #1
 114 0012 1BD1     		bne	.L10
 418:.\ssd1306.c   ****         case 1:
 419:.\ssd1306.c   ****             *py = *px;
 115              		.loc 1 419 0
 116 0014 0388     		ldrh	r3, [r0]
 117 0016 0B80     		strh	r3, [r1]
 420:.\ssd1306.c   ****             *px = WIDTH - y0 - 1;
 118              		.loc 1 420 0
 119 0018 0E4B     		ldr	r3, .L15+4
 120 001a 1B88     		ldrh	r3, [r3]
 121 001c 013B     		sub	r3, r3, #1
 122 001e 1B1B     		sub	r3, r3, r4
 123 0020 0380     		strh	r3, [r0]
 421:.\ssd1306.c   ****             break;
 124              		.loc 1 421 0
 125 0022 13E0     		b	.L10
 126              	.L12:
 127              	.LVL12:
 128              	.LBB5:
 129              	.LBB6:
 422:.\ssd1306.c   ****         case 2:
 423:.\ssd1306.c   ****             *px = WIDTH - *px - 1;
 130              		.loc 1 423 0
 131 0024 0B4B     		ldr	r3, .L15+4
 132 0026 0288     		ldrh	r2, [r0]
 133 0028 1B88     		ldrh	r3, [r3]
 134 002a 013B     		sub	r3, r3, #1
 135 002c 9B1A     		sub	r3, r3, r2
 136 002e 0380     		strh	r3, [r0]
 424:.\ssd1306.c   ****             *py = HEIGHT - *py - 1;
 137              		.loc 1 424 0
 138 0030 094B     		ldr	r3, .L15+8
 139 0032 0A88     		ldrh	r2, [r1]
 140 0034 1B88     		ldrh	r3, [r3]
 141 0036 013B     		sub	r3, r3, #1
 142 0038 9B1A     		sub	r3, r3, r2
 143 003a 0B80     		strh	r3, [r1]
 144 003c 06E0     		b	.L10
ARM GAS  C:\Users\User\AppData\Local\Temp\cctjmLxv.s 			page 11


 145              	.LVL13:
 146              	.L13:
 147              	.LBE6:
 148              	.LBE5:
 425:.\ssd1306.c   ****             break;
 426:.\ssd1306.c   ****         case 3:
 427:.\ssd1306.c   ****             *py = HEIGHT - *px - 1;
 149              		.loc 1 427 0
 150 003e 064B     		ldr	r3, .L15+8
 151 0040 0288     		ldrh	r2, [r0]
 152 0042 1B88     		ldrh	r3, [r3]
 153 0044 013B     		sub	r3, r3, #1
 154 0046 9B1A     		sub	r3, r3, r2
 155 0048 0B80     		strh	r3, [r1]
 428:.\ssd1306.c   ****             *px = y0;
 156              		.loc 1 428 0
 157 004a 0480     		strh	r4, [r0]
 158              	.L10:
 429:.\ssd1306.c   ****             break;
 430:.\ssd1306.c   ****     }
 431:.\ssd1306.c   **** }
 159              		.loc 1 431 0
 160              		@ sp needed
 161              	.LVL14:
 162 004c 10BD     		pop	{r4, pc}
 163              	.L16:
 164 004e C046     		.align	2
 165              	.L15:
 166 0050 00000000 		.word	rotation
 167 0054 00000000 		.word	WIDTH
 168 0058 00000000 		.word	HEIGHT
 169              		.cfi_endproc
 170              	.LFE54:
 171              		.size	gfx_rotation_adjust, .-gfx_rotation_adjust
 172              		.section	.text.gfx_write.part.3,"ax",%progbits
 173              		.align	1
 174              		.code	16
 175              		.thumb_func
 176              		.type	gfx_write.part.3, %function
 177              	gfx_write.part.3:
 178              	.LFB69:
 432:.\ssd1306.c   **** 
 433:.\ssd1306.c   **** void gfx_drawPixel( int16_t x, int16_t y, uint16_t color ){
 434:.\ssd1306.c   ****     
 435:.\ssd1306.c   ****     if( (x < 0) || (x >= _width) || (y < 0) || (y >= _height) )
 436:.\ssd1306.c   ****         return;
 437:.\ssd1306.c   ****     
 438:.\ssd1306.c   ****     gfx_rotation_adjust( &x, &y );
 439:.\ssd1306.c   **** 
 440:.\ssd1306.c   ****     display_setPixel(x,y,color);
 441:.\ssd1306.c   **** }
 442:.\ssd1306.c   **** 
 443:.\ssd1306.c   **** // helper function for gfx_drawLine, handles special cases of horizontal and vertical lines
 444:.\ssd1306.c   **** static void gfx_hvLine( int16_t x1, int16_t y1, int16_t x2, int16_t y2, uint16_t color ){
 445:.\ssd1306.c   ****     
 446:.\ssd1306.c   ****     if( x1 != x2 && y1 != y2 ){
 447:.\ssd1306.c   ****         // neither vertical nor horizontal
ARM GAS  C:\Users\User\AppData\Local\Temp\cctjmLxv.s 			page 12


 448:.\ssd1306.c   ****         return;
 449:.\ssd1306.c   ****     }    
 450:.\ssd1306.c   ****     
 451:.\ssd1306.c   ****     // bounds check
 452:.\ssd1306.c   ****     if( rotation == 1 || rotation == 3 ){
 453:.\ssd1306.c   ****         if( x1 < 0 || x1 >= HEIGHT || x2 < 0 || x2 >= HEIGHT )
 454:.\ssd1306.c   ****             return;
 455:.\ssd1306.c   ****         if( y1 < 0 || y1 >= WIDTH || y2 < 0 || y2 >= WIDTH )
 456:.\ssd1306.c   ****             return;
 457:.\ssd1306.c   ****     }else{
 458:.\ssd1306.c   ****         if( y1 < 0 || y1 >= HEIGHT || y2 < 0 || y2 >= HEIGHT )
 459:.\ssd1306.c   ****             return;
 460:.\ssd1306.c   ****         if( x1 < 0 || x1 >= WIDTH || x2 < 0 || x2 >= WIDTH )
 461:.\ssd1306.c   ****             return;
 462:.\ssd1306.c   ****     }
 463:.\ssd1306.c   ****     
 464:.\ssd1306.c   ****     gfx_rotation_adjust( &x1, &y1 );
 465:.\ssd1306.c   ****     gfx_rotation_adjust( &x2, &y2 );
 466:.\ssd1306.c   ****     
 467:.\ssd1306.c   ****     // ensure coords are from left to right and top to bottom
 468:.\ssd1306.c   ****     if( (x1 == x2 && y2 < y1) || (y1 == y2 && x2 < x1) ){
 469:.\ssd1306.c   ****         // swap as needed
 470:.\ssd1306.c   ****         int16_t t = x1; x1 = x2; x2 = t;
 471:.\ssd1306.c   ****         t = y1; y1 = y2; y2 = t;
 472:.\ssd1306.c   ****     }
 473:.\ssd1306.c   ****     
 474:.\ssd1306.c   ****     display_line( x1, y1, x2, y2, color );
 475:.\ssd1306.c   **** }
 476:.\ssd1306.c   **** 
 477:.\ssd1306.c   **** // always use this function for line drawing
 478:.\ssd1306.c   **** void gfx_drawLine( int16_t x0, int16_t y0, int16_t x1, int16_t y1, uint16_t color ){
 479:.\ssd1306.c   ****  
 480:.\ssd1306.c   ****     if( x0 == x1 || y0 == y1 ){
 481:.\ssd1306.c   ****         // vertical and horizontal lines can be drawn faster
 482:.\ssd1306.c   ****         gfx_hvLine( x0, y0, x1, y1, color );
 483:.\ssd1306.c   ****         return;
 484:.\ssd1306.c   ****     }
 485:.\ssd1306.c   ****     
 486:.\ssd1306.c   ****     int16_t t;
 487:.\ssd1306.c   ****     
 488:.\ssd1306.c   ****     int16_t steep = abs(y1 - y0) > abs(x1 - x0);
 489:.\ssd1306.c   ****     if( steep ){
 490:.\ssd1306.c   ****         t = x0; x0 = y0; y0 = t;
 491:.\ssd1306.c   ****         t = x1; x1 = y1; y1 = t;
 492:.\ssd1306.c   ****     }
 493:.\ssd1306.c   ****     if( x0 > x1 ){
 494:.\ssd1306.c   ****         t = x0; x0 = x1; x1 = t;
 495:.\ssd1306.c   ****         t = y0; y0 = y1; y1 = t;
 496:.\ssd1306.c   ****     }
 497:.\ssd1306.c   ****     int16_t dx, dy;
 498:.\ssd1306.c   ****     dx = x1 - x0;
 499:.\ssd1306.c   ****     dy = abs(y1 - y0);
 500:.\ssd1306.c   ****     int16_t err = dx / 2;
 501:.\ssd1306.c   ****     int16_t ystep;
 502:.\ssd1306.c   ****     if( y0 < y1 ){
 503:.\ssd1306.c   ****         ystep = 1;
 504:.\ssd1306.c   ****     }else{
ARM GAS  C:\Users\User\AppData\Local\Temp\cctjmLxv.s 			page 13


 505:.\ssd1306.c   ****         ystep = -1;
 506:.\ssd1306.c   ****     }
 507:.\ssd1306.c   ****     for( ; x0<=x1; x0++ ){
 508:.\ssd1306.c   ****         if( steep ){
 509:.\ssd1306.c   ****             gfx_drawPixel( y0, x0, color );
 510:.\ssd1306.c   ****         }else{
 511:.\ssd1306.c   ****             gfx_drawPixel( x0, y0, color );
 512:.\ssd1306.c   ****         }
 513:.\ssd1306.c   ****         err -= dy;
 514:.\ssd1306.c   ****         if( err < 0 ){
 515:.\ssd1306.c   ****             y0 += ystep;
 516:.\ssd1306.c   ****             err += dx;
 517:.\ssd1306.c   ****         }
 518:.\ssd1306.c   ****     }
 519:.\ssd1306.c   **** }
 520:.\ssd1306.c   **** 
 521:.\ssd1306.c   **** void gfx_drawRect( int16_t x, int16_t y, int16_t w, int16_t h, uint16_t color ){
 522:.\ssd1306.c   ****     
 523:.\ssd1306.c   ****     gfx_drawLine( x, y, x+w-1, y, color );
 524:.\ssd1306.c   ****     gfx_drawLine( x, y+h-1, x+w-1, y+h-1, color );
 525:.\ssd1306.c   ****     gfx_drawLine( x, y, x, y+h-1, color );
 526:.\ssd1306.c   ****     gfx_drawLine( x+w-1, y, x+w-1, y+h-1, color );
 527:.\ssd1306.c   **** }
 528:.\ssd1306.c   **** 
 529:.\ssd1306.c   **** void gfx_fillRect( int16_t x, int16_t y, int16_t w, int16_t h, uint16_t color ){
 530:.\ssd1306.c   ****     int16_t i = 0;
 531:.\ssd1306.c   ****     if( h > w ){
 532:.\ssd1306.c   ****         for( i = x ; i < x+w ; i++ ){
 533:.\ssd1306.c   ****             gfx_drawLine( i, y, i, y+h-1, color );
 534:.\ssd1306.c   ****         }
 535:.\ssd1306.c   ****     }else{
 536:.\ssd1306.c   ****         for( i = y ; i < y+h ; i++ ){
 537:.\ssd1306.c   ****             gfx_drawLine( x, i, x+w-1, i, color );
 538:.\ssd1306.c   ****         }
 539:.\ssd1306.c   ****     }
 540:.\ssd1306.c   **** }
 541:.\ssd1306.c   **** 
 542:.\ssd1306.c   **** 
 543:.\ssd1306.c   **** // circle outline
 544:.\ssd1306.c   **** void gfx_drawCircle( int16_t x0, int16_t y0, int16_t r,uint16_t color ){
 545:.\ssd1306.c   **** 
 546:.\ssd1306.c   ****     int16_t f = 1 - r;
 547:.\ssd1306.c   ****     int16_t ddF_x = 1;
 548:.\ssd1306.c   ****     int16_t ddF_y = -2 * r;
 549:.\ssd1306.c   ****     int16_t x = 0;
 550:.\ssd1306.c   ****     int16_t y = r;
 551:.\ssd1306.c   ****     gfx_drawPixel( x0 , y0+r, color );
 552:.\ssd1306.c   ****     gfx_drawPixel( x0 , y0-r, color );
 553:.\ssd1306.c   ****     gfx_drawPixel( x0+r, y0 , color );
 554:.\ssd1306.c   ****     gfx_drawPixel( x0-r, y0 , color );
 555:.\ssd1306.c   ****     while( x < y ){
 556:.\ssd1306.c   ****         if( f >= 0 ){
 557:.\ssd1306.c   ****             y--;
 558:.\ssd1306.c   ****             ddF_y += 2;
 559:.\ssd1306.c   ****             f += ddF_y;
 560:.\ssd1306.c   ****         }
 561:.\ssd1306.c   ****         x++;
ARM GAS  C:\Users\User\AppData\Local\Temp\cctjmLxv.s 			page 14


 562:.\ssd1306.c   ****         ddF_x += 2;
 563:.\ssd1306.c   ****         f += ddF_x;
 564:.\ssd1306.c   ****         gfx_drawPixel( x0 + x, y0 + y, color );
 565:.\ssd1306.c   ****         gfx_drawPixel( x0 - x, y0 + y, color );
 566:.\ssd1306.c   ****         gfx_drawPixel( x0 + x, y0 - y, color );
 567:.\ssd1306.c   ****         gfx_drawPixel( x0 - x, y0 - y, color );
 568:.\ssd1306.c   ****         gfx_drawPixel( x0 + y, y0 + x, color );
 569:.\ssd1306.c   ****         gfx_drawPixel( x0 - y, y0 + x, color );
 570:.\ssd1306.c   ****         gfx_drawPixel( x0 + y, y0 - x, color );
 571:.\ssd1306.c   ****         gfx_drawPixel( x0 - y, y0 - x, color );
 572:.\ssd1306.c   ****     }
 573:.\ssd1306.c   **** }
 574:.\ssd1306.c   **** 
 575:.\ssd1306.c   **** void gfx_drawTriangle( int16_t x0, int16_t y0,int16_t x1, int16_t y1, int16_t x2, int16_t y2, uint1
 576:.\ssd1306.c   ****     
 577:.\ssd1306.c   ****     gfx_drawLine( x0, y0, x1, y1, color );
 578:.\ssd1306.c   ****     gfx_drawLine( x1, y1, x2, y2, color );
 579:.\ssd1306.c   ****     gfx_drawLine( x2, y2, x0, y0, color );
 580:.\ssd1306.c   **** }
 581:.\ssd1306.c   **** 
 582:.\ssd1306.c   **** 
 583:.\ssd1306.c   **** // Draw a character
 584:.\ssd1306.c   **** void gfx_drawChar( int16_t x, int16_t y, unsigned char c,uint16_t color, uint16_t bg, uint8_t size)
 585:.\ssd1306.c   ****     if( (x >= _width) || // Clip right
 586:.\ssd1306.c   ****         (y >= _height) || // Clip bottom
 587:.\ssd1306.c   ****         ((x + 6 * size - 1) < 0) || // Clip left
 588:.\ssd1306.c   ****         ((y + 8 * size - 1) < 0)) // Clip top
 589:.\ssd1306.c   ****         return;
 590:.\ssd1306.c   **** 
 591:.\ssd1306.c   ****     int8_t i = 0;
 592:.\ssd1306.c   ****     for( i = 0 ; i < 6 ; i++ ){
 593:.\ssd1306.c   ****         uint8_t line;
 594:.\ssd1306.c   ****         if( i == 5 )
 595:.\ssd1306.c   ****             line = 0x0;
 596:.\ssd1306.c   ****         else
 597:.\ssd1306.c   ****            line = font[(c*5)+i];
 598:.\ssd1306.c   ****         int8_t j = 0;
 599:.\ssd1306.c   ****         for( j = 0; j < 8 ; j++ ){
 600:.\ssd1306.c   ****             if( line & 0x1 ){
 601:.\ssd1306.c   ****                 if( size == 1 ) // default size
 602:.\ssd1306.c   ****                     gfx_drawPixel( x+i, y+j, color );
 603:.\ssd1306.c   ****                 else { // big size
 604:.\ssd1306.c   ****                     gfx_fillRect( x+(i*size), y+(j*size), size, size, color );
 605:.\ssd1306.c   ****                 }
 606:.\ssd1306.c   ****             } else if( bg != color ){
 607:.\ssd1306.c   ****                 if( size == 1 ) // default size
 608:.\ssd1306.c   ****                     gfx_drawPixel( x+i, y+j, bg );
 609:.\ssd1306.c   ****                 else { // big size
 610:.\ssd1306.c   ****                     gfx_fillRect( x+i*size, y+j*size, size, size, bg );
 611:.\ssd1306.c   ****                 }
 612:.\ssd1306.c   ****             }
 613:.\ssd1306.c   ****             line >>= 1;
 614:.\ssd1306.c   ****         }
 615:.\ssd1306.c   ****     }
 616:.\ssd1306.c   **** }
 617:.\ssd1306.c   **** 
 618:.\ssd1306.c   **** void gfx_write( uint8_t ch ){
ARM GAS  C:\Users\User\AppData\Local\Temp\cctjmLxv.s 			page 15


 179              		.loc 1 618 0
 180              		.cfi_startproc
 181              	.LVL15:
 619:.\ssd1306.c   ****     if( ch == '\n' ){
 620:.\ssd1306.c   ****         cursor_y += textsize*8;
 182              		.loc 1 620 0
 183 0000 044B     		ldr	r3, .L18
 621:.\ssd1306.c   ****         cursor_x = 0;
 622:.\ssd1306.c   ****     }else if( ch == '\r' ){
 623:.\ssd1306.c   ****         // skip em
 624:.\ssd1306.c   ****     }else{
 625:.\ssd1306.c   ****         gfx_drawChar(cursor_x, cursor_y, ch, textcolor, textbgcolor, textsize);
 626:.\ssd1306.c   ****         cursor_x += textsize*6;
 627:.\ssd1306.c   ****         if( wrap && (cursor_x > (_width - textsize*6)) ){
 628:.\ssd1306.c   ****             cursor_y += textsize*8;
 629:.\ssd1306.c   ****             cursor_x = 0;
 630:.\ssd1306.c   ****         }
 631:.\ssd1306.c   ****     }
 632:.\ssd1306.c   **** }
 184              		.loc 1 632 0
 185              		@ sp needed
 620:.\ssd1306.c   ****         cursor_x = 0;
 186              		.loc 1 620 0
 187 0002 1A79     		ldrb	r2, [r3, #4]
 188 0004 5988     		ldrh	r1, [r3, #2]
 189 0006 D200     		lsl	r2, r2, #3
 190 0008 5218     		add	r2, r2, r1
 191 000a 5A80     		strh	r2, [r3, #2]
 621:.\ssd1306.c   ****         cursor_x = 0;
 192              		.loc 1 621 0
 193 000c 0022     		mov	r2, #0
 194 000e DA80     		strh	r2, [r3, #6]
 195              		.loc 1 632 0
 196 0010 7047     		bx	lr
 197              	.L19:
 198 0012 C046     		.align	2
 199              	.L18:
 200 0014 00000000 		.word	.LANCHOR0
 201              		.cfi_endproc
 202              	.LFE69:
 203              		.size	gfx_write.part.3, .-gfx_write.part.3
 204              		.section	.text.display_clear,"ax",%progbits
 205              		.align	1
 206              		.global	display_clear
 207              		.code	16
 208              		.thumb_func
 209              		.type	display_clear, %function
 210              	display_clear:
 211              	.LFB37:
 197:.\ssd1306.c   ****     memset( _displaybuf, 0, _displaybuf_size );
 212              		.loc 1 197 0
 213              		.cfi_startproc
 198:.\ssd1306.c   ****     SSD1306_buffer[0] = 0x40; // to be sure its there
 214              		.loc 1 198 0
 215 0000 8022     		mov	r2, #128
 197:.\ssd1306.c   ****     memset( _displaybuf, 0, _displaybuf_size );
 216              		.loc 1 197 0
ARM GAS  C:\Users\User\AppData\Local\Temp\cctjmLxv.s 			page 16


 217 0002 10B5     		push	{r4, lr}
 218              		.cfi_def_cfa_offset 8
 219              		.cfi_offset 4, -8
 220              		.cfi_offset 14, -4
 198:.\ssd1306.c   ****     SSD1306_buffer[0] = 0x40; // to be sure its there
 221              		.loc 1 198 0
 222 0004 044C     		ldr	r4, .L21
 223 0006 0021     		mov	r1, #0
 224 0008 601C     		add	r0, r4, #1
 225 000a D200     		lsl	r2, r2, #3
 226 000c FFF7FEFF 		bl	memset
 227              	.LVL16:
 199:.\ssd1306.c   **** }
 228              		.loc 1 199 0
 229 0010 4023     		mov	r3, #64
 200:.\ssd1306.c   **** 
 230              		.loc 1 200 0
 231              		@ sp needed
 199:.\ssd1306.c   **** }
 232              		.loc 1 199 0
 233 0012 2370     		strb	r3, [r4]
 200:.\ssd1306.c   **** 
 234              		.loc 1 200 0
 235 0014 10BD     		pop	{r4, pc}
 236              	.L22:
 237 0016 C046     		.align	2
 238              	.L21:
 239 0018 00000000 		.word	.LANCHOR1
 240              		.cfi_endproc
 241              	.LFE37:
 242              		.size	display_clear, .-display_clear
 243              		.section	.text.display_contrast,"ax",%progbits
 244              		.align	1
 245              		.global	display_contrast
 246              		.code	16
 247              		.thumb_func
 248              		.type	display_contrast, %function
 249              	display_contrast:
 250              	.LFB38:
 204:.\ssd1306.c   ****         
 251              		.loc 1 204 0
 252              		.cfi_startproc
 253              	.LVL17:
 254 0000 07B5     		push	{r0, r1, r2, lr}
 255              		.cfi_def_cfa_offset 16
 256              		.cfi_offset 0, -16
 257              		.cfi_offset 1, -12
 258              		.cfi_offset 2, -8
 259              		.cfi_offset 14, -4
 206:.\ssd1306.c   ****         0x00,  
 260              		.loc 1 206 0
 261 0002 0022     		mov	r2, #0
 262 0004 01AB     		add	r3, sp, #4
 263 0006 1A70     		strb	r2, [r3]
 264 0008 9870     		strb	r0, [r3, #2]
 265 000a 8132     		add	r2, r2, #129
 211:.\ssd1306.c   **** }
ARM GAS  C:\Users\User\AppData\Local\Temp\cctjmLxv.s 			page 17


 266              		.loc 1 211 0
 267 000c 181C     		mov	r0, r3
 268              	.LVL18:
 269 000e 0321     		mov	r1, #3
 206:.\ssd1306.c   ****         0x00,  
 270              		.loc 1 206 0
 271 0010 5A70     		strb	r2, [r3, #1]
 212:.\ssd1306.c   **** 
 272              		.loc 1 212 0
 273              		@ sp needed
 211:.\ssd1306.c   **** }
 274              		.loc 1 211 0
 275 0012 FFF7FEFF 		bl	display_write_buf
 276              	.LVL19:
 212:.\ssd1306.c   **** 
 277              		.loc 1 212 0
 278 0016 07BD     		pop	{r0, r1, r2, pc}
 279              		.cfi_endproc
 280              	.LFE38:
 281              		.size	display_contrast, .-display_contrast
 282              		.section	.text.display_invert,"ax",%progbits
 283              		.align	1
 284              		.global	display_invert
 285              		.code	16
 286              		.thumb_func
 287              		.type	display_invert, %function
 288              	display_invert:
 289              	.LFB39:
 216:.\ssd1306.c   **** 
 290              		.loc 1 216 0
 291              		.cfi_startproc
 292              	.LVL20:
 293 0000 07B5     		push	{r0, r1, r2, lr}
 294              		.cfi_def_cfa_offset 16
 295              		.cfi_offset 0, -16
 296              		.cfi_offset 1, -12
 297              		.cfi_offset 2, -8
 298              		.cfi_offset 14, -4
 216:.\ssd1306.c   **** 
 299              		.loc 1 216 0
 300 0002 031C     		mov	r3, r0
 218:.\ssd1306.c   ****         0x00,  
 301              		.loc 1 218 0
 302 0004 0022     		mov	r2, #0
 303 0006 01A8     		add	r0, sp, #4
 304              	.LVL21:
 305 0008 0270     		strb	r2, [r0]
 222:.\ssd1306.c   ****     display_write_buf( cmdbuf, sizeof(cmdbuf) ); 
 306              		.loc 1 222 0
 307 000a 5A1E     		sub	r2, r3, #1
 308 000c 9341     		sbc	r3, r3, r2
 223:.\ssd1306.c   **** }
 309              		.loc 1 223 0
 310 000e 0221     		mov	r1, #2
 222:.\ssd1306.c   ****     display_write_buf( cmdbuf, sizeof(cmdbuf) ); 
 311              		.loc 1 222 0
 312 0010 A633     		add	r3, r3, #166
ARM GAS  C:\Users\User\AppData\Local\Temp\cctjmLxv.s 			page 18


 313 0012 4370     		strb	r3, [r0, #1]
 224:.\ssd1306.c   **** 
 314              		.loc 1 224 0
 315              		@ sp needed
 223:.\ssd1306.c   **** }
 316              		.loc 1 223 0
 317 0014 FFF7FEFF 		bl	display_write_buf
 318              	.LVL22:
 224:.\ssd1306.c   **** 
 319              		.loc 1 224 0
 320 0018 07BD     		pop	{r0, r1, r2, pc}
 321              		.cfi_endproc
 322              	.LFE39:
 323              		.size	display_invert, .-display_invert
 324              		.section	.text.display_update,"ax",%progbits
 325              		.align	1
 326              		.global	display_update
 327              		.code	16
 328              		.thumb_func
 329              		.type	display_update, %function
 330              	display_update:
 331              	.LFB40:
 227:.\ssd1306.c   ****       
 332              		.loc 1 227 0
 333              		.cfi_startproc
 334 0000 13B5     		push	{r0, r1, r4, lr}
 335              		.cfi_def_cfa_offset 16
 336              		.cfi_offset 0, -16
 337              		.cfi_offset 1, -12
 338              		.cfi_offset 4, -8
 339              		.cfi_offset 14, -4
 229:.\ssd1306.c   ****         0x00,
 340              		.loc 1 229 0
 341 0002 0724     		mov	r4, #7
 342 0004 6846     		mov	r0, sp
 343 0006 221C     		mov	r2, r4
 344 0008 0549     		ldr	r1, .L28
 345 000a FFF7FEFF 		bl	memcpy
 346              	.LVL23:
 238:.\ssd1306.c   ****     display_write_buf( SSD1306_buffer, sizeof(SSD1306_buffer) );
 347              		.loc 1 238 0
 348 000e 211C     		mov	r1, r4
 349 0010 6846     		mov	r0, sp
 350 0012 FFF7FEFF 		bl	display_write_buf
 351              	.LVL24:
 239:.\ssd1306.c   **** }
 352              		.loc 1 239 0
 353 0016 0349     		ldr	r1, .L28+4
 354 0018 0348     		ldr	r0, .L28+8
 355 001a FFF7FEFF 		bl	display_write_buf
 356              	.LVL25:
 240:.\ssd1306.c   **** 
 357              		.loc 1 240 0
 358              		@ sp needed
 359 001e 13BD     		pop	{r0, r1, r4, pc}
 360              	.L29:
 361              		.align	2
ARM GAS  C:\Users\User\AppData\Local\Temp\cctjmLxv.s 			page 19


 362              	.L28:
 363 0020 00000000 		.word	.LANCHOR2
 364 0024 01040000 		.word	1025
 365 0028 00000000 		.word	.LANCHOR1
 366              		.cfi_endproc
 367              	.LFE40:
 368              		.size	display_update, .-display_update
 369              		.section	.text.display_stopscroll,"ax",%progbits
 370              		.align	1
 371              		.global	display_stopscroll
 372              		.code	16
 373              		.thumb_func
 374              		.type	display_stopscroll, %function
 375              	display_stopscroll:
 376              	.LFB42:
 307:.\ssd1306.c   **** 
 377              		.loc 1 307 0
 378              		.cfi_startproc
 309:.\ssd1306.c   ****         0x00,
 379              		.loc 1 309 0
 380 0000 0023     		mov	r3, #0
 307:.\ssd1306.c   **** 
 381              		.loc 1 307 0
 382 0002 07B5     		push	{r0, r1, r2, lr}
 383              		.cfi_def_cfa_offset 16
 384              		.cfi_offset 0, -16
 385              		.cfi_offset 1, -12
 386              		.cfi_offset 2, -8
 387              		.cfi_offset 14, -4
 309:.\ssd1306.c   ****         0x00,
 388              		.loc 1 309 0
 389 0004 01A8     		add	r0, sp, #4
 390 0006 0370     		strb	r3, [r0]
 313:.\ssd1306.c   **** }
 391              		.loc 1 313 0
 392 0008 0221     		mov	r1, #2
 309:.\ssd1306.c   ****         0x00,
 393              		.loc 1 309 0
 394 000a 2E33     		add	r3, r3, #46
 395 000c 4370     		strb	r3, [r0, #1]
 314:.\ssd1306.c   **** 
 396              		.loc 1 314 0
 397              		@ sp needed
 313:.\ssd1306.c   **** }
 398              		.loc 1 313 0
 399 000e FFF7FEFF 		bl	display_write_buf
 400              	.LVL26:
 314:.\ssd1306.c   **** 
 401              		.loc 1 314 0
 402 0012 07BD     		pop	{r0, r1, r2, pc}
 403              		.cfi_endproc
 404              	.LFE42:
 405              		.size	display_stopscroll, .-display_stopscroll
 406              		.section	.text.display_scroll,"ax",%progbits
 407              		.align	1
 408              		.global	display_scroll
 409              		.code	16
ARM GAS  C:\Users\User\AppData\Local\Temp\cctjmLxv.s 			page 20


 410              		.thumb_func
 411              		.type	display_scroll, %function
 412              	display_scroll:
 413              	.LFB43:
 316:.\ssd1306.c   ****    
 414              		.loc 1 316 0
 415              		.cfi_startproc
 416              	.LVL27:
 417 0000 30B5     		push	{r4, r5, lr}
 418              		.cfi_def_cfa_offset 12
 419              		.cfi_offset 4, -12
 420              		.cfi_offset 5, -8
 421              		.cfi_offset 14, -4
 422 0002 85B0     		sub	sp, sp, #20
 423              		.cfi_def_cfa_offset 32
 318:.\ssd1306.c   ****         0x00,
 424              		.loc 1 318 0
 425 0004 01AC     		add	r4, sp, #4
 426 0006 2371     		strb	r3, [r4, #4]
 427 0008 FF23     		mov	r3, #255
 428              	.LVL28:
 429 000a 0025     		mov	r5, #0
 430 000c E070     		strb	r0, [r4, #3]
 431 000e 6171     		strb	r1, [r4, #5]
 432 0010 E371     		strb	r3, [r4, #7]
 329:.\ssd1306.c   **** }
 433              		.loc 1 329 0
 434 0012 201C     		mov	r0, r4
 435              	.LVL29:
 318:.\ssd1306.c   ****         0x00,
 436              		.loc 1 318 0
 437 0014 D03B     		sub	r3, r3, #208
 329:.\ssd1306.c   **** }
 438              		.loc 1 329 0
 439 0016 0921     		mov	r1, #9
 440              	.LVL30:
 318:.\ssd1306.c   ****         0x00,
 441              		.loc 1 318 0
 442 0018 2570     		strb	r5, [r4]
 443 001a 6270     		strb	r2, [r4, #1]
 444 001c A570     		strb	r5, [r4, #2]
 445 001e A571     		strb	r5, [r4, #6]
 446 0020 2372     		strb	r3, [r4, #8]
 329:.\ssd1306.c   **** }
 447              		.loc 1 329 0
 448 0022 FFF7FEFF 		bl	display_write_buf
 449              	.LVL31:
 330:.\ssd1306.c   **** 
 450              		.loc 1 330 0
 451 0026 05B0     		add	sp, sp, #20
 452              		@ sp needed
 453 0028 30BD     		pop	{r4, r5, pc}
 454              		.cfi_endproc
 455              	.LFE43:
 456              		.size	display_scroll, .-display_scroll
 457              		.section	.text.gfx_init,"ax",%progbits
 458              		.align	1
ARM GAS  C:\Users\User\AppData\Local\Temp\cctjmLxv.s 			page 21


 459              		.global	gfx_init
 460              		.code	16
 461              		.thumb_func
 462              		.type	gfx_init, %function
 463              	gfx_init:
 464              	.LFB44:
 347:.\ssd1306.c   ****     WIDTH = width;
 465              		.loc 1 347 0
 466              		.cfi_startproc
 467              	.LVL32:
 353:.\ssd1306.c   ****     cursor_y = cursor_x = 0;
 468              		.loc 1 353 0
 469 0000 0022     		mov	r2, #0
 348:.\ssd1306.c   ****     HEIGHT = height;
 470              		.loc 1 348 0
 471 0002 0A4B     		ldr	r3, .L33
 358:.\ssd1306.c   **** 
 472              		.loc 1 358 0
 473              		@ sp needed
 348:.\ssd1306.c   ****     HEIGHT = height;
 474              		.loc 1 348 0
 475 0004 1880     		strh	r0, [r3]
 349:.\ssd1306.c   ****     _width = WIDTH;
 476              		.loc 1 349 0
 477 0006 0A4B     		ldr	r3, .L33+4
 478 0008 1980     		strh	r1, [r3]
 350:.\ssd1306.c   ****     _height = HEIGHT;
 479              		.loc 1 350 0
 480 000a 0A4B     		ldr	r3, .L33+8
 351:.\ssd1306.c   ****     
 481              		.loc 1 351 0
 482 000c 5981     		strh	r1, [r3, #10]
 353:.\ssd1306.c   ****     cursor_y = cursor_x = 0;
 483              		.loc 1 353 0
 484 000e 0A49     		ldr	r1, .L33+12
 485              	.LVL33:
 354:.\ssd1306.c   ****     textsize = 1;
 486              		.loc 1 354 0
 487 0010 DA80     		strh	r2, [r3, #6]
 353:.\ssd1306.c   ****     cursor_y = cursor_x = 0;
 488              		.loc 1 353 0
 489 0012 0A70     		strb	r2, [r1]
 356:.\ssd1306.c   ****     wrap = 1;
 490              		.loc 1 356 0
 491 0014 0121     		mov	r1, #1
 354:.\ssd1306.c   ****     textsize = 1;
 492              		.loc 1 354 0
 493 0016 5A80     		strh	r2, [r3, #2]
 356:.\ssd1306.c   ****     wrap = 1;
 494              		.loc 1 356 0
 495 0018 4942     		neg	r1, r1
 355:.\ssd1306.c   ****     textcolor = textbgcolor = 0xFFFF;
 496              		.loc 1 355 0
 497 001a 0132     		add	r2, r2, #1
 350:.\ssd1306.c   ****     _height = HEIGHT;
 498              		.loc 1 350 0
 499 001c 1881     		strh	r0, [r3, #8]
ARM GAS  C:\Users\User\AppData\Local\Temp\cctjmLxv.s 			page 22


 355:.\ssd1306.c   ****     textcolor = textbgcolor = 0xFFFF;
 500              		.loc 1 355 0
 501 001e 1A71     		strb	r2, [r3, #4]
 356:.\ssd1306.c   ****     wrap = 1;
 502              		.loc 1 356 0
 503 0020 9981     		strh	r1, [r3, #12]
 504 0022 D981     		strh	r1, [r3, #14]
 357:.\ssd1306.c   **** }
 505              		.loc 1 357 0
 506 0024 054B     		ldr	r3, .L33+16
 507 0026 1A70     		strb	r2, [r3]
 358:.\ssd1306.c   **** 
 508              		.loc 1 358 0
 509 0028 7047     		bx	lr
 510              	.L34:
 511 002a C046     		.align	2
 512              	.L33:
 513 002c 00000000 		.word	WIDTH
 514 0030 00000000 		.word	HEIGHT
 515 0034 00000000 		.word	.LANCHOR0
 516 0038 00000000 		.word	rotation
 517 003c 00000000 		.word	wrap
 518              		.cfi_endproc
 519              	.LFE44:
 520              		.size	gfx_init, .-gfx_init
 521              		.section	.text.display_init,"ax",%progbits
 522              		.align	1
 523              		.global	display_init
 524              		.code	16
 525              		.thumb_func
 526              		.type	display_init, %function
 527              	display_init:
 528              	.LFB34:
 116:.\ssd1306.c   ****     
 529              		.loc 1 116 0
 530              		.cfi_startproc
 531              	.LVL34:
 532 0000 10B5     		push	{r4, lr}
 533              		.cfi_def_cfa_offset 8
 534              		.cfi_offset 4, -8
 535              		.cfi_offset 14, -4
 121:.\ssd1306.c   ****         0x00,
 536              		.loc 1 121 0
 537 0002 1A24     		mov	r4, #26
 118:.\ssd1306.c   ****     gfx_init( DISPLAYWIDTH, DISPLAYHEIGHT );
 538              		.loc 1 118 0
 539 0004 094B     		ldr	r3, .L36
 116:.\ssd1306.c   ****     
 540              		.loc 1 116 0
 541 0006 88B0     		sub	sp, sp, #32
 542              		.cfi_def_cfa_offset 40
 118:.\ssd1306.c   ****     gfx_init( DISPLAYWIDTH, DISPLAYHEIGHT );
 543              		.loc 1 118 0
 544 0008 1870     		strb	r0, [r3]
 119:.\ssd1306.c   ****     
 545              		.loc 1 119 0
 546 000a 4021     		mov	r1, #64
ARM GAS  C:\Users\User\AppData\Local\Temp\cctjmLxv.s 			page 23


 547 000c 8020     		mov	r0, #128
 548              	.LVL35:
 549 000e FFF7FEFF 		bl	gfx_init
 550              	.LVL36:
 121:.\ssd1306.c   ****         0x00,
 551              		.loc 1 121 0
 552 0012 0749     		ldr	r1, .L36+4
 553 0014 221C     		mov	r2, r4
 554 0016 01A8     		add	r0, sp, #4
 555 0018 0731     		add	r1, r1, #7
 556 001a FFF7FEFF 		bl	memcpy
 557              	.LVL37:
 150:.\ssd1306.c   **** }
 558              		.loc 1 150 0
 559 001e 01A8     		add	r0, sp, #4
 560 0020 211C     		mov	r1, r4
 561 0022 FFF7FEFF 		bl	display_write_buf
 562              	.LVL38:
 151:.\ssd1306.c   **** 
 563              		.loc 1 151 0
 564 0026 08B0     		add	sp, sp, #32
 565              		@ sp needed
 566 0028 10BD     		pop	{r4, pc}
 567              	.L37:
 568 002a C046     		.align	2
 569              	.L36:
 570 002c 00000000 		.word	.LANCHOR0
 571 0030 00000000 		.word	.LANCHOR2
 572              		.cfi_endproc
 573              	.LFE34:
 574              		.size	display_init, .-display_init
 575              		.section	.text.gfx_width,"ax",%progbits
 576              		.align	1
 577              		.global	gfx_width
 578              		.code	16
 579              		.thumb_func
 580              		.type	gfx_width, %function
 581              	gfx_width:
 582              	.LFB45:
 361:.\ssd1306.c   ****     return _width;
 583              		.loc 1 361 0
 584              		.cfi_startproc
 362:.\ssd1306.c   **** }
 585              		.loc 1 362 0
 586 0000 014B     		ldr	r3, .L39
 363:.\ssd1306.c   **** 
 587              		.loc 1 363 0
 588              		@ sp needed
 362:.\ssd1306.c   **** }
 589              		.loc 1 362 0
 590 0002 0820     		mov	r0, #8
 591 0004 185E     		ldrsh	r0, [r3, r0]
 363:.\ssd1306.c   **** 
 592              		.loc 1 363 0
 593 0006 7047     		bx	lr
 594              	.L40:
 595              		.align	2
ARM GAS  C:\Users\User\AppData\Local\Temp\cctjmLxv.s 			page 24


 596              	.L39:
 597 0008 00000000 		.word	.LANCHOR0
 598              		.cfi_endproc
 599              	.LFE45:
 600              		.size	gfx_width, .-gfx_width
 601              		.section	.text.gfx_height,"ax",%progbits
 602              		.align	1
 603              		.global	gfx_height
 604              		.code	16
 605              		.thumb_func
 606              		.type	gfx_height, %function
 607              	gfx_height:
 608              	.LFB46:
 365:.\ssd1306.c   ****     return _height;
 609              		.loc 1 365 0
 610              		.cfi_startproc
 366:.\ssd1306.c   **** }
 611              		.loc 1 366 0
 612 0000 014B     		ldr	r3, .L42
 367:.\ssd1306.c   **** 
 613              		.loc 1 367 0
 614              		@ sp needed
 366:.\ssd1306.c   **** }
 615              		.loc 1 366 0
 616 0002 0A20     		mov	r0, #10
 617 0004 185E     		ldrsh	r0, [r3, r0]
 367:.\ssd1306.c   **** 
 618              		.loc 1 367 0
 619 0006 7047     		bx	lr
 620              	.L43:
 621              		.align	2
 622              	.L42:
 623 0008 00000000 		.word	.LANCHOR0
 624              		.cfi_endproc
 625              	.LFE46:
 626              		.size	gfx_height, .-gfx_height
 627              		.section	.text.gfx_rotation,"ax",%progbits
 628              		.align	1
 629              		.global	gfx_rotation
 630              		.code	16
 631              		.thumb_func
 632              		.type	gfx_rotation, %function
 633              	gfx_rotation:
 634              	.LFB47:
 369:.\ssd1306.c   ****     return rotation;
 635              		.loc 1 369 0
 636              		.cfi_startproc
 370:.\ssd1306.c   **** }
 637              		.loc 1 370 0
 638 0000 014B     		ldr	r3, .L45
 371:.\ssd1306.c   **** 
 639              		.loc 1 371 0
 640              		@ sp needed
 370:.\ssd1306.c   **** }
 641              		.loc 1 370 0
 642 0002 1878     		ldrb	r0, [r3]
 371:.\ssd1306.c   **** 
ARM GAS  C:\Users\User\AppData\Local\Temp\cctjmLxv.s 			page 25


 643              		.loc 1 371 0
 644 0004 7047     		bx	lr
 645              	.L46:
 646 0006 C046     		.align	2
 647              	.L45:
 648 0008 00000000 		.word	rotation
 649              		.cfi_endproc
 650              	.LFE47:
 651              		.size	gfx_rotation, .-gfx_rotation
 652              		.section	.text.gfx_setCursor,"ax",%progbits
 653              		.align	1
 654              		.global	gfx_setCursor
 655              		.code	16
 656              		.thumb_func
 657              		.type	gfx_setCursor, %function
 658              	gfx_setCursor:
 659              	.LFB48:
 373:.\ssd1306.c   ****     cursor_x = x;
 660              		.loc 1 373 0
 661              		.cfi_startproc
 662              	.LVL39:
 374:.\ssd1306.c   ****     cursor_y = y;
 663              		.loc 1 374 0
 664 0000 014B     		ldr	r3, .L48
 376:.\ssd1306.c   **** 
 665              		.loc 1 376 0
 666              		@ sp needed
 374:.\ssd1306.c   ****     cursor_y = y;
 667              		.loc 1 374 0
 668 0002 D880     		strh	r0, [r3, #6]
 375:.\ssd1306.c   **** }
 669              		.loc 1 375 0
 670 0004 5980     		strh	r1, [r3, #2]
 376:.\ssd1306.c   **** 
 671              		.loc 1 376 0
 672 0006 7047     		bx	lr
 673              	.L49:
 674              		.align	2
 675              	.L48:
 676 0008 00000000 		.word	.LANCHOR0
 677              		.cfi_endproc
 678              	.LFE48:
 679              		.size	gfx_setCursor, .-gfx_setCursor
 680              		.section	.text.gfx_setTextSize,"ax",%progbits
 681              		.align	1
 682              		.global	gfx_setTextSize
 683              		.code	16
 684              		.thumb_func
 685              		.type	gfx_setTextSize, %function
 686              	gfx_setTextSize:
 687              	.LFB49:
 378:.\ssd1306.c   ****     textsize = (size > 0) ? size : 1;
 688              		.loc 1 378 0
 689              		.cfi_startproc
 690              	.LVL40:
 379:.\ssd1306.c   **** }
 691              		.loc 1 379 0
ARM GAS  C:\Users\User\AppData\Local\Temp\cctjmLxv.s 			page 26


 692 0000 0123     		mov	r3, #1
 693 0002 0028     		cmp	r0, #0
 694 0004 00D0     		beq	.L51
 695 0006 031C     		mov	r3, r0
 696              	.L51:
 379:.\ssd1306.c   **** }
 697              		.loc 1 379 0 is_stmt 0 discriminator 4
 698 0008 014A     		ldr	r2, .L54
 380:.\ssd1306.c   **** 
 699              		.loc 1 380 0 is_stmt 1 discriminator 4
 700              		@ sp needed
 379:.\ssd1306.c   **** }
 701              		.loc 1 379 0 discriminator 4
 702 000a 1371     		strb	r3, [r2, #4]
 380:.\ssd1306.c   **** 
 703              		.loc 1 380 0 discriminator 4
 704 000c 7047     		bx	lr
 705              	.L55:
 706 000e C046     		.align	2
 707              	.L54:
 708 0010 00000000 		.word	.LANCHOR0
 709              		.cfi_endproc
 710              	.LFE49:
 711              		.size	gfx_setTextSize, .-gfx_setTextSize
 712              		.section	.text.gfx_setTextColor,"ax",%progbits
 713              		.align	1
 714              		.global	gfx_setTextColor
 715              		.code	16
 716              		.thumb_func
 717              		.type	gfx_setTextColor, %function
 718              	gfx_setTextColor:
 719              	.LFB50:
 382:.\ssd1306.c   ****     // For 'transparent' background, we'll set the bg
 720              		.loc 1 382 0
 721              		.cfi_startproc
 722              	.LVL41:
 385:.\ssd1306.c   **** }
 723              		.loc 1 385 0
 724 0000 014B     		ldr	r3, .L57
 386:.\ssd1306.c   **** 
 725              		.loc 1 386 0
 726              		@ sp needed
 385:.\ssd1306.c   **** }
 727              		.loc 1 385 0
 728 0002 9881     		strh	r0, [r3, #12]
 729 0004 D881     		strh	r0, [r3, #14]
 386:.\ssd1306.c   **** 
 730              		.loc 1 386 0
 731 0006 7047     		bx	lr
 732              	.L58:
 733              		.align	2
 734              	.L57:
 735 0008 00000000 		.word	.LANCHOR0
 736              		.cfi_endproc
 737              	.LFE50:
 738              		.size	gfx_setTextColor, .-gfx_setTextColor
 739              		.section	.text.gfx_setTextBg,"ax",%progbits
ARM GAS  C:\Users\User\AppData\Local\Temp\cctjmLxv.s 			page 27


 740              		.align	1
 741              		.global	gfx_setTextBg
 742              		.code	16
 743              		.thumb_func
 744              		.type	gfx_setTextBg, %function
 745              	gfx_setTextBg:
 746              	.LFB51:
 388:.\ssd1306.c   ****     textbgcolor = color;
 747              		.loc 1 388 0
 748              		.cfi_startproc
 749              	.LVL42:
 389:.\ssd1306.c   **** }
 750              		.loc 1 389 0
 751 0000 014B     		ldr	r3, .L60
 390:.\ssd1306.c   **** 
 752              		.loc 1 390 0
 753              		@ sp needed
 389:.\ssd1306.c   **** }
 754              		.loc 1 389 0
 755 0002 9881     		strh	r0, [r3, #12]
 390:.\ssd1306.c   **** 
 756              		.loc 1 390 0
 757 0004 7047     		bx	lr
 758              	.L61:
 759 0006 C046     		.align	2
 760              	.L60:
 761 0008 00000000 		.word	.LANCHOR0
 762              		.cfi_endproc
 763              	.LFE51:
 764              		.size	gfx_setTextBg, .-gfx_setTextBg
 765              		.section	.text.gfx_setTextWrap,"ax",%progbits
 766              		.align	1
 767              		.global	gfx_setTextWrap
 768              		.code	16
 769              		.thumb_func
 770              		.type	gfx_setTextWrap, %function
 771              	gfx_setTextWrap:
 772              	.LFB52:
 392:.\ssd1306.c   ****     wrap = w;
 773              		.loc 1 392 0
 774              		.cfi_startproc
 775              	.LVL43:
 393:.\ssd1306.c   **** }
 776              		.loc 1 393 0
 777 0000 014B     		ldr	r3, .L63
 394:.\ssd1306.c   **** 
 778              		.loc 1 394 0
 779              		@ sp needed
 393:.\ssd1306.c   **** }
 780              		.loc 1 393 0
 781 0002 1870     		strb	r0, [r3]
 394:.\ssd1306.c   **** 
 782              		.loc 1 394 0
 783 0004 7047     		bx	lr
 784              	.L64:
 785 0006 C046     		.align	2
 786              	.L63:
ARM GAS  C:\Users\User\AppData\Local\Temp\cctjmLxv.s 			page 28


 787 0008 00000000 		.word	wrap
 788              		.cfi_endproc
 789              	.LFE52:
 790              		.size	gfx_setTextWrap, .-gfx_setTextWrap
 791              		.section	.text.gfx_setRotation,"ax",%progbits
 792              		.align	1
 793              		.global	gfx_setRotation
 794              		.code	16
 795              		.thumb_func
 796              		.type	gfx_setRotation, %function
 797              	gfx_setRotation:
 798              	.LFB53:
 396:.\ssd1306.c   ****     
 799              		.loc 1 396 0
 800              		.cfi_startproc
 801              	.LVL44:
 398:.\ssd1306.c   ****     switch( rotation ){
 802              		.loc 1 398 0
 803 0000 0323     		mov	r3, #3
 804 0002 1840     		and	r0, r3
 805              	.LVL45:
 806 0004 084B     		ldr	r3, .L76
 807 0006 094A     		ldr	r2, .L76+4
 808 0008 1870     		strb	r0, [r3]
 809 000a 0949     		ldr	r1, .L76+8
 810 000c 094B     		ldr	r3, .L76+12
 399:.\ssd1306.c   ****         case 0:
 811              		.loc 1 399 0
 812 000e 0128     		cmp	r0, #1
 813 0010 05D0     		beq	.L67
 814 0012 0328     		cmp	r0, #3
 815 0014 03D0     		beq	.L67
 402:.\ssd1306.c   ****             _height = HEIGHT;
 816              		.loc 1 402 0
 817 0016 1288     		ldrh	r2, [r2]
 818 0018 1A81     		strh	r2, [r3, #8]
 403:.\ssd1306.c   ****             break;
 819              		.loc 1 403 0
 820 001a 0A88     		ldrh	r2, [r1]
 821 001c 02E0     		b	.L75
 822              	.L67:
 407:.\ssd1306.c   ****             _height = WIDTH;
 823              		.loc 1 407 0
 824 001e 0988     		ldrh	r1, [r1]
 408:.\ssd1306.c   ****         break;
 825              		.loc 1 408 0
 826 0020 1288     		ldrh	r2, [r2]
 407:.\ssd1306.c   ****             _height = WIDTH;
 827              		.loc 1 407 0
 828 0022 1981     		strh	r1, [r3, #8]
 829              	.L75:
 408:.\ssd1306.c   ****         break;
 830              		.loc 1 408 0
 831 0024 5A81     		strh	r2, [r3, #10]
 411:.\ssd1306.c   **** 
 832              		.loc 1 411 0
 833              		@ sp needed
ARM GAS  C:\Users\User\AppData\Local\Temp\cctjmLxv.s 			page 29


 834 0026 7047     		bx	lr
 835              	.L77:
 836              		.align	2
 837              	.L76:
 838 0028 00000000 		.word	rotation
 839 002c 00000000 		.word	WIDTH
 840 0030 00000000 		.word	HEIGHT
 841 0034 00000000 		.word	.LANCHOR0
 842              		.cfi_endproc
 843              	.LFE53:
 844              		.size	gfx_setRotation, .-gfx_setRotation
 845              		.section	.text.gfx_drawPixel,"ax",%progbits
 846              		.align	1
 847              		.global	gfx_drawPixel
 848              		.code	16
 849              		.thumb_func
 850              		.type	gfx_drawPixel, %function
 851              	gfx_drawPixel:
 852              	.LFB55:
 433:.\ssd1306.c   ****     
 853              		.loc 1 433 0
 854              		.cfi_startproc
 855              	.LVL46:
 856 0000 73B5     		push	{r0, r1, r4, r5, r6, lr}
 857              		.cfi_def_cfa_offset 24
 858              		.cfi_offset 0, -24
 859              		.cfi_offset 1, -20
 860              		.cfi_offset 4, -16
 861              		.cfi_offset 5, -12
 862              		.cfi_offset 6, -8
 863              		.cfi_offset 14, -4
 433:.\ssd1306.c   ****     
 864              		.loc 1 433 0
 865 0002 6B46     		mov	r3, sp
 866 0004 01AD     		add	r5, sp, #4
 867 0006 141C     		mov	r4, r2
 868 0008 9E1D     		add	r6, r3, #6
 869 000a D880     		strh	r0, [r3, #6]
 870 000c 2980     		strh	r1, [r5]
 435:.\ssd1306.c   ****         return;
 871              		.loc 1 435 0
 872 000e 0028     		cmp	r0, #0
 873 0010 4DDB     		blt	.L78
 435:.\ssd1306.c   ****         return;
 874              		.loc 1 435 0 is_stmt 0 discriminator 1
 875 0012 274A     		ldr	r2, .L85
 876              	.LVL47:
 877 0014 0821     		mov	r1, #8
 878 0016 535E     		ldrsh	r3, [r2, r1]
 879              	.LVL48:
 880 0018 8342     		cmp	r3, r0
 881 001a 48DD     		ble	.L78
 435:.\ssd1306.c   ****         return;
 882              		.loc 1 435 0 discriminator 2
 883 001c 0021     		mov	r1, #0
 884 001e 6B5E     		ldrsh	r3, [r5, r1]
 885 0020 002B     		cmp	r3, #0
ARM GAS  C:\Users\User\AppData\Local\Temp\cctjmLxv.s 			page 30


 886 0022 44DB     		blt	.L78
 435:.\ssd1306.c   ****         return;
 887              		.loc 1 435 0 discriminator 3
 888 0024 0A21     		mov	r1, #10
 889 0026 525E     		ldrsh	r2, [r2, r1]
 890 0028 9A42     		cmp	r2, r3
 891 002a 40DD     		ble	.L78
 438:.\ssd1306.c   **** 
 892              		.loc 1 438 0 is_stmt 1
 893 002c 301C     		mov	r0, r6
 894              	.LVL49:
 895 002e 291C     		mov	r1, r5
 896 0030 FFF7FEFF 		bl	gfx_rotation_adjust
 897              	.LVL50:
 440:.\ssd1306.c   **** }
 898              		.loc 1 440 0
 899 0034 3388     		ldrh	r3, [r6]
 900 0036 2A88     		ldrh	r2, [r5]
 901              	.LVL51:
 902              	.LBB9:
 903              	.LBB10:
 180:.\ssd1306.c   ****         return;
 904              		.loc 1 180 0
 905 0038 7F2B     		cmp	r3, #127
 906 003a 38D8     		bhi	.L78
 907 003c 91B2     		uxth	r1, r2
 908 003e 3F29     		cmp	r1, #63
 909 0040 35D8     		bhi	.L78
 183:.\ssd1306.c   ****         case WHITE: 
 910              		.loc 1 183 0
 911 0042 012C     		cmp	r4, #1
 912 0044 14D0     		beq	.L82
 913 0046 002C     		cmp	r4, #0
 914 0048 21D0     		beq	.L83
 915 004a 022C     		cmp	r4, #2
 916 004c 2FD1     		bne	.L78
 191:.\ssd1306.c   ****             break;
 917              		.loc 1 191 0
 918 004e 12B2     		sxth	r2, r2
 919 0050 D210     		asr	r2, r2, #3
 920              	.LVL52:
 921 0052 D201     		lsl	r2, r2, #7
 922 0054 1BB2     		sxth	r3, r3
 923 0056 D318     		add	r3, r2, r3
 924              	.LVL53:
 925 0058 164A     		ldr	r2, .L85+4
 926 005a 0132     		add	r2, r2, #1
 927 005c D218     		add	r2, r2, r3
 928 005e 0723     		mov	r3, #7
 929 0060 1940     		and	r1, r3
 930              	.LVL54:
 931 0062 063B     		sub	r3, r3, #6
 932 0064 8B40     		lsl	r3, r3, r1
 933 0066 191C     		mov	r1, r3
 934 0068 1378     		ldrb	r3, [r2]
 935 006a 5940     		eor	r1, r3
 936 006c 1170     		strb	r1, [r2]
ARM GAS  C:\Users\User\AppData\Local\Temp\cctjmLxv.s 			page 31


 937 006e 1EE0     		b	.L78
 938              	.LVL55:
 939              	.L82:
 185:.\ssd1306.c   ****             break;
 940              		.loc 1 185 0
 941 0070 12B2     		sxth	r2, r2
 942 0072 D210     		asr	r2, r2, #3
 943              	.LVL56:
 944 0074 D201     		lsl	r2, r2, #7
 945 0076 1BB2     		sxth	r3, r3
 946 0078 D318     		add	r3, r2, r3
 947              	.LVL57:
 948 007a 0E4A     		ldr	r2, .L85+4
 949 007c 0132     		add	r2, r2, #1
 950 007e D218     		add	r2, r2, r3
 951 0080 0723     		mov	r3, #7
 952 0082 1940     		and	r1, r3
 953              	.LVL58:
 954 0084 8C40     		lsl	r4, r4, r1
 955              	.LVL59:
 956 0086 1178     		ldrb	r1, [r2]
 957 0088 0C43     		orr	r4, r1
 958 008a 1470     		strb	r4, [r2]
 959 008c 0FE0     		b	.L78
 960              	.LVL60:
 961              	.L83:
 188:.\ssd1306.c   ****             break;
 962              		.loc 1 188 0
 963 008e 12B2     		sxth	r2, r2
 964 0090 D210     		asr	r2, r2, #3
 965              	.LVL61:
 966 0092 D201     		lsl	r2, r2, #7
 967 0094 1BB2     		sxth	r3, r3
 968 0096 D318     		add	r3, r2, r3
 969              	.LVL62:
 970 0098 064A     		ldr	r2, .L85+4
 971 009a 0132     		add	r2, r2, #1
 972 009c D218     		add	r2, r2, r3
 973 009e 0723     		mov	r3, #7
 974 00a0 1940     		and	r1, r3
 975              	.LVL63:
 976 00a2 063B     		sub	r3, r3, #6
 977 00a4 8B40     		lsl	r3, r3, r1
 978 00a6 191C     		mov	r1, r3
 979 00a8 1378     		ldrb	r3, [r2]
 980 00aa 8B43     		bic	r3, r1
 981 00ac 1370     		strb	r3, [r2]
 982              	.LVL64:
 983              	.L78:
 984              	.LBE10:
 985              	.LBE9:
 441:.\ssd1306.c   **** 
 986              		.loc 1 441 0
 987              		@ sp needed
 988              	.LVL65:
 989              	.LVL66:
 990 00ae 73BD     		pop	{r0, r1, r4, r5, r6, pc}
ARM GAS  C:\Users\User\AppData\Local\Temp\cctjmLxv.s 			page 32


 991              	.L86:
 992              		.align	2
 993              	.L85:
 994 00b0 00000000 		.word	.LANCHOR0
 995 00b4 00000000 		.word	.LANCHOR1
 996              		.cfi_endproc
 997              	.LFE55:
 998              		.size	gfx_drawPixel, .-gfx_drawPixel
 999              		.section	.text.gfx_drawLine,"ax",%progbits
 1000              		.align	1
 1001              		.global	gfx_drawLine
 1002              		.code	16
 1003              		.thumb_func
 1004              		.type	gfx_drawLine, %function
 1005              	gfx_drawLine:
 1006              	.LFB57:
 478:.\ssd1306.c   ****  
 1007              		.loc 1 478 0
 1008              		.cfi_startproc
 1009              	.LVL67:
 1010 0000 F0B5     		push	{r4, r5, r6, r7, lr}
 1011              		.cfi_def_cfa_offset 20
 1012              		.cfi_offset 4, -20
 1013              		.cfi_offset 5, -16
 1014              		.cfi_offset 6, -12
 1015              		.cfi_offset 7, -8
 1016              		.cfi_offset 14, -4
 1017 0002 89B0     		sub	sp, sp, #36
 1018              		.cfi_def_cfa_offset 56
 478:.\ssd1306.c   ****  
 1019              		.loc 1 478 0
 1020 0004 161C     		mov	r6, r2
 1021 0006 0EAA     		add	r2, sp, #56
 1022              	.LVL68:
 1023 0008 1288     		ldrh	r2, [r2]
 1024              	.LVL69:
 1025 000a 041C     		mov	r4, r0
 1026 000c 0D1C     		mov	r5, r1
 1027 000e 0192     		str	r2, [sp, #4]
 480:.\ssd1306.c   ****         // vertical and horizontal lines can be drawn faster
 1028              		.loc 1 480 0
 1029 0010 B042     		cmp	r0, r6
 1030 0012 02D0     		beq	.L88
 480:.\ssd1306.c   ****         // vertical and horizontal lines can be drawn faster
 1031              		.loc 1 480 0 is_stmt 0 discriminator 1
 1032 0014 9942     		cmp	r1, r3
 1033 0016 00D0     		beq	.LCB875
 1034 0018 04E1     		b	.L89	@long jump
 1035              	.LCB875:
 1036              	.L88:
 1037 001a 06AA     		add	r2, sp, #24
 1038 001c 1480     		strh	r4, [r2]
 1039              	.LVL70:
 1040 001e 971C     		add	r7, r2, #2
 1041 0020 07AA     		add	r2, sp, #28
 1042 0022 1680     		strh	r6, [r2]
 1043 0024 06AA     		add	r2, sp, #24
ARM GAS  C:\Users\User\AppData\Local\Temp\cctjmLxv.s 			page 33


 1044 0026 3D80     		strh	r5, [r7]
 1045              	.LVL71:
 1046 0028 D380     		strh	r3, [r2, #6]
 1047              	.LVL72:
 1048              	.LBB20:
 1049              	.LBB21:
 446:.\ssd1306.c   ****         // neither vertical nor horizontal
 1050              		.loc 1 446 0 is_stmt 1
 1051 002a B442     		cmp	r4, r6
 1052 002c 02D0     		beq	.L90
 1053 002e 9D42     		cmp	r5, r3
 1054 0030 00D0     		beq	.LCB902
 1055 0032 51E1     		b	.L87	@long jump
 1056              	.LCB902:
 1057              	.L90:
 452:.\ssd1306.c   ****         if( x1 < 0 || x1 >= HEIGHT || x2 < 0 || x2 >= HEIGHT )
 1058              		.loc 1 452 0
 1059 0034 0221     		mov	r1, #2
 1060              	.LVL73:
 1061 0036 A94A     		ldr	r2, .L140
 1062 0038 1278     		ldrb	r2, [r2]
 1063 003a 8A43     		bic	r2, r1
 1064 003c 012A     		cmp	r2, #1
 1065 003e 1DD1     		bne	.L91
 453:.\ssd1306.c   ****             return;
 1066              		.loc 1 453 0
 1067 0040 002C     		cmp	r4, #0
 1068 0042 00DA     		bge	.LCB913
 1069 0044 48E1     		b	.L87	@long jump
 1070              	.LCB913:
 1071 0046 A64A     		ldr	r2, .L140+4
 1072 0048 0021     		mov	r1, #0
 1073 004a 525E     		ldrsh	r2, [r2, r1]
 1074 004c 9442     		cmp	r4, r2
 1075 004e 00DB     		blt	.LCB918
 1076 0050 42E1     		b	.L87	@long jump
 1077              	.LCB918:
 1078 0052 002E     		cmp	r6, #0
 1079 0054 00DA     		bge	.LCB920
 1080 0056 3FE1     		b	.L87	@long jump
 1081              	.LCB920:
 1082 0058 9642     		cmp	r6, r2
 1083 005a 00DB     		blt	.LCB922
 1084 005c 3CE1     		b	.L87	@long jump
 1085              	.LCB922:
 455:.\ssd1306.c   ****             return;
 1086              		.loc 1 455 0
 1087 005e 002D     		cmp	r5, #0
 1088 0060 00DA     		bge	.LCB924
 1089 0062 39E1     		b	.L87	@long jump
 1090              	.LCB924:
 1091 0064 9F4A     		ldr	r2, .L140+8
 1092 0066 0021     		mov	r1, #0
 1093 0068 525E     		ldrsh	r2, [r2, r1]
 1094 006a 9542     		cmp	r5, r2
 1095 006c 00DB     		blt	.LCB929
 1096 006e 33E1     		b	.L87	@long jump
ARM GAS  C:\Users\User\AppData\Local\Temp\cctjmLxv.s 			page 34


 1097              	.LCB929:
 1098 0070 002B     		cmp	r3, #0
 1099 0072 00DA     		bge	.LCB931
 1100 0074 30E1     		b	.L87	@long jump
 1101              	.LCB931:
 1102 0076 9342     		cmp	r3, r2
 1103 0078 1EDB     		blt	.L93
 1104 007a 2DE1     		b	.L87
 1105              	.L91:
 458:.\ssd1306.c   ****             return;
 1106              		.loc 1 458 0
 1107 007c 002D     		cmp	r5, #0
 1108 007e 00DA     		bge	.LCB939
 1109 0080 2AE1     		b	.L87	@long jump
 1110              	.LCB939:
 1111 0082 974A     		ldr	r2, .L140+4
 1112 0084 0021     		mov	r1, #0
 1113 0086 525E     		ldrsh	r2, [r2, r1]
 1114 0088 9542     		cmp	r5, r2
 1115 008a 00DB     		blt	.LCB944
 1116 008c 24E1     		b	.L87	@long jump
 1117              	.LCB944:
 1118 008e 002B     		cmp	r3, #0
 1119 0090 00DA     		bge	.LCB946
 1120 0092 21E1     		b	.L87	@long jump
 1121              	.LCB946:
 1122 0094 9342     		cmp	r3, r2
 1123 0096 00DB     		blt	.LCB948
 1124 0098 1EE1     		b	.L87	@long jump
 1125              	.LCB948:
 460:.\ssd1306.c   ****             return;
 1126              		.loc 1 460 0
 1127 009a 002C     		cmp	r4, #0
 1128 009c 00DA     		bge	.LCB950
 1129 009e 1BE1     		b	.L87	@long jump
 1130              	.LCB950:
 1131 00a0 904B     		ldr	r3, .L140+8
 1132              	.LVL74:
 1133 00a2 0022     		mov	r2, #0
 1134 00a4 9B5E     		ldrsh	r3, [r3, r2]
 1135 00a6 9C42     		cmp	r4, r3
 1136 00a8 00DB     		blt	.LCB956
 1137 00aa 15E1     		b	.L87	@long jump
 1138              	.LCB956:
 1139 00ac 002E     		cmp	r6, #0
 1140 00ae 00DA     		bge	.LCB958
 1141 00b0 12E1     		b	.L87	@long jump
 1142              	.LCB958:
 1143 00b2 9E42     		cmp	r6, r3
 1144 00b4 00DB     		blt	.LCB960
 1145 00b6 0FE1     		b	.L87	@long jump
 1146              	.LCB960:
 1147              	.L93:
 464:.\ssd1306.c   ****     gfx_rotation_adjust( &x2, &y2 );
 1148              		.loc 1 464 0
 1149 00b8 06A8     		add	r0, sp, #24
 1150              	.LVL75:
ARM GAS  C:\Users\User\AppData\Local\Temp\cctjmLxv.s 			page 35


 1151 00ba 391C     		mov	r1, r7
 1152 00bc FFF7FEFF 		bl	gfx_rotation_adjust
 1153              	.LVL76:
 465:.\ssd1306.c   ****     
 1154              		.loc 1 465 0
 1155 00c0 06AB     		add	r3, sp, #24
 1156 00c2 9C1D     		add	r4, r3, #6
 1157              	.LVL77:
 1158 00c4 07AD     		add	r5, sp, #28
 1159 00c6 281C     		mov	r0, r5
 1160 00c8 211C     		mov	r1, r4
 1161 00ca FFF7FEFF 		bl	gfx_rotation_adjust
 1162              	.LVL78:
 468:.\ssd1306.c   ****         // swap as needed
 1163              		.loc 1 468 0
 1164 00ce 06AB     		add	r3, sp, #24
 1165              	.LVL79:
 1166 00d0 1B88     		ldrh	r3, [r3]
 1167              	.LVL80:
 1168 00d2 2A88     		ldrh	r2, [r5]
 1169 00d4 0293     		str	r3, [sp, #8]
 1170 00d6 6B46     		mov	r3, sp
 1171 00d8 1B89     		ldrh	r3, [r3, #8]
 1172 00da 10B2     		sxth	r0, r2
 1173 00dc 19B2     		sxth	r1, r3
 1174 00de 8142     		cmp	r1, r0
 1175 00e0 06D1     		bne	.L94
 1176 00e2 0023     		mov	r3, #0
 1177 00e4 E65E     		ldrsh	r6, [r4, r3]
 1178              	.LVL81:
 1179 00e6 B446     		mov	ip, r6
 1180 00e8 0023     		mov	r3, #0
 1181 00ea FE5E     		ldrsh	r6, [r7, r3]
 1182 00ec B445     		cmp	ip, r6
 1183 00ee 08DB     		blt	.L95
 1184              	.L94:
 1185 00f0 0023     		mov	r3, #0
 1186 00f2 FE5E     		ldrsh	r6, [r7, r3]
 1187 00f4 B446     		mov	ip, r6
 1188 00f6 0023     		mov	r3, #0
 1189 00f8 E65E     		ldrsh	r6, [r4, r3]
 1190 00fa B445     		cmp	ip, r6
 1191 00fc 0AD1     		bne	.L96
 1192 00fe 8842     		cmp	r0, r1
 1193 0100 08DA     		bge	.L96
 1194              	.L95:
 1195              	.LVL82:
 1196              	.LBB22:
 470:.\ssd1306.c   ****         t = y1; y1 = y2; y2 = t;
 1197              		.loc 1 470 0
 1198 0102 6B46     		mov	r3, sp
 1199 0104 1B89     		ldrh	r3, [r3, #8]
 1200 0106 06A9     		add	r1, sp, #24
 1201              	.LVL83:
 1202 0108 0A80     		strh	r2, [r1]
 1203 010a 2B80     		strh	r3, [r5]
 471:.\ssd1306.c   ****     }
ARM GAS  C:\Users\User\AppData\Local\Temp\cctjmLxv.s 			page 36


 1204              		.loc 1 471 0
 1205 010c 2288     		ldrh	r2, [r4]
 1206 010e 3B88     		ldrh	r3, [r7]
 1207              	.LVL84:
 1208 0110 3A80     		strh	r2, [r7]
 1209 0112 2380     		strh	r3, [r4]
 1210              	.LVL85:
 1211              	.L96:
 1212              	.LBE22:
 1213              	.LBB23:
 1214              	.LBB24:
 248:.\ssd1306.c   ****         // vertical
 1215              		.loc 1 248 0
 1216 0114 06AB     		add	r3, sp, #24
 1217              	.LVL86:
 1218 0116 0020     		mov	r0, #0
 1219 0118 185E     		ldrsh	r0, [r3, r0]
 1220              	.LVL87:
 1221              	.LBE24:
 1222              	.LBE23:
 474:.\ssd1306.c   **** }
 1223              		.loc 1 474 0
 1224 011a 3988     		ldrh	r1, [r7]
 1225 011c 2688     		ldrh	r6, [r4]
 1226              	.LVL88:
 1227              	.LBB39:
 1228              	.LBB37:
 248:.\ssd1306.c   ****         // vertical
 1229              		.loc 1 248 0
 1230 011e 0023     		mov	r3, #0
 1231 0120 EC5E     		ldrsh	r4, [r5, r3]
 1232              	.LVL89:
 1233 0122 0AB2     		sxth	r2, r1
 1234 0124 704B     		ldr	r3, .L140+12
 1235 0126 A042     		cmp	r0, r4
 1236 0128 58D1     		bne	.L97
 1237              	.LVL90:
 1238              	.LBB25:
 251:.\ssd1306.c   ****         uint8_t* ptr = pstart;             
 1239              		.loc 1 251 0
 1240 012a 35B2     		sxth	r5, r6
 1241              	.LVL91:
 250:.\ssd1306.c   ****         uint8_t* pend = GDDRAM_ADDRESS(x2,y2);       
 1242              		.loc 1 250 0
 1243 012c 5F1C     		add	r7, r3, #1
 1244              	.LVL92:
 1245 012e D417     		asr	r4, r2, #31
 251:.\ssd1306.c   ****         uint8_t* ptr = pstart;             
 1246              		.loc 1 251 0
 1247 0130 EB17     		asr	r3, r5, #31
 250:.\ssd1306.c   ****         uint8_t* pend = GDDRAM_ADDRESS(x2,y2);       
 1248              		.loc 1 250 0
 1249 0132 640F     		lsr	r4, r4, #29
 251:.\ssd1306.c   ****         uint8_t* ptr = pstart;             
 1250              		.loc 1 251 0
 1251 0134 5B0F     		lsr	r3, r3, #29
 250:.\ssd1306.c   ****         uint8_t* pend = GDDRAM_ADDRESS(x2,y2);       
ARM GAS  C:\Users\User\AppData\Local\Temp\cctjmLxv.s 			page 37


 1252              		.loc 1 250 0
 1253 0136 A418     		add	r4, r4, r2
 251:.\ssd1306.c   ****         uint8_t* ptr = pstart;             
 1254              		.loc 1 251 0
 1255 0138 5B19     		add	r3, r3, r5
 250:.\ssd1306.c   ****         uint8_t* pend = GDDRAM_ADDRESS(x2,y2);       
 1256              		.loc 1 250 0
 1257 013a E410     		asr	r4, r4, #3
 251:.\ssd1306.c   ****         uint8_t* ptr = pstart;             
 1258              		.loc 1 251 0
 1259 013c DB10     		asr	r3, r3, #3
 1260 013e DB01     		lsl	r3, r3, #7
 250:.\ssd1306.c   ****         uint8_t* pend = GDDRAM_ADDRESS(x2,y2);       
 1261              		.loc 1 250 0
 1262 0140 E401     		lsl	r4, r4, #7
 1263 0142 2418     		add	r4, r4, r0
 251:.\ssd1306.c   ****         uint8_t* ptr = pstart;             
 1264              		.loc 1 251 0
 1265 0144 1818     		add	r0, r3, r0
 1266 0146 3B18     		add	r3, r7, r0
 1267              	.LBB26:
 1268              	.LBB27:
 259:.\ssd1306.c   ****                 // bottom (line can be very short, all inside this one byte)
 1269              		.loc 1 259 0
 1270 0148 6848     		ldr	r0, .L140+16
 1271              	.LBE27:
 1272              	.LBE26:
 250:.\ssd1306.c   ****         uint8_t* pend = GDDRAM_ADDRESS(x2,y2);       
 1273              		.loc 1 250 0
 1274 014a 3C19     		add	r4, r7, r4
 1275              	.LVL93:
 1276              	.LBB31:
 1277              	.LBB28:
 259:.\ssd1306.c   ****                 // bottom (line can be very short, all inside this one byte)
 1278              		.loc 1 259 0
 1279 014c 0240     		and	r2, r0
 1280 014e 04D5     		bpl	.L98
 1281 0150 0827     		mov	r7, #8
 1282 0152 013A     		sub	r2, r2, #1
 1283 0154 7F42     		neg	r7, r7
 1284 0156 3A43     		orr	r2, r7
 1285 0158 0132     		add	r2, r2, #1
 1286              	.L98:
 1287 015a D2B2     		uxtb	r2, r2
 1288 015c 511A     		sub	r1, r2, r1
 1289              	.LVL94:
 261:.\ssd1306.c   ****                 if( ubit >= 7 )
 1290              		.loc 1 261 0
 1291 015e 7618     		add	r6, r6, r1
 1292              	.LVL95:
 1293 0160 F6B2     		uxtb	r6, r6
 1294 0162 371C     		add	r7, r6, #0
 1295 0164 062E     		cmp	r6, #6
 1296 0166 00D9     		bls	.L100
 1297 0168 0727     		mov	r7, #7
 1298              	.L100:
 264:.\ssd1306.c   ****             }else if( ptr == pend ){
ARM GAS  C:\Users\User\AppData\Local\Temp\cctjmLxv.s 			page 38


 1299              		.loc 1 264 0
 1300 016a 0121     		mov	r1, #1
 1301 016c FFB2     		uxtb	r7, r7
 1302 016e BF1A     		sub	r7, r7, r2
 1303 0170 0137     		add	r7, r7, #1
 1304 0172 B940     		lsl	r1, r1, r7
 1305 0174 0F1C     		mov	r7, r1
 1306 0176 013F     		sub	r7, r7, #1
 1307 0178 9740     		lsl	r7, r7, r2
 1308              	.LBE28:
 268:.\ssd1306.c   ****             }
 1309              		.loc 1 268 0
 1310 017a 291C     		mov	r1, r5
 1311              	.LBB29:
 264:.\ssd1306.c   ****             }else if( ptr == pend ){
 1312              		.loc 1 264 0
 1313 017c FAB2     		uxtb	r2, r7
 1314              	.LBE29:
 268:.\ssd1306.c   ****             }
 1315              		.loc 1 268 0
 1316 017e 0140     		and	r1, r0
 1317 0180 04D5     		bpl	.L101
 1318 0182 0820     		mov	r0, #8
 1319 0184 0139     		sub	r1, r1, #1
 1320 0186 4042     		neg	r0, r0
 1321 0188 0143     		orr	r1, r0
 1322 018a 0131     		add	r1, r1, #1
 1323              	.L101:
 1324 018c 0120     		mov	r0, #1
 1325 018e 09B2     		sxth	r1, r1
 1326 0190 8840     		lsl	r0, r0, r1
 1327              	.LBE31:
 250:.\ssd1306.c   ****         uint8_t* pend = GDDRAM_ADDRESS(x2,y2);       
 1328              		.loc 1 250 0
 1329 0192 211C     		mov	r1, r4
 1330              	.LBB32:
 268:.\ssd1306.c   ****             }
 1331              		.loc 1 268 0
 1332 0194 0138     		sub	r0, r0, #1
 1333 0196 C0B2     		uxtb	r0, r0
 1334              	.LVL96:
 1335              	.L102:
 1336              	.LBE32:
 254:.\ssd1306.c   ****             
 1337              		.loc 1 254 0
 1338 0198 9942     		cmp	r1, r3
 1339 019a 00D9     		bls	.LCB1148
 1340 019c 9CE0     		b	.L87	@long jump
 1341              	.LCB1148:
 1342              	.LBB33:
 257:.\ssd1306.c   ****                 // top
 1343              		.loc 1 257 0
 1344 019e A142     		cmp	r1, r4
 1345 01a0 03D0     		beq	.L128
 268:.\ssd1306.c   ****             }
 1346              		.loc 1 268 0
 1347 01a2 051C     		mov	r5, r0
ARM GAS  C:\Users\User\AppData\Local\Temp\cctjmLxv.s 			page 39


 265:.\ssd1306.c   ****                 // top is always bit 0, that makes it easy
 1348              		.loc 1 265 0
 1349 01a4 9942     		cmp	r1, r3
 1350 01a6 12D1     		bne	.L137
 1351 01a8 00E0     		b	.L103
 1352              	.L128:
 1353              	.LBB30:
 264:.\ssd1306.c   ****             }else if( ptr == pend ){
 1354              		.loc 1 264 0
 1355 01aa 151C     		mov	r5, r2
 1356              	.L103:
 1357              	.LBE30:
 272:.\ssd1306.c   ****                     case WHITE:     *ptr |= mask; break;
 1358              		.loc 1 272 0
 1359 01ac 019E     		ldr	r6, [sp, #4]
 1360 01ae 012E     		cmp	r6, #1
 1361 01b0 06D0     		beq	.L106
 1362 01b2 002E     		cmp	r6, #0
 1363 01b4 07D0     		beq	.L107
 1364 01b6 022E     		cmp	r6, #2
 1365 01b8 0ED1     		bne	.L105
 275:.\ssd1306.c   ****                 };  
 1366              		.loc 1 275 0
 1367 01ba 0E78     		ldrb	r6, [r1]
 1368 01bc 7540     		eor	r5, r6
 1369 01be 0AE0     		b	.L134
 1370              	.L106:
 273:.\ssd1306.c   ****                     case BLACK:     *ptr &= ~mask; break;
 1371              		.loc 1 273 0
 1372 01c0 0E78     		ldrb	r6, [r1]
 1373 01c2 3543     		orr	r5, r6
 1374 01c4 07E0     		b	.L134
 1375              	.L107:
 274:.\ssd1306.c   ****                     case INVERSE:   *ptr ^= mask; break;
 1376              		.loc 1 274 0
 1377 01c6 0E78     		ldrb	r6, [r1]
 1378 01c8 AE43     		bic	r6, r5
 1379 01ca 351C     		mov	r5, r6
 1380 01cc 03E0     		b	.L134
 1381              	.L137:
 278:.\ssd1306.c   ****                     case WHITE:     *ptr = 0xff; break;
 1382              		.loc 1 278 0
 1383 01ce 019D     		ldr	r5, [sp, #4]
 1384 01d0 012D     		cmp	r5, #1
 1385 01d2 77D1     		bne	.L138
 279:.\ssd1306.c   ****                     case BLACK:     *ptr = 0x00; break;
 1386              		.loc 1 279 0
 1387 01d4 FF25     		mov	r5, #255
 1388              	.L134:
 281:.\ssd1306.c   ****                 };  
 1389              		.loc 1 281 0
 1390 01d6 0D70     		strb	r5, [r1]
 1391              	.L105:
 285:.\ssd1306.c   ****         }
 1392              		.loc 1 285 0
 1393 01d8 8031     		add	r1, r1, #128
 1394              	.LVL97:
ARM GAS  C:\Users\User\AppData\Local\Temp\cctjmLxv.s 			page 40


 1395 01da DDE7     		b	.L102
 1396              	.LVL98:
 1397              	.L97:
 1398              	.LBE33:
 1399              	.LBE25:
 1400              	.LBB35:
 289:.\ssd1306.c   ****         uint8_t* pend = pstart + x2 - x1;
 1401              		.loc 1 289 0
 1402 01dc D517     		asr	r5, r2, #31
 1403              	.LVL99:
 1404 01de 6D0F     		lsr	r5, r5, #29
 1405 01e0 AA18     		add	r2, r5, r2
 1406 01e2 D210     		asr	r2, r2, #3
 1407 01e4 D201     		lsl	r2, r2, #7
 1408 01e6 1218     		add	r2, r2, r0
 1409 01e8 0133     		add	r3, r3, #1
 1410 01ea 9B18     		add	r3, r3, r2
 1411              	.LVL100:
 291:.\ssd1306.c   **** 
 1412              		.loc 1 291 0
 1413 01ec 0722     		mov	r2, #7
 1414 01ee 1140     		and	r1, r2
 1415              	.LVL101:
 1416 01f0 063A     		sub	r2, r2, #6
 1417 01f2 8A40     		lsl	r2, r2, r1
 1418 01f4 111C     		mov	r1, r2
 290:.\ssd1306.c   ****         uint8_t pixmask = GDDRAM_PIXMASK(y1);    
 1419              		.loc 1 290 0
 1420 01f6 201A     		sub	r0, r4, r0
 1421 01f8 1818     		add	r0, r3, r0
 1422              	.LVL102:
 291:.\ssd1306.c   **** 
 1423              		.loc 1 291 0
 1424 01fa D4B2     		uxtb	r4, r2
 1425              	.LVL103:
 1426              	.L113:
 294:.\ssd1306.c   ****             switch( color ){
 1427              		.loc 1 294 0
 1428 01fc 8342     		cmp	r3, r0
 1429 01fe 6BD8     		bhi	.L87
 295:.\ssd1306.c   ****                 case WHITE:     *ptr |= pixmask; break;
 1430              		.loc 1 295 0
 1431 0200 019A     		ldr	r2, [sp, #4]
 1432 0202 012A     		cmp	r2, #1
 1433 0204 06D0     		beq	.L115
 1434 0206 002A     		cmp	r2, #0
 1435 0208 07D0     		beq	.L116
 1436 020a 022A     		cmp	r2, #2
 1437 020c 08D1     		bne	.L114
 298:.\ssd1306.c   ****             };
 1438              		.loc 1 298 0
 1439 020e 1A78     		ldrb	r2, [r3]
 1440 0210 6240     		eor	r2, r4
 1441 0212 04E0     		b	.L135
 1442              	.L115:
 296:.\ssd1306.c   ****                 case BLACK:     *ptr &= ~pixmask; break;
 1443              		.loc 1 296 0
ARM GAS  C:\Users\User\AppData\Local\Temp\cctjmLxv.s 			page 41


 1444 0214 1A78     		ldrb	r2, [r3]
 1445 0216 2243     		orr	r2, r4
 1446 0218 01E0     		b	.L135
 1447              	.L116:
 297:.\ssd1306.c   ****                 case INVERSE:   *ptr ^= pixmask; break;
 1448              		.loc 1 297 0
 1449 021a 1A78     		ldrb	r2, [r3]
 1450 021c 8A43     		bic	r2, r1
 1451              	.L135:
 298:.\ssd1306.c   ****             };
 1452              		.loc 1 298 0
 1453 021e 1A70     		strb	r2, [r3]
 1454              	.L114:
 300:.\ssd1306.c   ****         }
 1455              		.loc 1 300 0
 1456 0220 0133     		add	r3, r3, #1
 1457              	.LVL104:
 1458 0222 EBE7     		b	.L113
 1459              	.LVL105:
 1460              	.L89:
 1461              	.LBE35:
 1462              	.LBE37:
 1463              	.LBE39:
 1464              	.LBE21:
 1465              	.LBE20:
 488:.\ssd1306.c   ****     if( steep ){
 1466              		.loc 1 488 0
 1467 0224 591A     		sub	r1, r3, r1
 1468              	.LVL106:
 1469 0226 CA17     		asr	r2, r1, #31
 1470 0228 8918     		add	r1, r1, r2
 1471 022a 5140     		eor	r1, r2
 1472 022c 321A     		sub	r2, r6, r0
 1473 022e D017     		asr	r0, r2, #31
 1474              	.LVL107:
 1475 0230 1218     		add	r2, r2, r0
 1476 0232 4240     		eor	r2, r0
 1477 0234 9142     		cmp	r1, r2
 1478 0236 08DD     		ble	.L133
 1479 0238 0122     		mov	r2, #1
 1480 023a 0292     		str	r2, [sp, #8]
 489:.\ssd1306.c   ****         t = x0; x0 = y0; y0 = t;
 1481              		.loc 1 489 0
 1482 023c 321C     		mov	r2, r6
 1483 023e 1E1C     		mov	r6, r3
 1484 0240 131C     		mov	r3, r2
 1485              	.LVL108:
 1486 0242 221C     		mov	r2, r4
 1487 0244 2C1C     		mov	r4, r5
 1488 0246 151C     		mov	r5, r2
 1489 0248 01E0     		b	.L120
 1490              	.LVL109:
 1491              	.L133:
 1492 024a 0022     		mov	r2, #0
 1493 024c 0292     		str	r2, [sp, #8]
 1494              	.LVL110:
 1495              	.L120:
ARM GAS  C:\Users\User\AppData\Local\Temp\cctjmLxv.s 			page 42


 493:.\ssd1306.c   ****         t = x0; x0 = x1; x1 = t;
 1496              		.loc 1 493 0
 1497 024e B442     		cmp	r4, r6
 1498 0250 05DD     		ble	.L121
 1499 0252 2A1C     		mov	r2, r5
 495:.\ssd1306.c   ****     }
 1500              		.loc 1 495 0
 1501 0254 1D1C     		mov	r5, r3
 1502              	.LVL111:
 1503 0256 131C     		mov	r3, r2
 1504              	.LVL112:
 493:.\ssd1306.c   ****         t = x0; x0 = x1; x1 = t;
 1505              		.loc 1 493 0
 1506 0258 221C     		mov	r2, r4
 1507 025a 341C     		mov	r4, r6
 1508              	.LVL113:
 1509 025c 161C     		mov	r6, r2
 1510              	.LVL114:
 1511              	.L121:
 498:.\ssd1306.c   ****     dy = abs(y1 - y0);
 1512              		.loc 1 498 0
 1513 025e 321B     		sub	r2, r6, r4
 1514 0260 92B2     		uxth	r2, r2
 1515 0262 0392     		str	r2, [sp, #12]
 1516              	.LVL115:
 499:.\ssd1306.c   ****     int16_t err = dx / 2;
 1517              		.loc 1 499 0
 1518 0264 5A1B     		sub	r2, r3, r5
 1519 0266 D117     		asr	r1, r2, #31
 1520 0268 5218     		add	r2, r2, r1
 1521 026a 4A40     		eor	r2, r1
 1522 026c 0592     		str	r2, [sp, #20]
 1523              	.LVL116:
 500:.\ssd1306.c   ****     int16_t ystep;
 1524              		.loc 1 500 0
 1525 026e 6A46     		mov	r2, sp
 1526 0270 0C21     		mov	r1, #12
 1527 0272 525E     		ldrsh	r2, [r2, r1]
 1528 0274 D70F     		lsr	r7, r2, #31
 1529 0276 BA18     		add	r2, r7, r2
 1530 0278 5210     		asr	r2, r2, #1
 1531 027a 97B2     		uxth	r7, r2
 1532              	.LVL117:
 503:.\ssd1306.c   ****     }else{
 1533              		.loc 1 503 0
 1534 027c 0122     		mov	r2, #1
 1535 027e 0492     		str	r2, [sp, #16]
 502:.\ssd1306.c   ****         ystep = 1;
 1536              		.loc 1 502 0
 1537 0280 9D42     		cmp	r5, r3
 1538 0282 19DB     		blt	.L123
 505:.\ssd1306.c   ****     }
 1539              		.loc 1 505 0
 1540 0284 1A4B     		ldr	r3, .L140+20
 1541              	.LVL118:
 1542 0286 0493     		str	r3, [sp, #16]
 1543 0288 16E0     		b	.L123
ARM GAS  C:\Users\User\AppData\Local\Temp\cctjmLxv.s 			page 43


 1544              	.LVL119:
 1545              	.L127:
 508:.\ssd1306.c   ****             gfx_drawPixel( y0, x0, color );
 1546              		.loc 1 508 0
 1547 028a 029B     		ldr	r3, [sp, #8]
 1548 028c 002B     		cmp	r3, #0
 1549 028e 16D0     		beq	.L124
 509:.\ssd1306.c   ****         }else{
 1550              		.loc 1 509 0
 1551 0290 281C     		mov	r0, r5
 1552 0292 211C     		mov	r1, r4
 1553              	.L136:
 511:.\ssd1306.c   ****         }
 1554              		.loc 1 511 0
 1555 0294 019A     		ldr	r2, [sp, #4]
 1556 0296 FFF7FEFF 		bl	gfx_drawPixel
 1557              	.LVL120:
 513:.\ssd1306.c   ****         if( err < 0 ){
 1558              		.loc 1 513 0
 1559 029a 059B     		ldr	r3, [sp, #20]
 1560 029c FF1A     		sub	r7, r7, r3
 1561              	.LVL121:
 1562 029e BBB2     		uxth	r3, r7
 1563 02a0 9FB2     		uxth	r7, r3
 1564              	.LVL122:
 514:.\ssd1306.c   ****             y0 += ystep;
 1565              		.loc 1 514 0
 1566 02a2 3AB2     		sxth	r2, r7
 1567 02a4 002A     		cmp	r2, #0
 1568 02a6 05DA     		bge	.L126
 515:.\ssd1306.c   ****             err += dx;
 1569              		.loc 1 515 0
 1570 02a8 049A     		ldr	r2, [sp, #16]
 1571 02aa AD18     		add	r5, r5, r2
 1572              	.LVL123:
 516:.\ssd1306.c   ****         }
 1573              		.loc 1 516 0
 1574 02ac 039A     		ldr	r2, [sp, #12]
 515:.\ssd1306.c   ****             err += dx;
 1575              		.loc 1 515 0
 1576 02ae 2DB2     		sxth	r5, r5
 1577              	.LVL124:
 516:.\ssd1306.c   ****         }
 1578              		.loc 1 516 0
 1579 02b0 9F18     		add	r7, r3, r2
 1580              	.LVL125:
 1581 02b2 BFB2     		uxth	r7, r7
 1582              	.LVL126:
 1583              	.L126:
 1584 02b4 0134     		add	r4, r4, #1
 1585              	.LVL127:
 1586 02b6 24B2     		sxth	r4, r4
 1587              	.LVL128:
 1588              	.L123:
 507:.\ssd1306.c   ****         if( steep ){
 1589              		.loc 1 507 0 discriminator 1
 1590 02b8 B442     		cmp	r4, r6
ARM GAS  C:\Users\User\AppData\Local\Temp\cctjmLxv.s 			page 44


 1591 02ba E6DD     		ble	.L127
 1592 02bc 0CE0     		b	.L87
 1593              	.L124:
 511:.\ssd1306.c   ****         }
 1594              		.loc 1 511 0
 1595 02be 201C     		mov	r0, r4
 1596 02c0 291C     		mov	r1, r5
 1597 02c2 E7E7     		b	.L136
 1598              	.LVL129:
 1599              	.L138:
 1600              	.LBB42:
 1601              	.LBB41:
 1602              	.LBB40:
 1603              	.LBB38:
 1604              	.LBB36:
 1605              	.LBB34:
 278:.\ssd1306.c   ****                     case WHITE:     *ptr = 0xff; break;
 1606              		.loc 1 278 0
 1607 02c4 002D     		cmp	r5, #0
 1608 02c6 02D1     		bne	.L139
 280:.\ssd1306.c   ****                     case INVERSE:   *ptr ^= 0xff; break;
 1609              		.loc 1 280 0
 1610 02c8 6D46     		mov	r5, sp
 1611 02ca 2D79     		ldrb	r5, [r5, #4]
 1612 02cc 83E7     		b	.L134
 1613              	.L139:
 278:.\ssd1306.c   ****                     case WHITE:     *ptr = 0xff; break;
 1614              		.loc 1 278 0
 1615 02ce 022D     		cmp	r5, #2
 1616 02d0 82D1     		bne	.L105
 281:.\ssd1306.c   ****                 };  
 1617              		.loc 1 281 0
 1618 02d2 0D78     		ldrb	r5, [r1]
 1619 02d4 ED43     		mvn	r5, r5
 1620 02d6 7EE7     		b	.L134
 1621              	.LVL130:
 1622              	.L87:
 1623              	.LBE34:
 1624              	.LBE36:
 1625              	.LBE38:
 1626              	.LBE40:
 1627              	.LBE41:
 1628              	.LBE42:
 519:.\ssd1306.c   **** 
 1629              		.loc 1 519 0
 1630 02d8 09B0     		add	sp, sp, #36
 1631              		@ sp needed
 1632 02da F0BD     		pop	{r4, r5, r6, r7, pc}
 1633              	.L141:
 1634              		.align	2
 1635              	.L140:
 1636 02dc 00000000 		.word	rotation
 1637 02e0 00000000 		.word	HEIGHT
 1638 02e4 00000000 		.word	WIDTH
 1639 02e8 00000000 		.word	.LANCHOR1
 1640 02ec 07000080 		.word	-2147483641
 1641 02f0 FFFF0000 		.word	65535
ARM GAS  C:\Users\User\AppData\Local\Temp\cctjmLxv.s 			page 45


 1642              		.cfi_endproc
 1643              	.LFE57:
 1644              		.size	gfx_drawLine, .-gfx_drawLine
 1645              		.section	.text.gfx_drawRect,"ax",%progbits
 1646              		.align	1
 1647              		.global	gfx_drawRect
 1648              		.code	16
 1649              		.thumb_func
 1650              		.type	gfx_drawRect, %function
 1651              	gfx_drawRect:
 1652              	.LFB58:
 521:.\ssd1306.c   ****     
 1653              		.loc 1 521 0
 1654              		.cfi_startproc
 1655              	.LVL131:
 1656 0000 F0B5     		push	{r4, r5, r6, r7, lr}
 1657              		.cfi_def_cfa_offset 20
 1658              		.cfi_offset 4, -20
 1659              		.cfi_offset 5, -16
 1660              		.cfi_offset 6, -12
 1661              		.cfi_offset 7, -8
 1662              		.cfi_offset 14, -4
 1663 0002 0E1C     		mov	r6, r1
 1664 0004 1C1C     		mov	r4, r3
 1665 0006 071C     		mov	r7, r0
 1666 0008 85B0     		sub	sp, sp, #20
 1667              		.cfi_def_cfa_offset 40
 521:.\ssd1306.c   ****     
 1668              		.loc 1 521 0
 1669 000a 0AAB     		add	r3, sp, #40
 1670              	.LVL132:
 1671 000c 551E     		sub	r5, r2, #1
 1672 000e 1B88     		ldrh	r3, [r3]
 1673              	.LVL133:
 523:.\ssd1306.c   ****     gfx_drawLine( x, y+h-1, x+w-1, y+h-1, color );
 1674              		.loc 1 523 0
 1675 0010 2D18     		add	r5, r5, r0
 1676 0012 2DB2     		sxth	r5, r5
 521:.\ssd1306.c   ****     
 1677              		.loc 1 521 0
 1678 0014 0393     		str	r3, [sp, #12]
 523:.\ssd1306.c   ****     gfx_drawLine( x, y+h-1, x+w-1, y+h-1, color );
 1679              		.loc 1 523 0
 1680 0016 0093     		str	r3, [sp]
 1681 0018 2A1C     		mov	r2, r5
 1682              	.LVL134:
 1683 001a 331C     		mov	r3, r6
 1684 001c 013C     		sub	r4, r4, #1
 1685 001e FFF7FEFF 		bl	gfx_drawLine
 1686              	.LVL135:
 524:.\ssd1306.c   ****     gfx_drawLine( x, y, x, y+h-1, color );
 1687              		.loc 1 524 0
 1688 0022 A419     		add	r4, r4, r6
 1689 0024 039B     		ldr	r3, [sp, #12]
 1690 0026 24B2     		sxth	r4, r4
 1691 0028 0093     		str	r3, [sp]
 1692 002a 381C     		mov	r0, r7
ARM GAS  C:\Users\User\AppData\Local\Temp\cctjmLxv.s 			page 46


 1693 002c 211C     		mov	r1, r4
 1694 002e 2A1C     		mov	r2, r5
 1695 0030 231C     		mov	r3, r4
 1696 0032 FFF7FEFF 		bl	gfx_drawLine
 1697              	.LVL136:
 525:.\ssd1306.c   ****     gfx_drawLine( x+w-1, y, x+w-1, y+h-1, color );
 1698              		.loc 1 525 0
 1699 0036 039B     		ldr	r3, [sp, #12]
 1700 0038 381C     		mov	r0, r7
 1701 003a 0093     		str	r3, [sp]
 1702 003c 311C     		mov	r1, r6
 1703 003e 3A1C     		mov	r2, r7
 1704 0040 231C     		mov	r3, r4
 1705 0042 FFF7FEFF 		bl	gfx_drawLine
 1706              	.LVL137:
 526:.\ssd1306.c   **** }
 1707              		.loc 1 526 0
 1708 0046 039B     		ldr	r3, [sp, #12]
 1709 0048 281C     		mov	r0, r5
 1710 004a 0093     		str	r3, [sp]
 1711 004c 311C     		mov	r1, r6
 1712 004e 2A1C     		mov	r2, r5
 1713 0050 231C     		mov	r3, r4
 1714 0052 FFF7FEFF 		bl	gfx_drawLine
 1715              	.LVL138:
 527:.\ssd1306.c   **** 
 1716              		.loc 1 527 0
 1717 0056 05B0     		add	sp, sp, #20
 1718              		@ sp needed
 1719 0058 F0BD     		pop	{r4, r5, r6, r7, pc}
 1720              		.cfi_endproc
 1721              	.LFE58:
 1722              		.size	gfx_drawRect, .-gfx_drawRect
 1723              		.section	.text.gfx_fillRect,"ax",%progbits
 1724              		.align	1
 1725              		.global	gfx_fillRect
 1726              		.code	16
 1727              		.thumb_func
 1728              		.type	gfx_fillRect, %function
 1729              	gfx_fillRect:
 1730              	.LFB59:
 529:.\ssd1306.c   ****     int16_t i = 0;
 1731              		.loc 1 529 0
 1732              		.cfi_startproc
 1733              	.LVL139:
 1734 0000 F0B5     		push	{r4, r5, r6, r7, lr}
 1735              		.cfi_def_cfa_offset 20
 1736              		.cfi_offset 4, -20
 1737              		.cfi_offset 5, -16
 1738              		.cfi_offset 6, -12
 1739              		.cfi_offset 7, -8
 1740              		.cfi_offset 14, -4
 1741 0002 85B0     		sub	sp, sp, #20
 1742              		.cfi_def_cfa_offset 40
 529:.\ssd1306.c   ****     int16_t i = 0;
 1743              		.loc 1 529 0
 1744 0004 0293     		str	r3, [sp, #8]
ARM GAS  C:\Users\User\AppData\Local\Temp\cctjmLxv.s 			page 47


 1745 0006 0AAB     		add	r3, sp, #40
 1746              	.LVL140:
 1747 0008 1B88     		ldrh	r3, [r3]
 1748              	.LVL141:
 1749 000a 061C     		mov	r6, r0
 1750 000c 0393     		str	r3, [sp, #12]
 531:.\ssd1306.c   ****         for( i = x ; i < x+w ; i++ ){
 1751              		.loc 1 531 0
 1752 000e 029B     		ldr	r3, [sp, #8]
 529:.\ssd1306.c   ****     int16_t i = 0;
 1753              		.loc 1 529 0
 1754 0010 0D1C     		mov	r5, r1
 1755 0012 171C     		mov	r7, r2
 1756 0014 0C1C     		mov	r4, r1
 531:.\ssd1306.c   ****         for( i = x ; i < x+w ; i++ ){
 1757              		.loc 1 531 0
 1758 0016 9342     		cmp	r3, r2
 1759 0018 11DD     		ble	.L145
 1760 001a 041C     		mov	r4, r0
 1761              	.LVL142:
 1762              	.L146:
 1763              	.LBB45:
 1764              	.LBB46:
 532:.\ssd1306.c   ****             gfx_drawLine( i, y, i, y+h-1, color );
 1765              		.loc 1 532 0
 1766 001c F319     		add	r3, r6, r7
 1767 001e 9C42     		cmp	r4, r3
 1768 0020 1EDA     		bge	.L143
 533:.\ssd1306.c   ****         }
 1769              		.loc 1 533 0
 1770 0022 029A     		ldr	r2, [sp, #8]
 1771 0024 6B1E     		sub	r3, r5, #1
 1772 0026 9B18     		add	r3, r3, r2
 1773 0028 039A     		ldr	r2, [sp, #12]
 1774 002a 201C     		mov	r0, r4
 1775 002c 0092     		str	r2, [sp]
 1776 002e 1BB2     		sxth	r3, r3
 1777 0030 221C     		mov	r2, r4
 1778 0032 291C     		mov	r1, r5
 1779 0034 0134     		add	r4, r4, #1
 1780              	.LVL143:
 1781 0036 FFF7FEFF 		bl	gfx_drawLine
 1782              	.LVL144:
 1783 003a 24B2     		sxth	r4, r4
 1784              	.LVL145:
 1785 003c EEE7     		b	.L146
 1786              	.LVL146:
 1787              	.L145:
 1788              	.LBE46:
 1789              	.LBE45:
 536:.\ssd1306.c   ****             gfx_drawLine( x, i, x+w-1, i, color );
 1790              		.loc 1 536 0 discriminator 1
 1791 003e 029B     		ldr	r3, [sp, #8]
 1792 0040 EB18     		add	r3, r5, r3
 1793 0042 9C42     		cmp	r4, r3
 1794 0044 0CDA     		bge	.L143
 537:.\ssd1306.c   ****         }
ARM GAS  C:\Users\User\AppData\Local\Temp\cctjmLxv.s 			page 48


 1795              		.loc 1 537 0 discriminator 3
 1796 0046 039B     		ldr	r3, [sp, #12]
 1797 0048 721E     		sub	r2, r6, #1
 1798 004a D219     		add	r2, r2, r7
 1799 004c 0093     		str	r3, [sp]
 1800 004e 211C     		mov	r1, r4
 1801 0050 231C     		mov	r3, r4
 1802 0052 12B2     		sxth	r2, r2
 1803 0054 301C     		mov	r0, r6
 1804 0056 0134     		add	r4, r4, #1
 1805              	.LVL147:
 1806 0058 FFF7FEFF 		bl	gfx_drawLine
 1807              	.LVL148:
 1808 005c 24B2     		sxth	r4, r4
 1809              	.LVL149:
 1810 005e EEE7     		b	.L145
 1811              	.LVL150:
 1812              	.L143:
 540:.\ssd1306.c   **** 
 1813              		.loc 1 540 0
 1814 0060 05B0     		add	sp, sp, #20
 1815              		@ sp needed
 1816 0062 F0BD     		pop	{r4, r5, r6, r7, pc}
 1817              		.cfi_endproc
 1818              	.LFE59:
 1819              		.size	gfx_fillRect, .-gfx_fillRect
 1820              		.section	.text.gfx_drawCircle,"ax",%progbits
 1821              		.align	1
 1822              		.global	gfx_drawCircle
 1823              		.code	16
 1824              		.thumb_func
 1825              		.type	gfx_drawCircle, %function
 1826              	gfx_drawCircle:
 1827              	.LFB60:
 544:.\ssd1306.c   **** 
 1828              		.loc 1 544 0
 1829              		.cfi_startproc
 1830              	.LVL151:
 1831 0000 F0B5     		push	{r4, r5, r6, r7, lr}
 1832              		.cfi_def_cfa_offset 20
 1833              		.cfi_offset 4, -20
 1834              		.cfi_offset 5, -16
 1835              		.cfi_offset 6, -12
 1836              		.cfi_offset 7, -8
 1837              		.cfi_offset 14, -4
 1838 0002 89B0     		sub	sp, sp, #36
 1839              		.cfi_def_cfa_offset 56
 544:.\ssd1306.c   **** 
 1840              		.loc 1 544 0
 1841 0004 1C1C     		mov	r4, r3
 546:.\ssd1306.c   ****     int16_t ddF_x = 1;
 1842              		.loc 1 546 0
 1843 0006 6B46     		mov	r3, sp
 1844              	.LVL152:
 544:.\ssd1306.c   **** 
 1845              		.loc 1 544 0
 1846 0008 0492     		str	r2, [sp, #16]
ARM GAS  C:\Users\User\AppData\Local\Temp\cctjmLxv.s 			page 49


 546:.\ssd1306.c   ****     int16_t ddF_x = 1;
 1847              		.loc 1 546 0
 1848 000a 1D8A     		ldrh	r5, [r3, #16]
 1849 000c 0123     		mov	r3, #1
 544:.\ssd1306.c   **** 
 1850              		.loc 1 544 0
 1851 000e 071C     		mov	r7, r0
 1852 0010 0E1C     		mov	r6, r1
 546:.\ssd1306.c   ****     int16_t ddF_x = 1;
 1853              		.loc 1 546 0
 1854 0012 5B1B     		sub	r3, r3, r5
 1855 0014 9BB2     		uxth	r3, r3
 1856 0016 0293     		str	r3, [sp, #8]
 1857              	.LVL153:
 548:.\ssd1306.c   ****     int16_t x = 0;
 1858              		.loc 1 548 0
 1859 0018 6B00     		lsl	r3, r5, #1
 1860 001a 5B42     		neg	r3, r3
 1861 001c 9BB2     		uxth	r3, r3
 1862 001e 0793     		str	r3, [sp, #28]
 1863              	.LVL154:
 551:.\ssd1306.c   ****     gfx_drawPixel( x0 , y0-r, color );
 1864              		.loc 1 551 0
 1865 0020 8BB2     		uxth	r3, r1
 1866 0022 E918     		add	r1, r5, r3
 1867              	.LVL155:
 1868 0024 09B2     		sxth	r1, r1
 1869 0026 221C     		mov	r2, r4
 1870              	.LVL156:
 1871 0028 0093     		str	r3, [sp]
 1872 002a FFF7FEFF 		bl	gfx_drawPixel
 1873              	.LVL157:
 552:.\ssd1306.c   ****     gfx_drawPixel( x0+r, y0 , color );
 1874              		.loc 1 552 0
 1875 002e 009B     		ldr	r3, [sp]
 1876 0030 381C     		mov	r0, r7
 1877 0032 591B     		sub	r1, r3, r5
 1878 0034 09B2     		sxth	r1, r1
 1879 0036 221C     		mov	r2, r4
 1880 0038 FFF7FEFF 		bl	gfx_drawPixel
 1881              	.LVL158:
 553:.\ssd1306.c   ****     gfx_drawPixel( x0-r, y0 , color );
 1882              		.loc 1 553 0
 1883 003c BBB2     		uxth	r3, r7
 1884 003e E818     		add	r0, r5, r3
 1885 0040 00B2     		sxth	r0, r0
 1886 0042 311C     		mov	r1, r6
 1887 0044 221C     		mov	r2, r4
 1888 0046 0193     		str	r3, [sp, #4]
 1889 0048 FFF7FEFF 		bl	gfx_drawPixel
 1890              	.LVL159:
 554:.\ssd1306.c   ****     while( x < y ){
 1891              		.loc 1 554 0
 1892 004c 019B     		ldr	r3, [sp, #4]
 1893 004e 311C     		mov	r1, r6
 1894 0050 581B     		sub	r0, r3, r5
 1895 0052 00B2     		sxth	r0, r0
ARM GAS  C:\Users\User\AppData\Local\Temp\cctjmLxv.s 			page 50


 1896 0054 221C     		mov	r2, r4
 1897 0056 FFF7FEFF 		bl	gfx_drawPixel
 1898              	.LVL160:
 555:.\ssd1306.c   ****         if( f >= 0 ){
 1899              		.loc 1 555 0
 1900 005a 0023     		mov	r3, #0
 1901              	.LVL161:
 1902              	.L154:
 1903 005c 0693     		str	r3, [sp, #24]
 1904              	.LVL162:
 1905 005e 6B46     		mov	r3, sp
 1906 0060 1822     		mov	r2, #24
 1907 0062 9B5E     		ldrsh	r3, [r3, r2]
 1908 0064 049A     		ldr	r2, [sp, #16]
 1909 0066 9342     		cmp	r3, r2
 1910 0068 6BDA     		bge	.L155
 556:.\ssd1306.c   ****             y--;
 1911              		.loc 1 556 0
 1912 006a 6B46     		mov	r3, sp
 1913 006c 0822     		mov	r2, #8
 1914 006e 9B5E     		ldrsh	r3, [r3, r2]
 1915 0070 002B     		cmp	r3, #0
 1916 0072 0CDB     		blt	.L152
 557:.\ssd1306.c   ****             ddF_y += 2;
 1917              		.loc 1 557 0
 1918 0074 049B     		ldr	r3, [sp, #16]
 1919 0076 013B     		sub	r3, r3, #1
 1920 0078 1BB2     		sxth	r3, r3
 1921 007a 0493     		str	r3, [sp, #16]
 1922              	.LVL163:
 558:.\ssd1306.c   ****             f += ddF_y;
 1923              		.loc 1 558 0
 1924 007c 079B     		ldr	r3, [sp, #28]
 1925 007e 0233     		add	r3, r3, #2
 1926 0080 9BB2     		uxth	r3, r3
 1927 0082 9AB2     		uxth	r2, r3
 1928 0084 0792     		str	r2, [sp, #28]
 1929              	.LVL164:
 559:.\ssd1306.c   ****         }
 1930              		.loc 1 559 0
 1931 0086 029A     		ldr	r2, [sp, #8]
 1932 0088 9B18     		add	r3, r3, r2
 1933 008a 9BB2     		uxth	r3, r3
 1934 008c 0293     		str	r3, [sp, #8]
 1935              	.LVL165:
 1936              	.L152:
 1937 008e 6B46     		mov	r3, sp
 1938 0090 1B8B     		ldrh	r3, [r3, #24]
 563:.\ssd1306.c   ****         gfx_drawPixel( x0 + x, y0 + y, color );
 1939              		.loc 1 563 0
 1940 0092 029A     		ldr	r2, [sp, #8]
 1941 0094 0393     		str	r3, [sp, #12]
 1942              	.LVL166:
 1943 0096 5B00     		lsl	r3, r3, #1
 1944 0098 0333     		add	r3, r3, #3
 1945 009a D318     		add	r3, r2, r3
 1946 009c 9BB2     		uxth	r3, r3
ARM GAS  C:\Users\User\AppData\Local\Temp\cctjmLxv.s 			page 51


 1947 009e 0293     		str	r3, [sp, #8]
 1948              	.LVL167:
 1949 00a0 019B     		ldr	r3, [sp, #4]
 564:.\ssd1306.c   ****         gfx_drawPixel( x0 - x, y0 + y, color );
 1950              		.loc 1 564 0
 1951 00a2 009A     		ldr	r2, [sp]
 1952 00a4 5E1C     		add	r6, r3, #1
 1953 00a6 039B     		ldr	r3, [sp, #12]
 1954 00a8 9E19     		add	r6, r3, r6
 1955 00aa 6B46     		mov	r3, sp
 1956 00ac 1B8A     		ldrh	r3, [r3, #16]
 1957 00ae 36B2     		sxth	r6, r6
 1958 00b0 9F18     		add	r7, r3, r2
 1959 00b2 3FB2     		sxth	r7, r7
 1960 00b4 301C     		mov	r0, r6
 1961 00b6 391C     		mov	r1, r7
 1962 00b8 221C     		mov	r2, r4
 1963 00ba 0593     		str	r3, [sp, #20]
 1964 00bc FFF7FEFF 		bl	gfx_drawPixel
 1965              	.LVL168:
 1966 00c0 019B     		ldr	r3, [sp, #4]
 565:.\ssd1306.c   ****         gfx_drawPixel( x0 + x, y0 - y, color );
 1967              		.loc 1 565 0
 1968 00c2 391C     		mov	r1, r7
 1969 00c4 5D1E     		sub	r5, r3, #1
 1970 00c6 039B     		ldr	r3, [sp, #12]
 1971 00c8 221C     		mov	r2, r4
 1972 00ca ED1A     		sub	r5, r5, r3
 1973 00cc 2DB2     		sxth	r5, r5
 1974 00ce 281C     		mov	r0, r5
 1975 00d0 FFF7FEFF 		bl	gfx_drawPixel
 1976              	.LVL169:
 566:.\ssd1306.c   ****         gfx_drawPixel( x0 - x, y0 - y, color );
 1977              		.loc 1 566 0
 1978 00d4 009B     		ldr	r3, [sp]
 1979 00d6 059A     		ldr	r2, [sp, #20]
 1980 00d8 301C     		mov	r0, r6
 1981 00da 9F1A     		sub	r7, r3, r2
 1982 00dc 3FB2     		sxth	r7, r7
 1983 00de 391C     		mov	r1, r7
 1984 00e0 221C     		mov	r2, r4
 1985 00e2 FFF7FEFF 		bl	gfx_drawPixel
 1986              	.LVL170:
 567:.\ssd1306.c   ****         gfx_drawPixel( x0 + y, y0 + x, color );
 1987              		.loc 1 567 0
 1988 00e6 281C     		mov	r0, r5
 1989 00e8 391C     		mov	r1, r7
 1990 00ea 221C     		mov	r2, r4
 1991 00ec FFF7FEFF 		bl	gfx_drawPixel
 1992              	.LVL171:
 568:.\ssd1306.c   ****         gfx_drawPixel( x0 - y, y0 + x, color );
 1993              		.loc 1 568 0
 1994 00f0 059B     		ldr	r3, [sp, #20]
 1995 00f2 019A     		ldr	r2, [sp, #4]
 1996 00f4 9E18     		add	r6, r3, r2
 1997 00f6 009B     		ldr	r3, [sp]
 1998 00f8 36B2     		sxth	r6, r6
ARM GAS  C:\Users\User\AppData\Local\Temp\cctjmLxv.s 			page 52


 1999 00fa 5D1C     		add	r5, r3, #1
 2000 00fc 039B     		ldr	r3, [sp, #12]
 2001 00fe 301C     		mov	r0, r6
 2002 0100 5D19     		add	r5, r3, r5
 2003 0102 2DB2     		sxth	r5, r5
 2004 0104 291C     		mov	r1, r5
 2005 0106 221C     		mov	r2, r4
 2006 0108 FFF7FEFF 		bl	gfx_drawPixel
 2007              	.LVL172:
 569:.\ssd1306.c   ****         gfx_drawPixel( x0 + y, y0 - x, color );
 2008              		.loc 1 569 0
 2009 010c 019B     		ldr	r3, [sp, #4]
 2010 010e 059A     		ldr	r2, [sp, #20]
 2011 0110 291C     		mov	r1, r5
 2012 0112 9F1A     		sub	r7, r3, r2
 2013 0114 3FB2     		sxth	r7, r7
 2014 0116 381C     		mov	r0, r7
 2015 0118 221C     		mov	r2, r4
 2016 011a FFF7FEFF 		bl	gfx_drawPixel
 2017              	.LVL173:
 2018 011e 009B     		ldr	r3, [sp]
 570:.\ssd1306.c   ****         gfx_drawPixel( x0 - y, y0 - x, color );
 2019              		.loc 1 570 0
 2020 0120 301C     		mov	r0, r6
 2021 0122 5D1E     		sub	r5, r3, #1
 2022 0124 039B     		ldr	r3, [sp, #12]
 2023 0126 221C     		mov	r2, r4
 2024 0128 ED1A     		sub	r5, r5, r3
 2025 012a 2DB2     		sxth	r5, r5
 2026 012c 291C     		mov	r1, r5
 2027 012e FFF7FEFF 		bl	gfx_drawPixel
 2028              	.LVL174:
 571:.\ssd1306.c   ****     }
 2029              		.loc 1 571 0
 2030 0132 381C     		mov	r0, r7
 2031 0134 291C     		mov	r1, r5
 2032 0136 221C     		mov	r2, r4
 2033 0138 FFF7FEFF 		bl	gfx_drawPixel
 2034              	.LVL175:
 2035 013c 069B     		ldr	r3, [sp, #24]
 2036 013e 0133     		add	r3, r3, #1
 2037 0140 8CE7     		b	.L154
 2038              	.LVL176:
 2039              	.L155:
 573:.\ssd1306.c   **** 
 2040              		.loc 1 573 0
 2041 0142 09B0     		add	sp, sp, #36
 2042              	.LVL177:
 2043              		@ sp needed
 2044 0144 F0BD     		pop	{r4, r5, r6, r7, pc}
 2045              		.cfi_endproc
 2046              	.LFE60:
 2047              		.size	gfx_drawCircle, .-gfx_drawCircle
 2048              		.section	.text.gfx_drawTriangle,"ax",%progbits
 2049              		.align	1
 2050              		.global	gfx_drawTriangle
 2051              		.code	16
ARM GAS  C:\Users\User\AppData\Local\Temp\cctjmLxv.s 			page 53


 2052              		.thumb_func
 2053              		.type	gfx_drawTriangle, %function
 2054              	gfx_drawTriangle:
 2055              	.LFB61:
 575:.\ssd1306.c   ****     
 2056              		.loc 1 575 0
 2057              		.cfi_startproc
 2058              	.LVL178:
 2059 0000 F0B5     		push	{r4, r5, r6, r7, lr}
 2060              		.cfi_def_cfa_offset 20
 2061              		.cfi_offset 4, -20
 2062              		.cfi_offset 5, -16
 2063              		.cfi_offset 6, -12
 2064              		.cfi_offset 7, -8
 2065              		.cfi_offset 14, -4
 2066 0002 171C     		mov	r7, r2
 2067 0004 1E1C     		mov	r6, r3
 2068 0006 051C     		mov	r5, r0
 2069 0008 87B0     		sub	sp, sp, #28
 2070              		.cfi_def_cfa_offset 48
 575:.\ssd1306.c   ****     
 2071              		.loc 1 575 0
 2072 000a 0CAB     		add	r3, sp, #48
 2073              	.LVL179:
 2074 000c 0022     		mov	r2, #0
 2075 000e 9B5E     		ldrsh	r3, [r3, r2]
 2076              	.LVL180:
 2077 0010 0391     		str	r1, [sp, #12]
 2078 0012 0493     		str	r3, [sp, #16]
 2079 0014 0DAB     		add	r3, sp, #52
 2080              	.LVL181:
 2081 0016 0022     		mov	r2, #0
 2082 0018 9B5E     		ldrsh	r3, [r3, r2]
 2083              	.LVL182:
 577:.\ssd1306.c   ****     gfx_drawLine( x1, y1, x2, y2, color );
 2084              		.loc 1 577 0
 2085 001a 3A1C     		mov	r2, r7
 575:.\ssd1306.c   ****     
 2086              		.loc 1 575 0
 2087 001c 0593     		str	r3, [sp, #20]
 2088 001e 0EAB     		add	r3, sp, #56
 2089              	.LVL183:
 2090 0020 1C88     		ldrh	r4, [r3]
 577:.\ssd1306.c   ****     gfx_drawLine( x1, y1, x2, y2, color );
 2091              		.loc 1 577 0
 2092 0022 331C     		mov	r3, r6
 2093              	.LVL184:
 2094 0024 0094     		str	r4, [sp]
 2095 0026 FFF7FEFF 		bl	gfx_drawLine
 2096              	.LVL185:
 578:.\ssd1306.c   ****     gfx_drawLine( x2, y2, x0, y0, color );
 2097              		.loc 1 578 0
 2098 002a 381C     		mov	r0, r7
 2099 002c 311C     		mov	r1, r6
 2100 002e 049A     		ldr	r2, [sp, #16]
 2101 0030 059B     		ldr	r3, [sp, #20]
 2102 0032 0094     		str	r4, [sp]
ARM GAS  C:\Users\User\AppData\Local\Temp\cctjmLxv.s 			page 54


 2103 0034 FFF7FEFF 		bl	gfx_drawLine
 2104              	.LVL186:
 579:.\ssd1306.c   **** }
 2105              		.loc 1 579 0
 2106 0038 0094     		str	r4, [sp]
 2107 003a 0498     		ldr	r0, [sp, #16]
 2108 003c 0599     		ldr	r1, [sp, #20]
 2109 003e 2A1C     		mov	r2, r5
 2110 0040 039B     		ldr	r3, [sp, #12]
 2111 0042 FFF7FEFF 		bl	gfx_drawLine
 2112              	.LVL187:
 580:.\ssd1306.c   **** 
 2113              		.loc 1 580 0
 2114 0046 07B0     		add	sp, sp, #28
 2115              		@ sp needed
 2116 0048 F0BD     		pop	{r4, r5, r6, r7, pc}
 2117              		.cfi_endproc
 2118              	.LFE61:
 2119              		.size	gfx_drawTriangle, .-gfx_drawTriangle
 2120              		.section	.text.gfx_drawChar,"ax",%progbits
 2121              		.align	1
 2122              		.global	gfx_drawChar
 2123              		.code	16
 2124              		.thumb_func
 2125              		.type	gfx_drawChar, %function
 2126              	gfx_drawChar:
 2127              	.LFB62:
 584:.\ssd1306.c   ****     if( (x >= _width) || // Clip right
 2128              		.loc 1 584 0
 2129              		.cfi_startproc
 2130              	.LVL188:
 2131 0000 F0B5     		push	{r4, r5, r6, r7, lr}
 2132              		.cfi_def_cfa_offset 20
 2133              		.cfi_offset 4, -20
 2134              		.cfi_offset 5, -16
 2135              		.cfi_offset 6, -12
 2136              		.cfi_offset 7, -8
 2137              		.cfi_offset 14, -4
 2138 0002 91B0     		sub	sp, sp, #68
 2139              		.cfi_def_cfa_offset 88
 584:.\ssd1306.c   ****     if( (x >= _width) || // Clip right
 2140              		.loc 1 584 0
 2141 0004 0B93     		str	r3, [sp, #44]
 2142 0006 16AB     		add	r3, sp, #88
 2143              	.LVL189:
 2144 0008 1B88     		ldrh	r3, [r3]
 2145              	.LVL190:
 2146 000a 0990     		str	r0, [sp, #36]
 2147 000c 0C93     		str	r3, [sp, #48]
 2148 000e 17AB     		add	r3, sp, #92
 2149              	.LVL191:
 2150 0010 1D78     		ldrb	r5, [r3]
 585:.\ssd1306.c   ****         (y >= _height) || // Clip bottom
 2151              		.loc 1 585 0
 2152 0012 424B     		ldr	r3, .L170
 2153              	.LVL192:
 584:.\ssd1306.c   ****     if( (x >= _width) || // Clip right
ARM GAS  C:\Users\User\AppData\Local\Temp\cctjmLxv.s 			page 55


 2154              		.loc 1 584 0
 2155 0014 0A91     		str	r1, [sp, #40]
 585:.\ssd1306.c   ****         (y >= _height) || // Clip bottom
 2156              		.loc 1 585 0
 2157 0016 0820     		mov	r0, #8
 2158 0018 195E     		ldrsh	r1, [r3, r0]
 2159              	.LVL193:
 2160 001a 0998     		ldr	r0, [sp, #36]
 2161 001c 8142     		cmp	r1, r0
 2162 001e 7BDD     		ble	.L157
 585:.\ssd1306.c   ****         (y >= _height) || // Clip bottom
 2163              		.loc 1 585 0 is_stmt 0 discriminator 1
 2164 0020 0A21     		mov	r1, #10
 2165 0022 5B5E     		ldrsh	r3, [r3, r1]
 2166 0024 0A99     		ldr	r1, [sp, #40]
 2167 0026 8B42     		cmp	r3, r1
 2168 0028 76DD     		ble	.L157
 587:.\ssd1306.c   ****         ((y + 8 * size - 1) < 0)) // Clip top
 2169              		.loc 1 587 0 is_stmt 1
 2170 002a 0621     		mov	r1, #6
 2171 002c 0B1C     		mov	r3, r1
 2172 002e 6B43     		mul	r3, r5
 2173 0030 C318     		add	r3, r0, r3
 586:.\ssd1306.c   ****         ((x + 6 * size - 1) < 0) || // Clip left
 2174              		.loc 1 586 0
 2175 0032 002B     		cmp	r3, #0
 2176 0034 70DD     		ble	.L157
 588:.\ssd1306.c   ****         return;
 2177              		.loc 1 588 0
 2178 0036 0A98     		ldr	r0, [sp, #40]
 2179 0038 EB00     		lsl	r3, r5, #3
 2180 003a C318     		add	r3, r0, r3
 587:.\ssd1306.c   ****         ((y + 8 * size - 1) < 0)) // Clip top
 2181              		.loc 1 587 0
 2182 003c 002B     		cmp	r3, #0
 2183 003e 6BDD     		ble	.L157
 2184              	.LBB50:
 2185              	.LBB51:
 2186              	.LBB52:
 597:.\ssd1306.c   ****         int8_t j = 0;
 2187              		.loc 1 597 0
 2188 0040 0523     		mov	r3, #5
 2189 0042 5343     		mul	r3, r2
 2190 0044 0E93     		str	r3, [sp, #56]
 2191 0046 0023     		mov	r3, #0
 2192 0048 0891     		str	r1, [sp, #32]
 2193 004a 0793     		str	r3, [sp, #28]
 2194              	.LVL194:
 2195              	.L166:
 594:.\ssd1306.c   ****             line = 0x0;
 2196              		.loc 1 594 0
 2197 004c 6B46     		mov	r3, sp
 2198 004e 1C22     		mov	r2, #28
 2199 0050 9A56     		ldrsb	r2, [r3, r2]
 595:.\ssd1306.c   ****         else
 2200              		.loc 1 595 0
 2201 0052 0023     		mov	r3, #0
ARM GAS  C:\Users\User\AppData\Local\Temp\cctjmLxv.s 			page 56


 2202 0054 0393     		str	r3, [sp, #12]
 594:.\ssd1306.c   ****             line = 0x0;
 2203              		.loc 1 594 0
 2204 0056 052A     		cmp	r2, #5
 2205 0058 05D0     		beq	.L160
 597:.\ssd1306.c   ****         int8_t j = 0;
 2206              		.loc 1 597 0
 2207 005a 314B     		ldr	r3, .L170+4
 2208 005c 0E99     		ldr	r1, [sp, #56]
 2209 005e 2133     		add	r3, r3, #33
 2210 0060 5B18     		add	r3, r3, r1
 2211 0062 9B5C     		ldrb	r3, [r3, r2]
 2212 0064 0393     		str	r3, [sp, #12]
 2213              	.LVL195:
 2214              	.L160:
 604:.\ssd1306.c   ****                 }
 2215              		.loc 1 604 0
 2216 0066 6B46     		mov	r3, sp
 2217 0068 9B8C     		ldrh	r3, [r3, #36]
 2218 006a 0493     		str	r3, [sp, #16]
 2219 006c 93B2     		uxth	r3, r2
 2220 006e 0593     		str	r3, [sp, #20]
 2221 0070 ABB2     		uxth	r3, r5
 2222 0072 0693     		str	r3, [sp, #24]
 2223 0074 069A     		ldr	r2, [sp, #24]
 2224 0076 059B     		ldr	r3, [sp, #20]
 2225 0078 5343     		mul	r3, r2
 2226 007a 049A     		ldr	r2, [sp, #16]
 2227 007c D318     		add	r3, r2, r3
 2228 007e 9BB2     		uxth	r3, r3
 2229 0080 0D93     		str	r3, [sp, #52]
 2230 0082 6B46     		mov	r3, sp
 2231 0084 1C8D     		ldrh	r4, [r3, #40]
 2232 0086 231C     		mov	r3, r4
 610:.\ssd1306.c   ****                 }
 2233              		.loc 1 610 0
 2234 0088 271C     		mov	r7, r4
 2235 008a 261C     		mov	r6, r4
 2236 008c 0833     		add	r3, r3, #8
 2237 008e 9BB2     		uxth	r3, r3
 2238 0090 0F93     		str	r3, [sp, #60]
 2239              	.LVL196:
 2240              	.L165:
 600:.\ssd1306.c   ****                 if( size == 1 ) // default size
 2241              		.loc 1 600 0
 2242 0092 039B     		ldr	r3, [sp, #12]
 2243 0094 DB07     		lsl	r3, r3, #31
 2244 0096 0FD5     		bpl	.L161
 601:.\ssd1306.c   ****                     gfx_drawPixel( x+i, y+j, color );
 2245              		.loc 1 601 0
 2246 0098 012D     		cmp	r5, #1
 2247 009a 06D1     		bne	.L162
 602:.\ssd1306.c   ****                 else { // big size
 2248              		.loc 1 602 0
 2249 009c 049A     		ldr	r2, [sp, #16]
 2250 009e 059B     		ldr	r3, [sp, #20]
 2251 00a0 31B2     		sxth	r1, r6
ARM GAS  C:\Users\User\AppData\Local\Temp\cctjmLxv.s 			page 57


 2252 00a2 9818     		add	r0, r3, r2
 2253 00a4 00B2     		sxth	r0, r0
 2254 00a6 0B9A     		ldr	r2, [sp, #44]
 2255 00a8 12E0     		b	.L168
 2256              	.L162:
 604:.\ssd1306.c   ****                 }
 2257              		.loc 1 604 0
 2258 00aa 6B46     		mov	r3, sp
 2259 00ac 39B2     		sxth	r1, r7
 2260 00ae 3420     		mov	r0, #52
 2261 00b0 185E     		ldrsh	r0, [r3, r0]
 2262 00b2 0B9A     		ldr	r2, [sp, #44]
 2263 00b4 2B1C     		mov	r3, r5
 2264 00b6 14E0     		b	.L169
 2265              	.L161:
 606:.\ssd1306.c   ****                 if( size == 1 ) // default size
 2266              		.loc 1 606 0
 2267 00b8 0C9B     		ldr	r3, [sp, #48]
 2268 00ba 0B9A     		ldr	r2, [sp, #44]
 2269 00bc 9342     		cmp	r3, r2
 2270 00be 14D0     		beq	.L163
 607:.\ssd1306.c   ****                     gfx_drawPixel( x+i, y+j, bg );
 2271              		.loc 1 607 0
 2272 00c0 012D     		cmp	r5, #1
 2273 00c2 08D1     		bne	.L164
 608:.\ssd1306.c   ****                 else { // big size
 2274              		.loc 1 608 0
 2275 00c4 049A     		ldr	r2, [sp, #16]
 2276 00c6 059B     		ldr	r3, [sp, #20]
 2277 00c8 31B2     		sxth	r1, r6
 2278 00ca 9818     		add	r0, r3, r2
 2279 00cc 0C9A     		ldr	r2, [sp, #48]
 2280 00ce 00B2     		sxth	r0, r0
 2281              	.L168:
 2282 00d0 FFF7FEFF 		bl	gfx_drawPixel
 2283              	.LVL197:
 2284 00d4 09E0     		b	.L163
 2285              	.L164:
 610:.\ssd1306.c   ****                 }
 2286              		.loc 1 610 0
 2287 00d6 6B46     		mov	r3, sp
 2288 00d8 3420     		mov	r0, #52
 2289 00da 185E     		ldrsh	r0, [r3, r0]
 2290 00dc 2B1C     		mov	r3, r5
 2291 00de 0C9A     		ldr	r2, [sp, #48]
 2292 00e0 21B2     		sxth	r1, r4
 2293              	.L169:
 2294 00e2 0092     		str	r2, [sp]
 2295 00e4 1A1C     		mov	r2, r3
 2296 00e6 FFF7FEFF 		bl	gfx_fillRect
 2297              	.LVL198:
 2298              	.L163:
 613:.\ssd1306.c   ****         }
 2299              		.loc 1 613 0
 2300 00ea 039B     		ldr	r3, [sp, #12]
 2301 00ec 0136     		add	r6, r6, #1
 2302              	.LVL199:
ARM GAS  C:\Users\User\AppData\Local\Temp\cctjmLxv.s 			page 58


 2303 00ee 5B08     		lsr	r3, r3, #1
 2304 00f0 0393     		str	r3, [sp, #12]
 2305              	.LVL200:
 2306 00f2 069B     		ldr	r3, [sp, #24]
 2307 00f4 B6B2     		uxth	r6, r6
 2308 00f6 FF18     		add	r7, r7, r3
 2309 00f8 E418     		add	r4, r4, r3
 599:.\ssd1306.c   ****             if( line & 0x1 ){
 2310              		.loc 1 599 0
 2311 00fa 0F9B     		ldr	r3, [sp, #60]
 2312 00fc BFB2     		uxth	r7, r7
 2313 00fe A4B2     		uxth	r4, r4
 2314 0100 9E42     		cmp	r6, r3
 2315 0102 C6D1     		bne	.L165
 2316              	.LBE52:
 592:.\ssd1306.c   ****         uint8_t line;
 2317              		.loc 1 592 0
 2318 0104 079B     		ldr	r3, [sp, #28]
 2319 0106 0133     		add	r3, r3, #1
 2320 0108 DBB2     		uxtb	r3, r3
 2321 010a 0793     		str	r3, [sp, #28]
 2322              	.LVL201:
 2323 010c 089B     		ldr	r3, [sp, #32]
 2324 010e 013B     		sub	r3, r3, #1
 2325 0110 DBB2     		uxtb	r3, r3
 2326 0112 0893     		str	r3, [sp, #32]
 2327 0114 002B     		cmp	r3, #0
 2328 0116 99D1     		bne	.L166
 2329              	.LVL202:
 2330              	.L157:
 2331              	.LBE51:
 2332              	.LBE50:
 616:.\ssd1306.c   **** 
 2333              		.loc 1 616 0
 2334 0118 11B0     		add	sp, sp, #68
 2335              		@ sp needed
 2336 011a F0BD     		pop	{r4, r5, r6, r7, pc}
 2337              	.L171:
 2338              		.align	2
 2339              	.L170:
 2340 011c 00000000 		.word	.LANCHOR0
 2341 0120 00000000 		.word	.LANCHOR2
 2342              		.cfi_endproc
 2343              	.LFE62:
 2344              		.size	gfx_drawChar, .-gfx_drawChar
 2345              		.section	.text.gfx_write,"ax",%progbits
 2346              		.align	1
 2347              		.global	gfx_write
 2348              		.code	16
 2349              		.thumb_func
 2350              		.type	gfx_write, %function
 2351              	gfx_write:
 2352              	.LFB63:
 618:.\ssd1306.c   ****     if( ch == '\n' ){
 2353              		.loc 1 618 0
 2354              		.cfi_startproc
 2355              	.LVL203:
ARM GAS  C:\Users\User\AppData\Local\Temp\cctjmLxv.s 			page 59


 2356 0000 F0B5     		push	{r4, r5, r6, r7, lr}
 2357              		.cfi_def_cfa_offset 20
 2358              		.cfi_offset 4, -20
 2359              		.cfi_offset 5, -16
 2360              		.cfi_offset 6, -12
 2361              		.cfi_offset 7, -8
 2362              		.cfi_offset 14, -4
 2363 0002 021C     		mov	r2, r0
 2364 0004 85B0     		sub	sp, sp, #20
 2365              		.cfi_def_cfa_offset 40
 619:.\ssd1306.c   ****         cursor_y += textsize*8;
 2366              		.loc 1 619 0
 2367 0006 0A28     		cmp	r0, #10
 2368 0008 02D1     		bne	.L173
 2369 000a FFF7FEFF 		bl	gfx_write.part.3
 2370              	.LVL204:
 2371 000e 27E0     		b	.L172
 2372              	.LVL205:
 2373              	.L173:
 622:.\ssd1306.c   ****         // skip em
 2374              		.loc 1 622 0
 2375 0010 0D28     		cmp	r0, #13
 2376 0012 25D0     		beq	.L172
 625:.\ssd1306.c   ****         cursor_x += textsize*6;
 2377              		.loc 1 625 0
 2378 0014 134C     		ldr	r4, .L180
 2379 0016 E389     		ldrh	r3, [r4, #14]
 2380 0018 E588     		ldrh	r5, [r4, #6]
 2381 001a 6688     		ldrh	r6, [r4, #2]
 2382 001c 2779     		ldrb	r7, [r4, #4]
 2383 001e 0393     		str	r3, [sp, #12]
 2384 0020 A389     		ldrh	r3, [r4, #12]
 2385 0022 28B2     		sxth	r0, r5
 2386              	.LVL206:
 2387 0024 0093     		str	r3, [sp]
 2388 0026 31B2     		sxth	r1, r6
 2389 0028 039B     		ldr	r3, [sp, #12]
 2390 002a 0197     		str	r7, [sp, #4]
 2391 002c FFF7FEFF 		bl	gfx_drawChar
 2392              	.LVL207:
 626:.\ssd1306.c   ****         if( wrap && (cursor_x > (_width - textsize*6)) ){
 2393              		.loc 1 626 0
 2394 0030 0622     		mov	r2, #6
 2395 0032 BBB2     		uxth	r3, r7
 2396 0034 5A43     		mul	r2, r3
 2397 0036 5519     		add	r5, r2, r5
 627:.\ssd1306.c   ****             cursor_y += textsize*8;
 2398              		.loc 1 627 0
 2399 0038 0B4A     		ldr	r2, .L180+4
 626:.\ssd1306.c   ****         if( wrap && (cursor_x > (_width - textsize*6)) ){
 2400              		.loc 1 626 0
 2401 003a ADB2     		uxth	r5, r5
 627:.\ssd1306.c   ****             cursor_y += textsize*8;
 2402              		.loc 1 627 0
 2403 003c 1278     		ldrb	r2, [r2]
 626:.\ssd1306.c   ****         if( wrap && (cursor_x > (_width - textsize*6)) ){
 2404              		.loc 1 626 0
ARM GAS  C:\Users\User\AppData\Local\Temp\cctjmLxv.s 			page 60


 2405 003e E580     		strh	r5, [r4, #6]
 627:.\ssd1306.c   ****             cursor_y += textsize*8;
 2406              		.loc 1 627 0
 2407 0040 002A     		cmp	r2, #0
 2408 0042 0DD0     		beq	.L172
 627:.\ssd1306.c   ****             cursor_y += textsize*8;
 2409              		.loc 1 627 0 is_stmt 0 discriminator 1
 2410 0044 0822     		mov	r2, #8
 2411 0046 A15E     		ldrsh	r1, [r4, r2]
 2412 0048 0622     		mov	r2, #6
 2413 004a 5242     		neg	r2, r2
 2414 004c 5743     		mul	r7, r2
 2415 004e 2DB2     		sxth	r5, r5
 2416 0050 CF19     		add	r7, r1, r7
 2417 0052 BD42     		cmp	r5, r7
 2418 0054 04DD     		ble	.L172
 628:.\ssd1306.c   ****             cursor_x = 0;
 2419              		.loc 1 628 0 is_stmt 1
 2420 0056 DB00     		lsl	r3, r3, #3
 2421 0058 9E19     		add	r6, r3, r6
 629:.\ssd1306.c   ****         }
 2422              		.loc 1 629 0
 2423 005a 0023     		mov	r3, #0
 628:.\ssd1306.c   ****             cursor_x = 0;
 2424              		.loc 1 628 0
 2425 005c 6680     		strh	r6, [r4, #2]
 629:.\ssd1306.c   ****         }
 2426              		.loc 1 629 0
 2427 005e E380     		strh	r3, [r4, #6]
 2428              	.L172:
 2429              		.loc 1 632 0
 2430 0060 05B0     		add	sp, sp, #20
 2431              		@ sp needed
 2432 0062 F0BD     		pop	{r4, r5, r6, r7, pc}
 2433              	.L181:
 2434              		.align	2
 2435              	.L180:
 2436 0064 00000000 		.word	.LANCHOR0
 2437 0068 00000000 		.word	wrap
 2438              		.cfi_endproc
 2439              	.LFE63:
 2440              		.size	gfx_write, .-gfx_write
 2441              		.section	.text.gfx_print,"ax",%progbits
 2442              		.align	1
 2443              		.global	gfx_print
 2444              		.code	16
 2445              		.thumb_func
 2446              		.type	gfx_print, %function
 2447              	gfx_print:
 2448              	.LFB64:
 633:.\ssd1306.c   **** 
 634:.\ssd1306.c   **** void gfx_print( const char* s ){
 2449              		.loc 1 634 0
 2450              		.cfi_startproc
 2451              	.LVL208:
 2452 0000 38B5     		push	{r3, r4, r5, lr}
 2453              		.cfi_def_cfa_offset 16
ARM GAS  C:\Users\User\AppData\Local\Temp\cctjmLxv.s 			page 61


 2454              		.cfi_offset 3, -16
 2455              		.cfi_offset 4, -12
 2456              		.cfi_offset 5, -8
 2457              		.cfi_offset 14, -4
 2458              		.loc 1 634 0
 2459 0002 041C     		mov	r4, r0
 635:.\ssd1306.c   ****     
 636:.\ssd1306.c   ****     unsigned int len = strlen( s );
 2460              		.loc 1 636 0
 2461 0004 FFF7FEFF 		bl	strlen
 2462              	.LVL209:
 2463 0008 2518     		add	r5, r4, r0
 2464              	.LVL210:
 2465              	.L183:
 637:.\ssd1306.c   ****     unsigned int i = 0; 
 638:.\ssd1306.c   ****     for( i = 0 ; i < len ; i++ ){
 2466              		.loc 1 638 0 discriminator 1
 2467 000a AC42     		cmp	r4, r5
 2468 000c 04D0     		beq	.L185
 639:.\ssd1306.c   ****         gfx_write( s[i] );
 2469              		.loc 1 639 0 discriminator 3
 2470 000e 2078     		ldrb	r0, [r4]
 2471 0010 FFF7FEFF 		bl	gfx_write
 2472              	.LVL211:
 2473 0014 0134     		add	r4, r4, #1
 2474              	.LVL212:
 2475 0016 F8E7     		b	.L183
 2476              	.L185:
 640:.\ssd1306.c   ****     }
 641:.\ssd1306.c   **** }
 2477              		.loc 1 641 0
 2478              		@ sp needed
 2479              	.LVL213:
 2480 0018 38BD     		pop	{r3, r4, r5, pc}
 2481              		.cfi_endproc
 2482              	.LFE64:
 2483              		.size	gfx_print, .-gfx_print
 2484              		.section	.text.gfx_println,"ax",%progbits
 2485              		.align	1
 2486              		.global	gfx_println
 2487              		.code	16
 2488              		.thumb_func
 2489              		.type	gfx_println, %function
 2490              	gfx_println:
 2491              	.LFB65:
 642:.\ssd1306.c   **** 
 643:.\ssd1306.c   **** void gfx_println( const char* s ){ 
 2492              		.loc 1 643 0
 2493              		.cfi_startproc
 2494              	.LVL214:
 2495 0000 08B5     		push	{r3, lr}
 2496              		.cfi_def_cfa_offset 8
 2497              		.cfi_offset 3, -8
 2498              		.cfi_offset 14, -4
 644:.\ssd1306.c   ****     gfx_print( s ); 
 2499              		.loc 1 644 0
 2500 0002 FFF7FEFF 		bl	gfx_print
ARM GAS  C:\Users\User\AppData\Local\Temp\cctjmLxv.s 			page 62


 2501              	.LVL215:
 645:.\ssd1306.c   ****     gfx_write( '\n' );
 646:.\ssd1306.c   **** }
 2502              		.loc 1 646 0
 2503              		@ sp needed
 2504              	.LBB55:
 2505              	.LBB56:
 2506 0006 FFF7FEFF 		bl	gfx_write.part.3
 2507              	.LVL216:
 2508              	.LBE56:
 2509              	.LBE55:
 2510 000a 08BD     		pop	{r3, pc}
 2511              		.cfi_endproc
 2512              	.LFE65:
 2513              		.size	gfx_println, .-gfx_println
 2514              		.comm	wrap,1,1
 2515              		.comm	rotation,1,1
 2516              		.comm	HEIGHT,2,2
 2517              		.comm	WIDTH,2,2
 2518              		.section	.rodata
 2519              		.set	.LANCHOR2,. + 0
 2520              	.LC1:
 2521 0000 00       		.byte	0
 2522 0001 21       		.byte	33
 2523 0002 00       		.byte	0
 2524 0003 7F       		.byte	127
 2525 0004 22       		.byte	34
 2526 0005 00       		.byte	0
 2527 0006 07       		.byte	7
 2528              	.LC0:
 2529 0007 00       		.byte	0
 2530 0008 AE       		.byte	-82
 2531 0009 D5       		.byte	-43
 2532 000a 80       		.byte	-128
 2533 000b A8       		.byte	-88
 2534 000c 3F       		.byte	63
 2535 000d D3       		.byte	-45
 2536 000e 00       		.byte	0
 2537 000f 40       		.byte	64
 2538 0010 8D       		.byte	-115
 2539 0011 14       		.byte	20
 2540 0012 20       		.byte	32
 2541 0013 00       		.byte	0
 2542 0014 A1       		.byte	-95
 2543 0015 C8       		.byte	-56
 2544 0016 DA       		.byte	-38
 2545 0017 12       		.byte	18
 2546 0018 81       		.byte	-127
 2547 0019 CF       		.byte	-49
 2548 001a D9       		.byte	-39
 2549 001b F1       		.byte	-15
 2550 001c DB       		.byte	-37
 2551 001d 40       		.byte	64
 2552 001e A4       		.byte	-92
 2553 001f A6       		.byte	-90
 2554 0020 AF       		.byte	-81
 2555              		.type	font, %object
ARM GAS  C:\Users\User\AppData\Local\Temp\cctjmLxv.s 			page 63


 2556              		.size	font, 1275
 2557              	font:
 2558 0021 00       		.byte	0
 2559 0022 00       		.byte	0
 2560 0023 00       		.byte	0
 2561 0024 00       		.byte	0
 2562 0025 00       		.byte	0
 2563 0026 3E       		.byte	62
 2564 0027 5B       		.byte	91
 2565 0028 4F       		.byte	79
 2566 0029 5B       		.byte	91
 2567 002a 3E       		.byte	62
 2568 002b 3E       		.byte	62
 2569 002c 6B       		.byte	107
 2570 002d 4F       		.byte	79
 2571 002e 6B       		.byte	107
 2572 002f 3E       		.byte	62
 2573 0030 1C       		.byte	28
 2574 0031 3E       		.byte	62
 2575 0032 7C       		.byte	124
 2576 0033 3E       		.byte	62
 2577 0034 1C       		.byte	28
 2578 0035 18       		.byte	24
 2579 0036 3C       		.byte	60
 2580 0037 7E       		.byte	126
 2581 0038 3C       		.byte	60
 2582 0039 18       		.byte	24
 2583 003a 1C       		.byte	28
 2584 003b 57       		.byte	87
 2585 003c 7D       		.byte	125
 2586 003d 57       		.byte	87
 2587 003e 1C       		.byte	28
 2588 003f 1C       		.byte	28
 2589 0040 5E       		.byte	94
 2590 0041 7F       		.byte	127
 2591 0042 5E       		.byte	94
 2592 0043 1C       		.byte	28
 2593 0044 00       		.byte	0
 2594 0045 18       		.byte	24
 2595 0046 3C       		.byte	60
 2596 0047 18       		.byte	24
 2597 0048 00       		.byte	0
 2598 0049 FF       		.byte	-1
 2599 004a E7       		.byte	-25
 2600 004b C3       		.byte	-61
 2601 004c E7       		.byte	-25
 2602 004d FF       		.byte	-1
 2603 004e 00       		.byte	0
 2604 004f 18       		.byte	24
 2605 0050 24       		.byte	36
 2606 0051 18       		.byte	24
 2607 0052 00       		.byte	0
 2608 0053 FF       		.byte	-1
 2609 0054 E7       		.byte	-25
 2610 0055 DB       		.byte	-37
 2611 0056 E7       		.byte	-25
 2612 0057 FF       		.byte	-1
ARM GAS  C:\Users\User\AppData\Local\Temp\cctjmLxv.s 			page 64


 2613 0058 30       		.byte	48
 2614 0059 48       		.byte	72
 2615 005a 3A       		.byte	58
 2616 005b 06       		.byte	6
 2617 005c 0E       		.byte	14
 2618 005d 26       		.byte	38
 2619 005e 29       		.byte	41
 2620 005f 79       		.byte	121
 2621 0060 29       		.byte	41
 2622 0061 26       		.byte	38
 2623 0062 40       		.byte	64
 2624 0063 7F       		.byte	127
 2625 0064 05       		.byte	5
 2626 0065 05       		.byte	5
 2627 0066 07       		.byte	7
 2628 0067 40       		.byte	64
 2629 0068 7F       		.byte	127
 2630 0069 05       		.byte	5
 2631 006a 25       		.byte	37
 2632 006b 3F       		.byte	63
 2633 006c 5A       		.byte	90
 2634 006d 3C       		.byte	60
 2635 006e E7       		.byte	-25
 2636 006f 3C       		.byte	60
 2637 0070 5A       		.byte	90
 2638 0071 7F       		.byte	127
 2639 0072 3E       		.byte	62
 2640 0073 1C       		.byte	28
 2641 0074 1C       		.byte	28
 2642 0075 08       		.byte	8
 2643 0076 08       		.byte	8
 2644 0077 1C       		.byte	28
 2645 0078 1C       		.byte	28
 2646 0079 3E       		.byte	62
 2647 007a 7F       		.byte	127
 2648 007b 14       		.byte	20
 2649 007c 22       		.byte	34
 2650 007d 7F       		.byte	127
 2651 007e 22       		.byte	34
 2652 007f 14       		.byte	20
 2653 0080 5F       		.byte	95
 2654 0081 5F       		.byte	95
 2655 0082 00       		.byte	0
 2656 0083 5F       		.byte	95
 2657 0084 5F       		.byte	95
 2658 0085 06       		.byte	6
 2659 0086 09       		.byte	9
 2660 0087 7F       		.byte	127
 2661 0088 01       		.byte	1
 2662 0089 7F       		.byte	127
 2663 008a 00       		.byte	0
 2664 008b 66       		.byte	102
 2665 008c 89       		.byte	-119
 2666 008d 95       		.byte	-107
 2667 008e 6A       		.byte	106
 2668 008f 60       		.byte	96
 2669 0090 60       		.byte	96
ARM GAS  C:\Users\User\AppData\Local\Temp\cctjmLxv.s 			page 65


 2670 0091 60       		.byte	96
 2671 0092 60       		.byte	96
 2672 0093 60       		.byte	96
 2673 0094 94       		.byte	-108
 2674 0095 A2       		.byte	-94
 2675 0096 FF       		.byte	-1
 2676 0097 A2       		.byte	-94
 2677 0098 94       		.byte	-108
 2678 0099 08       		.byte	8
 2679 009a 04       		.byte	4
 2680 009b 7E       		.byte	126
 2681 009c 04       		.byte	4
 2682 009d 08       		.byte	8
 2683 009e 10       		.byte	16
 2684 009f 20       		.byte	32
 2685 00a0 7E       		.byte	126
 2686 00a1 20       		.byte	32
 2687 00a2 10       		.byte	16
 2688 00a3 08       		.byte	8
 2689 00a4 08       		.byte	8
 2690 00a5 2A       		.byte	42
 2691 00a6 1C       		.byte	28
 2692 00a7 08       		.byte	8
 2693 00a8 08       		.byte	8
 2694 00a9 1C       		.byte	28
 2695 00aa 2A       		.byte	42
 2696 00ab 08       		.byte	8
 2697 00ac 08       		.byte	8
 2698 00ad 1E       		.byte	30
 2699 00ae 10       		.byte	16
 2700 00af 10       		.byte	16
 2701 00b0 10       		.byte	16
 2702 00b1 10       		.byte	16
 2703 00b2 0C       		.byte	12
 2704 00b3 1E       		.byte	30
 2705 00b4 0C       		.byte	12
 2706 00b5 1E       		.byte	30
 2707 00b6 0C       		.byte	12
 2708 00b7 30       		.byte	48
 2709 00b8 38       		.byte	56
 2710 00b9 3E       		.byte	62
 2711 00ba 38       		.byte	56
 2712 00bb 30       		.byte	48
 2713 00bc 06       		.byte	6
 2714 00bd 0E       		.byte	14
 2715 00be 3E       		.byte	62
 2716 00bf 0E       		.byte	14
 2717 00c0 06       		.byte	6
 2718 00c1 00       		.byte	0
 2719 00c2 00       		.byte	0
 2720 00c3 00       		.byte	0
 2721 00c4 00       		.byte	0
 2722 00c5 00       		.byte	0
 2723 00c6 00       		.byte	0
 2724 00c7 00       		.byte	0
 2725 00c8 5F       		.byte	95
 2726 00c9 00       		.byte	0
ARM GAS  C:\Users\User\AppData\Local\Temp\cctjmLxv.s 			page 66


 2727 00ca 00       		.byte	0
 2728 00cb 00       		.byte	0
 2729 00cc 07       		.byte	7
 2730 00cd 00       		.byte	0
 2731 00ce 07       		.byte	7
 2732 00cf 00       		.byte	0
 2733 00d0 14       		.byte	20
 2734 00d1 7F       		.byte	127
 2735 00d2 14       		.byte	20
 2736 00d3 7F       		.byte	127
 2737 00d4 14       		.byte	20
 2738 00d5 24       		.byte	36
 2739 00d6 2A       		.byte	42
 2740 00d7 7F       		.byte	127
 2741 00d8 2A       		.byte	42
 2742 00d9 12       		.byte	18
 2743 00da 23       		.byte	35
 2744 00db 13       		.byte	19
 2745 00dc 08       		.byte	8
 2746 00dd 64       		.byte	100
 2747 00de 62       		.byte	98
 2748 00df 36       		.byte	54
 2749 00e0 49       		.byte	73
 2750 00e1 56       		.byte	86
 2751 00e2 20       		.byte	32
 2752 00e3 50       		.byte	80
 2753 00e4 00       		.byte	0
 2754 00e5 08       		.byte	8
 2755 00e6 07       		.byte	7
 2756 00e7 03       		.byte	3
 2757 00e8 00       		.byte	0
 2758 00e9 00       		.byte	0
 2759 00ea 1C       		.byte	28
 2760 00eb 22       		.byte	34
 2761 00ec 41       		.byte	65
 2762 00ed 00       		.byte	0
 2763 00ee 00       		.byte	0
 2764 00ef 41       		.byte	65
 2765 00f0 22       		.byte	34
 2766 00f1 1C       		.byte	28
 2767 00f2 00       		.byte	0
 2768 00f3 2A       		.byte	42
 2769 00f4 1C       		.byte	28
 2770 00f5 7F       		.byte	127
 2771 00f6 1C       		.byte	28
 2772 00f7 2A       		.byte	42
 2773 00f8 08       		.byte	8
 2774 00f9 08       		.byte	8
 2775 00fa 3E       		.byte	62
 2776 00fb 08       		.byte	8
 2777 00fc 08       		.byte	8
 2778 00fd 00       		.byte	0
 2779 00fe 80       		.byte	-128
 2780 00ff 70       		.byte	112
 2781 0100 30       		.byte	48
 2782 0101 00       		.byte	0
 2783 0102 08       		.byte	8
ARM GAS  C:\Users\User\AppData\Local\Temp\cctjmLxv.s 			page 67


 2784 0103 08       		.byte	8
 2785 0104 08       		.byte	8
 2786 0105 08       		.byte	8
 2787 0106 08       		.byte	8
 2788 0107 00       		.byte	0
 2789 0108 00       		.byte	0
 2790 0109 60       		.byte	96
 2791 010a 60       		.byte	96
 2792 010b 00       		.byte	0
 2793 010c 20       		.byte	32
 2794 010d 10       		.byte	16
 2795 010e 08       		.byte	8
 2796 010f 04       		.byte	4
 2797 0110 02       		.byte	2
 2798 0111 3E       		.byte	62
 2799 0112 51       		.byte	81
 2800 0113 49       		.byte	73
 2801 0114 45       		.byte	69
 2802 0115 3E       		.byte	62
 2803 0116 00       		.byte	0
 2804 0117 42       		.byte	66
 2805 0118 7F       		.byte	127
 2806 0119 40       		.byte	64
 2807 011a 00       		.byte	0
 2808 011b 72       		.byte	114
 2809 011c 49       		.byte	73
 2810 011d 49       		.byte	73
 2811 011e 49       		.byte	73
 2812 011f 46       		.byte	70
 2813 0120 21       		.byte	33
 2814 0121 41       		.byte	65
 2815 0122 49       		.byte	73
 2816 0123 4D       		.byte	77
 2817 0124 33       		.byte	51
 2818 0125 18       		.byte	24
 2819 0126 14       		.byte	20
 2820 0127 12       		.byte	18
 2821 0128 7F       		.byte	127
 2822 0129 10       		.byte	16
 2823 012a 27       		.byte	39
 2824 012b 45       		.byte	69
 2825 012c 45       		.byte	69
 2826 012d 45       		.byte	69
 2827 012e 39       		.byte	57
 2828 012f 3C       		.byte	60
 2829 0130 4A       		.byte	74
 2830 0131 49       		.byte	73
 2831 0132 49       		.byte	73
 2832 0133 31       		.byte	49
 2833 0134 41       		.byte	65
 2834 0135 21       		.byte	33
 2835 0136 11       		.byte	17
 2836 0137 09       		.byte	9
 2837 0138 07       		.byte	7
 2838 0139 36       		.byte	54
 2839 013a 49       		.byte	73
 2840 013b 49       		.byte	73
ARM GAS  C:\Users\User\AppData\Local\Temp\cctjmLxv.s 			page 68


 2841 013c 49       		.byte	73
 2842 013d 36       		.byte	54
 2843 013e 46       		.byte	70
 2844 013f 49       		.byte	73
 2845 0140 49       		.byte	73
 2846 0141 29       		.byte	41
 2847 0142 1E       		.byte	30
 2848 0143 00       		.byte	0
 2849 0144 00       		.byte	0
 2850 0145 14       		.byte	20
 2851 0146 00       		.byte	0
 2852 0147 00       		.byte	0
 2853 0148 00       		.byte	0
 2854 0149 40       		.byte	64
 2855 014a 34       		.byte	52
 2856 014b 00       		.byte	0
 2857 014c 00       		.byte	0
 2858 014d 00       		.byte	0
 2859 014e 08       		.byte	8
 2860 014f 14       		.byte	20
 2861 0150 22       		.byte	34
 2862 0151 41       		.byte	65
 2863 0152 14       		.byte	20
 2864 0153 14       		.byte	20
 2865 0154 14       		.byte	20
 2866 0155 14       		.byte	20
 2867 0156 14       		.byte	20
 2868 0157 00       		.byte	0
 2869 0158 41       		.byte	65
 2870 0159 22       		.byte	34
 2871 015a 14       		.byte	20
 2872 015b 08       		.byte	8
 2873 015c 02       		.byte	2
 2874 015d 01       		.byte	1
 2875 015e 59       		.byte	89
 2876 015f 09       		.byte	9
 2877 0160 06       		.byte	6
 2878 0161 3E       		.byte	62
 2879 0162 41       		.byte	65
 2880 0163 5D       		.byte	93
 2881 0164 59       		.byte	89
 2882 0165 4E       		.byte	78
 2883 0166 7C       		.byte	124
 2884 0167 12       		.byte	18
 2885 0168 11       		.byte	17
 2886 0169 12       		.byte	18
 2887 016a 7C       		.byte	124
 2888 016b 7F       		.byte	127
 2889 016c 49       		.byte	73
 2890 016d 49       		.byte	73
 2891 016e 49       		.byte	73
 2892 016f 36       		.byte	54
 2893 0170 3E       		.byte	62
 2894 0171 41       		.byte	65
 2895 0172 41       		.byte	65
 2896 0173 41       		.byte	65
 2897 0174 22       		.byte	34
ARM GAS  C:\Users\User\AppData\Local\Temp\cctjmLxv.s 			page 69


 2898 0175 7F       		.byte	127
 2899 0176 41       		.byte	65
 2900 0177 41       		.byte	65
 2901 0178 41       		.byte	65
 2902 0179 3E       		.byte	62
 2903 017a 7F       		.byte	127
 2904 017b 49       		.byte	73
 2905 017c 49       		.byte	73
 2906 017d 49       		.byte	73
 2907 017e 41       		.byte	65
 2908 017f 7F       		.byte	127
 2909 0180 09       		.byte	9
 2910 0181 09       		.byte	9
 2911 0182 09       		.byte	9
 2912 0183 01       		.byte	1
 2913 0184 3E       		.byte	62
 2914 0185 41       		.byte	65
 2915 0186 41       		.byte	65
 2916 0187 51       		.byte	81
 2917 0188 73       		.byte	115
 2918 0189 7F       		.byte	127
 2919 018a 08       		.byte	8
 2920 018b 08       		.byte	8
 2921 018c 08       		.byte	8
 2922 018d 7F       		.byte	127
 2923 018e 00       		.byte	0
 2924 018f 41       		.byte	65
 2925 0190 7F       		.byte	127
 2926 0191 41       		.byte	65
 2927 0192 00       		.byte	0
 2928 0193 20       		.byte	32
 2929 0194 40       		.byte	64
 2930 0195 41       		.byte	65
 2931 0196 3F       		.byte	63
 2932 0197 01       		.byte	1
 2933 0198 7F       		.byte	127
 2934 0199 08       		.byte	8
 2935 019a 14       		.byte	20
 2936 019b 22       		.byte	34
 2937 019c 41       		.byte	65
 2938 019d 7F       		.byte	127
 2939 019e 40       		.byte	64
 2940 019f 40       		.byte	64
 2941 01a0 40       		.byte	64
 2942 01a1 40       		.byte	64
 2943 01a2 7F       		.byte	127
 2944 01a3 02       		.byte	2
 2945 01a4 1C       		.byte	28
 2946 01a5 02       		.byte	2
 2947 01a6 7F       		.byte	127
 2948 01a7 7F       		.byte	127
 2949 01a8 04       		.byte	4
 2950 01a9 08       		.byte	8
 2951 01aa 10       		.byte	16
 2952 01ab 7F       		.byte	127
 2953 01ac 3E       		.byte	62
 2954 01ad 41       		.byte	65
ARM GAS  C:\Users\User\AppData\Local\Temp\cctjmLxv.s 			page 70


 2955 01ae 41       		.byte	65
 2956 01af 41       		.byte	65
 2957 01b0 3E       		.byte	62
 2958 01b1 7F       		.byte	127
 2959 01b2 09       		.byte	9
 2960 01b3 09       		.byte	9
 2961 01b4 09       		.byte	9
 2962 01b5 06       		.byte	6
 2963 01b6 3E       		.byte	62
 2964 01b7 41       		.byte	65
 2965 01b8 51       		.byte	81
 2966 01b9 21       		.byte	33
 2967 01ba 5E       		.byte	94
 2968 01bb 7F       		.byte	127
 2969 01bc 09       		.byte	9
 2970 01bd 19       		.byte	25
 2971 01be 29       		.byte	41
 2972 01bf 46       		.byte	70
 2973 01c0 26       		.byte	38
 2974 01c1 49       		.byte	73
 2975 01c2 49       		.byte	73
 2976 01c3 49       		.byte	73
 2977 01c4 32       		.byte	50
 2978 01c5 03       		.byte	3
 2979 01c6 01       		.byte	1
 2980 01c7 7F       		.byte	127
 2981 01c8 01       		.byte	1
 2982 01c9 03       		.byte	3
 2983 01ca 3F       		.byte	63
 2984 01cb 40       		.byte	64
 2985 01cc 40       		.byte	64
 2986 01cd 40       		.byte	64
 2987 01ce 3F       		.byte	63
 2988 01cf 1F       		.byte	31
 2989 01d0 20       		.byte	32
 2990 01d1 40       		.byte	64
 2991 01d2 20       		.byte	32
 2992 01d3 1F       		.byte	31
 2993 01d4 3F       		.byte	63
 2994 01d5 40       		.byte	64
 2995 01d6 38       		.byte	56
 2996 01d7 40       		.byte	64
 2997 01d8 3F       		.byte	63
 2998 01d9 63       		.byte	99
 2999 01da 14       		.byte	20
 3000 01db 08       		.byte	8
 3001 01dc 14       		.byte	20
 3002 01dd 63       		.byte	99
 3003 01de 03       		.byte	3
 3004 01df 04       		.byte	4
 3005 01e0 78       		.byte	120
 3006 01e1 04       		.byte	4
 3007 01e2 03       		.byte	3
 3008 01e3 61       		.byte	97
 3009 01e4 59       		.byte	89
 3010 01e5 49       		.byte	73
 3011 01e6 4D       		.byte	77
ARM GAS  C:\Users\User\AppData\Local\Temp\cctjmLxv.s 			page 71


 3012 01e7 43       		.byte	67
 3013 01e8 00       		.byte	0
 3014 01e9 7F       		.byte	127
 3015 01ea 41       		.byte	65
 3016 01eb 41       		.byte	65
 3017 01ec 41       		.byte	65
 3018 01ed 02       		.byte	2
 3019 01ee 04       		.byte	4
 3020 01ef 08       		.byte	8
 3021 01f0 10       		.byte	16
 3022 01f1 20       		.byte	32
 3023 01f2 00       		.byte	0
 3024 01f3 41       		.byte	65
 3025 01f4 41       		.byte	65
 3026 01f5 41       		.byte	65
 3027 01f6 7F       		.byte	127
 3028 01f7 04       		.byte	4
 3029 01f8 02       		.byte	2
 3030 01f9 01       		.byte	1
 3031 01fa 02       		.byte	2
 3032 01fb 04       		.byte	4
 3033 01fc 40       		.byte	64
 3034 01fd 40       		.byte	64
 3035 01fe 40       		.byte	64
 3036 01ff 40       		.byte	64
 3037 0200 40       		.byte	64
 3038 0201 00       		.byte	0
 3039 0202 03       		.byte	3
 3040 0203 07       		.byte	7
 3041 0204 08       		.byte	8
 3042 0205 00       		.byte	0
 3043 0206 20       		.byte	32
 3044 0207 54       		.byte	84
 3045 0208 54       		.byte	84
 3046 0209 78       		.byte	120
 3047 020a 40       		.byte	64
 3048 020b 7F       		.byte	127
 3049 020c 28       		.byte	40
 3050 020d 44       		.byte	68
 3051 020e 44       		.byte	68
 3052 020f 38       		.byte	56
 3053 0210 38       		.byte	56
 3054 0211 44       		.byte	68
 3055 0212 44       		.byte	68
 3056 0213 44       		.byte	68
 3057 0214 28       		.byte	40
 3058 0215 38       		.byte	56
 3059 0216 44       		.byte	68
 3060 0217 44       		.byte	68
 3061 0218 28       		.byte	40
 3062 0219 7F       		.byte	127
 3063 021a 38       		.byte	56
 3064 021b 54       		.byte	84
 3065 021c 54       		.byte	84
 3066 021d 54       		.byte	84
 3067 021e 18       		.byte	24
 3068 021f 00       		.byte	0
ARM GAS  C:\Users\User\AppData\Local\Temp\cctjmLxv.s 			page 72


 3069 0220 08       		.byte	8
 3070 0221 7E       		.byte	126
 3071 0222 09       		.byte	9
 3072 0223 02       		.byte	2
 3073 0224 18       		.byte	24
 3074 0225 A4       		.byte	-92
 3075 0226 A4       		.byte	-92
 3076 0227 9C       		.byte	-100
 3077 0228 78       		.byte	120
 3078 0229 7F       		.byte	127
 3079 022a 08       		.byte	8
 3080 022b 04       		.byte	4
 3081 022c 04       		.byte	4
 3082 022d 78       		.byte	120
 3083 022e 00       		.byte	0
 3084 022f 44       		.byte	68
 3085 0230 7D       		.byte	125
 3086 0231 40       		.byte	64
 3087 0232 00       		.byte	0
 3088 0233 20       		.byte	32
 3089 0234 40       		.byte	64
 3090 0235 40       		.byte	64
 3091 0236 3D       		.byte	61
 3092 0237 00       		.byte	0
 3093 0238 7F       		.byte	127
 3094 0239 10       		.byte	16
 3095 023a 28       		.byte	40
 3096 023b 44       		.byte	68
 3097 023c 00       		.byte	0
 3098 023d 00       		.byte	0
 3099 023e 41       		.byte	65
 3100 023f 7F       		.byte	127
 3101 0240 40       		.byte	64
 3102 0241 00       		.byte	0
 3103 0242 7C       		.byte	124
 3104 0243 04       		.byte	4
 3105 0244 78       		.byte	120
 3106 0245 04       		.byte	4
 3107 0246 78       		.byte	120
 3108 0247 7C       		.byte	124
 3109 0248 08       		.byte	8
 3110 0249 04       		.byte	4
 3111 024a 04       		.byte	4
 3112 024b 78       		.byte	120
 3113 024c 38       		.byte	56
 3114 024d 44       		.byte	68
 3115 024e 44       		.byte	68
 3116 024f 44       		.byte	68
 3117 0250 38       		.byte	56
 3118 0251 FC       		.byte	-4
 3119 0252 18       		.byte	24
 3120 0253 24       		.byte	36
 3121 0254 24       		.byte	36
 3122 0255 18       		.byte	24
 3123 0256 18       		.byte	24
 3124 0257 24       		.byte	36
 3125 0258 24       		.byte	36
ARM GAS  C:\Users\User\AppData\Local\Temp\cctjmLxv.s 			page 73


 3126 0259 18       		.byte	24
 3127 025a FC       		.byte	-4
 3128 025b 7C       		.byte	124
 3129 025c 08       		.byte	8
 3130 025d 04       		.byte	4
 3131 025e 04       		.byte	4
 3132 025f 08       		.byte	8
 3133 0260 48       		.byte	72
 3134 0261 54       		.byte	84
 3135 0262 54       		.byte	84
 3136 0263 54       		.byte	84
 3137 0264 24       		.byte	36
 3138 0265 04       		.byte	4
 3139 0266 04       		.byte	4
 3140 0267 3F       		.byte	63
 3141 0268 44       		.byte	68
 3142 0269 24       		.byte	36
 3143 026a 3C       		.byte	60
 3144 026b 40       		.byte	64
 3145 026c 40       		.byte	64
 3146 026d 20       		.byte	32
 3147 026e 7C       		.byte	124
 3148 026f 1C       		.byte	28
 3149 0270 20       		.byte	32
 3150 0271 40       		.byte	64
 3151 0272 20       		.byte	32
 3152 0273 1C       		.byte	28
 3153 0274 3C       		.byte	60
 3154 0275 40       		.byte	64
 3155 0276 30       		.byte	48
 3156 0277 40       		.byte	64
 3157 0278 3C       		.byte	60
 3158 0279 44       		.byte	68
 3159 027a 28       		.byte	40
 3160 027b 10       		.byte	16
 3161 027c 28       		.byte	40
 3162 027d 44       		.byte	68
 3163 027e 4C       		.byte	76
 3164 027f 90       		.byte	-112
 3165 0280 90       		.byte	-112
 3166 0281 90       		.byte	-112
 3167 0282 7C       		.byte	124
 3168 0283 44       		.byte	68
 3169 0284 64       		.byte	100
 3170 0285 54       		.byte	84
 3171 0286 4C       		.byte	76
 3172 0287 44       		.byte	68
 3173 0288 00       		.byte	0
 3174 0289 08       		.byte	8
 3175 028a 36       		.byte	54
 3176 028b 41       		.byte	65
 3177 028c 00       		.byte	0
 3178 028d 00       		.byte	0
 3179 028e 00       		.byte	0
 3180 028f 77       		.byte	119
 3181 0290 00       		.byte	0
 3182 0291 00       		.byte	0
ARM GAS  C:\Users\User\AppData\Local\Temp\cctjmLxv.s 			page 74


 3183 0292 00       		.byte	0
 3184 0293 41       		.byte	65
 3185 0294 36       		.byte	54
 3186 0295 08       		.byte	8
 3187 0296 00       		.byte	0
 3188 0297 02       		.byte	2
 3189 0298 01       		.byte	1
 3190 0299 02       		.byte	2
 3191 029a 04       		.byte	4
 3192 029b 02       		.byte	2
 3193 029c 3C       		.byte	60
 3194 029d 26       		.byte	38
 3195 029e 23       		.byte	35
 3196 029f 26       		.byte	38
 3197 02a0 3C       		.byte	60
 3198 02a1 1E       		.byte	30
 3199 02a2 A1       		.byte	-95
 3200 02a3 A1       		.byte	-95
 3201 02a4 61       		.byte	97
 3202 02a5 12       		.byte	18
 3203 02a6 3A       		.byte	58
 3204 02a7 40       		.byte	64
 3205 02a8 40       		.byte	64
 3206 02a9 20       		.byte	32
 3207 02aa 7A       		.byte	122
 3208 02ab 38       		.byte	56
 3209 02ac 54       		.byte	84
 3210 02ad 54       		.byte	84
 3211 02ae 55       		.byte	85
 3212 02af 59       		.byte	89
 3213 02b0 21       		.byte	33
 3214 02b1 55       		.byte	85
 3215 02b2 55       		.byte	85
 3216 02b3 79       		.byte	121
 3217 02b4 41       		.byte	65
 3218 02b5 22       		.byte	34
 3219 02b6 54       		.byte	84
 3220 02b7 54       		.byte	84
 3221 02b8 78       		.byte	120
 3222 02b9 42       		.byte	66
 3223 02ba 21       		.byte	33
 3224 02bb 55       		.byte	85
 3225 02bc 54       		.byte	84
 3226 02bd 78       		.byte	120
 3227 02be 40       		.byte	64
 3228 02bf 20       		.byte	32
 3229 02c0 54       		.byte	84
 3230 02c1 55       		.byte	85
 3231 02c2 79       		.byte	121
 3232 02c3 40       		.byte	64
 3233 02c4 0C       		.byte	12
 3234 02c5 1E       		.byte	30
 3235 02c6 52       		.byte	82
 3236 02c7 72       		.byte	114
 3237 02c8 12       		.byte	18
 3238 02c9 39       		.byte	57
 3239 02ca 55       		.byte	85
ARM GAS  C:\Users\User\AppData\Local\Temp\cctjmLxv.s 			page 75


 3240 02cb 55       		.byte	85
 3241 02cc 55       		.byte	85
 3242 02cd 59       		.byte	89
 3243 02ce 39       		.byte	57
 3244 02cf 54       		.byte	84
 3245 02d0 54       		.byte	84
 3246 02d1 54       		.byte	84
 3247 02d2 59       		.byte	89
 3248 02d3 39       		.byte	57
 3249 02d4 55       		.byte	85
 3250 02d5 54       		.byte	84
 3251 02d6 54       		.byte	84
 3252 02d7 58       		.byte	88
 3253 02d8 00       		.byte	0
 3254 02d9 00       		.byte	0
 3255 02da 45       		.byte	69
 3256 02db 7C       		.byte	124
 3257 02dc 41       		.byte	65
 3258 02dd 00       		.byte	0
 3259 02de 02       		.byte	2
 3260 02df 45       		.byte	69
 3261 02e0 7D       		.byte	125
 3262 02e1 42       		.byte	66
 3263 02e2 00       		.byte	0
 3264 02e3 01       		.byte	1
 3265 02e4 45       		.byte	69
 3266 02e5 7C       		.byte	124
 3267 02e6 40       		.byte	64
 3268 02e7 7D       		.byte	125
 3269 02e8 12       		.byte	18
 3270 02e9 11       		.byte	17
 3271 02ea 12       		.byte	18
 3272 02eb 7D       		.byte	125
 3273 02ec F0       		.byte	-16
 3274 02ed 28       		.byte	40
 3275 02ee 25       		.byte	37
 3276 02ef 28       		.byte	40
 3277 02f0 F0       		.byte	-16
 3278 02f1 7C       		.byte	124
 3279 02f2 54       		.byte	84
 3280 02f3 55       		.byte	85
 3281 02f4 45       		.byte	69
 3282 02f5 00       		.byte	0
 3283 02f6 20       		.byte	32
 3284 02f7 54       		.byte	84
 3285 02f8 54       		.byte	84
 3286 02f9 7C       		.byte	124
 3287 02fa 54       		.byte	84
 3288 02fb 7C       		.byte	124
 3289 02fc 0A       		.byte	10
 3290 02fd 09       		.byte	9
 3291 02fe 7F       		.byte	127
 3292 02ff 49       		.byte	73
 3293 0300 32       		.byte	50
 3294 0301 49       		.byte	73
 3295 0302 49       		.byte	73
 3296 0303 49       		.byte	73
ARM GAS  C:\Users\User\AppData\Local\Temp\cctjmLxv.s 			page 76


 3297 0304 32       		.byte	50
 3298 0305 3A       		.byte	58
 3299 0306 44       		.byte	68
 3300 0307 44       		.byte	68
 3301 0308 44       		.byte	68
 3302 0309 3A       		.byte	58
 3303 030a 32       		.byte	50
 3304 030b 4A       		.byte	74
 3305 030c 48       		.byte	72
 3306 030d 48       		.byte	72
 3307 030e 30       		.byte	48
 3308 030f 3A       		.byte	58
 3309 0310 41       		.byte	65
 3310 0311 41       		.byte	65
 3311 0312 21       		.byte	33
 3312 0313 7A       		.byte	122
 3313 0314 3A       		.byte	58
 3314 0315 42       		.byte	66
 3315 0316 40       		.byte	64
 3316 0317 20       		.byte	32
 3317 0318 78       		.byte	120
 3318 0319 00       		.byte	0
 3319 031a 9D       		.byte	-99
 3320 031b A0       		.byte	-96
 3321 031c A0       		.byte	-96
 3322 031d 7D       		.byte	125
 3323 031e 3D       		.byte	61
 3324 031f 42       		.byte	66
 3325 0320 42       		.byte	66
 3326 0321 42       		.byte	66
 3327 0322 3D       		.byte	61
 3328 0323 3D       		.byte	61
 3329 0324 40       		.byte	64
 3330 0325 40       		.byte	64
 3331 0326 40       		.byte	64
 3332 0327 3D       		.byte	61
 3333 0328 3C       		.byte	60
 3334 0329 24       		.byte	36
 3335 032a FF       		.byte	-1
 3336 032b 24       		.byte	36
 3337 032c 24       		.byte	36
 3338 032d 48       		.byte	72
 3339 032e 7E       		.byte	126
 3340 032f 49       		.byte	73
 3341 0330 43       		.byte	67
 3342 0331 66       		.byte	102
 3343 0332 2B       		.byte	43
 3344 0333 2F       		.byte	47
 3345 0334 FC       		.byte	-4
 3346 0335 2F       		.byte	47
 3347 0336 2B       		.byte	43
 3348 0337 FF       		.byte	-1
 3349 0338 09       		.byte	9
 3350 0339 29       		.byte	41
 3351 033a F6       		.byte	-10
 3352 033b 20       		.byte	32
 3353 033c C0       		.byte	-64
ARM GAS  C:\Users\User\AppData\Local\Temp\cctjmLxv.s 			page 77


 3354 033d 88       		.byte	-120
 3355 033e 7E       		.byte	126
 3356 033f 09       		.byte	9
 3357 0340 03       		.byte	3
 3358 0341 20       		.byte	32
 3359 0342 54       		.byte	84
 3360 0343 54       		.byte	84
 3361 0344 79       		.byte	121
 3362 0345 41       		.byte	65
 3363 0346 00       		.byte	0
 3364 0347 00       		.byte	0
 3365 0348 44       		.byte	68
 3366 0349 7D       		.byte	125
 3367 034a 41       		.byte	65
 3368 034b 30       		.byte	48
 3369 034c 48       		.byte	72
 3370 034d 48       		.byte	72
 3371 034e 4A       		.byte	74
 3372 034f 32       		.byte	50
 3373 0350 38       		.byte	56
 3374 0351 40       		.byte	64
 3375 0352 40       		.byte	64
 3376 0353 22       		.byte	34
 3377 0354 7A       		.byte	122
 3378 0355 00       		.byte	0
 3379 0356 7A       		.byte	122
 3380 0357 0A       		.byte	10
 3381 0358 0A       		.byte	10
 3382 0359 72       		.byte	114
 3383 035a 7D       		.byte	125
 3384 035b 0D       		.byte	13
 3385 035c 19       		.byte	25
 3386 035d 31       		.byte	49
 3387 035e 7D       		.byte	125
 3388 035f 26       		.byte	38
 3389 0360 29       		.byte	41
 3390 0361 29       		.byte	41
 3391 0362 2F       		.byte	47
 3392 0363 28       		.byte	40
 3393 0364 26       		.byte	38
 3394 0365 29       		.byte	41
 3395 0366 29       		.byte	41
 3396 0367 29       		.byte	41
 3397 0368 26       		.byte	38
 3398 0369 30       		.byte	48
 3399 036a 48       		.byte	72
 3400 036b 4D       		.byte	77
 3401 036c 40       		.byte	64
 3402 036d 20       		.byte	32
 3403 036e 38       		.byte	56
 3404 036f 08       		.byte	8
 3405 0370 08       		.byte	8
 3406 0371 08       		.byte	8
 3407 0372 08       		.byte	8
 3408 0373 08       		.byte	8
 3409 0374 08       		.byte	8
 3410 0375 08       		.byte	8
ARM GAS  C:\Users\User\AppData\Local\Temp\cctjmLxv.s 			page 78


 3411 0376 08       		.byte	8
 3412 0377 38       		.byte	56
 3413 0378 2F       		.byte	47
 3414 0379 10       		.byte	16
 3415 037a C8       		.byte	-56
 3416 037b AC       		.byte	-84
 3417 037c BA       		.byte	-70
 3418 037d 2F       		.byte	47
 3419 037e 10       		.byte	16
 3420 037f 28       		.byte	40
 3421 0380 34       		.byte	52
 3422 0381 FA       		.byte	-6
 3423 0382 00       		.byte	0
 3424 0383 00       		.byte	0
 3425 0384 7B       		.byte	123
 3426 0385 00       		.byte	0
 3427 0386 00       		.byte	0
 3428 0387 08       		.byte	8
 3429 0388 14       		.byte	20
 3430 0389 2A       		.byte	42
 3431 038a 14       		.byte	20
 3432 038b 22       		.byte	34
 3433 038c 22       		.byte	34
 3434 038d 14       		.byte	20
 3435 038e 2A       		.byte	42
 3436 038f 14       		.byte	20
 3437 0390 08       		.byte	8
 3438 0391 AA       		.byte	-86
 3439 0392 00       		.byte	0
 3440 0393 55       		.byte	85
 3441 0394 00       		.byte	0
 3442 0395 AA       		.byte	-86
 3443 0396 AA       		.byte	-86
 3444 0397 55       		.byte	85
 3445 0398 AA       		.byte	-86
 3446 0399 55       		.byte	85
 3447 039a AA       		.byte	-86
 3448 039b 00       		.byte	0
 3449 039c 00       		.byte	0
 3450 039d 00       		.byte	0
 3451 039e FF       		.byte	-1
 3452 039f 00       		.byte	0
 3453 03a0 10       		.byte	16
 3454 03a1 10       		.byte	16
 3455 03a2 10       		.byte	16
 3456 03a3 FF       		.byte	-1
 3457 03a4 00       		.byte	0
 3458 03a5 14       		.byte	20
 3459 03a6 14       		.byte	20
 3460 03a7 14       		.byte	20
 3461 03a8 FF       		.byte	-1
 3462 03a9 00       		.byte	0
 3463 03aa 10       		.byte	16
 3464 03ab 10       		.byte	16
 3465 03ac FF       		.byte	-1
 3466 03ad 00       		.byte	0
 3467 03ae FF       		.byte	-1
ARM GAS  C:\Users\User\AppData\Local\Temp\cctjmLxv.s 			page 79


 3468 03af 10       		.byte	16
 3469 03b0 10       		.byte	16
 3470 03b1 F0       		.byte	-16
 3471 03b2 10       		.byte	16
 3472 03b3 F0       		.byte	-16
 3473 03b4 14       		.byte	20
 3474 03b5 14       		.byte	20
 3475 03b6 14       		.byte	20
 3476 03b7 FC       		.byte	-4
 3477 03b8 00       		.byte	0
 3478 03b9 14       		.byte	20
 3479 03ba 14       		.byte	20
 3480 03bb F7       		.byte	-9
 3481 03bc 00       		.byte	0
 3482 03bd FF       		.byte	-1
 3483 03be 00       		.byte	0
 3484 03bf 00       		.byte	0
 3485 03c0 FF       		.byte	-1
 3486 03c1 00       		.byte	0
 3487 03c2 FF       		.byte	-1
 3488 03c3 14       		.byte	20
 3489 03c4 14       		.byte	20
 3490 03c5 F4       		.byte	-12
 3491 03c6 04       		.byte	4
 3492 03c7 FC       		.byte	-4
 3493 03c8 14       		.byte	20
 3494 03c9 14       		.byte	20
 3495 03ca 17       		.byte	23
 3496 03cb 10       		.byte	16
 3497 03cc 1F       		.byte	31
 3498 03cd 10       		.byte	16
 3499 03ce 10       		.byte	16
 3500 03cf 1F       		.byte	31
 3501 03d0 10       		.byte	16
 3502 03d1 1F       		.byte	31
 3503 03d2 14       		.byte	20
 3504 03d3 14       		.byte	20
 3505 03d4 14       		.byte	20
 3506 03d5 1F       		.byte	31
 3507 03d6 00       		.byte	0
 3508 03d7 10       		.byte	16
 3509 03d8 10       		.byte	16
 3510 03d9 10       		.byte	16
 3511 03da F0       		.byte	-16
 3512 03db 00       		.byte	0
 3513 03dc 00       		.byte	0
 3514 03dd 00       		.byte	0
 3515 03de 00       		.byte	0
 3516 03df 1F       		.byte	31
 3517 03e0 10       		.byte	16
 3518 03e1 10       		.byte	16
 3519 03e2 10       		.byte	16
 3520 03e3 10       		.byte	16
 3521 03e4 1F       		.byte	31
 3522 03e5 10       		.byte	16
 3523 03e6 10       		.byte	16
 3524 03e7 10       		.byte	16
ARM GAS  C:\Users\User\AppData\Local\Temp\cctjmLxv.s 			page 80


 3525 03e8 10       		.byte	16
 3526 03e9 F0       		.byte	-16
 3527 03ea 10       		.byte	16
 3528 03eb 00       		.byte	0
 3529 03ec 00       		.byte	0
 3530 03ed 00       		.byte	0
 3531 03ee FF       		.byte	-1
 3532 03ef 10       		.byte	16
 3533 03f0 10       		.byte	16
 3534 03f1 10       		.byte	16
 3535 03f2 10       		.byte	16
 3536 03f3 10       		.byte	16
 3537 03f4 10       		.byte	16
 3538 03f5 10       		.byte	16
 3539 03f6 10       		.byte	16
 3540 03f7 10       		.byte	16
 3541 03f8 FF       		.byte	-1
 3542 03f9 10       		.byte	16
 3543 03fa 00       		.byte	0
 3544 03fb 00       		.byte	0
 3545 03fc 00       		.byte	0
 3546 03fd FF       		.byte	-1
 3547 03fe 14       		.byte	20
 3548 03ff 00       		.byte	0
 3549 0400 00       		.byte	0
 3550 0401 FF       		.byte	-1
 3551 0402 00       		.byte	0
 3552 0403 FF       		.byte	-1
 3553 0404 00       		.byte	0
 3554 0405 00       		.byte	0
 3555 0406 1F       		.byte	31
 3556 0407 10       		.byte	16
 3557 0408 17       		.byte	23
 3558 0409 00       		.byte	0
 3559 040a 00       		.byte	0
 3560 040b FC       		.byte	-4
 3561 040c 04       		.byte	4
 3562 040d F4       		.byte	-12
 3563 040e 14       		.byte	20
 3564 040f 14       		.byte	20
 3565 0410 17       		.byte	23
 3566 0411 10       		.byte	16
 3567 0412 17       		.byte	23
 3568 0413 14       		.byte	20
 3569 0414 14       		.byte	20
 3570 0415 F4       		.byte	-12
 3571 0416 04       		.byte	4
 3572 0417 F4       		.byte	-12
 3573 0418 00       		.byte	0
 3574 0419 00       		.byte	0
 3575 041a FF       		.byte	-1
 3576 041b 00       		.byte	0
 3577 041c F7       		.byte	-9
 3578 041d 14       		.byte	20
 3579 041e 14       		.byte	20
 3580 041f 14       		.byte	20
 3581 0420 14       		.byte	20
ARM GAS  C:\Users\User\AppData\Local\Temp\cctjmLxv.s 			page 81


 3582 0421 14       		.byte	20
 3583 0422 14       		.byte	20
 3584 0423 14       		.byte	20
 3585 0424 F7       		.byte	-9
 3586 0425 00       		.byte	0
 3587 0426 F7       		.byte	-9
 3588 0427 14       		.byte	20
 3589 0428 14       		.byte	20
 3590 0429 14       		.byte	20
 3591 042a 17       		.byte	23
 3592 042b 14       		.byte	20
 3593 042c 10       		.byte	16
 3594 042d 10       		.byte	16
 3595 042e 1F       		.byte	31
 3596 042f 10       		.byte	16
 3597 0430 1F       		.byte	31
 3598 0431 14       		.byte	20
 3599 0432 14       		.byte	20
 3600 0433 14       		.byte	20
 3601 0434 F4       		.byte	-12
 3602 0435 14       		.byte	20
 3603 0436 10       		.byte	16
 3604 0437 10       		.byte	16
 3605 0438 F0       		.byte	-16
 3606 0439 10       		.byte	16
 3607 043a F0       		.byte	-16
 3608 043b 00       		.byte	0
 3609 043c 00       		.byte	0
 3610 043d 1F       		.byte	31
 3611 043e 10       		.byte	16
 3612 043f 1F       		.byte	31
 3613 0440 00       		.byte	0
 3614 0441 00       		.byte	0
 3615 0442 00       		.byte	0
 3616 0443 1F       		.byte	31
 3617 0444 14       		.byte	20
 3618 0445 00       		.byte	0
 3619 0446 00       		.byte	0
 3620 0447 00       		.byte	0
 3621 0448 FC       		.byte	-4
 3622 0449 14       		.byte	20
 3623 044a 00       		.byte	0
 3624 044b 00       		.byte	0
 3625 044c F0       		.byte	-16
 3626 044d 10       		.byte	16
 3627 044e F0       		.byte	-16
 3628 044f 10       		.byte	16
 3629 0450 10       		.byte	16
 3630 0451 FF       		.byte	-1
 3631 0452 10       		.byte	16
 3632 0453 FF       		.byte	-1
 3633 0454 14       		.byte	20
 3634 0455 14       		.byte	20
 3635 0456 14       		.byte	20
 3636 0457 FF       		.byte	-1
 3637 0458 14       		.byte	20
 3638 0459 10       		.byte	16
ARM GAS  C:\Users\User\AppData\Local\Temp\cctjmLxv.s 			page 82


 3639 045a 10       		.byte	16
 3640 045b 10       		.byte	16
 3641 045c 1F       		.byte	31
 3642 045d 00       		.byte	0
 3643 045e 00       		.byte	0
 3644 045f 00       		.byte	0
 3645 0460 00       		.byte	0
 3646 0461 F0       		.byte	-16
 3647 0462 10       		.byte	16
 3648 0463 FF       		.byte	-1
 3649 0464 FF       		.byte	-1
 3650 0465 FF       		.byte	-1
 3651 0466 FF       		.byte	-1
 3652 0467 FF       		.byte	-1
 3653 0468 F0       		.byte	-16
 3654 0469 F0       		.byte	-16
 3655 046a F0       		.byte	-16
 3656 046b F0       		.byte	-16
 3657 046c F0       		.byte	-16
 3658 046d FF       		.byte	-1
 3659 046e FF       		.byte	-1
 3660 046f FF       		.byte	-1
 3661 0470 00       		.byte	0
 3662 0471 00       		.byte	0
 3663 0472 00       		.byte	0
 3664 0473 00       		.byte	0
 3665 0474 00       		.byte	0
 3666 0475 FF       		.byte	-1
 3667 0476 FF       		.byte	-1
 3668 0477 0F       		.byte	15
 3669 0478 0F       		.byte	15
 3670 0479 0F       		.byte	15
 3671 047a 0F       		.byte	15
 3672 047b 0F       		.byte	15
 3673 047c 38       		.byte	56
 3674 047d 44       		.byte	68
 3675 047e 44       		.byte	68
 3676 047f 38       		.byte	56
 3677 0480 44       		.byte	68
 3678 0481 FC       		.byte	-4
 3679 0482 4A       		.byte	74
 3680 0483 4A       		.byte	74
 3681 0484 4A       		.byte	74
 3682 0485 34       		.byte	52
 3683 0486 7E       		.byte	126
 3684 0487 02       		.byte	2
 3685 0488 02       		.byte	2
 3686 0489 06       		.byte	6
 3687 048a 06       		.byte	6
 3688 048b 02       		.byte	2
 3689 048c 7E       		.byte	126
 3690 048d 02       		.byte	2
 3691 048e 7E       		.byte	126
 3692 048f 02       		.byte	2
 3693 0490 63       		.byte	99
 3694 0491 55       		.byte	85
 3695 0492 49       		.byte	73
ARM GAS  C:\Users\User\AppData\Local\Temp\cctjmLxv.s 			page 83


 3696 0493 41       		.byte	65
 3697 0494 63       		.byte	99
 3698 0495 38       		.byte	56
 3699 0496 44       		.byte	68
 3700 0497 44       		.byte	68
 3701 0498 3C       		.byte	60
 3702 0499 04       		.byte	4
 3703 049a 40       		.byte	64
 3704 049b 7E       		.byte	126
 3705 049c 20       		.byte	32
 3706 049d 1E       		.byte	30
 3707 049e 20       		.byte	32
 3708 049f 06       		.byte	6
 3709 04a0 02       		.byte	2
 3710 04a1 7E       		.byte	126
 3711 04a2 02       		.byte	2
 3712 04a3 02       		.byte	2
 3713 04a4 99       		.byte	-103
 3714 04a5 A5       		.byte	-91
 3715 04a6 E7       		.byte	-25
 3716 04a7 A5       		.byte	-91
 3717 04a8 99       		.byte	-103
 3718 04a9 1C       		.byte	28
 3719 04aa 2A       		.byte	42
 3720 04ab 49       		.byte	73
 3721 04ac 2A       		.byte	42
 3722 04ad 1C       		.byte	28
 3723 04ae 4C       		.byte	76
 3724 04af 72       		.byte	114
 3725 04b0 01       		.byte	1
 3726 04b1 72       		.byte	114
 3727 04b2 4C       		.byte	76
 3728 04b3 30       		.byte	48
 3729 04b4 4A       		.byte	74
 3730 04b5 4D       		.byte	77
 3731 04b6 4D       		.byte	77
 3732 04b7 30       		.byte	48
 3733 04b8 30       		.byte	48
 3734 04b9 48       		.byte	72
 3735 04ba 78       		.byte	120
 3736 04bb 48       		.byte	72
 3737 04bc 30       		.byte	48
 3738 04bd BC       		.byte	-68
 3739 04be 62       		.byte	98
 3740 04bf 5A       		.byte	90
 3741 04c0 46       		.byte	70
 3742 04c1 3D       		.byte	61
 3743 04c2 3E       		.byte	62
 3744 04c3 49       		.byte	73
 3745 04c4 49       		.byte	73
 3746 04c5 49       		.byte	73
 3747 04c6 00       		.byte	0
 3748 04c7 7E       		.byte	126
 3749 04c8 01       		.byte	1
 3750 04c9 01       		.byte	1
 3751 04ca 01       		.byte	1
 3752 04cb 7E       		.byte	126
ARM GAS  C:\Users\User\AppData\Local\Temp\cctjmLxv.s 			page 84


 3753 04cc 2A       		.byte	42
 3754 04cd 2A       		.byte	42
 3755 04ce 2A       		.byte	42
 3756 04cf 2A       		.byte	42
 3757 04d0 2A       		.byte	42
 3758 04d1 44       		.byte	68
 3759 04d2 44       		.byte	68
 3760 04d3 5F       		.byte	95
 3761 04d4 44       		.byte	68
 3762 04d5 44       		.byte	68
 3763 04d6 40       		.byte	64
 3764 04d7 51       		.byte	81
 3765 04d8 4A       		.byte	74
 3766 04d9 44       		.byte	68
 3767 04da 40       		.byte	64
 3768 04db 40       		.byte	64
 3769 04dc 44       		.byte	68
 3770 04dd 4A       		.byte	74
 3771 04de 51       		.byte	81
 3772 04df 40       		.byte	64
 3773 04e0 00       		.byte	0
 3774 04e1 00       		.byte	0
 3775 04e2 FF       		.byte	-1
 3776 04e3 01       		.byte	1
 3777 04e4 03       		.byte	3
 3778 04e5 E0       		.byte	-32
 3779 04e6 80       		.byte	-128
 3780 04e7 FF       		.byte	-1
 3781 04e8 00       		.byte	0
 3782 04e9 00       		.byte	0
 3783 04ea 08       		.byte	8
 3784 04eb 08       		.byte	8
 3785 04ec 6B       		.byte	107
 3786 04ed 6B       		.byte	107
 3787 04ee 08       		.byte	8
 3788 04ef 36       		.byte	54
 3789 04f0 12       		.byte	18
 3790 04f1 36       		.byte	54
 3791 04f2 24       		.byte	36
 3792 04f3 36       		.byte	54
 3793 04f4 06       		.byte	6
 3794 04f5 0F       		.byte	15
 3795 04f6 09       		.byte	9
 3796 04f7 0F       		.byte	15
 3797 04f8 06       		.byte	6
 3798 04f9 00       		.byte	0
 3799 04fa 00       		.byte	0
 3800 04fb 18       		.byte	24
 3801 04fc 18       		.byte	24
 3802 04fd 00       		.byte	0
 3803 04fe 00       		.byte	0
 3804 04ff 00       		.byte	0
 3805 0500 10       		.byte	16
 3806 0501 10       		.byte	16
 3807 0502 00       		.byte	0
 3808 0503 30       		.byte	48
 3809 0504 40       		.byte	64
ARM GAS  C:\Users\User\AppData\Local\Temp\cctjmLxv.s 			page 85


 3810 0505 FF       		.byte	-1
 3811 0506 01       		.byte	1
 3812 0507 01       		.byte	1
 3813 0508 00       		.byte	0
 3814 0509 1F       		.byte	31
 3815 050a 01       		.byte	1
 3816 050b 01       		.byte	1
 3817 050c 1E       		.byte	30
 3818 050d 00       		.byte	0
 3819 050e 19       		.byte	25
 3820 050f 1D       		.byte	29
 3821 0510 17       		.byte	23
 3822 0511 12       		.byte	18
 3823 0512 00       		.byte	0
 3824 0513 3C       		.byte	60
 3825 0514 3C       		.byte	60
 3826 0515 3C       		.byte	60
 3827 0516 3C       		.byte	60
 3828 0517 00       		.byte	0
 3829 0518 00       		.byte	0
 3830 0519 00       		.byte	0
 3831 051a 00       		.byte	0
 3832 051b 00       		.byte	0
 3833              		.data
 3834              		.set	.LANCHOR1,. + 0
 3835              		.type	SSD1306_buffer, %object
 3836              		.size	SSD1306_buffer, 1025
 3837              	SSD1306_buffer:
 3838 0000 40       		.byte	64
 3839 0001 00000000 		.space	1024
 3839      00000000 
 3839      00000000 
 3839      00000000 
 3839      00000000 
 3840              		.bss
 3841              		.align	1
 3842              		.set	.LANCHOR0,. + 0
 3843              		.type	_i2caddr, %object
 3844              		.size	_i2caddr, 1
 3845              	_i2caddr:
 3846 0000 00       		.space	1
 3847 0001 00       		.space	1
 3848              		.type	cursor_y, %object
 3849              		.size	cursor_y, 2
 3850              	cursor_y:
 3851 0002 0000     		.space	2
 3852              		.type	textsize, %object
 3853              		.size	textsize, 1
 3854              	textsize:
 3855 0004 00       		.space	1
 3856 0005 00       		.space	1
 3857              		.type	cursor_x, %object
 3858              		.size	cursor_x, 2
 3859              	cursor_x:
 3860 0006 0000     		.space	2
 3861              		.type	_width, %object
 3862              		.size	_width, 2
ARM GAS  C:\Users\User\AppData\Local\Temp\cctjmLxv.s 			page 86


 3863              	_width:
 3864 0008 0000     		.space	2
 3865              		.type	_height, %object
 3866              		.size	_height, 2
 3867              	_height:
 3868 000a 0000     		.space	2
 3869              		.type	textbgcolor, %object
 3870              		.size	textbgcolor, 2
 3871              	textbgcolor:
 3872 000c 0000     		.space	2
 3873              		.type	textcolor, %object
 3874              		.size	textcolor, 2
 3875              	textcolor:
 3876 000e 0000     		.space	2
 3877              		.text
 3878              	.Letext0:
 3879              		.file 2 "d:\\cypress\\psoc creator\\3.3\\psoc creator\\import\\gnu\\arm\\4.9.3\\arm-none-eabi\\inc
 3880              		.file 3 "d:\\cypress\\psoc creator\\3.3\\psoc creator\\import\\gnu\\arm\\4.9.3\\arm-none-eabi\\inc
 3881              		.file 4 "Generated_Source\\PSoC4/cytypes.h"
 3882              		.file 5 "d:\\cypress\\psoc creator\\3.3\\psoc creator\\import\\gnu\\arm\\4.9.3\\lib\\gcc\\arm-none
 3883              		.file 6 ".\\ssd1306.h"
 3884              		.file 7 ".\\font.h"
 3885              		.file 8 "Generated_Source\\PSoC4/I2COLED_I2C.h"
 3886              		.file 9 "d:\\cypress\\psoc creator\\3.3\\psoc creator\\import\\gnu\\arm\\4.9.3\\arm-none-eabi\\inc