ARM GAS  C:\Users\User\AppData\Local\Temp\ccfDypEy.s 			page 1


   1              		.cpu cortex-m0
   2              		.fpu softvfp
   3              		.eabi_attribute 20, 1
   4              		.eabi_attribute 21, 1
   5              		.eabi_attribute 23, 3
   6              		.eabi_attribute 24, 1
   7              		.eabi_attribute 25, 1
   8              		.eabi_attribute 26, 1
   9              		.eabi_attribute 30, 1
  10              		.eabi_attribute 34, 0
  11              		.eabi_attribute 18, 4
  12              		.code	16
  13              		.file	"ADC_1.c"
  14              		.text
  15              	.Ltext0:
  16              		.cfi_sections	.debug_frame
  17              		.section	.text.ADC_1_Init,"ax",%progbits
  18              		.align	2
  19              		.global	ADC_1_Init
  20              		.code	16
  21              		.thumb_func
  22              		.type	ADC_1_Init, %function
  23              	ADC_1_Init:
  24              	.LFB1:
  25              		.file 1 ".\\Generated_Source\\PSoC4\\ADC_1.c"
   1:.\Generated_Source\PSoC4/ADC_1.c **** /*******************************************************************************
   2:.\Generated_Source\PSoC4/ADC_1.c **** * File Name: ADC_1.c
   3:.\Generated_Source\PSoC4/ADC_1.c **** * Version 2.30
   4:.\Generated_Source\PSoC4/ADC_1.c **** *
   5:.\Generated_Source\PSoC4/ADC_1.c **** * Description:
   6:.\Generated_Source\PSoC4/ADC_1.c **** *  This file provides the source code to the API for the Sequencing Successive
   7:.\Generated_Source\PSoC4/ADC_1.c **** *  Approximation ADC Component Component.
   8:.\Generated_Source\PSoC4/ADC_1.c **** *
   9:.\Generated_Source\PSoC4/ADC_1.c **** * Note:
  10:.\Generated_Source\PSoC4/ADC_1.c **** *
  11:.\Generated_Source\PSoC4/ADC_1.c **** ********************************************************************************
  12:.\Generated_Source\PSoC4/ADC_1.c **** * Copyright 2008-2015, Cypress Semiconductor Corporation.  All rights reserved.
  13:.\Generated_Source\PSoC4/ADC_1.c **** * You may use this file only in accordance with the license, terms, conditions,
  14:.\Generated_Source\PSoC4/ADC_1.c **** * disclaimers, and limitations in the end user license agreement accompanying
  15:.\Generated_Source\PSoC4/ADC_1.c **** * the software package with which this file was provided.
  16:.\Generated_Source\PSoC4/ADC_1.c **** *******************************************************************************/
  17:.\Generated_Source\PSoC4/ADC_1.c **** 
  18:.\Generated_Source\PSoC4/ADC_1.c **** #include "ADC_1.h"
  19:.\Generated_Source\PSoC4/ADC_1.c **** 
  20:.\Generated_Source\PSoC4/ADC_1.c **** 
  21:.\Generated_Source\PSoC4/ADC_1.c **** /***************************************
  22:.\Generated_Source\PSoC4/ADC_1.c **** * Global data allocation
  23:.\Generated_Source\PSoC4/ADC_1.c **** ***************************************/
  24:.\Generated_Source\PSoC4/ADC_1.c **** uint8 ADC_1_initVar = 0u;
  25:.\Generated_Source\PSoC4/ADC_1.c **** volatile int16 ADC_1_offset[ADC_1_TOTAL_CHANNELS_NUM];
  26:.\Generated_Source\PSoC4/ADC_1.c **** volatile int32 ADC_1_countsPer10Volt[ADC_1_TOTAL_CHANNELS_NUM];   /* Gain compensation */
  27:.\Generated_Source\PSoC4/ADC_1.c **** 
  28:.\Generated_Source\PSoC4/ADC_1.c **** 
  29:.\Generated_Source\PSoC4/ADC_1.c **** /***************************************
  30:.\Generated_Source\PSoC4/ADC_1.c **** * Local data allocation
  31:.\Generated_Source\PSoC4/ADC_1.c **** ***************************************/
  32:.\Generated_Source\PSoC4/ADC_1.c **** /* Channels configuration generated by customiser */
ARM GAS  C:\Users\User\AppData\Local\Temp\ccfDypEy.s 			page 2


  33:.\Generated_Source\PSoC4/ADC_1.c **** static const uint32 CYCODE ADC_1_channelsConfig[] = { 0x00000701u };
  34:.\Generated_Source\PSoC4/ADC_1.c **** 
  35:.\Generated_Source\PSoC4/ADC_1.c **** 
  36:.\Generated_Source\PSoC4/ADC_1.c **** /*******************************************************************************
  37:.\Generated_Source\PSoC4/ADC_1.c **** * Function Name: ADC_1_Start
  38:.\Generated_Source\PSoC4/ADC_1.c **** ********************************************************************************
  39:.\Generated_Source\PSoC4/ADC_1.c **** *
  40:.\Generated_Source\PSoC4/ADC_1.c **** * Summary:
  41:.\Generated_Source\PSoC4/ADC_1.c **** *  Performs all required initialization for this component
  42:.\Generated_Source\PSoC4/ADC_1.c **** *  and enables the power. The power will be set to the appropriate
  43:.\Generated_Source\PSoC4/ADC_1.c **** *  power based on the clock frequency.
  44:.\Generated_Source\PSoC4/ADC_1.c **** *
  45:.\Generated_Source\PSoC4/ADC_1.c **** * Parameters:
  46:.\Generated_Source\PSoC4/ADC_1.c **** *  None.
  47:.\Generated_Source\PSoC4/ADC_1.c **** *
  48:.\Generated_Source\PSoC4/ADC_1.c **** * Return:
  49:.\Generated_Source\PSoC4/ADC_1.c **** *  None.
  50:.\Generated_Source\PSoC4/ADC_1.c **** *
  51:.\Generated_Source\PSoC4/ADC_1.c **** * Global variables:
  52:.\Generated_Source\PSoC4/ADC_1.c **** *  The ADC_1_initVar variable is used to indicate when/if initial
  53:.\Generated_Source\PSoC4/ADC_1.c **** *  configuration of this component has happened. The variable is initialized to
  54:.\Generated_Source\PSoC4/ADC_1.c **** *  zero and set to 1 the first time ADC_Start() is called. This allows for
  55:.\Generated_Source\PSoC4/ADC_1.c **** *  component Re-Start without re-initialization in all subsequent calls to the
  56:.\Generated_Source\PSoC4/ADC_1.c **** *  ADC_1_Start() routine.
  57:.\Generated_Source\PSoC4/ADC_1.c **** *  If re-initialization of the component is required the variable should be set
  58:.\Generated_Source\PSoC4/ADC_1.c **** *  to zero before call of ADC_1_Start() routine, or the user may call
  59:.\Generated_Source\PSoC4/ADC_1.c **** *  ADC_1_Init() and ADC_1_Enable() as done in the
  60:.\Generated_Source\PSoC4/ADC_1.c **** *  ADC_1_Start() routine.
  61:.\Generated_Source\PSoC4/ADC_1.c **** *
  62:.\Generated_Source\PSoC4/ADC_1.c **** *******************************************************************************/
  63:.\Generated_Source\PSoC4/ADC_1.c **** void ADC_1_Start(void)
  64:.\Generated_Source\PSoC4/ADC_1.c **** {
  65:.\Generated_Source\PSoC4/ADC_1.c ****     /* If not Initialized then initialize all required hardware and software */
  66:.\Generated_Source\PSoC4/ADC_1.c ****     if(ADC_1_initVar == 0u)
  67:.\Generated_Source\PSoC4/ADC_1.c ****     {
  68:.\Generated_Source\PSoC4/ADC_1.c ****         ADC_1_Init();
  69:.\Generated_Source\PSoC4/ADC_1.c ****         ADC_1_initVar = 1u;
  70:.\Generated_Source\PSoC4/ADC_1.c ****     }
  71:.\Generated_Source\PSoC4/ADC_1.c ****     ADC_1_Enable();
  72:.\Generated_Source\PSoC4/ADC_1.c **** }
  73:.\Generated_Source\PSoC4/ADC_1.c **** 
  74:.\Generated_Source\PSoC4/ADC_1.c **** 
  75:.\Generated_Source\PSoC4/ADC_1.c **** /*******************************************************************************
  76:.\Generated_Source\PSoC4/ADC_1.c **** * Function Name: ADC_1_Init
  77:.\Generated_Source\PSoC4/ADC_1.c **** ********************************************************************************
  78:.\Generated_Source\PSoC4/ADC_1.c **** *
  79:.\Generated_Source\PSoC4/ADC_1.c **** * Summary:
  80:.\Generated_Source\PSoC4/ADC_1.c **** *  Initialize component's parameters to the parameters set by user in the
  81:.\Generated_Source\PSoC4/ADC_1.c **** *  customizer of the component placed onto schematic. Usually called in
  82:.\Generated_Source\PSoC4/ADC_1.c **** *  ADC_1_Start().
  83:.\Generated_Source\PSoC4/ADC_1.c **** *
  84:.\Generated_Source\PSoC4/ADC_1.c **** * Parameters:
  85:.\Generated_Source\PSoC4/ADC_1.c **** *  None.
  86:.\Generated_Source\PSoC4/ADC_1.c **** *
  87:.\Generated_Source\PSoC4/ADC_1.c **** * Return:
  88:.\Generated_Source\PSoC4/ADC_1.c **** *  None.
  89:.\Generated_Source\PSoC4/ADC_1.c **** *
ARM GAS  C:\Users\User\AppData\Local\Temp\ccfDypEy.s 			page 3


  90:.\Generated_Source\PSoC4/ADC_1.c **** * Global variables:
  91:.\Generated_Source\PSoC4/ADC_1.c **** *  The ADC_1_offset variable is initialized.
  92:.\Generated_Source\PSoC4/ADC_1.c **** *
  93:.\Generated_Source\PSoC4/ADC_1.c **** *******************************************************************************/
  94:.\Generated_Source\PSoC4/ADC_1.c **** void ADC_1_Init(void)
  95:.\Generated_Source\PSoC4/ADC_1.c **** {
  26              		.loc 1 95 0
  27              		.cfi_startproc
  28 0000 10B5     		push	{r4, lr}
  29              		.cfi_def_cfa_offset 8
  30              		.cfi_offset 4, -8
  31              		.cfi_offset 14, -4
  96:.\Generated_Source\PSoC4/ADC_1.c ****     uint32 chNum;
  97:.\Generated_Source\PSoC4/ADC_1.c ****     uint32 tmpRegVal;
  98:.\Generated_Source\PSoC4/ADC_1.c ****     int32 counts;
  99:.\Generated_Source\PSoC4/ADC_1.c **** 
 100:.\Generated_Source\PSoC4/ADC_1.c ****     #if(ADC_1_TOTAL_CHANNELS_NUM > 1u)
 101:.\Generated_Source\PSoC4/ADC_1.c ****         static const uint8 CYCODE ADC_1_InputsPlacement[] =
 102:.\Generated_Source\PSoC4/ADC_1.c ****         {
 103:.\Generated_Source\PSoC4/ADC_1.c ****             (uint8)(ADC_1_cy_psoc4_sarmux_8__CH_0_PORT << 4u) |
 104:.\Generated_Source\PSoC4/ADC_1.c ****             (uint8)ADC_1_cy_psoc4_sarmux_8__CH_0_PIN
 105:.\Generated_Source\PSoC4/ADC_1.c ****             ,(uint8)(ADC_1_cy_psoc4_sarmux_8__CH_1_PORT << 4u) |
 106:.\Generated_Source\PSoC4/ADC_1.c ****              (uint8)ADC_1_cy_psoc4_sarmux_8__CH_1_PIN
 107:.\Generated_Source\PSoC4/ADC_1.c ****             #if(ADC_1_TOTAL_CHANNELS_NUM > 2u)
 108:.\Generated_Source\PSoC4/ADC_1.c ****                 ,(uint8)(ADC_1_cy_psoc4_sarmux_8__CH_2_PORT << 4u) |
 109:.\Generated_Source\PSoC4/ADC_1.c ****                  (uint8)ADC_1_cy_psoc4_sarmux_8__CH_2_PIN
 110:.\Generated_Source\PSoC4/ADC_1.c ****             #endif /* End ADC_1_TOTAL_CHANNELS_NUM > 2u */
 111:.\Generated_Source\PSoC4/ADC_1.c ****             #if(ADC_1_TOTAL_CHANNELS_NUM > 3u)
 112:.\Generated_Source\PSoC4/ADC_1.c ****                 ,(uint8)(ADC_1_cy_psoc4_sarmux_8__CH_3_PORT << 4u) |
 113:.\Generated_Source\PSoC4/ADC_1.c ****                  (uint8)ADC_1_cy_psoc4_sarmux_8__CH_3_PIN
 114:.\Generated_Source\PSoC4/ADC_1.c ****             #endif /* End ADC_1_TOTAL_CHANNELS_NUM > 3u */
 115:.\Generated_Source\PSoC4/ADC_1.c ****             #if(ADC_1_TOTAL_CHANNELS_NUM > 4u)
 116:.\Generated_Source\PSoC4/ADC_1.c ****                 ,(uint8)(ADC_1_cy_psoc4_sarmux_8__CH_4_PORT << 4u) |
 117:.\Generated_Source\PSoC4/ADC_1.c ****                  (uint8)ADC_1_cy_psoc4_sarmux_8__CH_4_PIN
 118:.\Generated_Source\PSoC4/ADC_1.c ****             #endif /* End ADC_1_TOTAL_CHANNELS_NUM > 4u */
 119:.\Generated_Source\PSoC4/ADC_1.c ****             #if(ADC_1_TOTAL_CHANNELS_NUM > 5u)
 120:.\Generated_Source\PSoC4/ADC_1.c ****                 ,(uint8)(ADC_1_cy_psoc4_sarmux_8__CH_5_PORT << 4u) |
 121:.\Generated_Source\PSoC4/ADC_1.c ****                  (uint8)ADC_1_cy_psoc4_sarmux_8__CH_5_PIN
 122:.\Generated_Source\PSoC4/ADC_1.c ****             #endif /* End ADC_1_TOTAL_CHANNELS_NUM > 5u */
 123:.\Generated_Source\PSoC4/ADC_1.c ****             #if(ADC_1_TOTAL_CHANNELS_NUM > 6u)
 124:.\Generated_Source\PSoC4/ADC_1.c ****                 ,(uint8)(ADC_1_cy_psoc4_sarmux_8__CH_6_PORT << 4u) |
 125:.\Generated_Source\PSoC4/ADC_1.c ****                  (uint8)ADC_1_cy_psoc4_sarmux_8__CH_6_PIN
 126:.\Generated_Source\PSoC4/ADC_1.c ****             #endif /* End ADC_1_TOTAL_CHANNELS_NUM > 6u */
 127:.\Generated_Source\PSoC4/ADC_1.c ****             #if(ADC_1_TOTAL_CHANNELS_NUM > 7u)
 128:.\Generated_Source\PSoC4/ADC_1.c ****                 ,(uint8)(ADC_1_cy_psoc4_sarmux_8__CH_7_PORT << 4u) |
 129:.\Generated_Source\PSoC4/ADC_1.c ****                  (uint8)ADC_1_cy_psoc4_sarmux_8__CH_7_PIN
 130:.\Generated_Source\PSoC4/ADC_1.c ****             #endif /* End ADC_1_TOTAL_CHANNELS_NUM > 7u */
 131:.\Generated_Source\PSoC4/ADC_1.c ****             #if(ADC_1_TOTAL_CHANNELS_NUM > 8u)
 132:.\Generated_Source\PSoC4/ADC_1.c ****                 ,(uint8)(ADC_1_cy_psoc4_sarmux_8__CH_8_PORT << 4u) |
 133:.\Generated_Source\PSoC4/ADC_1.c ****                  (uint8)ADC_1_cy_psoc4_sarmux_8__CH_8_PIN
 134:.\Generated_Source\PSoC4/ADC_1.c ****             #endif /* End ADC_1_TOTAL_CHANNELS_NUM > 8u */
 135:.\Generated_Source\PSoC4/ADC_1.c ****             #if(ADC_1_TOTAL_CHANNELS_NUM > 9u)
 136:.\Generated_Source\PSoC4/ADC_1.c ****                 ,(uint8)(ADC_1_cy_psoc4_sarmux_8__CH_9_PORT << 4u) |
 137:.\Generated_Source\PSoC4/ADC_1.c ****                  (uint8)ADC_1_cy_psoc4_sarmux_8__CH_9_PIN
 138:.\Generated_Source\PSoC4/ADC_1.c ****             #endif /* End ADC_1_TOTAL_CHANNELS_NUM > 9u */
 139:.\Generated_Source\PSoC4/ADC_1.c ****             #if(ADC_1_TOTAL_CHANNELS_NUM > 10u)
 140:.\Generated_Source\PSoC4/ADC_1.c ****                 ,(uint8)(ADC_1_cy_psoc4_sarmux_8__CH_10_PORT << 4u) |
ARM GAS  C:\Users\User\AppData\Local\Temp\ccfDypEy.s 			page 4


 141:.\Generated_Source\PSoC4/ADC_1.c ****                  (uint8)ADC_1_cy_psoc4_sarmux_8__CH_10_PIN
 142:.\Generated_Source\PSoC4/ADC_1.c ****             #endif /* End ADC_1_TOTAL_CHANNELS_NUM > 10u */
 143:.\Generated_Source\PSoC4/ADC_1.c ****             #if(ADC_1_TOTAL_CHANNELS_NUM > 11u)
 144:.\Generated_Source\PSoC4/ADC_1.c ****                 ,(uint8)(ADC_1_cy_psoc4_sarmux_8__CH_11_PORT << 4u) |
 145:.\Generated_Source\PSoC4/ADC_1.c ****                  (uint8)ADC_1_cy_psoc4_sarmux_8__CH_11_PIN
 146:.\Generated_Source\PSoC4/ADC_1.c ****             #endif /* End ADC_1_TOTAL_CHANNELS_NUM > 11u */
 147:.\Generated_Source\PSoC4/ADC_1.c ****             #if(ADC_1_TOTAL_CHANNELS_NUM > 12u)
 148:.\Generated_Source\PSoC4/ADC_1.c ****                 ,(uint8)(ADC_1_cy_psoc4_sarmux_8__CH_12_PORT << 4u) |
 149:.\Generated_Source\PSoC4/ADC_1.c ****                  (uint8)ADC_1_cy_psoc4_sarmux_8__CH_12_PIN
 150:.\Generated_Source\PSoC4/ADC_1.c ****             #endif /* End ADC_1_TOTAL_CHANNELS_NUM > 12u */
 151:.\Generated_Source\PSoC4/ADC_1.c ****             #if(ADC_1_TOTAL_CHANNELS_NUM > 13u)
 152:.\Generated_Source\PSoC4/ADC_1.c ****                 ,(uint8)(ADC_1_cy_psoc4_sarmux_8__CH_13_PORT << 4u) |
 153:.\Generated_Source\PSoC4/ADC_1.c ****                  (uint8)ADC_1_cy_psoc4_sarmux_8__CH_13_PIN
 154:.\Generated_Source\PSoC4/ADC_1.c ****             #endif /* End ADC_1_TOTAL_CHANNELS_NUM > 13u */
 155:.\Generated_Source\PSoC4/ADC_1.c ****             #if(ADC_1_TOTAL_CHANNELS_NUM > 14u)
 156:.\Generated_Source\PSoC4/ADC_1.c ****                 ,(uint8)(ADC_1_cy_psoc4_sarmux_8__CH_14_PORT << 4u) |
 157:.\Generated_Source\PSoC4/ADC_1.c ****                  (uint8)ADC_1_cy_psoc4_sarmux_8__CH_14_PIN
 158:.\Generated_Source\PSoC4/ADC_1.c ****             #endif /* End ADC_1_TOTAL_CHANNELS_NUM > 14u */
 159:.\Generated_Source\PSoC4/ADC_1.c ****             #if(ADC_1_TOTAL_CHANNELS_NUM > 15u)
 160:.\Generated_Source\PSoC4/ADC_1.c ****                 ,(uint8)(ADC_1_cy_psoc4_sarmux_8__CH_15_PORT << 4u) |
 161:.\Generated_Source\PSoC4/ADC_1.c ****                  (uint8)ADC_1_cy_psoc4_sarmux_8__CH_15_PIN
 162:.\Generated_Source\PSoC4/ADC_1.c ****             #endif /* End ADC_1_TOTAL_CHANNELS_NUM > 15u */
 163:.\Generated_Source\PSoC4/ADC_1.c ****             #if(ADC_1_TOTAL_CHANNELS_NUM > 16u)
 164:.\Generated_Source\PSoC4/ADC_1.c ****                 ,(uint8)(ADC_1_cy_psoc4_sarmux_8__CH_16_PORT << 4u) |
 165:.\Generated_Source\PSoC4/ADC_1.c ****                  (uint8)ADC_1_cy_psoc4_sarmux_8__CH_16_PIN
 166:.\Generated_Source\PSoC4/ADC_1.c ****             #endif /* End ADC_1_TOTAL_CHANNELS_NUM > 16u */
 167:.\Generated_Source\PSoC4/ADC_1.c ****         };
 168:.\Generated_Source\PSoC4/ADC_1.c ****     #endif /* End ADC_1_TOTAL_CHANNELS_NUM > 1u */
 169:.\Generated_Source\PSoC4/ADC_1.c **** 
 170:.\Generated_Source\PSoC4/ADC_1.c ****     #if(ADC_1_IRQ_REMOVE == 0u)
 171:.\Generated_Source\PSoC4/ADC_1.c ****         /* Start and set interrupt vector */
 172:.\Generated_Source\PSoC4/ADC_1.c ****         CyIntSetPriority(ADC_1_INTC_NUMBER, ADC_1_INTC_PRIOR_NUMBER);
  32              		.loc 1 172 0
  33 0002 0E20     		mov	r0, #14
  34 0004 0321     		mov	r1, #3
  35 0006 FFF7FEFF 		bl	CyIntSetPriority
  36              	.LVL0:
 173:.\Generated_Source\PSoC4/ADC_1.c ****         (void)CyIntSetVector(ADC_1_INTC_NUMBER, &ADC_1_ISR);
  37              		.loc 1 173 0
  38 000a 0E20     		mov	r0, #14
  39 000c 2849     		ldr	r1, .L6
  40 000e FFF7FEFF 		bl	CyIntSetVector
  41              	.LVL1:
 174:.\Generated_Source\PSoC4/ADC_1.c ****     #endif   /* End ADC_1_IRQ_REMOVE */
 175:.\Generated_Source\PSoC4/ADC_1.c **** 
 176:.\Generated_Source\PSoC4/ADC_1.c ****     /* Init SAR and MUX registers */
 177:.\Generated_Source\PSoC4/ADC_1.c ****     ADC_1_SAR_CHAN_EN_REG = ADC_1_DEFAULT_EN_CHANNELS;
  42              		.loc 1 177 0
  43 0012 0122     		mov	r2, #1
  44 0014 274B     		ldr	r3, .L6+4
  45 0016 1A60     		str	r2, [r3]
 178:.\Generated_Source\PSoC4/ADC_1.c ****     ADC_1_SAR_CTRL_REG |= ADC_1_DEFAULT_CTRL_REG_CFG | 
 179:.\Generated_Source\PSoC4/ADC_1.c ****         /* Enable the SAR internal pump when global pump is enabled */
 180:.\Generated_Source\PSoC4/ADC_1.c ****         (((ADC_1_PUMP_CTRL_REG & ADC_1_PUMP_CTRL_ENABLED) != 0u) ? 
  46              		.loc 1 180 0
  47 0018 274B     		ldr	r3, .L6+8
  48 001a 1B68     		ldr	r3, [r3]
ARM GAS  C:\Users\User\AppData\Local\Temp\ccfDypEy.s 			page 5


 178:.\Generated_Source\PSoC4/ADC_1.c ****     ADC_1_SAR_CTRL_REG |= ADC_1_DEFAULT_CTRL_REG_CFG | 
  49              		.loc 1 178 0
  50 001c 002B     		cmp	r3, #0
  51 001e 01DA     		bge	.L5
  52 0020 2649     		ldr	r1, .L6+12
  53 0022 00E0     		b	.L2
  54              	.L5:
  55 0024 2649     		ldr	r1, .L6+16
  56              	.L2:
 178:.\Generated_Source\PSoC4/ADC_1.c ****     ADC_1_SAR_CTRL_REG |= ADC_1_DEFAULT_CTRL_REG_CFG | 
  57              		.loc 1 178 0 is_stmt 0 discriminator 4
  58 0026 274A     		ldr	r2, .L6+20
  59 0028 1368     		ldr	r3, [r2]
  60 002a 0B43     		orr	r3, r1
  61 002c 1360     		str	r3, [r2]
 181:.\Generated_Source\PSoC4/ADC_1.c ****         ADC_1_BOOSTPUMP_EN : 0u);
 182:.\Generated_Source\PSoC4/ADC_1.c ****     ADC_1_SAR_SAMPLE_CTRL_REG = ADC_1_DEFAULT_SAMPLE_CTRL_REG_CFG;
  62              		.loc 1 182 0 is_stmt 1 discriminator 4
  63 002e 264A     		ldr	r2, .L6+24
  64 0030 264B     		ldr	r3, .L6+28
  65 0032 1A60     		str	r2, [r3]
 183:.\Generated_Source\PSoC4/ADC_1.c ****     ADC_1_SAR_RANGE_THRES_REG = ADC_1_DEFAULT_RANGE_THRES_REG_CFG;
  66              		.loc 1 183 0 discriminator 4
  67 0034 264A     		ldr	r2, .L6+32
  68 0036 274B     		ldr	r3, .L6+36
  69 0038 1A60     		str	r2, [r3]
 184:.\Generated_Source\PSoC4/ADC_1.c ****     ADC_1_SAR_RANGE_COND_REG  = ADC_1_COMPARE_MODE;
  70              		.loc 1 184 0 discriminator 4
  71 003a 8022     		mov	r2, #128
  72 003c D205     		lsl	r2, r2, #23
  73 003e 264B     		ldr	r3, .L6+40
  74 0040 1A60     		str	r2, [r3]
 185:.\Generated_Source\PSoC4/ADC_1.c ****     ADC_1_SAR_SAMPLE_TIME01_REG = ADC_1_DEFAULT_SAMPLE_TIME01_REG_CFG;
  75              		.loc 1 185 0 discriminator 4
  76 0042 264B     		ldr	r3, .L6+44
  77 0044 264A     		ldr	r2, .L6+48
  78 0046 1360     		str	r3, [r2]
 186:.\Generated_Source\PSoC4/ADC_1.c ****     ADC_1_SAR_SAMPLE_TIME23_REG = ADC_1_DEFAULT_SAMPLE_TIME23_REG_CFG;
  79              		.loc 1 186 0 discriminator 4
  80 0048 264A     		ldr	r2, .L6+52
  81 004a 1360     		str	r3, [r2]
 187:.\Generated_Source\PSoC4/ADC_1.c ****     
 188:.\Generated_Source\PSoC4/ADC_1.c ****     /* Connect Vm to VSSA when even one channel is single-ended or multiple channels configured */
 189:.\Generated_Source\PSoC4/ADC_1.c ****     #if(ADC_1_DEFAULT_MUX_SWITCH0 != 0u)
 190:.\Generated_Source\PSoC4/ADC_1.c ****         ADC_1_MUX_SWITCH0_REG |= ADC_1_DEFAULT_MUX_SWITCH0;
 191:.\Generated_Source\PSoC4/ADC_1.c ****         /* Set MUX_HW_CTRL_VSSA in MUX_SWITCH_HW_CTRL when multiple channels enabled */
 192:.\Generated_Source\PSoC4/ADC_1.c ****         #if(ADC_1_TOTAL_CHANNELS_NUM > 1u)
 193:.\Generated_Source\PSoC4/ADC_1.c ****             ADC_1_MUX_SWITCH_HW_CTRL_REG |= ADC_1_DEFAULT_MUX_SWITCH0;
 194:.\Generated_Source\PSoC4/ADC_1.c ****         #endif /* ADC_1_TOTAL_CHANNELS_NUM > 1u */
 195:.\Generated_Source\PSoC4/ADC_1.c ****     #endif /*ADC_1_CHANNELS_MODE !=0 */
 196:.\Generated_Source\PSoC4/ADC_1.c **** 
 197:.\Generated_Source\PSoC4/ADC_1.c ****     ADC_1_SAR_SATURATE_INTR_MASK_REG = 0u;
  82              		.loc 1 197 0 discriminator 4
  83 004c 0023     		mov	r3, #0
  84 004e 264A     		ldr	r2, .L6+56
  85 0050 1360     		str	r3, [r2]
 198:.\Generated_Source\PSoC4/ADC_1.c ****     ADC_1_SAR_RANGE_INTR_MASK_REG = 0u;
ARM GAS  C:\Users\User\AppData\Local\Temp\ccfDypEy.s 			page 6


  86              		.loc 1 198 0 discriminator 4
  87 0052 264A     		ldr	r2, .L6+60
  88 0054 1360     		str	r3, [r2]
 199:.\Generated_Source\PSoC4/ADC_1.c ****     ADC_1_SAR_INTR_MASK_REG = ADC_1_SAR_INTR_MASK;
  89              		.loc 1 199 0 discriminator 4
  90 0056 0133     		add	r3, r3, #1
  91 0058 254A     		ldr	r2, .L6+64
  92 005a 1360     		str	r3, [r2]
 200:.\Generated_Source\PSoC4/ADC_1.c **** 
 201:.\Generated_Source\PSoC4/ADC_1.c ****     #if(ADC_1_CY_SAR_IP_VER == ADC_1_CY_SAR_IP_VER0)
 202:.\Generated_Source\PSoC4/ADC_1.c ****         ADC_1_ANA_TRIM_REG = ADC_1_TRIM_COEF;
  93              		.loc 1 202 0 discriminator 4
  94 005c 0221     		mov	r1, #2
  95 005e 254A     		ldr	r2, .L6+68
  96 0060 1160     		str	r1, [r2]
 203:.\Generated_Source\PSoC4/ADC_1.c ****     #endif /* (ADC_1_CY_SAR_IP_VER == ADC_1_CY_SAR_IP_VER0) */
 204:.\Generated_Source\PSoC4/ADC_1.c **** 
 205:.\Generated_Source\PSoC4/ADC_1.c ****     /* Read and modify default configuration based on characterization */
 206:.\Generated_Source\PSoC4/ADC_1.c ****     tmpRegVal = ADC_1_SAR_DFT_CTRL_REG;
  97              		.loc 1 206 0 discriminator 4
  98 0062 2548     		ldr	r0, .L6+72
  99 0064 0468     		ldr	r4, [r0]
 100              	.LVL2:
 207:.\Generated_Source\PSoC4/ADC_1.c ****     tmpRegVal &= (uint32)~ADC_1_DCEN;
 101              		.loc 1 207 0 discriminator 4
 102 0066 254A     		ldr	r2, .L6+76
 103 0068 2240     		and	r2, r4
 104              	.LVL3:
 208:.\Generated_Source\PSoC4/ADC_1.c ****     
 209:.\Generated_Source\PSoC4/ADC_1.c ****     #if(ADC_1_CY_SAR_IP_VER == ADC_1_CY_SAR_IP_VER0)
 210:.\Generated_Source\PSoC4/ADC_1.c ****         #if(ADC_1_NOMINAL_CLOCK_FREQ > (ADC_1_MAX_FREQUENCY / 2))
 211:.\Generated_Source\PSoC4/ADC_1.c ****             tmpRegVal |= ADC_1_SEL_CSEL_DFT_CHAR;
 212:.\Generated_Source\PSoC4/ADC_1.c ****         #else  /* clock speed < 9 Mhz */
 213:.\Generated_Source\PSoC4/ADC_1.c ****             tmpRegVal |= ADC_1_DLY_INC;
 105              		.loc 1 213 0 discriminator 4
 106 006a 1343     		orr	r3, r2
 107              	.LVL4:
 214:.\Generated_Source\PSoC4/ADC_1.c ****         #endif /* clock speed > 9 Mhz */
 215:.\Generated_Source\PSoC4/ADC_1.c ****     #else
 216:.\Generated_Source\PSoC4/ADC_1.c ****         #if ((ADC_1_DEFAULT_VREF_SEL == ADC_1__INTERNAL1024) || \
 217:.\Generated_Source\PSoC4/ADC_1.c ****              (ADC_1_DEFAULT_VREF_SEL == ADC_1__INTERNALVREF))
 218:.\Generated_Source\PSoC4/ADC_1.c ****             tmpRegVal |= ADC_1_DLY_INC;
 219:.\Generated_Source\PSoC4/ADC_1.c ****         #else
 220:.\Generated_Source\PSoC4/ADC_1.c ****             tmpRegVal |= ADC_1_DCEN;
 221:.\Generated_Source\PSoC4/ADC_1.c ****             tmpRegVal &= (uint32)~ADC_1_DLY_INC;
 222:.\Generated_Source\PSoC4/ADC_1.c ****         #endif /* ((ADC_1_DEFAULT_VREF_SEL == ADC_1__INTERNAL1024) || \
 223:.\Generated_Source\PSoC4/ADC_1.c ****                    (ADC_1_DEFAULT_VREF_SEL == ADC_1__INTERNALVREF)) */
 224:.\Generated_Source\PSoC4/ADC_1.c ****     #endif /* (ADC_1_CY_SAR_IP_VER == ADC_1_CY_SAR_IP_VER0) */
 225:.\Generated_Source\PSoC4/ADC_1.c ****     
 226:.\Generated_Source\PSoC4/ADC_1.c ****     ADC_1_SAR_DFT_CTRL_REG = tmpRegVal;
 108              		.loc 1 226 0 discriminator 4
 109 006c 0360     		str	r3, [r0]
 227:.\Generated_Source\PSoC4/ADC_1.c **** 
 228:.\Generated_Source\PSoC4/ADC_1.c ****     #if(ADC_1_MAX_RESOLUTION != ADC_1_RESOLUTION_12)
 229:.\Generated_Source\PSoC4/ADC_1.c ****         ADC_1_WOUNDING_REG = ADC_1_ALT_WOUNDING;
 110              		.loc 1 229 0 discriminator 4
 111 006e 244B     		ldr	r3, .L6+80
ARM GAS  C:\Users\User\AppData\Local\Temp\ccfDypEy.s 			page 7


 112              	.LVL5:
 113 0070 1960     		str	r1, [r3]
 114              	.LVL6:
 230:.\Generated_Source\PSoC4/ADC_1.c ****     #endif /* ADC_1_MAX_RESOLUTION != ADC_1_RESOLUTION_12 */
 231:.\Generated_Source\PSoC4/ADC_1.c **** 
 232:.\Generated_Source\PSoC4/ADC_1.c ****     for(chNum = 0u; chNum < ADC_1_TOTAL_CHANNELS_NUM; chNum++)
 115              		.loc 1 232 0 discriminator 4
 116 0072 0023     		mov	r3, #0
 117              	.LVL7:
 118 0074 18E0     		b	.L3
 119              	.LVL8:
 120              	.L4:
 233:.\Generated_Source\PSoC4/ADC_1.c ****     {
 234:.\Generated_Source\PSoC4/ADC_1.c ****         tmpRegVal = (ADC_1_channelsConfig[chNum] & ADC_1_CHANNEL_CONFIG_MASK);
 235:.\Generated_Source\PSoC4/ADC_1.c ****         #if(ADC_1_TOTAL_CHANNELS_NUM > 1u)
 236:.\Generated_Source\PSoC4/ADC_1.c ****             tmpRegVal |= ADC_1_InputsPlacement[chNum];
 237:.\Generated_Source\PSoC4/ADC_1.c ****         #endif /* End ADC_1_TOTAL_CHANNELS_NUM > 1u */
 238:.\Generated_Source\PSoC4/ADC_1.c ****         
 239:.\Generated_Source\PSoC4/ADC_1.c ****         
 240:.\Generated_Source\PSoC4/ADC_1.c ****         /* When the part is limited to 10-bit then the SUB_RESOLUTION bit
 241:.\Generated_Source\PSoC4/ADC_1.c ****         *  will be ignored and the RESOLUTION bit selects between 10-bit
 242:.\Generated_Source\PSoC4/ADC_1.c ****         *  (0) and 8-bit (1) resolution.
 243:.\Generated_Source\PSoC4/ADC_1.c ****         */
 244:.\Generated_Source\PSoC4/ADC_1.c ****         #if((ADC_1_MAX_RESOLUTION != ADC_1_RESOLUTION_12) && \
 245:.\Generated_Source\PSoC4/ADC_1.c ****             (ADC_1_ALT_WOUNDING == ADC_1_WOUNDING_10BIT))
 246:.\Generated_Source\PSoC4/ADC_1.c ****             tmpRegVal &= (uint32)(~ADC_1_ALT_RESOLUTION_ON);
 247:.\Generated_Source\PSoC4/ADC_1.c ****         #endif /* ADC_1_MAX_RESOLUTION != ADC_1_RESOLUTION_12 */
 248:.\Generated_Source\PSoC4/ADC_1.c **** 
 249:.\Generated_Source\PSoC4/ADC_1.c ****         #if(ADC_1_INJ_CHANNEL_ENABLED)
 250:.\Generated_Source\PSoC4/ADC_1.c ****         if(chNum < ADC_1_SEQUENCED_CHANNELS_NUM)
 251:.\Generated_Source\PSoC4/ADC_1.c ****         #endif /* ADC_1_INJ_CHANNEL_ENABLED */
 252:.\Generated_Source\PSoC4/ADC_1.c ****         {
 253:.\Generated_Source\PSoC4/ADC_1.c ****             CY_SET_REG32((reg32 *)(ADC_1_SAR_CHAN_CONFIG_IND + (uint32)(chNum << 2)), tmpRegVal);
 121              		.loc 1 253 0
 122 0076 9A00     		lsl	r2, r3, #2
 123 0078 2249     		ldr	r1, .L6+84
 124 007a 8C46     		mov	ip, r1
 125 007c 6244     		add	r2, r2, ip
 126 007e E021     		mov	r1, #224
 127 0080 C900     		lsl	r1, r1, #3
 128 0082 1160     		str	r1, [r2]
 254:.\Generated_Source\PSoC4/ADC_1.c **** 
 255:.\Generated_Source\PSoC4/ADC_1.c ****             if((ADC_1_channelsConfig[chNum] & ADC_1_IS_SATURATE_EN_MASK) != 0u)
 256:.\Generated_Source\PSoC4/ADC_1.c ****             {
 257:.\Generated_Source\PSoC4/ADC_1.c ****                 ADC_1_SAR_SATURATE_INTR_MASK_REG |= (uint16)((uint16)1 << chNum);
 129              		.loc 1 257 0
 130 0084 1848     		ldr	r0, .L6+56
 131 0086 0468     		ldr	r4, [r0]
 132 0088 8021     		mov	r1, #128
 133 008a 4902     		lsl	r1, r1, #9
 134 008c 0A1C     		mov	r2, r1
 135 008e 9A40     		lsl	r2, r2, r3
 136 0090 120C     		lsr	r2, r2, #16
 137 0092 2243     		orr	r2, r4
 138 0094 0260     		str	r2, [r0]
 139              	.LVL9:
 258:.\Generated_Source\PSoC4/ADC_1.c ****             }
ARM GAS  C:\Users\User\AppData\Local\Temp\ccfDypEy.s 			page 8


 259:.\Generated_Source\PSoC4/ADC_1.c **** 
 260:.\Generated_Source\PSoC4/ADC_1.c ****             if((ADC_1_channelsConfig[chNum] & ADC_1_IS_RANGE_CTRL_EN_MASK) != 0u)
 261:.\Generated_Source\PSoC4/ADC_1.c ****             {
 262:.\Generated_Source\PSoC4/ADC_1.c ****                 ADC_1_SAR_RANGE_INTR_MASK_REG |= (uint16)((uint16)1 << chNum);
 263:.\Generated_Source\PSoC4/ADC_1.c ****             }
 264:.\Generated_Source\PSoC4/ADC_1.c ****         }
 265:.\Generated_Source\PSoC4/ADC_1.c ****         #if(ADC_1_INJ_CHANNEL_ENABLED)
 266:.\Generated_Source\PSoC4/ADC_1.c ****             else
 267:.\Generated_Source\PSoC4/ADC_1.c ****             {
 268:.\Generated_Source\PSoC4/ADC_1.c ****                 CY_SET_REG32(ADC_1_SAR_INJ_CHAN_CONFIG_PTR, tmpRegVal | ADC_1_INJ_TAILGATING);
 269:.\Generated_Source\PSoC4/ADC_1.c **** 
 270:.\Generated_Source\PSoC4/ADC_1.c ****                 if((ADC_1_channelsConfig[chNum] & ADC_1_IS_SATURATE_EN_MASK) != 0u)
 271:.\Generated_Source\PSoC4/ADC_1.c ****                 {
 272:.\Generated_Source\PSoC4/ADC_1.c ****                     ADC_1_SAR_INTR_MASK_REG |= ADC_1_INJ_SATURATE_MASK;
 273:.\Generated_Source\PSoC4/ADC_1.c ****                 }
 274:.\Generated_Source\PSoC4/ADC_1.c **** 
 275:.\Generated_Source\PSoC4/ADC_1.c ****                 if((ADC_1_channelsConfig[chNum] & ADC_1_IS_RANGE_CTRL_EN_MASK) != 0u)
 276:.\Generated_Source\PSoC4/ADC_1.c ****                 {
 277:.\Generated_Source\PSoC4/ADC_1.c ****                     ADC_1_SAR_INTR_MASK_REG |= ADC_1_INJ_RANGE_MASK;
 278:.\Generated_Source\PSoC4/ADC_1.c ****                 }
 279:.\Generated_Source\PSoC4/ADC_1.c ****             }
 280:.\Generated_Source\PSoC4/ADC_1.c ****         #endif /* ADC_1_INJ_CHANNEL_ENABLED */
 281:.\Generated_Source\PSoC4/ADC_1.c **** 
 282:.\Generated_Source\PSoC4/ADC_1.c ****         if((ADC_1_channelsConfig[chNum] & ADC_1_ALT_RESOLUTION_ON) != 0u)
 283:.\Generated_Source\PSoC4/ADC_1.c ****         {
 284:.\Generated_Source\PSoC4/ADC_1.c ****                counts = (int32)ADC_1_DEFAULT_MAX_WRK_ALT;
 285:.\Generated_Source\PSoC4/ADC_1.c ****         }
 286:.\Generated_Source\PSoC4/ADC_1.c ****         else
 287:.\Generated_Source\PSoC4/ADC_1.c ****         {
 288:.\Generated_Source\PSoC4/ADC_1.c ****                counts = (int32)ADC_1_SAR_WRK_MAX_12BIT;
 289:.\Generated_Source\PSoC4/ADC_1.c ****         }
 290:.\Generated_Source\PSoC4/ADC_1.c **** 
 291:.\Generated_Source\PSoC4/ADC_1.c ****         if((ADC_1_channelsConfig[chNum] & ADC_1_DIFFERENTIAL_EN) == 0u)
 292:.\Generated_Source\PSoC4/ADC_1.c ****         {
 293:.\Generated_Source\PSoC4/ADC_1.c ****             #if((ADC_1_DEFAULT_SE_RESULT_FORMAT_SEL == ADC_1__FSIGNED) && \
 294:.\Generated_Source\PSoC4/ADC_1.c ****                 (ADC_1_DEFAULT_NEG_INPUT_SEL == ADC_1__VREF))
 295:.\Generated_Source\PSoC4/ADC_1.c ****                 /* Set offset to the minus half scale to convert results to unsigned format */
 296:.\Generated_Source\PSoC4/ADC_1.c ****                 ADC_1_offset[chNum] = (int16)(counts / -2);
 297:.\Generated_Source\PSoC4/ADC_1.c ****             #else
 298:.\Generated_Source\PSoC4/ADC_1.c ****                 ADC_1_offset[chNum] = 0;
 299:.\Generated_Source\PSoC4/ADC_1.c ****             #endif /* end DEFAULT_SE_RESULT_FORMAT_SEL == ADC_1__FSIGNED */
 300:.\Generated_Source\PSoC4/ADC_1.c ****         }
 301:.\Generated_Source\PSoC4/ADC_1.c ****         else    /* Differential channel */
 302:.\Generated_Source\PSoC4/ADC_1.c ****         {
 303:.\Generated_Source\PSoC4/ADC_1.c ****             #if(ADC_1_DEFAULT_DIFF_RESULT_FORMAT_SEL == ADC_1__FUNSIGNED)
 304:.\Generated_Source\PSoC4/ADC_1.c ****                 /* Set offset to the half scale to convert results to signed format */
 305:.\Generated_Source\PSoC4/ADC_1.c ****                 ADC_1_offset[chNum] = (int16)(counts / 2);
 306:.\Generated_Source\PSoC4/ADC_1.c ****             #else
 307:.\Generated_Source\PSoC4/ADC_1.c ****                 ADC_1_offset[chNum] = 0;
 140              		.loc 1 307 0
 141 0096 5900     		lsl	r1, r3, #1
 142 0098 0020     		mov	r0, #0
 143 009a 1B4A     		ldr	r2, .L6+88
 144 009c 8852     		strh	r0, [r1, r2]
 308:.\Generated_Source\PSoC4/ADC_1.c ****             #endif /* end ADC_1_DEFAULT_DIFF_RESULT_FORMAT_SEL == ADC_1__FUNSIGNED */
 309:.\Generated_Source\PSoC4/ADC_1.c ****         }
 310:.\Generated_Source\PSoC4/ADC_1.c ****         /* Calculate gain in counts per 10 volts with rounding */
ARM GAS  C:\Users\User\AppData\Local\Temp\ccfDypEy.s 			page 9


 311:.\Generated_Source\PSoC4/ADC_1.c ****         ADC_1_countsPer10Volt[chNum] = (int16)(((counts * ADC_1_10MV_COUNTS) +
 145              		.loc 1 311 0
 146 009e 9900     		lsl	r1, r3, #2
 147 00a0 1A48     		ldr	r0, .L6+92
 148 00a2 1B4A     		ldr	r2, .L6+96
 149 00a4 8850     		str	r0, [r1, r2]
 232:.\Generated_Source\PSoC4/ADC_1.c ****     {
 150              		.loc 1 232 0
 151 00a6 0133     		add	r3, r3, #1
 152              	.LVL10:
 153              	.L3:
 232:.\Generated_Source\PSoC4/ADC_1.c ****     {
 154              		.loc 1 232 0 is_stmt 0 discriminator 1
 155 00a8 002B     		cmp	r3, #0
 156 00aa E4D0     		beq	.L4
 312:.\Generated_Source\PSoC4/ADC_1.c ****                             ADC_1_DEFAULT_VREF_MV_VALUE) / (ADC_1_DEFAULT_VREF_MV_VALUE * 2));
 313:.\Generated_Source\PSoC4/ADC_1.c ****     }
 314:.\Generated_Source\PSoC4/ADC_1.c **** }
 157              		.loc 1 314 0 is_stmt 1
 158              		@ sp needed
 159 00ac 10BD     		pop	{r4, pc}
 160              	.L7:
 161 00ae C046     		.align	2
 162              	.L6:
 163 00b0 00000000 		.word	ADC_1_ISR
 164 00b4 20001A40 		.word	1075445792
 165 00b8 80031A40 		.word	1075446656
 166 00bc 40021053 		.word	1393558080
 167 00c0 40020053 		.word	1392509504
 168 00c4 00001A40 		.word	1075445760
 169 00c8 2C000080 		.word	-2147483604
 170 00cc 04001A40 		.word	1075445764
 171 00d0 0000FF07 		.word	134152192
 172 00d4 18001A40 		.word	1075445784
 173 00d8 1C001A40 		.word	1075445788
 174 00dc 02000200 		.word	131074
 175 00e0 10001A40 		.word	1075445776
 176 00e4 14001A40 		.word	1075445780
 177 00e8 28021A40 		.word	1075446312
 178 00ec 38021A40 		.word	1075446328
 179 00f0 18021A40 		.word	1075446296
 180 00f4 000F1A40 		.word	1075449600
 181 00f8 30001A40 		.word	1075445808
 182 00fc FFFFFFDF 		.word	-536870913
 183 0100 040F1A40 		.word	1075449604
 184 0104 80001A40 		.word	1075445888
 185 0108 00000000 		.word	ADC_1_offset
 186 010c E2040000 		.word	1250
 187 0110 00000000 		.word	ADC_1_countsPer10Volt
 188              		.cfi_endproc
 189              	.LFE1:
 190              		.size	ADC_1_Init, .-ADC_1_Init
 191              		.section	.text.ADC_1_Enable,"ax",%progbits
 192              		.align	2
 193              		.global	ADC_1_Enable
 194              		.code	16
 195              		.thumb_func
ARM GAS  C:\Users\User\AppData\Local\Temp\ccfDypEy.s 			page 10


 196              		.type	ADC_1_Enable, %function
 197              	ADC_1_Enable:
 198              	.LFB2:
 315:.\Generated_Source\PSoC4/ADC_1.c **** 
 316:.\Generated_Source\PSoC4/ADC_1.c **** /*******************************************************************************
 317:.\Generated_Source\PSoC4/ADC_1.c **** * Function Name: ADC_SAR_1_Enable
 318:.\Generated_Source\PSoC4/ADC_1.c **** ********************************************************************************
 319:.\Generated_Source\PSoC4/ADC_1.c **** *
 320:.\Generated_Source\PSoC4/ADC_1.c **** * Summary:
 321:.\Generated_Source\PSoC4/ADC_1.c **** *  Enables the clock and analog power for SAR ADC.
 322:.\Generated_Source\PSoC4/ADC_1.c **** *
 323:.\Generated_Source\PSoC4/ADC_1.c **** * Parameters:
 324:.\Generated_Source\PSoC4/ADC_1.c **** *  None.
 325:.\Generated_Source\PSoC4/ADC_1.c **** *
 326:.\Generated_Source\PSoC4/ADC_1.c **** * Return:
 327:.\Generated_Source\PSoC4/ADC_1.c **** *  None.
 328:.\Generated_Source\PSoC4/ADC_1.c **** *
 329:.\Generated_Source\PSoC4/ADC_1.c **** *******************************************************************************/
 330:.\Generated_Source\PSoC4/ADC_1.c **** void ADC_1_Enable(void)
 331:.\Generated_Source\PSoC4/ADC_1.c **** {
 199              		.loc 1 331 0
 200              		.cfi_startproc
 201 0000 08B5     		push	{r3, lr}
 202              		.cfi_def_cfa_offset 8
 203              		.cfi_offset 3, -8
 204              		.cfi_offset 14, -4
 332:.\Generated_Source\PSoC4/ADC_1.c ****     if (0u == (ADC_1_SAR_CTRL_REG & ADC_1_ENABLE))
 205              		.loc 1 332 0
 206 0002 074B     		ldr	r3, .L10
 207 0004 1B68     		ldr	r3, [r3]
 208 0006 002B     		cmp	r3, #0
 209 0008 08DB     		blt	.L8
 333:.\Generated_Source\PSoC4/ADC_1.c ****     {
 334:.\Generated_Source\PSoC4/ADC_1.c ****         #if(ADC_1_CY_SAR_IP_VER != ADC_1_CY_SAR_IP_VER0)
 335:.\Generated_Source\PSoC4/ADC_1.c **** 
 336:.\Generated_Source\PSoC4/ADC_1.c ****             while (0u != (ADC_1_SAR_STATUS_REG & ADC_1_STATUS_BUSY))
 337:.\Generated_Source\PSoC4/ADC_1.c ****             {
 338:.\Generated_Source\PSoC4/ADC_1.c ****                 /* wait for SAR to go idle to avoid deadlock */
 339:.\Generated_Source\PSoC4/ADC_1.c ****             }
 340:.\Generated_Source\PSoC4/ADC_1.c ****         #endif /* (ADC_1_CY_SAR_IP_VER != ADC_1_CY_SAR_IP_VER0) */
 341:.\Generated_Source\PSoC4/ADC_1.c ****         
 342:.\Generated_Source\PSoC4/ADC_1.c ****         ADC_1_SAR_CTRL_REG |= ADC_1_ENABLE;
 210              		.loc 1 342 0
 211 000a 054A     		ldr	r2, .L10
 212 000c 1368     		ldr	r3, [r2]
 213 000e 8021     		mov	r1, #128
 214 0010 0906     		lsl	r1, r1, #24
 215 0012 0B43     		orr	r3, r1
 216 0014 1360     		str	r3, [r2]
 343:.\Generated_Source\PSoC4/ADC_1.c ****         
 344:.\Generated_Source\PSoC4/ADC_1.c ****         /* The block is ready to use 10 us after the enable signal is set high. */
 345:.\Generated_Source\PSoC4/ADC_1.c ****         CyDelayUs(ADC_1_10US_DELAY);         
 217              		.loc 1 345 0
 218 0016 0A20     		mov	r0, #10
 219 0018 FFF7FEFF 		bl	CyDelayUs
 220              	.LVL11:
 221              	.L8:
ARM GAS  C:\Users\User\AppData\Local\Temp\ccfDypEy.s 			page 11


 346:.\Generated_Source\PSoC4/ADC_1.c ****     }
 347:.\Generated_Source\PSoC4/ADC_1.c **** }
 222              		.loc 1 347 0
 223              		@ sp needed
 224 001c 08BD     		pop	{r3, pc}
 225              	.L11:
 226 001e C046     		.align	2
 227              	.L10:
 228 0020 00001A40 		.word	1075445760
 229              		.cfi_endproc
 230              	.LFE2:
 231              		.size	ADC_1_Enable, .-ADC_1_Enable
 232              		.section	.text.ADC_1_Start,"ax",%progbits
 233              		.align	2
 234              		.global	ADC_1_Start
 235              		.code	16
 236              		.thumb_func
 237              		.type	ADC_1_Start, %function
 238              	ADC_1_Start:
 239              	.LFB0:
  64:.\Generated_Source\PSoC4/ADC_1.c ****     /* If not Initialized then initialize all required hardware and software */
 240              		.loc 1 64 0
 241              		.cfi_startproc
 242 0000 08B5     		push	{r3, lr}
 243              		.cfi_def_cfa_offset 8
 244              		.cfi_offset 3, -8
 245              		.cfi_offset 14, -4
  66:.\Generated_Source\PSoC4/ADC_1.c ****     {
 246              		.loc 1 66 0
 247 0002 064B     		ldr	r3, .L14
 248 0004 1B78     		ldrb	r3, [r3]
 249 0006 002B     		cmp	r3, #0
 250 0008 04D1     		bne	.L13
  68:.\Generated_Source\PSoC4/ADC_1.c ****         ADC_1_initVar = 1u;
 251              		.loc 1 68 0
 252 000a FFF7FEFF 		bl	ADC_1_Init
 253              	.LVL12:
  69:.\Generated_Source\PSoC4/ADC_1.c ****     }
 254              		.loc 1 69 0
 255 000e 0122     		mov	r2, #1
 256 0010 024B     		ldr	r3, .L14
 257 0012 1A70     		strb	r2, [r3]
 258              	.L13:
  71:.\Generated_Source\PSoC4/ADC_1.c **** }
 259              		.loc 1 71 0
 260 0014 FFF7FEFF 		bl	ADC_1_Enable
 261              	.LVL13:
  72:.\Generated_Source\PSoC4/ADC_1.c **** 
 262              		.loc 1 72 0
 263              		@ sp needed
 264 0018 08BD     		pop	{r3, pc}
 265              	.L15:
 266 001a C046     		.align	2
 267              	.L14:
 268 001c 00000000 		.word	.LANCHOR0
 269              		.cfi_endproc
 270              	.LFE0:
ARM GAS  C:\Users\User\AppData\Local\Temp\ccfDypEy.s 			page 12


 271              		.size	ADC_1_Start, .-ADC_1_Start
 272              		.section	.text.ADC_1_Stop,"ax",%progbits
 273              		.align	2
 274              		.global	ADC_1_Stop
 275              		.code	16
 276              		.thumb_func
 277              		.type	ADC_1_Stop, %function
 278              	ADC_1_Stop:
 279              	.LFB3:
 348:.\Generated_Source\PSoC4/ADC_1.c **** 
 349:.\Generated_Source\PSoC4/ADC_1.c **** 
 350:.\Generated_Source\PSoC4/ADC_1.c **** /*******************************************************************************
 351:.\Generated_Source\PSoC4/ADC_1.c **** * Function Name: ADC_1_Stop
 352:.\Generated_Source\PSoC4/ADC_1.c **** ********************************************************************************
 353:.\Generated_Source\PSoC4/ADC_1.c **** *
 354:.\Generated_Source\PSoC4/ADC_1.c **** * Summary:
 355:.\Generated_Source\PSoC4/ADC_1.c **** *  This function stops ADC conversions and puts the ADC into its lowest power
 356:.\Generated_Source\PSoC4/ADC_1.c **** *  mode.
 357:.\Generated_Source\PSoC4/ADC_1.c **** *
 358:.\Generated_Source\PSoC4/ADC_1.c **** * Parameters:
 359:.\Generated_Source\PSoC4/ADC_1.c **** *  None.
 360:.\Generated_Source\PSoC4/ADC_1.c **** *
 361:.\Generated_Source\PSoC4/ADC_1.c **** * Return:
 362:.\Generated_Source\PSoC4/ADC_1.c **** *  None.
 363:.\Generated_Source\PSoC4/ADC_1.c **** *
 364:.\Generated_Source\PSoC4/ADC_1.c **** *******************************************************************************/
 365:.\Generated_Source\PSoC4/ADC_1.c **** void ADC_1_Stop(void)
 366:.\Generated_Source\PSoC4/ADC_1.c **** {
 280              		.loc 1 366 0
 281              		.cfi_startproc
 367:.\Generated_Source\PSoC4/ADC_1.c ****     ADC_1_SAR_CTRL_REG &= (uint32)~ADC_1_ENABLE;
 282              		.loc 1 367 0
 283 0000 024A     		ldr	r2, .L17
 284 0002 1368     		ldr	r3, [r2]
 285 0004 5B00     		lsl	r3, r3, #1
 286 0006 5B08     		lsr	r3, r3, #1
 287 0008 1360     		str	r3, [r2]
 368:.\Generated_Source\PSoC4/ADC_1.c **** }
 288              		.loc 1 368 0
 289              		@ sp needed
 290 000a 7047     		bx	lr
 291              	.L18:
 292              		.align	2
 293              	.L17:
 294 000c 00001A40 		.word	1075445760
 295              		.cfi_endproc
 296              	.LFE3:
 297              		.size	ADC_1_Stop, .-ADC_1_Stop
 298              		.section	.text.ADC_1_StartConvert,"ax",%progbits
 299              		.align	2
 300              		.global	ADC_1_StartConvert
 301              		.code	16
 302              		.thumb_func
 303              		.type	ADC_1_StartConvert, %function
 304              	ADC_1_StartConvert:
 305              	.LFB4:
 369:.\Generated_Source\PSoC4/ADC_1.c **** 
ARM GAS  C:\Users\User\AppData\Local\Temp\ccfDypEy.s 			page 13


 370:.\Generated_Source\PSoC4/ADC_1.c **** 
 371:.\Generated_Source\PSoC4/ADC_1.c **** /*******************************************************************************
 372:.\Generated_Source\PSoC4/ADC_1.c **** * Function Name: ADC_1_StartConvert
 373:.\Generated_Source\PSoC4/ADC_1.c **** ********************************************************************************
 374:.\Generated_Source\PSoC4/ADC_1.c **** *
 375:.\Generated_Source\PSoC4/ADC_1.c **** * Summary:
 376:.\Generated_Source\PSoC4/ADC_1.c **** *  Description:
 377:.\Generated_Source\PSoC4/ADC_1.c **** *  For free running mode, this API starts the conversion process and it
 378:.\Generated_Source\PSoC4/ADC_1.c **** *  runs continuously.
 379:.\Generated_Source\PSoC4/ADC_1.c **** *
 380:.\Generated_Source\PSoC4/ADC_1.c **** *  In a triggered mode, this routine triggers every conversion by
 381:.\Generated_Source\PSoC4/ADC_1.c **** *  writing into the FW_TRIGGER bit in SAR_START_CTRL reg. In triggered mode,
 382:.\Generated_Source\PSoC4/ADC_1.c **** *  every conversion has to start by this API.
 383:.\Generated_Source\PSoC4/ADC_1.c **** *
 384:.\Generated_Source\PSoC4/ADC_1.c **** * Parameters:
 385:.\Generated_Source\PSoC4/ADC_1.c **** *  None.
 386:.\Generated_Source\PSoC4/ADC_1.c **** *
 387:.\Generated_Source\PSoC4/ADC_1.c **** * Return:
 388:.\Generated_Source\PSoC4/ADC_1.c **** *  None.
 389:.\Generated_Source\PSoC4/ADC_1.c **** *
 390:.\Generated_Source\PSoC4/ADC_1.c **** *******************************************************************************/
 391:.\Generated_Source\PSoC4/ADC_1.c **** void ADC_1_StartConvert(void)
 392:.\Generated_Source\PSoC4/ADC_1.c **** {
 306              		.loc 1 392 0
 307              		.cfi_startproc
 393:.\Generated_Source\PSoC4/ADC_1.c ****     #if(ADC_1_DEFAULT_SAMPLE_MODE_SEL == ADC_1__FREERUNNING)
 394:.\Generated_Source\PSoC4/ADC_1.c ****         ADC_1_SAR_SAMPLE_CTRL_REG |= ADC_1_CONTINUOUS_EN;
 308              		.loc 1 394 0
 309 0000 034A     		ldr	r2, .L20
 310 0002 1368     		ldr	r3, [r2]
 311 0004 8021     		mov	r1, #128
 312 0006 4902     		lsl	r1, r1, #9
 313 0008 0B43     		orr	r3, r1
 314 000a 1360     		str	r3, [r2]
 395:.\Generated_Source\PSoC4/ADC_1.c ****     #else /* Firmware trigger */
 396:.\Generated_Source\PSoC4/ADC_1.c ****         ADC_1_SAR_START_CTRL_REG = ADC_1_FW_TRIGGER;
 397:.\Generated_Source\PSoC4/ADC_1.c ****     #endif /* End ADC_1_DEFAULT_SAMPLE_MODE == ADC_1__FREERUNNING */
 398:.\Generated_Source\PSoC4/ADC_1.c **** 
 399:.\Generated_Source\PSoC4/ADC_1.c **** }
 315              		.loc 1 399 0
 316              		@ sp needed
 317 000c 7047     		bx	lr
 318              	.L21:
 319 000e C046     		.align	2
 320              	.L20:
 321 0010 04001A40 		.word	1075445764
 322              		.cfi_endproc
 323              	.LFE4:
 324              		.size	ADC_1_StartConvert, .-ADC_1_StartConvert
 325              		.section	.text.ADC_1_StopConvert,"ax",%progbits
 326              		.align	2
 327              		.global	ADC_1_StopConvert
 328              		.code	16
 329              		.thumb_func
 330              		.type	ADC_1_StopConvert, %function
 331              	ADC_1_StopConvert:
 332              	.LFB5:
ARM GAS  C:\Users\User\AppData\Local\Temp\ccfDypEy.s 			page 14


 400:.\Generated_Source\PSoC4/ADC_1.c **** 
 401:.\Generated_Source\PSoC4/ADC_1.c **** 
 402:.\Generated_Source\PSoC4/ADC_1.c **** /*******************************************************************************
 403:.\Generated_Source\PSoC4/ADC_1.c **** * Function Name: ADC_1_StopConvert
 404:.\Generated_Source\PSoC4/ADC_1.c **** ********************************************************************************
 405:.\Generated_Source\PSoC4/ADC_1.c **** *
 406:.\Generated_Source\PSoC4/ADC_1.c **** * Summary:
 407:.\Generated_Source\PSoC4/ADC_1.c **** *  Forces the ADC to stop all conversions.
 408:.\Generated_Source\PSoC4/ADC_1.c **** *
 409:.\Generated_Source\PSoC4/ADC_1.c **** * Parameters:
 410:.\Generated_Source\PSoC4/ADC_1.c **** *  None.
 411:.\Generated_Source\PSoC4/ADC_1.c **** *
 412:.\Generated_Source\PSoC4/ADC_1.c **** * Return:
 413:.\Generated_Source\PSoC4/ADC_1.c **** *  None.
 414:.\Generated_Source\PSoC4/ADC_1.c **** *
 415:.\Generated_Source\PSoC4/ADC_1.c **** *******************************************************************************/
 416:.\Generated_Source\PSoC4/ADC_1.c **** void ADC_1_StopConvert(void)
 417:.\Generated_Source\PSoC4/ADC_1.c **** {
 333              		.loc 1 417 0
 334              		.cfi_startproc
 418:.\Generated_Source\PSoC4/ADC_1.c ****     #if(ADC_1_DEFAULT_SAMPLE_MODE_SEL == ADC_1__FREERUNNING)
 419:.\Generated_Source\PSoC4/ADC_1.c ****         ADC_1_SAR_SAMPLE_CTRL_REG &= (uint32)(~ADC_1_CONTINUOUS_EN);
 335              		.loc 1 419 0
 336 0000 024A     		ldr	r2, .L23
 337 0002 1168     		ldr	r1, [r2]
 338 0004 024B     		ldr	r3, .L23+4
 339 0006 0B40     		and	r3, r1
 340 0008 1360     		str	r3, [r2]
 420:.\Generated_Source\PSoC4/ADC_1.c ****     #endif /* ADC_1_DEFAULT_SAMPLE_MODE == ADC_1__FREERUNNING */
 421:.\Generated_Source\PSoC4/ADC_1.c **** }
 341              		.loc 1 421 0
 342              		@ sp needed
 343 000a 7047     		bx	lr
 344              	.L24:
 345              		.align	2
 346              	.L23:
 347 000c 04001A40 		.word	1075445764
 348 0010 FFFFFEFF 		.word	-65537
 349              		.cfi_endproc
 350              	.LFE5:
 351              		.size	ADC_1_StopConvert, .-ADC_1_StopConvert
 352              		.section	.text.ADC_1_IsEndConversion,"ax",%progbits
 353              		.align	2
 354              		.global	ADC_1_IsEndConversion
 355              		.code	16
 356              		.thumb_func
 357              		.type	ADC_1_IsEndConversion, %function
 358              	ADC_1_IsEndConversion:
 359              	.LFB6:
 422:.\Generated_Source\PSoC4/ADC_1.c **** 
 423:.\Generated_Source\PSoC4/ADC_1.c **** 
 424:.\Generated_Source\PSoC4/ADC_1.c **** /*******************************************************************************
 425:.\Generated_Source\PSoC4/ADC_1.c **** * Function Name: ADC_1_IsEndConversion
 426:.\Generated_Source\PSoC4/ADC_1.c **** ********************************************************************************
 427:.\Generated_Source\PSoC4/ADC_1.c **** *
 428:.\Generated_Source\PSoC4/ADC_1.c **** * Summary:
 429:.\Generated_Source\PSoC4/ADC_1.c **** *  Description: Checks for ADC end of conversion for the case one
ARM GAS  C:\Users\User\AppData\Local\Temp\ccfDypEy.s 			page 15


 430:.\Generated_Source\PSoC4/ADC_1.c **** *  channel and end of scan for the case of multiple channels. It acts
 431:.\Generated_Source\PSoC4/ADC_1.c **** *  as a software version of the EOC. This function provides the
 432:.\Generated_Source\PSoC4/ADC_1.c **** *  programmer with two options. In one mode this function
 433:.\Generated_Source\PSoC4/ADC_1.c **** *  immediately returns with the conversion status. In the other mode,
 434:.\Generated_Source\PSoC4/ADC_1.c **** *  the function does not return (blocking) until the conversion has
 435:.\Generated_Source\PSoC4/ADC_1.c **** *  completed.
 436:.\Generated_Source\PSoC4/ADC_1.c **** *
 437:.\Generated_Source\PSoC4/ADC_1.c **** * Parameters:
 438:.\Generated_Source\PSoC4/ADC_1.c **** *  ADC_RETURN_STATUS        -> Immediately returns conversion result status
 439:.\Generated_Source\PSoC4/ADC_1.c **** *  ADC_WAIT_FOR_RESULT      -> Does not return until ADC complete
 440:.\Generated_Source\PSoC4/ADC_1.c **** *  ADC_RETURN_STATUS_INJ    -> Immediately returns conversion result status
 441:.\Generated_Source\PSoC4/ADC_1.c **** *                              for injection channel
 442:.\Generated_Source\PSoC4/ADC_1.c **** *  ADC_WAIT_FOR_RESULT_INJ  -> Does not return until ADC completes injection
 443:.\Generated_Source\PSoC4/ADC_1.c **** *                              channel conversion
 444:.\Generated_Source\PSoC4/ADC_1.c **** *
 445:.\Generated_Source\PSoC4/ADC_1.c **** * Return:
 446:.\Generated_Source\PSoC4/ADC_1.c **** *  If a non-zero value is returned, the last conversion or scan has completed.
 447:.\Generated_Source\PSoC4/ADC_1.c **** *  If the returned value is zero, the ADC is still in the process of a scan.
 448:.\Generated_Source\PSoC4/ADC_1.c **** *
 449:.\Generated_Source\PSoC4/ADC_1.c **** *******************************************************************************/
 450:.\Generated_Source\PSoC4/ADC_1.c **** uint32 ADC_1_IsEndConversion(uint32 retMode)
 451:.\Generated_Source\PSoC4/ADC_1.c **** {
 360              		.loc 1 451 0
 361              		.cfi_startproc
 362              	.LVL14:
 363 0000 021C     		mov	r2, r0
 364              	.LVL15:
 452:.\Generated_Source\PSoC4/ADC_1.c ****     uint32 status = 0u;
 453:.\Generated_Source\PSoC4/ADC_1.c **** 
 454:.\Generated_Source\PSoC4/ADC_1.c ****     if((retMode & (ADC_1_RETURN_STATUS | ADC_1_WAIT_FOR_RESULT)) != 0u)
 365              		.loc 1 454 0
 366 0002 8307     		lsl	r3, r0, #30
 367 0004 0CD0     		beq	.L29
 368              	.LVL16:
 369              	.L28:
 455:.\Generated_Source\PSoC4/ADC_1.c ****     {
 456:.\Generated_Source\PSoC4/ADC_1.c ****         do
 457:.\Generated_Source\PSoC4/ADC_1.c ****         {
 458:.\Generated_Source\PSoC4/ADC_1.c ****             status = ADC_1_SAR_INTR_REG & ADC_1_EOS_MASK;
 370              		.loc 1 458 0 discriminator 2
 371 0006 074B     		ldr	r3, .L30
 372 0008 1B68     		ldr	r3, [r3]
 373 000a 0120     		mov	r0, #1
 374 000c 1840     		and	r0, r3
 375              	.LVL17:
 459:.\Generated_Source\PSoC4/ADC_1.c ****         }while((status == 0u) && ((retMode & ADC_1_WAIT_FOR_RESULT) != 0u));
 376              		.loc 1 459 0 discriminator 2
 377 000e 01D1     		bne	.L27
 378              		.loc 1 459 0 is_stmt 0 discriminator 1
 379 0010 9307     		lsl	r3, r2, #30
 380 0012 F8D4     		bmi	.L28
 381              	.L27:
 460:.\Generated_Source\PSoC4/ADC_1.c **** 
 461:.\Generated_Source\PSoC4/ADC_1.c ****         if(status != 0u)
 382              		.loc 1 461 0 is_stmt 1
 383 0014 0028     		cmp	r0, #0
 384 0016 04D0     		beq	.L26
ARM GAS  C:\Users\User\AppData\Local\Temp\ccfDypEy.s 			page 16


 462:.\Generated_Source\PSoC4/ADC_1.c ****         {
 463:.\Generated_Source\PSoC4/ADC_1.c ****             /* Clear EOS bit */
 464:.\Generated_Source\PSoC4/ADC_1.c ****             ADC_1_SAR_INTR_REG = ADC_1_EOS_MASK;
 385              		.loc 1 464 0
 386 0018 0122     		mov	r2, #1
 387              	.LVL18:
 388 001a 024B     		ldr	r3, .L30
 389 001c 1A60     		str	r2, [r3]
 390 001e 00E0     		b	.L26
 391              	.LVL19:
 392              	.L29:
 452:.\Generated_Source\PSoC4/ADC_1.c **** 
 393              		.loc 1 452 0
 394 0020 0020     		mov	r0, #0
 395              	.LVL20:
 396              	.L26:
 465:.\Generated_Source\PSoC4/ADC_1.c ****         }
 466:.\Generated_Source\PSoC4/ADC_1.c ****     }
 467:.\Generated_Source\PSoC4/ADC_1.c **** 
 468:.\Generated_Source\PSoC4/ADC_1.c ****     #if(ADC_1_INJ_CHANNEL_ENABLED)
 469:.\Generated_Source\PSoC4/ADC_1.c ****         if((retMode & (ADC_1_RETURN_STATUS_INJ | ADC_1_WAIT_FOR_RESULT_INJ)) != 0u)
 470:.\Generated_Source\PSoC4/ADC_1.c ****         {
 471:.\Generated_Source\PSoC4/ADC_1.c ****             do
 472:.\Generated_Source\PSoC4/ADC_1.c ****             {
 473:.\Generated_Source\PSoC4/ADC_1.c ****                 status |= ADC_1_SAR_INTR_REG & ADC_1_INJ_EOC_MASK;
 474:.\Generated_Source\PSoC4/ADC_1.c ****             }while(((status & ADC_1_INJ_EOC_MASK) == 0u) &&
 475:.\Generated_Source\PSoC4/ADC_1.c ****                    ((retMode & ADC_1_WAIT_FOR_RESULT_INJ) != 0u));
 476:.\Generated_Source\PSoC4/ADC_1.c **** 
 477:.\Generated_Source\PSoC4/ADC_1.c ****             if((status & ADC_1_INJ_EOC_MASK) != 0u)
 478:.\Generated_Source\PSoC4/ADC_1.c ****             {
 479:.\Generated_Source\PSoC4/ADC_1.c ****                 /* Clear Injection EOS bit */
 480:.\Generated_Source\PSoC4/ADC_1.c ****                 ADC_1_SAR_INTR_REG = ADC_1_INJ_EOC_MASK;
 481:.\Generated_Source\PSoC4/ADC_1.c ****             }
 482:.\Generated_Source\PSoC4/ADC_1.c ****         }
 483:.\Generated_Source\PSoC4/ADC_1.c ****     #endif /* ADC_1_INJ_CHANNEL_ENABLED */
 484:.\Generated_Source\PSoC4/ADC_1.c **** 
 485:.\Generated_Source\PSoC4/ADC_1.c ****     return (status);
 486:.\Generated_Source\PSoC4/ADC_1.c **** }
 397              		.loc 1 486 0
 398              		@ sp needed
 399 0022 7047     		bx	lr
 400              	.L31:
 401              		.align	2
 402              	.L30:
 403 0024 10021A40 		.word	1075446288
 404              		.cfi_endproc
 405              	.LFE6:
 406              		.size	ADC_1_IsEndConversion, .-ADC_1_IsEndConversion
 407              		.section	.text.ADC_1_GetResult16,"ax",%progbits
 408              		.align	2
 409              		.global	ADC_1_GetResult16
 410              		.code	16
 411              		.thumb_func
 412              		.type	ADC_1_GetResult16, %function
 413              	ADC_1_GetResult16:
 414              	.LFB7:
 487:.\Generated_Source\PSoC4/ADC_1.c **** 
ARM GAS  C:\Users\User\AppData\Local\Temp\ccfDypEy.s 			page 17


 488:.\Generated_Source\PSoC4/ADC_1.c **** 
 489:.\Generated_Source\PSoC4/ADC_1.c **** /*******************************************************************************
 490:.\Generated_Source\PSoC4/ADC_1.c **** * Function Name: ADC_1_GetResult16
 491:.\Generated_Source\PSoC4/ADC_1.c **** ********************************************************************************
 492:.\Generated_Source\PSoC4/ADC_1.c **** *
 493:.\Generated_Source\PSoC4/ADC_1.c **** * Summary:
 494:.\Generated_Source\PSoC4/ADC_1.c **** *  Gets the data available in the SAR DATA register.
 495:.\Generated_Source\PSoC4/ADC_1.c **** *
 496:.\Generated_Source\PSoC4/ADC_1.c **** * Parameters:
 497:.\Generated_Source\PSoC4/ADC_1.c **** *  chan: The ADC channel in which to return the result. The first channel
 498:.\Generated_Source\PSoC4/ADC_1.c **** *  is 0 and the injection channel if enabled is the number of valid channels.
 499:.\Generated_Source\PSoC4/ADC_1.c **** *
 500:.\Generated_Source\PSoC4/ADC_1.c **** * Return:
 501:.\Generated_Source\PSoC4/ADC_1.c **** *  Returns converted data as a signed 16-bit integer
 502:.\Generated_Source\PSoC4/ADC_1.c **** *
 503:.\Generated_Source\PSoC4/ADC_1.c **** *******************************************************************************/
 504:.\Generated_Source\PSoC4/ADC_1.c **** int16 ADC_1_GetResult16(uint32 chan)
 505:.\Generated_Source\PSoC4/ADC_1.c **** {
 415              		.loc 1 505 0
 416              		.cfi_startproc
 417              	.LVL21:
 418 0000 10B5     		push	{r4, lr}
 419              		.cfi_def_cfa_offset 8
 420              		.cfi_offset 4, -8
 421              		.cfi_offset 14, -4
 422 0002 041E     		sub	r4, r0, #0
 506:.\Generated_Source\PSoC4/ADC_1.c ****     uint32 result;
 507:.\Generated_Source\PSoC4/ADC_1.c **** 
 508:.\Generated_Source\PSoC4/ADC_1.c ****     /* Halt CPU in debug mode if channel is out of valid range */
 509:.\Generated_Source\PSoC4/ADC_1.c ****     CYASSERT(chan < ADC_1_TOTAL_CHANNELS_NUM);
 423              		.loc 1 509 0
 424 0004 02D0     		beq	.L33
 425              		.loc 1 509 0 is_stmt 0 discriminator 1
 426 0006 0020     		mov	r0, #0
 427              	.LVL22:
 428 0008 FFF7FEFF 		bl	CyHalt
 429              	.LVL23:
 430              	.L33:
 510:.\Generated_Source\PSoC4/ADC_1.c **** 
 511:.\Generated_Source\PSoC4/ADC_1.c ****     if(chan < ADC_1_SEQUENCED_CHANNELS_NUM)
 431              		.loc 1 511 0 is_stmt 1
 432 000c 002C     		cmp	r4, #0
 433 000e 07D1     		bne	.L35
 512:.\Generated_Source\PSoC4/ADC_1.c ****     {
 513:.\Generated_Source\PSoC4/ADC_1.c ****         result = CY_GET_REG32((reg32 *)(ADC_1_SAR_CHAN_RESULT_IND + (uint32)(chan << 2u))) &
 434              		.loc 1 513 0
 435 0010 A400     		lsl	r4, r4, #2
 436              	.LVL24:
 437 0012 054B     		ldr	r3, .L36
 438 0014 9C46     		mov	ip, r3
 439 0016 6444     		add	r4, r4, ip
 440 0018 2068     		ldr	r0, [r4]
 441 001a 0004     		lsl	r0, r0, #16
 442 001c 000C     		lsr	r0, r0, #16
 443              	.LVL25:
 444 001e 00E0     		b	.L34
 445              	.LVL26:
ARM GAS  C:\Users\User\AppData\Local\Temp\ccfDypEy.s 			page 18


 446              	.L35:
 514:.\Generated_Source\PSoC4/ADC_1.c ****                 ADC_1_RESULT_MASK;
 515:.\Generated_Source\PSoC4/ADC_1.c ****     }
 516:.\Generated_Source\PSoC4/ADC_1.c ****     else
 517:.\Generated_Source\PSoC4/ADC_1.c ****     {
 518:.\Generated_Source\PSoC4/ADC_1.c ****         #if(ADC_1_INJ_CHANNEL_ENABLED)
 519:.\Generated_Source\PSoC4/ADC_1.c ****             result = ADC_1_SAR_INJ_RESULT_REG & ADC_1_RESULT_MASK;
 520:.\Generated_Source\PSoC4/ADC_1.c ****         #else
 521:.\Generated_Source\PSoC4/ADC_1.c ****             result = 0u;
 447              		.loc 1 521 0
 448 0020 0020     		mov	r0, #0
 449              	.LVL27:
 450              	.L34:
 522:.\Generated_Source\PSoC4/ADC_1.c ****         #endif /* ADC_1_INJ_CHANNEL_ENABLED */
 523:.\Generated_Source\PSoC4/ADC_1.c ****     }
 524:.\Generated_Source\PSoC4/ADC_1.c **** 
 525:.\Generated_Source\PSoC4/ADC_1.c ****     return ( (int16)result );
 451              		.loc 1 525 0
 452 0022 00B2     		sxth	r0, r0
 453              	.LVL28:
 526:.\Generated_Source\PSoC4/ADC_1.c **** }
 454              		.loc 1 526 0
 455              		@ sp needed
 456 0024 10BD     		pop	{r4, pc}
 457              	.L37:
 458 0026 C046     		.align	2
 459              	.L36:
 460 0028 80011A40 		.word	1075446144
 461              		.cfi_endproc
 462              	.LFE7:
 463              		.size	ADC_1_GetResult16, .-ADC_1_GetResult16
 464              		.section	.text.ADC_1_SetChanMask,"ax",%progbits
 465              		.align	2
 466              		.global	ADC_1_SetChanMask
 467              		.code	16
 468              		.thumb_func
 469              		.type	ADC_1_SetChanMask, %function
 470              	ADC_1_SetChanMask:
 471              	.LFB8:
 527:.\Generated_Source\PSoC4/ADC_1.c **** 
 528:.\Generated_Source\PSoC4/ADC_1.c **** 
 529:.\Generated_Source\PSoC4/ADC_1.c **** /*******************************************************************************
 530:.\Generated_Source\PSoC4/ADC_1.c **** * Function Name: ADC_1_SetChanMask
 531:.\Generated_Source\PSoC4/ADC_1.c **** ********************************************************************************
 532:.\Generated_Source\PSoC4/ADC_1.c **** *
 533:.\Generated_Source\PSoC4/ADC_1.c **** * Summary:
 534:.\Generated_Source\PSoC4/ADC_1.c **** *  Sets the channel enable mask.
 535:.\Generated_Source\PSoC4/ADC_1.c **** *
 536:.\Generated_Source\PSoC4/ADC_1.c **** * Parameters:
 537:.\Generated_Source\PSoC4/ADC_1.c **** *  mask: Sets which channels that will be
 538:.\Generated_Source\PSoC4/ADC_1.c **** *  scanned. Setting bits for channels that do not exist will have no
 539:.\Generated_Source\PSoC4/ADC_1.c **** *  effect. For example, if only 6 channels were enabled, setting a
 540:.\Generated_Source\PSoC4/ADC_1.c **** *  mask of 0x0103 would only enable the last two channels (0 and 1).
 541:.\Generated_Source\PSoC4/ADC_1.c **** *  This API will not enable the injection channel.
 542:.\Generated_Source\PSoC4/ADC_1.c **** *  Examples: If the component is setup to sequence through 8
 543:.\Generated_Source\PSoC4/ADC_1.c **** *  channels, a mask of 0x000F would enable channels 0, 1, 2, and 3.
 544:.\Generated_Source\PSoC4/ADC_1.c **** *
ARM GAS  C:\Users\User\AppData\Local\Temp\ccfDypEy.s 			page 19


 545:.\Generated_Source\PSoC4/ADC_1.c **** * Return:
 546:.\Generated_Source\PSoC4/ADC_1.c **** *  None.
 547:.\Generated_Source\PSoC4/ADC_1.c **** *
 548:.\Generated_Source\PSoC4/ADC_1.c **** *******************************************************************************/
 549:.\Generated_Source\PSoC4/ADC_1.c **** void ADC_1_SetChanMask(uint32 mask)
 550:.\Generated_Source\PSoC4/ADC_1.c **** {
 472              		.loc 1 550 0
 473              		.cfi_startproc
 474              	.LVL29:
 551:.\Generated_Source\PSoC4/ADC_1.c ****     ADC_1_SAR_CHAN_EN_REG = mask & ADC_1_MAX_CHANNELS_EN_MASK;
 475              		.loc 1 551 0
 476 0000 0123     		mov	r3, #1
 477 0002 1840     		and	r0, r3
 478              	.LVL30:
 479 0004 014B     		ldr	r3, .L39
 480 0006 1860     		str	r0, [r3]
 552:.\Generated_Source\PSoC4/ADC_1.c **** }
 481              		.loc 1 552 0
 482              		@ sp needed
 483 0008 7047     		bx	lr
 484              	.L40:
 485 000a C046     		.align	2
 486              	.L39:
 487 000c 20001A40 		.word	1075445792
 488              		.cfi_endproc
 489              	.LFE8:
 490              		.size	ADC_1_SetChanMask, .-ADC_1_SetChanMask
 491              		.section	.text.ADC_1_SetLowLimit,"ax",%progbits
 492              		.align	2
 493              		.global	ADC_1_SetLowLimit
 494              		.code	16
 495              		.thumb_func
 496              		.type	ADC_1_SetLowLimit, %function
 497              	ADC_1_SetLowLimit:
 498              	.LFB9:
 553:.\Generated_Source\PSoC4/ADC_1.c **** 
 554:.\Generated_Source\PSoC4/ADC_1.c **** #if(ADC_1_INJ_CHANNEL_ENABLED)
 555:.\Generated_Source\PSoC4/ADC_1.c **** 
 556:.\Generated_Source\PSoC4/ADC_1.c **** 
 557:.\Generated_Source\PSoC4/ADC_1.c ****     /*******************************************************************************
 558:.\Generated_Source\PSoC4/ADC_1.c ****     * Function Name: ADC_1_EnableInjection
 559:.\Generated_Source\PSoC4/ADC_1.c ****     ********************************************************************************
 560:.\Generated_Source\PSoC4/ADC_1.c ****     *
 561:.\Generated_Source\PSoC4/ADC_1.c ****     * Summary:
 562:.\Generated_Source\PSoC4/ADC_1.c ****     *  Enables the injection channel for the next scan only.
 563:.\Generated_Source\PSoC4/ADC_1.c ****     *
 564:.\Generated_Source\PSoC4/ADC_1.c ****     * Parameters:
 565:.\Generated_Source\PSoC4/ADC_1.c ****     *  None.
 566:.\Generated_Source\PSoC4/ADC_1.c ****     *
 567:.\Generated_Source\PSoC4/ADC_1.c ****     * Return:
 568:.\Generated_Source\PSoC4/ADC_1.c ****     *  None.
 569:.\Generated_Source\PSoC4/ADC_1.c ****     *
 570:.\Generated_Source\PSoC4/ADC_1.c ****     *******************************************************************************/
 571:.\Generated_Source\PSoC4/ADC_1.c ****     void ADC_1_EnableInjection(void)
 572:.\Generated_Source\PSoC4/ADC_1.c ****     {
 573:.\Generated_Source\PSoC4/ADC_1.c ****         ADC_1_SAR_INJ_CHAN_CONFIG_REG |= ADC_1_INJ_CHAN_EN;
 574:.\Generated_Source\PSoC4/ADC_1.c ****     }
ARM GAS  C:\Users\User\AppData\Local\Temp\ccfDypEy.s 			page 20


 575:.\Generated_Source\PSoC4/ADC_1.c **** 
 576:.\Generated_Source\PSoC4/ADC_1.c **** #endif /* ADC_1_INJ_CHANNEL_ENABLED */
 577:.\Generated_Source\PSoC4/ADC_1.c **** 
 578:.\Generated_Source\PSoC4/ADC_1.c **** 
 579:.\Generated_Source\PSoC4/ADC_1.c **** /*******************************************************************************
 580:.\Generated_Source\PSoC4/ADC_1.c **** * Function Name: ADC_1_SetLowLimit
 581:.\Generated_Source\PSoC4/ADC_1.c **** ********************************************************************************
 582:.\Generated_Source\PSoC4/ADC_1.c **** *
 583:.\Generated_Source\PSoC4/ADC_1.c **** * Summary:
 584:.\Generated_Source\PSoC4/ADC_1.c **** *  Sets the low limit parameter for a limit condition.
 585:.\Generated_Source\PSoC4/ADC_1.c **** *
 586:.\Generated_Source\PSoC4/ADC_1.c **** * Parameters:
 587:.\Generated_Source\PSoC4/ADC_1.c **** *  lowLimit: The low limit for a limit condition.
 588:.\Generated_Source\PSoC4/ADC_1.c **** *
 589:.\Generated_Source\PSoC4/ADC_1.c **** * Return:
 590:.\Generated_Source\PSoC4/ADC_1.c **** *  None.
 591:.\Generated_Source\PSoC4/ADC_1.c **** *
 592:.\Generated_Source\PSoC4/ADC_1.c **** *******************************************************************************/
 593:.\Generated_Source\PSoC4/ADC_1.c **** void ADC_1_SetLowLimit(uint32 lowLimit)
 594:.\Generated_Source\PSoC4/ADC_1.c **** {
 499              		.loc 1 594 0
 500              		.cfi_startproc
 501              	.LVL31:
 595:.\Generated_Source\PSoC4/ADC_1.c ****     ADC_1_SAR_RANGE_THRES_REG &= (uint32)(~ADC_1_RANGE_LOW_MASK);
 502              		.loc 1 595 0
 503 0000 054A     		ldr	r2, .L42
 504 0002 1368     		ldr	r3, [r2]
 505 0004 1B0C     		lsr	r3, r3, #16
 506 0006 1B04     		lsl	r3, r3, #16
 507 0008 1360     		str	r3, [r2]
 596:.\Generated_Source\PSoC4/ADC_1.c ****     ADC_1_SAR_RANGE_THRES_REG |= lowLimit & ADC_1_RANGE_LOW_MASK;
 508              		.loc 1 596 0
 509 000a 1368     		ldr	r3, [r2]
 510 000c 0004     		lsl	r0, r0, #16
 511              	.LVL32:
 512 000e 000C     		lsr	r0, r0, #16
 513 0010 1843     		orr	r0, r3
 514 0012 1060     		str	r0, [r2]
 597:.\Generated_Source\PSoC4/ADC_1.c **** }
 515              		.loc 1 597 0
 516              		@ sp needed
 517 0014 7047     		bx	lr
 518              	.L43:
 519 0016 C046     		.align	2
 520              	.L42:
 521 0018 18001A40 		.word	1075445784
 522              		.cfi_endproc
 523              	.LFE9:
 524              		.size	ADC_1_SetLowLimit, .-ADC_1_SetLowLimit
 525              		.section	.text.ADC_1_SetHighLimit,"ax",%progbits
 526              		.align	2
 527              		.global	ADC_1_SetHighLimit
 528              		.code	16
 529              		.thumb_func
 530              		.type	ADC_1_SetHighLimit, %function
 531              	ADC_1_SetHighLimit:
 532              	.LFB10:
ARM GAS  C:\Users\User\AppData\Local\Temp\ccfDypEy.s 			page 21


 598:.\Generated_Source\PSoC4/ADC_1.c **** 
 599:.\Generated_Source\PSoC4/ADC_1.c **** 
 600:.\Generated_Source\PSoC4/ADC_1.c **** /*******************************************************************************
 601:.\Generated_Source\PSoC4/ADC_1.c **** * Function Name: ADC_1_SetHighLimit
 602:.\Generated_Source\PSoC4/ADC_1.c **** ********************************************************************************
 603:.\Generated_Source\PSoC4/ADC_1.c **** *
 604:.\Generated_Source\PSoC4/ADC_1.c **** * Summary:
 605:.\Generated_Source\PSoC4/ADC_1.c **** *  Sets the low limit parameter for a limit condition.
 606:.\Generated_Source\PSoC4/ADC_1.c **** *
 607:.\Generated_Source\PSoC4/ADC_1.c **** * Parameters:
 608:.\Generated_Source\PSoC4/ADC_1.c **** *  highLimit: The high limit for a limit condition.
 609:.\Generated_Source\PSoC4/ADC_1.c **** *
 610:.\Generated_Source\PSoC4/ADC_1.c **** * Return:
 611:.\Generated_Source\PSoC4/ADC_1.c **** *  None.
 612:.\Generated_Source\PSoC4/ADC_1.c **** *
 613:.\Generated_Source\PSoC4/ADC_1.c **** *******************************************************************************/
 614:.\Generated_Source\PSoC4/ADC_1.c **** void ADC_1_SetHighLimit(uint32 highLimit)
 615:.\Generated_Source\PSoC4/ADC_1.c **** {
 533              		.loc 1 615 0
 534              		.cfi_startproc
 535              	.LVL33:
 616:.\Generated_Source\PSoC4/ADC_1.c ****     ADC_1_SAR_RANGE_THRES_REG &= (uint32)(~ADC_1_RANGE_HIGH_MASK);
 536              		.loc 1 616 0
 537 0000 044A     		ldr	r2, .L45
 538 0002 1368     		ldr	r3, [r2]
 539 0004 1B04     		lsl	r3, r3, #16
 540 0006 1B0C     		lsr	r3, r3, #16
 541 0008 1360     		str	r3, [r2]
 617:.\Generated_Source\PSoC4/ADC_1.c ****     ADC_1_SAR_RANGE_THRES_REG |= (uint32)(highLimit << ADC_1_RANGE_HIGH_OFFSET);
 542              		.loc 1 617 0
 543 000a 1368     		ldr	r3, [r2]
 544 000c 0004     		lsl	r0, r0, #16
 545              	.LVL34:
 546 000e 1843     		orr	r0, r3
 547 0010 1060     		str	r0, [r2]
 618:.\Generated_Source\PSoC4/ADC_1.c **** }
 548              		.loc 1 618 0
 549              		@ sp needed
 550 0012 7047     		bx	lr
 551              	.L46:
 552              		.align	2
 553              	.L45:
 554 0014 18001A40 		.word	1075445784
 555              		.cfi_endproc
 556              	.LFE10:
 557              		.size	ADC_1_SetHighLimit, .-ADC_1_SetHighLimit
 558              		.section	.text.ADC_1_SetLimitMask,"ax",%progbits
 559              		.align	2
 560              		.global	ADC_1_SetLimitMask
 561              		.code	16
 562              		.thumb_func
 563              		.type	ADC_1_SetLimitMask, %function
 564              	ADC_1_SetLimitMask:
 565              	.LFB11:
 619:.\Generated_Source\PSoC4/ADC_1.c **** 
 620:.\Generated_Source\PSoC4/ADC_1.c **** 
 621:.\Generated_Source\PSoC4/ADC_1.c **** /*******************************************************************************
ARM GAS  C:\Users\User\AppData\Local\Temp\ccfDypEy.s 			page 22


 622:.\Generated_Source\PSoC4/ADC_1.c **** * Function Name: ADC_1_SetLimitMask
 623:.\Generated_Source\PSoC4/ADC_1.c **** ********************************************************************************
 624:.\Generated_Source\PSoC4/ADC_1.c **** *
 625:.\Generated_Source\PSoC4/ADC_1.c **** * Summary:
 626:.\Generated_Source\PSoC4/ADC_1.c **** *  Sets the channel limit condition mask.
 627:.\Generated_Source\PSoC4/ADC_1.c **** *
 628:.\Generated_Source\PSoC4/ADC_1.c **** * Parameters:
 629:.\Generated_Source\PSoC4/ADC_1.c **** *  mask: Sets which channels that may cause a
 630:.\Generated_Source\PSoC4/ADC_1.c **** *  limit condition interrupt. Setting bits for channels that do not exist
 631:.\Generated_Source\PSoC4/ADC_1.c **** *  will have no effect. For example, if only 6 channels were enabled,
 632:.\Generated_Source\PSoC4/ADC_1.c **** *  setting a mask of 0x0103 would only enable the last two channels (0 and 1).
 633:.\Generated_Source\PSoC4/ADC_1.c **** *
 634:.\Generated_Source\PSoC4/ADC_1.c **** * Return:
 635:.\Generated_Source\PSoC4/ADC_1.c **** *  None.
 636:.\Generated_Source\PSoC4/ADC_1.c **** *
 637:.\Generated_Source\PSoC4/ADC_1.c **** *******************************************************************************/
 638:.\Generated_Source\PSoC4/ADC_1.c **** void ADC_1_SetLimitMask(uint32 mask)
 639:.\Generated_Source\PSoC4/ADC_1.c **** {
 566              		.loc 1 639 0
 567              		.cfi_startproc
 568              	.LVL35:
 640:.\Generated_Source\PSoC4/ADC_1.c ****     ADC_1_SAR_RANGE_INTR_MASK_REG = mask & ADC_1_MAX_CHANNELS_EN_MASK;
 569              		.loc 1 640 0
 570 0000 0123     		mov	r3, #1
 571 0002 1840     		and	r0, r3
 572              	.LVL36:
 573 0004 014B     		ldr	r3, .L48
 574 0006 1860     		str	r0, [r3]
 641:.\Generated_Source\PSoC4/ADC_1.c **** }
 575              		.loc 1 641 0
 576              		@ sp needed
 577 0008 7047     		bx	lr
 578              	.L49:
 579 000a C046     		.align	2
 580              	.L48:
 581 000c 38021A40 		.word	1075446328
 582              		.cfi_endproc
 583              	.LFE11:
 584              		.size	ADC_1_SetLimitMask, .-ADC_1_SetLimitMask
 585              		.section	.text.ADC_1_SetSatMask,"ax",%progbits
 586              		.align	2
 587              		.global	ADC_1_SetSatMask
 588              		.code	16
 589              		.thumb_func
 590              		.type	ADC_1_SetSatMask, %function
 591              	ADC_1_SetSatMask:
 592              	.LFB12:
 642:.\Generated_Source\PSoC4/ADC_1.c **** 
 643:.\Generated_Source\PSoC4/ADC_1.c **** 
 644:.\Generated_Source\PSoC4/ADC_1.c **** /*******************************************************************************
 645:.\Generated_Source\PSoC4/ADC_1.c **** * Function Name: ADC_1_SetSatMask
 646:.\Generated_Source\PSoC4/ADC_1.c **** ********************************************************************************
 647:.\Generated_Source\PSoC4/ADC_1.c **** *
 648:.\Generated_Source\PSoC4/ADC_1.c **** * Summary:
 649:.\Generated_Source\PSoC4/ADC_1.c **** *  Sets the channel saturation event mask.
 650:.\Generated_Source\PSoC4/ADC_1.c **** *
 651:.\Generated_Source\PSoC4/ADC_1.c **** * Parameters:
ARM GAS  C:\Users\User\AppData\Local\Temp\ccfDypEy.s 			page 23


 652:.\Generated_Source\PSoC4/ADC_1.c **** *  mask: Sets which channels that may cause a
 653:.\Generated_Source\PSoC4/ADC_1.c **** *  saturation event interrupt. Setting bits for channels that do not exist
 654:.\Generated_Source\PSoC4/ADC_1.c **** *  will have no effect. For example, if only 8 channels were enabled,
 655:.\Generated_Source\PSoC4/ADC_1.c **** *  setting a mask of 0x01C0 would only enable two channels (6 and 7).
 656:.\Generated_Source\PSoC4/ADC_1.c **** *
 657:.\Generated_Source\PSoC4/ADC_1.c **** * Return:
 658:.\Generated_Source\PSoC4/ADC_1.c **** *  None.
 659:.\Generated_Source\PSoC4/ADC_1.c **** *
 660:.\Generated_Source\PSoC4/ADC_1.c **** *******************************************************************************/
 661:.\Generated_Source\PSoC4/ADC_1.c **** void ADC_1_SetSatMask(uint32 mask)
 662:.\Generated_Source\PSoC4/ADC_1.c **** {
 593              		.loc 1 662 0
 594              		.cfi_startproc
 595              	.LVL37:
 663:.\Generated_Source\PSoC4/ADC_1.c ****     ADC_1_SAR_SATURATE_INTR_MASK_REG = mask & ADC_1_MAX_CHANNELS_EN_MASK;
 596              		.loc 1 663 0
 597 0000 0123     		mov	r3, #1
 598 0002 1840     		and	r0, r3
 599              	.LVL38:
 600 0004 014B     		ldr	r3, .L51
 601 0006 1860     		str	r0, [r3]
 664:.\Generated_Source\PSoC4/ADC_1.c **** }
 602              		.loc 1 664 0
 603              		@ sp needed
 604 0008 7047     		bx	lr
 605              	.L52:
 606 000a C046     		.align	2
 607              	.L51:
 608 000c 28021A40 		.word	1075446312
 609              		.cfi_endproc
 610              	.LFE12:
 611              		.size	ADC_1_SetSatMask, .-ADC_1_SetSatMask
 612              		.section	.text.ADC_1_SetOffset,"ax",%progbits
 613              		.align	2
 614              		.global	ADC_1_SetOffset
 615              		.code	16
 616              		.thumb_func
 617              		.type	ADC_1_SetOffset, %function
 618              	ADC_1_SetOffset:
 619              	.LFB13:
 665:.\Generated_Source\PSoC4/ADC_1.c **** 
 666:.\Generated_Source\PSoC4/ADC_1.c **** 
 667:.\Generated_Source\PSoC4/ADC_1.c **** /*******************************************************************************
 668:.\Generated_Source\PSoC4/ADC_1.c **** * Function Name: ADC_1_SetOffset
 669:.\Generated_Source\PSoC4/ADC_1.c **** ********************************************************************************
 670:.\Generated_Source\PSoC4/ADC_1.c **** *
 671:.\Generated_Source\PSoC4/ADC_1.c **** * Summary:
 672:.\Generated_Source\PSoC4/ADC_1.c **** *   Description: Sets the ADC offset which is used by the functions
 673:.\Generated_Source\PSoC4/ADC_1.c **** *   ADC_CountsTo_uVolts, ADC_CountsTo_mVolts and ADC_CountsTo_Volts
 674:.\Generated_Source\PSoC4/ADC_1.c **** *   to substract the offset from the given reading
 675:.\Generated_Source\PSoC4/ADC_1.c **** *   before calculating the voltage conversion.
 676:.\Generated_Source\PSoC4/ADC_1.c **** *
 677:.\Generated_Source\PSoC4/ADC_1.c **** * Parameters:
 678:.\Generated_Source\PSoC4/ADC_1.c **** *  chan: ADC channel number.
 679:.\Generated_Source\PSoC4/ADC_1.c **** *  offset: This value is a measured value when the
 680:.\Generated_Source\PSoC4/ADC_1.c **** *          inputs are shorted or connected to the same input voltage.
 681:.\Generated_Source\PSoC4/ADC_1.c **** *
ARM GAS  C:\Users\User\AppData\Local\Temp\ccfDypEy.s 			page 24


 682:.\Generated_Source\PSoC4/ADC_1.c **** * Return:
 683:.\Generated_Source\PSoC4/ADC_1.c **** *  None.
 684:.\Generated_Source\PSoC4/ADC_1.c **** *
 685:.\Generated_Source\PSoC4/ADC_1.c **** * Global variables:
 686:.\Generated_Source\PSoC4/ADC_1.c **** *  ADC_1_Offset:  Modified to set the user provided offset.
 687:.\Generated_Source\PSoC4/ADC_1.c **** *
 688:.\Generated_Source\PSoC4/ADC_1.c **** *******************************************************************************/
 689:.\Generated_Source\PSoC4/ADC_1.c **** void ADC_1_SetOffset(uint32 chan, int16 offset)
 690:.\Generated_Source\PSoC4/ADC_1.c **** {
 620              		.loc 1 690 0
 621              		.cfi_startproc
 622              	.LVL39:
 623 0000 38B5     		push	{r3, r4, r5, lr}
 624              		.cfi_def_cfa_offset 16
 625              		.cfi_offset 3, -16
 626              		.cfi_offset 4, -12
 627              		.cfi_offset 5, -8
 628              		.cfi_offset 14, -4
 629 0002 041C     		mov	r4, r0
 630 0004 0D1C     		mov	r5, r1
 691:.\Generated_Source\PSoC4/ADC_1.c ****     /* Halt CPU in debug mode if channel is out of valid range */
 692:.\Generated_Source\PSoC4/ADC_1.c ****     CYASSERT(chan < ADC_1_TOTAL_CHANNELS_NUM);
 631              		.loc 1 692 0
 632 0006 0028     		cmp	r0, #0
 633 0008 02D0     		beq	.L54
 634              		.loc 1 692 0 is_stmt 0 discriminator 1
 635 000a 0020     		mov	r0, #0
 636              	.LVL40:
 637 000c FFF7FEFF 		bl	CyHalt
 638              	.LVL41:
 639              	.L54:
 693:.\Generated_Source\PSoC4/ADC_1.c **** 
 694:.\Generated_Source\PSoC4/ADC_1.c ****     ADC_1_offset[chan] = offset;
 640              		.loc 1 694 0 is_stmt 1
 641 0010 6400     		lsl	r4, r4, #1
 642              	.LVL42:
 643 0012 014B     		ldr	r3, .L55
 644 0014 E552     		strh	r5, [r4, r3]
 695:.\Generated_Source\PSoC4/ADC_1.c **** }
 645              		.loc 1 695 0
 646              		@ sp needed
 647 0016 38BD     		pop	{r3, r4, r5, pc}
 648              	.L56:
 649              		.align	2
 650              	.L55:
 651 0018 00000000 		.word	ADC_1_offset
 652              		.cfi_endproc
 653              	.LFE13:
 654              		.size	ADC_1_SetOffset, .-ADC_1_SetOffset
 655              		.section	.text.ADC_1_SetGain,"ax",%progbits
 656              		.align	2
 657              		.global	ADC_1_SetGain
 658              		.code	16
 659              		.thumb_func
 660              		.type	ADC_1_SetGain, %function
 661              	ADC_1_SetGain:
 662              	.LFB14:
ARM GAS  C:\Users\User\AppData\Local\Temp\ccfDypEy.s 			page 25


 696:.\Generated_Source\PSoC4/ADC_1.c **** 
 697:.\Generated_Source\PSoC4/ADC_1.c **** 
 698:.\Generated_Source\PSoC4/ADC_1.c **** /*******************************************************************************
 699:.\Generated_Source\PSoC4/ADC_1.c **** * Function Name: ADC_1_SetGain
 700:.\Generated_Source\PSoC4/ADC_1.c **** ********************************************************************************
 701:.\Generated_Source\PSoC4/ADC_1.c **** *
 702:.\Generated_Source\PSoC4/ADC_1.c **** * Summary:
 703:.\Generated_Source\PSoC4/ADC_1.c **** *  Description: Sets the ADC gain in counts per 10 volt for the voltage
 704:.\Generated_Source\PSoC4/ADC_1.c **** *  conversion functions below. This value is set by default by the
 705:.\Generated_Source\PSoC4/ADC_1.c **** *  reference and input range settings. It should only be used to further
 706:.\Generated_Source\PSoC4/ADC_1.c **** *  calibrate the ADC with a known input or if an external reference is
 707:.\Generated_Source\PSoC4/ADC_1.c **** *  used. Affects the ADC_CountsTo_uVolts, ADC_CountsTo_mVolts
 708:.\Generated_Source\PSoC4/ADC_1.c **** *  and ADC_CountsTo_Volts functions by supplying the correct
 709:.\Generated_Source\PSoC4/ADC_1.c **** *  conversion between ADC counts and voltage.
 710:.\Generated_Source\PSoC4/ADC_1.c **** *
 711:.\Generated_Source\PSoC4/ADC_1.c **** * Parameters:
 712:.\Generated_Source\PSoC4/ADC_1.c **** *  chan: ADC channel number.
 713:.\Generated_Source\PSoC4/ADC_1.c **** *  adcGain: ADC gain in counts per 10 volts.
 714:.\Generated_Source\PSoC4/ADC_1.c **** *
 715:.\Generated_Source\PSoC4/ADC_1.c **** * Return:
 716:.\Generated_Source\PSoC4/ADC_1.c **** *  None.
 717:.\Generated_Source\PSoC4/ADC_1.c **** *
 718:.\Generated_Source\PSoC4/ADC_1.c **** * Global variables:
 719:.\Generated_Source\PSoC4/ADC_1.c **** *  ADC_1_CountsPer10Volt:  modified to set the ADC gain in counts
 720:.\Generated_Source\PSoC4/ADC_1.c **** *   per 10 volt.
 721:.\Generated_Source\PSoC4/ADC_1.c **** *
 722:.\Generated_Source\PSoC4/ADC_1.c **** *******************************************************************************/
 723:.\Generated_Source\PSoC4/ADC_1.c **** void ADC_1_SetGain(uint32 chan, int32 adcGain)
 724:.\Generated_Source\PSoC4/ADC_1.c **** {
 663              		.loc 1 724 0
 664              		.cfi_startproc
 665              	.LVL43:
 666 0000 38B5     		push	{r3, r4, r5, lr}
 667              		.cfi_def_cfa_offset 16
 668              		.cfi_offset 3, -16
 669              		.cfi_offset 4, -12
 670              		.cfi_offset 5, -8
 671              		.cfi_offset 14, -4
 672 0002 041C     		mov	r4, r0
 673 0004 0D1C     		mov	r5, r1
 725:.\Generated_Source\PSoC4/ADC_1.c ****     /* Halt CPU in debug mode if channel is out of valid range */
 726:.\Generated_Source\PSoC4/ADC_1.c ****     CYASSERT(chan < ADC_1_TOTAL_CHANNELS_NUM);
 674              		.loc 1 726 0
 675 0006 0028     		cmp	r0, #0
 676 0008 02D0     		beq	.L58
 677              		.loc 1 726 0 is_stmt 0 discriminator 1
 678 000a 0020     		mov	r0, #0
 679              	.LVL44:
 680 000c FFF7FEFF 		bl	CyHalt
 681              	.LVL45:
 682              	.L58:
 727:.\Generated_Source\PSoC4/ADC_1.c **** 
 728:.\Generated_Source\PSoC4/ADC_1.c ****     ADC_1_countsPer10Volt[chan] = adcGain;
 683              		.loc 1 728 0 is_stmt 1
 684 0010 A400     		lsl	r4, r4, #2
 685              	.LVL46:
 686 0012 014B     		ldr	r3, .L59
ARM GAS  C:\Users\User\AppData\Local\Temp\ccfDypEy.s 			page 26


 687 0014 E550     		str	r5, [r4, r3]
 729:.\Generated_Source\PSoC4/ADC_1.c **** }
 688              		.loc 1 729 0
 689              		@ sp needed
 690              	.LVL47:
 691 0016 38BD     		pop	{r3, r4, r5, pc}
 692              	.L60:
 693              		.align	2
 694              	.L59:
 695 0018 00000000 		.word	ADC_1_countsPer10Volt
 696              		.cfi_endproc
 697              	.LFE14:
 698              		.size	ADC_1_SetGain, .-ADC_1_SetGain
 699              		.global	__aeabi_idiv
 700              		.section	.text.ADC_1_CountsTo_mVolts,"ax",%progbits
 701              		.align	2
 702              		.global	ADC_1_CountsTo_mVolts
 703              		.code	16
 704              		.thumb_func
 705              		.type	ADC_1_CountsTo_mVolts, %function
 706              	ADC_1_CountsTo_mVolts:
 707              	.LFB15:
 730:.\Generated_Source\PSoC4/ADC_1.c **** 
 731:.\Generated_Source\PSoC4/ADC_1.c **** 
 732:.\Generated_Source\PSoC4/ADC_1.c **** #if(ADC_1_DEFAULT_JUSTIFICATION_SEL == ADC_1__RIGHT)
 733:.\Generated_Source\PSoC4/ADC_1.c **** 
 734:.\Generated_Source\PSoC4/ADC_1.c **** 
 735:.\Generated_Source\PSoC4/ADC_1.c ****     /*******************************************************************************
 736:.\Generated_Source\PSoC4/ADC_1.c ****     * Function Name: ADC_1_CountsTo_mVolts
 737:.\Generated_Source\PSoC4/ADC_1.c ****     ********************************************************************************
 738:.\Generated_Source\PSoC4/ADC_1.c ****     *
 739:.\Generated_Source\PSoC4/ADC_1.c ****     * Summary:
 740:.\Generated_Source\PSoC4/ADC_1.c ****     *  This function converts ADC counts to mVolts
 741:.\Generated_Source\PSoC4/ADC_1.c ****     *  This function is not available when left data format justification selected.
 742:.\Generated_Source\PSoC4/ADC_1.c ****     *
 743:.\Generated_Source\PSoC4/ADC_1.c ****     * Parameters:
 744:.\Generated_Source\PSoC4/ADC_1.c ****     *  chan: The ADC channel number.
 745:.\Generated_Source\PSoC4/ADC_1.c ****     *  adcCounts: Result from the ADC conversion
 746:.\Generated_Source\PSoC4/ADC_1.c ****     *
 747:.\Generated_Source\PSoC4/ADC_1.c ****     * Return:
 748:.\Generated_Source\PSoC4/ADC_1.c ****     *  Results in mVolts
 749:.\Generated_Source\PSoC4/ADC_1.c ****     *
 750:.\Generated_Source\PSoC4/ADC_1.c ****     * Global variables:
 751:.\Generated_Source\PSoC4/ADC_1.c ****     *  ADC_1_countsPer10Volt:  used to convert ADC counts to mVolts.
 752:.\Generated_Source\PSoC4/ADC_1.c ****     *  ADC_1_Offset:  Used as the offset while converting ADC counts
 753:.\Generated_Source\PSoC4/ADC_1.c ****     *   to mVolts.
 754:.\Generated_Source\PSoC4/ADC_1.c ****     *
 755:.\Generated_Source\PSoC4/ADC_1.c ****     *******************************************************************************/
 756:.\Generated_Source\PSoC4/ADC_1.c ****     int16 ADC_1_CountsTo_mVolts(uint32 chan, int16 adcCounts)
 757:.\Generated_Source\PSoC4/ADC_1.c ****     {
 708              		.loc 1 757 0
 709              		.cfi_startproc
 710              	.LVL48:
 711 0000 38B5     		push	{r3, r4, r5, lr}
 712              		.cfi_def_cfa_offset 16
 713              		.cfi_offset 3, -16
 714              		.cfi_offset 4, -12
ARM GAS  C:\Users\User\AppData\Local\Temp\ccfDypEy.s 			page 27


 715              		.cfi_offset 5, -8
 716              		.cfi_offset 14, -4
 717 0002 051C     		mov	r5, r0
 718 0004 0C1C     		mov	r4, r1
 758:.\Generated_Source\PSoC4/ADC_1.c ****         int16 mVolts;
 759:.\Generated_Source\PSoC4/ADC_1.c **** 
 760:.\Generated_Source\PSoC4/ADC_1.c ****         /* Halt CPU in debug mode if channel is out of valid range */
 761:.\Generated_Source\PSoC4/ADC_1.c ****         CYASSERT(chan < ADC_1_TOTAL_CHANNELS_NUM);
 719              		.loc 1 761 0
 720 0006 0028     		cmp	r0, #0
 721 0008 02D0     		beq	.L62
 722              		.loc 1 761 0 is_stmt 0 discriminator 1
 723 000a 0020     		mov	r0, #0
 724              	.LVL49:
 725 000c FFF7FEFF 		bl	CyHalt
 726              	.LVL50:
 727              	.L62:
 762:.\Generated_Source\PSoC4/ADC_1.c **** 
 763:.\Generated_Source\PSoC4/ADC_1.c ****         /* Divide the adcCount when accumulate averaging mode selected */
 764:.\Generated_Source\PSoC4/ADC_1.c ****         #if(ADC_1_DEFAULT_AVG_MODE == ADC_1__ACCUMULATE)
 765:.\Generated_Source\PSoC4/ADC_1.c ****             if((ADC_1_channelsConfig[chan] & ADC_1_AVERAGING_EN) != 0u)
 766:.\Generated_Source\PSoC4/ADC_1.c ****             {
 767:.\Generated_Source\PSoC4/ADC_1.c ****                 adcCounts /= ADC_1_DEFAULT_AVG_SAMPLES_DIV;
 728              		.loc 1 767 0 is_stmt 1
 729 0010 E317     		asr	r3, r4, #31
 730 0012 5B0F     		lsr	r3, r3, #29
 731 0014 1C19     		add	r4, r3, r4
 732 0016 E410     		asr	r4, r4, #3
 733              	.LVL51:
 768:.\Generated_Source\PSoC4/ADC_1.c ****             }
 769:.\Generated_Source\PSoC4/ADC_1.c ****         #endif /* ADC_1_DEFAULT_AVG_MODE == ADC_1__ACCUMULATE */
 770:.\Generated_Source\PSoC4/ADC_1.c **** 
 771:.\Generated_Source\PSoC4/ADC_1.c ****         /* Subtract ADC offset */
 772:.\Generated_Source\PSoC4/ADC_1.c ****         adcCounts -= ADC_1_offset[chan];
 734              		.loc 1 772 0
 735 0018 6B00     		lsl	r3, r5, #1
 736 001a 0F4A     		ldr	r2, .L65
 737 001c 9B5A     		ldrh	r3, [r3, r2]
 738 001e E41A     		sub	r4, r4, r3
 739              	.LVL52:
 740 0020 24B2     		sxth	r4, r4
 741              	.LVL53:
 773:.\Generated_Source\PSoC4/ADC_1.c **** 
 774:.\Generated_Source\PSoC4/ADC_1.c ****         mVolts = (int16)((((int32)adcCounts * ADC_1_10MV_COUNTS) + ( (adcCounts > 0) ?
 742              		.loc 1 774 0
 743 0022 0E48     		ldr	r0, .L65+4
 744 0024 021C     		mov	r2, r0
 745 0026 6243     		mul	r2, r4
 775:.\Generated_Source\PSoC4/ADC_1.c ****                  (ADC_1_countsPer10Volt[chan] / 2) : (-(ADC_1_countsPer10Volt[chan] / 2)) ))
 746              		.loc 1 775 0
 747 0028 002C     		cmp	r4, #0
 748 002a 06DD     		ble	.L63
 749              		.loc 1 775 0 is_stmt 0 discriminator 1
 750 002c AB00     		lsl	r3, r5, #2
 751 002e 0C49     		ldr	r1, .L65+8
 752 0030 5B58     		ldr	r3, [r3, r1]
 753 0032 D80F     		lsr	r0, r3, #31
ARM GAS  C:\Users\User\AppData\Local\Temp\ccfDypEy.s 			page 28


 754 0034 C018     		add	r0, r0, r3
 755 0036 4310     		asr	r3, r0, #1
 756 0038 06E0     		b	.L64
 757              	.L63:
 758              		.loc 1 775 0 discriminator 2
 759 003a AB00     		lsl	r3, r5, #2
 760 003c 0849     		ldr	r1, .L65+8
 761 003e 5B58     		ldr	r3, [r3, r1]
 762 0040 D80F     		lsr	r0, r3, #31
 763 0042 C318     		add	r3, r0, r3
 764 0044 5B10     		asr	r3, r3, #1
 765 0046 5B42     		neg	r3, r3
 766              	.L64:
 774:.\Generated_Source\PSoC4/ADC_1.c ****                  (ADC_1_countsPer10Volt[chan] / 2) : (-(ADC_1_countsPer10Volt[chan] / 2)) ))
 767              		.loc 1 774 0 is_stmt 1
 768 0048 D018     		add	r0, r2, r3
 776:.\Generated_Source\PSoC4/ADC_1.c ****                  / ADC_1_countsPer10Volt[chan]);
 769              		.loc 1 776 0
 770 004a AD00     		lsl	r5, r5, #2
 771              	.LVL54:
 772 004c 044B     		ldr	r3, .L65+8
 773 004e E958     		ldr	r1, [r5, r3]
 774 0050 FFF7FEFF 		bl	__aeabi_idiv
 775              	.LVL55:
 777:.\Generated_Source\PSoC4/ADC_1.c **** 
 778:.\Generated_Source\PSoC4/ADC_1.c ****         return( mVolts );
 776              		.loc 1 778 0
 777 0054 00B2     		sxth	r0, r0
 779:.\Generated_Source\PSoC4/ADC_1.c ****     }
 778              		.loc 1 779 0
 779              		@ sp needed
 780              	.LVL56:
 781 0056 38BD     		pop	{r3, r4, r5, pc}
 782              	.L66:
 783              		.align	2
 784              	.L65:
 785 0058 00000000 		.word	ADC_1_offset
 786 005c 10270000 		.word	10000
 787 0060 00000000 		.word	ADC_1_countsPer10Volt
 788              		.cfi_endproc
 789              	.LFE15:
 790              		.size	ADC_1_CountsTo_mVolts, .-ADC_1_CountsTo_mVolts
 791              		.global	__aeabi_lmul
 792              		.global	__aeabi_ldivmod
 793              		.section	.text.ADC_1_CountsTo_uVolts,"ax",%progbits
 794              		.align	2
 795              		.global	ADC_1_CountsTo_uVolts
 796              		.code	16
 797              		.thumb_func
 798              		.type	ADC_1_CountsTo_uVolts, %function
 799              	ADC_1_CountsTo_uVolts:
 800              	.LFB16:
 780:.\Generated_Source\PSoC4/ADC_1.c **** 
 781:.\Generated_Source\PSoC4/ADC_1.c **** 
 782:.\Generated_Source\PSoC4/ADC_1.c ****     /*******************************************************************************
 783:.\Generated_Source\PSoC4/ADC_1.c ****     * Function Name: ADC_1_CountsTo_uVolts
 784:.\Generated_Source\PSoC4/ADC_1.c ****     ********************************************************************************
ARM GAS  C:\Users\User\AppData\Local\Temp\ccfDypEy.s 			page 29


 785:.\Generated_Source\PSoC4/ADC_1.c ****     *
 786:.\Generated_Source\PSoC4/ADC_1.c ****     * Summary:
 787:.\Generated_Source\PSoC4/ADC_1.c ****     *  This function converts ADC counts to micro Volts
 788:.\Generated_Source\PSoC4/ADC_1.c ****     *  This function is not available when left data format justification selected.
 789:.\Generated_Source\PSoC4/ADC_1.c ****     *
 790:.\Generated_Source\PSoC4/ADC_1.c ****     * Parameters:
 791:.\Generated_Source\PSoC4/ADC_1.c ****     *  chan: The ADC channel number.
 792:.\Generated_Source\PSoC4/ADC_1.c ****     *  adcCounts: Result from the ADC conversion
 793:.\Generated_Source\PSoC4/ADC_1.c ****     *
 794:.\Generated_Source\PSoC4/ADC_1.c ****     * Return:
 795:.\Generated_Source\PSoC4/ADC_1.c ****     *  Results in uVolts
 796:.\Generated_Source\PSoC4/ADC_1.c ****     *
 797:.\Generated_Source\PSoC4/ADC_1.c ****     * Global variables:
 798:.\Generated_Source\PSoC4/ADC_1.c ****     *  ADC_1_countsPer10Volt:  used to convert ADC counts to uVolts.
 799:.\Generated_Source\PSoC4/ADC_1.c ****     *  ADC_1_Offset:  Used as the offset while converting ADC counts
 800:.\Generated_Source\PSoC4/ADC_1.c ****     *   to mVolts.
 801:.\Generated_Source\PSoC4/ADC_1.c ****     *
 802:.\Generated_Source\PSoC4/ADC_1.c ****     * Theory:
 803:.\Generated_Source\PSoC4/ADC_1.c ****     *  Care must be taken to not exceed the maximum value for a 31 bit signed
 804:.\Generated_Source\PSoC4/ADC_1.c ****     *  number in the conversion to uVolts and at the same time not loose
 805:.\Generated_Source\PSoC4/ADC_1.c ****     *  resolution.
 806:.\Generated_Source\PSoC4/ADC_1.c ****     *  To convert adcCounts to microVolts it is required to be multiplied
 807:.\Generated_Source\PSoC4/ADC_1.c ****     *  on 10 million and later divide on gain in counts per 10V.
 808:.\Generated_Source\PSoC4/ADC_1.c ****     *
 809:.\Generated_Source\PSoC4/ADC_1.c ****     *******************************************************************************/
 810:.\Generated_Source\PSoC4/ADC_1.c ****     int32 ADC_1_CountsTo_uVolts(uint32 chan, int16 adcCounts)
 811:.\Generated_Source\PSoC4/ADC_1.c ****     {
 801              		.loc 1 811 0
 802              		.cfi_startproc
 803              	.LVL57:
 804 0000 38B5     		push	{r3, r4, r5, lr}
 805              		.cfi_def_cfa_offset 16
 806              		.cfi_offset 3, -16
 807              		.cfi_offset 4, -12
 808              		.cfi_offset 5, -8
 809              		.cfi_offset 14, -4
 810 0002 051C     		mov	r5, r0
 811 0004 0C1C     		mov	r4, r1
 812:.\Generated_Source\PSoC4/ADC_1.c ****         int64 uVolts;
 813:.\Generated_Source\PSoC4/ADC_1.c **** 
 814:.\Generated_Source\PSoC4/ADC_1.c ****         /* Halt CPU in debug mode if channel is out of valid range */
 815:.\Generated_Source\PSoC4/ADC_1.c ****         CYASSERT(chan < ADC_1_TOTAL_CHANNELS_NUM);
 812              		.loc 1 815 0
 813 0006 0028     		cmp	r0, #0
 814 0008 02D0     		beq	.L68
 815              		.loc 1 815 0 is_stmt 0 discriminator 1
 816 000a 0020     		mov	r0, #0
 817              	.LVL58:
 818 000c FFF7FEFF 		bl	CyHalt
 819              	.LVL59:
 820              	.L68:
 816:.\Generated_Source\PSoC4/ADC_1.c **** 
 817:.\Generated_Source\PSoC4/ADC_1.c ****         /* Divide the adcCount when accumulate averaging mode selected */
 818:.\Generated_Source\PSoC4/ADC_1.c ****         #if(ADC_1_DEFAULT_AVG_MODE == ADC_1__ACCUMULATE)
 819:.\Generated_Source\PSoC4/ADC_1.c ****             if((ADC_1_channelsConfig[chan] & ADC_1_AVERAGING_EN) != 0u)
 820:.\Generated_Source\PSoC4/ADC_1.c ****             {
 821:.\Generated_Source\PSoC4/ADC_1.c ****                 adcCounts /= ADC_1_DEFAULT_AVG_SAMPLES_DIV;
ARM GAS  C:\Users\User\AppData\Local\Temp\ccfDypEy.s 			page 30


 821              		.loc 1 821 0 is_stmt 1
 822 0010 E017     		asr	r0, r4, #31
 823 0012 400F     		lsr	r0, r0, #29
 824 0014 0019     		add	r0, r0, r4
 825 0016 C410     		asr	r4, r0, #3
 826              	.LVL60:
 822:.\Generated_Source\PSoC4/ADC_1.c ****             }
 823:.\Generated_Source\PSoC4/ADC_1.c ****         #endif /* ADC_1_DEFAULT_AVG_MODE == ADC_1__ACCUMULATE */
 824:.\Generated_Source\PSoC4/ADC_1.c **** 
 825:.\Generated_Source\PSoC4/ADC_1.c ****         /* Subtract ADC offset */
 826:.\Generated_Source\PSoC4/ADC_1.c ****         adcCounts -= ADC_1_offset[chan];
 827              		.loc 1 826 0
 828 0018 6A00     		lsl	r2, r5, #1
 829 001a 084B     		ldr	r3, .L69
 830 001c D05A     		ldrh	r0, [r2, r3]
 831 001e 201A     		sub	r0, r4, r0
 832 0020 00B2     		sxth	r0, r0
 833              	.LVL61:
 827:.\Generated_Source\PSoC4/ADC_1.c **** 
 828:.\Generated_Source\PSoC4/ADC_1.c ****         uVolts = ((int64)adcCounts * ADC_1_10UV_COUNTS) / ADC_1_countsPer10Volt[chan];
 834              		.loc 1 828 0
 835 0022 C117     		asr	r1, r0, #31
 836 0024 064A     		ldr	r2, .L69+4
 837 0026 0023     		mov	r3, #0
 838 0028 FFF7FEFF 		bl	__aeabi_lmul
 839              	.LVL62:
 840 002c AD00     		lsl	r5, r5, #2
 841              	.LVL63:
 842 002e 054B     		ldr	r3, .L69+8
 843 0030 EA58     		ldr	r2, [r5, r3]
 844 0032 D317     		asr	r3, r2, #31
 845 0034 FFF7FEFF 		bl	__aeabi_ldivmod
 846              	.LVL64:
 829:.\Generated_Source\PSoC4/ADC_1.c **** 
 830:.\Generated_Source\PSoC4/ADC_1.c ****         return( (int32)uVolts );
 831:.\Generated_Source\PSoC4/ADC_1.c ****     }
 847              		.loc 1 831 0
 848              		@ sp needed
 849 0038 38BD     		pop	{r3, r4, r5, pc}
 850              	.L70:
 851 003a C046     		.align	2
 852              	.L69:
 853 003c 00000000 		.word	ADC_1_offset
 854 0040 80969800 		.word	10000000
 855 0044 00000000 		.word	ADC_1_countsPer10Volt
 856              		.cfi_endproc
 857              	.LFE16:
 858              		.size	ADC_1_CountsTo_uVolts, .-ADC_1_CountsTo_uVolts
 859              		.global	__aeabi_i2f
 860              		.global	__aeabi_fmul
 861              		.global	__aeabi_fdiv
 862              		.section	.text.ADC_1_CountsTo_Volts,"ax",%progbits
 863              		.align	2
 864              		.global	ADC_1_CountsTo_Volts
 865              		.code	16
 866              		.thumb_func
 867              		.type	ADC_1_CountsTo_Volts, %function
ARM GAS  C:\Users\User\AppData\Local\Temp\ccfDypEy.s 			page 31


 868              	ADC_1_CountsTo_Volts:
 869              	.LFB17:
 832:.\Generated_Source\PSoC4/ADC_1.c **** 
 833:.\Generated_Source\PSoC4/ADC_1.c **** 
 834:.\Generated_Source\PSoC4/ADC_1.c ****     /*******************************************************************************
 835:.\Generated_Source\PSoC4/ADC_1.c ****     * Function Name: ADC_1_CountsTo_Volts
 836:.\Generated_Source\PSoC4/ADC_1.c ****     ********************************************************************************
 837:.\Generated_Source\PSoC4/ADC_1.c ****     *
 838:.\Generated_Source\PSoC4/ADC_1.c ****     * Summary:
 839:.\Generated_Source\PSoC4/ADC_1.c ****     *  Converts the ADC output to Volts as a floating point number.
 840:.\Generated_Source\PSoC4/ADC_1.c ****     *  This function is not available when left data format justification selected.
 841:.\Generated_Source\PSoC4/ADC_1.c ****     *
 842:.\Generated_Source\PSoC4/ADC_1.c ****     * Parameters:
 843:.\Generated_Source\PSoC4/ADC_1.c ****     *  chan: The ADC channel number.
 844:.\Generated_Source\PSoC4/ADC_1.c ****     *  Result from the ADC conversion
 845:.\Generated_Source\PSoC4/ADC_1.c ****     *
 846:.\Generated_Source\PSoC4/ADC_1.c ****     * Return:
 847:.\Generated_Source\PSoC4/ADC_1.c ****     *  Results in Volts
 848:.\Generated_Source\PSoC4/ADC_1.c ****     *
 849:.\Generated_Source\PSoC4/ADC_1.c ****     * Global variables:
 850:.\Generated_Source\PSoC4/ADC_1.c ****     *  ADC_1_countsPer10Volt:  used to convert ADC counts to Volts.
 851:.\Generated_Source\PSoC4/ADC_1.c ****     *  ADC_1_Offset:  Used as the offset while converting ADC counts
 852:.\Generated_Source\PSoC4/ADC_1.c ****     *   to mVolts.
 853:.\Generated_Source\PSoC4/ADC_1.c ****     *
 854:.\Generated_Source\PSoC4/ADC_1.c ****     *******************************************************************************/
 855:.\Generated_Source\PSoC4/ADC_1.c ****     float32 ADC_1_CountsTo_Volts(uint32 chan, int16 adcCounts)
 856:.\Generated_Source\PSoC4/ADC_1.c ****     {
 870              		.loc 1 856 0
 871              		.cfi_startproc
 872              	.LVL65:
 873 0000 38B5     		push	{r3, r4, r5, lr}
 874              		.cfi_def_cfa_offset 16
 875              		.cfi_offset 3, -16
 876              		.cfi_offset 4, -12
 877              		.cfi_offset 5, -8
 878              		.cfi_offset 14, -4
 879 0002 051C     		mov	r5, r0
 880 0004 0C1C     		mov	r4, r1
 857:.\Generated_Source\PSoC4/ADC_1.c ****         float32 volts;
 858:.\Generated_Source\PSoC4/ADC_1.c **** 
 859:.\Generated_Source\PSoC4/ADC_1.c ****         /* Halt CPU in debug mode if channel is out of valid range */
 860:.\Generated_Source\PSoC4/ADC_1.c ****         CYASSERT(chan < ADC_1_TOTAL_CHANNELS_NUM);
 881              		.loc 1 860 0
 882 0006 0028     		cmp	r0, #0
 883 0008 02D0     		beq	.L72
 884              		.loc 1 860 0 is_stmt 0 discriminator 1
 885 000a 0020     		mov	r0, #0
 886              	.LVL66:
 887 000c FFF7FEFF 		bl	CyHalt
 888              	.LVL67:
 889              	.L72:
 861:.\Generated_Source\PSoC4/ADC_1.c **** 
 862:.\Generated_Source\PSoC4/ADC_1.c ****         /* Divide the adcCount when accumulate averaging mode selected */
 863:.\Generated_Source\PSoC4/ADC_1.c ****         #if(ADC_1_DEFAULT_AVG_MODE == ADC_1__ACCUMULATE)
 864:.\Generated_Source\PSoC4/ADC_1.c ****             if((ADC_1_channelsConfig[chan] & ADC_1_AVERAGING_EN) != 0u)
 865:.\Generated_Source\PSoC4/ADC_1.c ****             {
 866:.\Generated_Source\PSoC4/ADC_1.c ****                 adcCounts /= ADC_1_DEFAULT_AVG_SAMPLES_DIV;
ARM GAS  C:\Users\User\AppData\Local\Temp\ccfDypEy.s 			page 32


 890              		.loc 1 866 0 is_stmt 1
 891 0010 E017     		asr	r0, r4, #31
 892 0012 400F     		lsr	r0, r0, #29
 893 0014 0019     		add	r0, r0, r4
 894 0016 C410     		asr	r4, r0, #3
 895              	.LVL68:
 867:.\Generated_Source\PSoC4/ADC_1.c ****             }
 868:.\Generated_Source\PSoC4/ADC_1.c ****         #endif /* ADC_1_DEFAULT_AVG_MODE == ADC_1__ACCUMULATE */
 869:.\Generated_Source\PSoC4/ADC_1.c **** 
 870:.\Generated_Source\PSoC4/ADC_1.c ****         /* Subtract ADC offset */
 871:.\Generated_Source\PSoC4/ADC_1.c ****         adcCounts -= ADC_1_offset[chan];
 896              		.loc 1 871 0
 897 0018 6A00     		lsl	r2, r5, #1
 898 001a 0A4B     		ldr	r3, .L73
 899 001c D05A     		ldrh	r0, [r2, r3]
 900 001e 201A     		sub	r0, r4, r0
 901 0020 00B2     		sxth	r0, r0
 902              	.LVL69:
 872:.\Generated_Source\PSoC4/ADC_1.c **** 
 873:.\Generated_Source\PSoC4/ADC_1.c ****         volts = ((float32)adcCounts * ADC_1_10V_COUNTS) / (float32)ADC_1_countsPer10Volt[chan];
 903              		.loc 1 873 0
 904 0022 FFF7FEFF 		bl	__aeabi_i2f
 905              	.LVL70:
 906 0026 0849     		ldr	r1, .L73+4
 907 0028 FFF7FEFF 		bl	__aeabi_fmul
 908              	.LVL71:
 909 002c 041C     		add	r4, r0, #0
 910 002e AD00     		lsl	r5, r5, #2
 911              	.LVL72:
 912 0030 064B     		ldr	r3, .L73+8
 913 0032 E858     		ldr	r0, [r5, r3]
 914 0034 FFF7FEFF 		bl	__aeabi_i2f
 915              	.LVL73:
 916 0038 011C     		add	r1, r0, #0
 917 003a 201C     		add	r0, r4, #0
 918 003c FFF7FEFF 		bl	__aeabi_fdiv
 919              	.LVL74:
 874:.\Generated_Source\PSoC4/ADC_1.c **** 
 875:.\Generated_Source\PSoC4/ADC_1.c ****         return( volts );
 876:.\Generated_Source\PSoC4/ADC_1.c ****     }
 920              		.loc 1 876 0
 921              		@ sp needed
 922 0040 38BD     		pop	{r3, r4, r5, pc}
 923              	.L74:
 924 0042 C046     		.align	2
 925              	.L73:
 926 0044 00000000 		.word	ADC_1_offset
 927 0048 00002041 		.word	1092616192
 928 004c 00000000 		.word	ADC_1_countsPer10Volt
 929              		.cfi_endproc
 930              	.LFE17:
 931              		.size	ADC_1_CountsTo_Volts, .-ADC_1_CountsTo_Volts
 932              		.comm	ADC_1_countsPer10Volt,4,4
 933              		.comm	ADC_1_offset,2,4
 934              		.global	ADC_1_initVar
 935              		.bss
 936              		.set	.LANCHOR0,. + 0
ARM GAS  C:\Users\User\AppData\Local\Temp\ccfDypEy.s 			page 33


 937              		.type	ADC_1_initVar, %object
 938              		.size	ADC_1_initVar, 1
 939              	ADC_1_initVar:
 940 0000 00       		.space	1
 941              		.text
 942              	.Letext0:
 943              		.file 2 ".\\Generated_Source\\PSoC4\\cytypes.h"
 944              		.file 3 ".\\Generated_Source\\PSoC4\\CyLib.h"