ARM GAS  C:\Users\sdysart\AppData\Local\Temp\ccLktsif.s 			page 1


   1              		.syntax unified
   2              		.cpu cortex-m3
   3              		.fpu softvfp
   4              		.eabi_attribute 20, 1
   5              		.eabi_attribute 21, 1
   6              		.eabi_attribute 23, 3
   7              		.eabi_attribute 24, 1
   8              		.eabi_attribute 25, 1
   9              		.eabi_attribute 26, 1
  10              		.eabi_attribute 30, 1
  11              		.eabi_attribute 34, 1
  12              		.eabi_attribute 18, 4
  13              		.thumb
  14              		.syntax unified
  15              		.file	"CRC.c"
  16              		.text
  17              	.Ltext0:
  18              		.cfi_sections	.debug_frame
  19              		.section	.text.CRC_Enable,"ax",%progbits
  20              		.align	2
  21              		.global	CRC_Enable
  22              		.thumb
  23              		.thumb_func
  24              		.type	CRC_Enable, %function
  25              	CRC_Enable:
  26              	.LFB1:
  27              		.file 1 "Generated_Source\\PSoC5\\CRC.c"
   1:Generated_Source\PSoC5/CRC.c **** /*******************************************************************************
   2:Generated_Source\PSoC5/CRC.c **** * File Name: CRC.c
   3:Generated_Source\PSoC5/CRC.c **** * Version 2.40
   4:Generated_Source\PSoC5/CRC.c **** *
   5:Generated_Source\PSoC5/CRC.c **** * Description:
   6:Generated_Source\PSoC5/CRC.c **** *  This file provides the source code to the API for the CRC component
   7:Generated_Source\PSoC5/CRC.c **** *
   8:Generated_Source\PSoC5/CRC.c **** * Note:
   9:Generated_Source\PSoC5/CRC.c **** *  None
  10:Generated_Source\PSoC5/CRC.c **** *
  11:Generated_Source\PSoC5/CRC.c **** ********************************************************************************
  12:Generated_Source\PSoC5/CRC.c **** * Copyright 2008-2013, Cypress Semiconductor Corporation.  All rights reserved.
  13:Generated_Source\PSoC5/CRC.c **** * You may use this file only in accordance with the license, terms, conditions,
  14:Generated_Source\PSoC5/CRC.c **** * disclaimers, and limitations in the end user license agreement accompanying
  15:Generated_Source\PSoC5/CRC.c **** * the software package with which this file was provided.
  16:Generated_Source\PSoC5/CRC.c **** *******************************************************************************/
  17:Generated_Source\PSoC5/CRC.c **** 
  18:Generated_Source\PSoC5/CRC.c **** #include "CRC.h"
  19:Generated_Source\PSoC5/CRC.c **** 
  20:Generated_Source\PSoC5/CRC.c **** uint8 CRC_initVar = 0u;
  21:Generated_Source\PSoC5/CRC.c **** 
  22:Generated_Source\PSoC5/CRC.c **** CRC_BACKUP_STRUCT CRC_backup =
  23:Generated_Source\PSoC5/CRC.c **** {
  24:Generated_Source\PSoC5/CRC.c ****     0x00u, /* enableState; */
  25:Generated_Source\PSoC5/CRC.c **** 
  26:Generated_Source\PSoC5/CRC.c ****     /* Save D0 and D1 registers are none-retention for Panther ES1 */
  27:Generated_Source\PSoC5/CRC.c ****     #if (CY_UDB_V0)
  28:Generated_Source\PSoC5/CRC.c **** 
  29:Generated_Source\PSoC5/CRC.c ****         #if(CRC_CRC_SIZE <= 32u)
  30:Generated_Source\PSoC5/CRC.c ****             CRC_DEFAULT_POLYNOM, /* polynomial; */
ARM GAS  C:\Users\sdysart\AppData\Local\Temp\ccLktsif.s 			page 2


  31:Generated_Source\PSoC5/CRC.c **** 
  32:Generated_Source\PSoC5/CRC.c ****         #else
  33:Generated_Source\PSoC5/CRC.c ****             CRC_DEFAULT_POLYNOM_UPPER, /* polynomialUpper; */
  34:Generated_Source\PSoC5/CRC.c ****             CRC_DEFAULT_POLYNOM_LOWER,  /* polynomialLower; */
  35:Generated_Source\PSoC5/CRC.c **** 
  36:Generated_Source\PSoC5/CRC.c ****         #endif  /* End (CRC_CRC_SIZE <= 32u) */
  37:Generated_Source\PSoC5/CRC.c **** 
  38:Generated_Source\PSoC5/CRC.c ****     #endif  /* End (CY_UDB_V0) */
  39:Generated_Source\PSoC5/CRC.c **** };
  40:Generated_Source\PSoC5/CRC.c **** 
  41:Generated_Source\PSoC5/CRC.c **** 
  42:Generated_Source\PSoC5/CRC.c **** /*******************************************************************************
  43:Generated_Source\PSoC5/CRC.c **** * Function Name: CRC_Init
  44:Generated_Source\PSoC5/CRC.c **** ********************************************************************************
  45:Generated_Source\PSoC5/CRC.c **** *
  46:Generated_Source\PSoC5/CRC.c **** * Summary:
  47:Generated_Source\PSoC5/CRC.c **** *  Initializes seed and polynomial registers with initial values.
  48:Generated_Source\PSoC5/CRC.c **** *
  49:Generated_Source\PSoC5/CRC.c **** * Parameters:
  50:Generated_Source\PSoC5/CRC.c **** *  void
  51:Generated_Source\PSoC5/CRC.c **** *
  52:Generated_Source\PSoC5/CRC.c **** * Return:
  53:Generated_Source\PSoC5/CRC.c **** *  void
  54:Generated_Source\PSoC5/CRC.c **** *
  55:Generated_Source\PSoC5/CRC.c **** *******************************************************************************/
  56:Generated_Source\PSoC5/CRC.c **** void CRC_Init(void) 
  57:Generated_Source\PSoC5/CRC.c **** {
  58:Generated_Source\PSoC5/CRC.c ****     /* Writes seed value and ponynom value provided for customizer */
  59:Generated_Source\PSoC5/CRC.c ****     #if (CRC_CRC_SIZE <= 32u)
  60:Generated_Source\PSoC5/CRC.c ****         CRC_WritePolynomial(CRC_DEFAULT_POLYNOM);
  61:Generated_Source\PSoC5/CRC.c ****         CRC_WriteSeed(CRC_DEFAULT_SEED);
  62:Generated_Source\PSoC5/CRC.c ****         CRC_ResetSeedInit(CRC_DEFAULT_SEED);
  63:Generated_Source\PSoC5/CRC.c **** 
  64:Generated_Source\PSoC5/CRC.c ****     #else
  65:Generated_Source\PSoC5/CRC.c ****         CRC_WritePolynomialUpper(CRC_DEFAULT_POLYNOM_UPPER);
  66:Generated_Source\PSoC5/CRC.c ****         CRC_WritePolynomialLower(CRC_DEFAULT_POLYNOM_LOWER);
  67:Generated_Source\PSoC5/CRC.c ****         CRC_WriteSeedUpper(CRC_DEFAULT_SEED_UPPER);
  68:Generated_Source\PSoC5/CRC.c ****         CRC_WriteSeedLower(CRC_DEFAULT_SEED_LOWER);
  69:Generated_Source\PSoC5/CRC.c ****         CRC_ResetSeedInitUpper(CRC_DEFAULT_SEED_UPPER);
  70:Generated_Source\PSoC5/CRC.c ****         CRC_ResetSeedInitLower(CRC_DEFAULT_SEED_LOWER);
  71:Generated_Source\PSoC5/CRC.c **** 
  72:Generated_Source\PSoC5/CRC.c ****     #endif  /* End (CRC_CRC_SIZE <= 32u) */
  73:Generated_Source\PSoC5/CRC.c **** }
  74:Generated_Source\PSoC5/CRC.c **** 
  75:Generated_Source\PSoC5/CRC.c **** 
  76:Generated_Source\PSoC5/CRC.c **** /*******************************************************************************
  77:Generated_Source\PSoC5/CRC.c **** * Function Name: CRC_Enable
  78:Generated_Source\PSoC5/CRC.c **** ********************************************************************************
  79:Generated_Source\PSoC5/CRC.c **** *
  80:Generated_Source\PSoC5/CRC.c **** * Summary:
  81:Generated_Source\PSoC5/CRC.c **** *  Starts CRC computation on rising edge of input clock.
  82:Generated_Source\PSoC5/CRC.c **** *
  83:Generated_Source\PSoC5/CRC.c **** * Parameters:
  84:Generated_Source\PSoC5/CRC.c **** *  void
  85:Generated_Source\PSoC5/CRC.c **** *
  86:Generated_Source\PSoC5/CRC.c **** * Return:
  87:Generated_Source\PSoC5/CRC.c **** *  void
ARM GAS  C:\Users\sdysart\AppData\Local\Temp\ccLktsif.s 			page 3


  88:Generated_Source\PSoC5/CRC.c **** *
  89:Generated_Source\PSoC5/CRC.c **** *******************************************************************************/
  90:Generated_Source\PSoC5/CRC.c **** void CRC_Enable(void) 
  91:Generated_Source\PSoC5/CRC.c **** {
  28              		.loc 1 91 0
  29              		.cfi_startproc
  30              		@ args = 0, pretend = 0, frame = 0
  31              		@ frame_needed = 0, uses_anonymous_args = 0
  32              		@ link register save eliminated.
  92:Generated_Source\PSoC5/CRC.c ****     CRC_CONTROL_REG |= CRC_CTRL_ENABLE;
  33              		.loc 1 92 0
  34 0000 024A     		ldr	r2, .L2
  35 0002 1378     		ldrb	r3, [r2]	@ zero_extendqisi2
  36 0004 43F00103 		orr	r3, r3, #1
  37 0008 1370     		strb	r3, [r2]
  38 000a 7047     		bx	lr
  39              	.L3:
  40              		.align	2
  41              	.L2:
  42 000c 72640040 		.word	1073767538
  43              		.cfi_endproc
  44              	.LFE1:
  45              		.size	CRC_Enable, .-CRC_Enable
  46              		.section	.text.CRC_Stop,"ax",%progbits
  47              		.align	2
  48              		.global	CRC_Stop
  49              		.thumb
  50              		.thumb_func
  51              		.type	CRC_Stop, %function
  52              	CRC_Stop:
  53              	.LFB3:
  93:Generated_Source\PSoC5/CRC.c **** }
  94:Generated_Source\PSoC5/CRC.c **** 
  95:Generated_Source\PSoC5/CRC.c **** 
  96:Generated_Source\PSoC5/CRC.c **** /*******************************************************************************
  97:Generated_Source\PSoC5/CRC.c **** * Function Name: CRC_Start
  98:Generated_Source\PSoC5/CRC.c **** ********************************************************************************
  99:Generated_Source\PSoC5/CRC.c **** *
 100:Generated_Source\PSoC5/CRC.c **** * Summary:
 101:Generated_Source\PSoC5/CRC.c **** *  Initializes seed and polynomial registers with initial values. Computation
 102:Generated_Source\PSoC5/CRC.c **** *  of CRC starts on rising edge of input clock.
 103:Generated_Source\PSoC5/CRC.c **** *
 104:Generated_Source\PSoC5/CRC.c **** * Parameters:
 105:Generated_Source\PSoC5/CRC.c **** *  void
 106:Generated_Source\PSoC5/CRC.c **** *
 107:Generated_Source\PSoC5/CRC.c **** * Return:
 108:Generated_Source\PSoC5/CRC.c **** *  void
 109:Generated_Source\PSoC5/CRC.c **** *
 110:Generated_Source\PSoC5/CRC.c **** * Global variables:
 111:Generated_Source\PSoC5/CRC.c **** *  CRC_initVar: global variable is used to indicate initial
 112:Generated_Source\PSoC5/CRC.c **** *  configuration of this component.  The variable is initialized to zero and set
 113:Generated_Source\PSoC5/CRC.c **** *  to 1 the first time CRC_Start() is called. This allows
 114:Generated_Source\PSoC5/CRC.c **** *  enable/disable component without re-initialization in all subsequent calls
 115:Generated_Source\PSoC5/CRC.c **** *  to the CRC_Start() routine.
 116:Generated_Source\PSoC5/CRC.c **** *
 117:Generated_Source\PSoC5/CRC.c **** *******************************************************************************/
 118:Generated_Source\PSoC5/CRC.c **** void CRC_Start(void) 
ARM GAS  C:\Users\sdysart\AppData\Local\Temp\ccLktsif.s 			page 4


 119:Generated_Source\PSoC5/CRC.c **** {
 120:Generated_Source\PSoC5/CRC.c ****     /* Writes seed value and ponynom value provided from customizer */
 121:Generated_Source\PSoC5/CRC.c ****     if (CRC_initVar == 0u)
 122:Generated_Source\PSoC5/CRC.c ****     {
 123:Generated_Source\PSoC5/CRC.c ****         CRC_Init();
 124:Generated_Source\PSoC5/CRC.c ****         CRC_initVar = 1u;
 125:Generated_Source\PSoC5/CRC.c ****     }
 126:Generated_Source\PSoC5/CRC.c **** 
 127:Generated_Source\PSoC5/CRC.c ****     CRC_Enable();
 128:Generated_Source\PSoC5/CRC.c **** }
 129:Generated_Source\PSoC5/CRC.c **** 
 130:Generated_Source\PSoC5/CRC.c **** 
 131:Generated_Source\PSoC5/CRC.c **** /*******************************************************************************
 132:Generated_Source\PSoC5/CRC.c **** * Function Name: CRC_Stop
 133:Generated_Source\PSoC5/CRC.c **** ********************************************************************************
 134:Generated_Source\PSoC5/CRC.c **** *
 135:Generated_Source\PSoC5/CRC.c **** * Summary:
 136:Generated_Source\PSoC5/CRC.c **** *  Stops CRC computation.
 137:Generated_Source\PSoC5/CRC.c **** *
 138:Generated_Source\PSoC5/CRC.c **** * Parameters:
 139:Generated_Source\PSoC5/CRC.c **** *  void
 140:Generated_Source\PSoC5/CRC.c **** *
 141:Generated_Source\PSoC5/CRC.c **** * Return:
 142:Generated_Source\PSoC5/CRC.c **** *  void
 143:Generated_Source\PSoC5/CRC.c **** *
 144:Generated_Source\PSoC5/CRC.c **** * Reentrant:
 145:Generated_Source\PSoC5/CRC.c **** *  No
 146:Generated_Source\PSoC5/CRC.c **** *
 147:Generated_Source\PSoC5/CRC.c **** *******************************************************************************/
 148:Generated_Source\PSoC5/CRC.c **** void CRC_Stop(void) 
 149:Generated_Source\PSoC5/CRC.c **** {
  54              		.loc 1 149 0
  55              		.cfi_startproc
  56              		@ args = 0, pretend = 0, frame = 0
  57              		@ frame_needed = 0, uses_anonymous_args = 0
  58              		@ link register save eliminated.
 150:Generated_Source\PSoC5/CRC.c ****     CRC_CONTROL_REG &= ((uint8)~CRC_CTRL_ENABLE);
  59              		.loc 1 150 0
  60 0000 024A     		ldr	r2, .L5
  61 0002 1378     		ldrb	r3, [r2]	@ zero_extendqisi2
  62 0004 03F0FE03 		and	r3, r3, #254
  63 0008 1370     		strb	r3, [r2]
  64 000a 7047     		bx	lr
  65              	.L6:
  66              		.align	2
  67              	.L5:
  68 000c 72640040 		.word	1073767538
  69              		.cfi_endproc
  70              	.LFE3:
  71              		.size	CRC_Stop, .-CRC_Stop
  72              		.section	.text.CRC_ResetSeedInit,"ax",%progbits
  73              		.align	2
  74              		.global	CRC_ResetSeedInit
  75              		.thumb
  76              		.thumb_func
  77              		.type	CRC_ResetSeedInit, %function
  78              	CRC_ResetSeedInit:
ARM GAS  C:\Users\sdysart\AppData\Local\Temp\ccLktsif.s 			page 5


  79              	.LFB4:
 151:Generated_Source\PSoC5/CRC.c **** }
 152:Generated_Source\PSoC5/CRC.c **** 
 153:Generated_Source\PSoC5/CRC.c **** 
 154:Generated_Source\PSoC5/CRC.c **** #if (CRC_CRC_SIZE <= 32u) /* 8-32 bits CRC */
 155:Generated_Source\PSoC5/CRC.c ****     /*******************************************************************************
 156:Generated_Source\PSoC5/CRC.c ****     * FUNCTION NAME: CRC_ResetSeedInit
 157:Generated_Source\PSoC5/CRC.c ****     ********************************************************************************
 158:Generated_Source\PSoC5/CRC.c ****     *
 159:Generated_Source\PSoC5/CRC.c ****     * Summary:
 160:Generated_Source\PSoC5/CRC.c ****     *  Increments the CRC by one when API single step mode is used.
 161:Generated_Source\PSoC5/CRC.c ****     *
 162:Generated_Source\PSoC5/CRC.c ****     * Parameters:
 163:Generated_Source\PSoC5/CRC.c ****     *  void
 164:Generated_Source\PSoC5/CRC.c ****     *
 165:Generated_Source\PSoC5/CRC.c ****     * Return:
 166:Generated_Source\PSoC5/CRC.c ****     *  void
 167:Generated_Source\PSoC5/CRC.c ****     *
 168:Generated_Source\PSoC5/CRC.c ****     *******************************************************************************/
 169:Generated_Source\PSoC5/CRC.c ****     void CRC_ResetSeedInit(uint8 seed)
 170:Generated_Source\PSoC5/CRC.c ****                                         
 171:Generated_Source\PSoC5/CRC.c ****     {
  80              		.loc 1 171 0
  81              		.cfi_startproc
  82              		@ args = 0, pretend = 0, frame = 0
  83              		@ frame_needed = 0, uses_anonymous_args = 0
  84              	.LVL0:
  85 0000 10B5     		push	{r4, lr}
  86              		.cfi_def_cfa_offset 8
  87              		.cfi_offset 4, -8
  88              		.cfi_offset 14, -4
 172:Generated_Source\PSoC5/CRC.c ****          uint8 enableInterrupts;
 173:Generated_Source\PSoC5/CRC.c **** 
 174:Generated_Source\PSoC5/CRC.c ****         /* Mask the Seed to cut unused bits */
 175:Generated_Source\PSoC5/CRC.c ****         #if((0u != (CRC_CRC_SIZE % 8u)) || (CRC_CRC_SIZE == 24u))
 176:Generated_Source\PSoC5/CRC.c ****             seed &= CRC_MASK;
  89              		.loc 1 176 0
  90 0002 00F00F04 		and	r4, r0, #15
  91              	.LVL1:
 177:Generated_Source\PSoC5/CRC.c ****         #endif /* ((0u != (CRC_CRC_SIZE % 8u)) || (CRC_CRC_SIZE == 24u)) */
 178:Generated_Source\PSoC5/CRC.c **** 
 179:Generated_Source\PSoC5/CRC.c ****         /* Change AuxControl reg, need to be safety */
 180:Generated_Source\PSoC5/CRC.c ****         enableInterrupts = CyEnterCriticalSection();
  92              		.loc 1 180 0
  93 0006 FFF7FEFF 		bl	CyEnterCriticalSection
  94              	.LVL2:
 181:Generated_Source\PSoC5/CRC.c **** 
 182:Generated_Source\PSoC5/CRC.c ****         #if (CRC_TIME_MULTIPLEXING_ENABLE)
 183:Generated_Source\PSoC5/CRC.c ****             /* Set FIFOs to single register */
 184:Generated_Source\PSoC5/CRC.c ****             CRC_AUX_CONTROL_A_REG |= CRC_AUXCTRL_FIFO_SINGLE_REG;
 185:Generated_Source\PSoC5/CRC.c **** 
 186:Generated_Source\PSoC5/CRC.c ****             #if(CRC_CRC_SIZE > 16u)       /* 17-32 bits CRC */
 187:Generated_Source\PSoC5/CRC.c ****                 CRC_AUX_CONTROL_B_REG |= CRC_AUXCTRL_FIFO_SINGLE_REG;
 188:Generated_Source\PSoC5/CRC.c ****             #endif  /* End (CRC_CRC_SIZE <= 8u) */
 189:Generated_Source\PSoC5/CRC.c **** 
 190:Generated_Source\PSoC5/CRC.c ****             /* AuxControl reg settings are done */
 191:Generated_Source\PSoC5/CRC.c ****             CyExitCriticalSection(enableInterrupts);
ARM GAS  C:\Users\sdysart\AppData\Local\Temp\ccLktsif.s 			page 6


 192:Generated_Source\PSoC5/CRC.c **** 
 193:Generated_Source\PSoC5/CRC.c ****             /* Write Seed COPY */
 194:Generated_Source\PSoC5/CRC.c ****             #if (CRC_CRC_SIZE <= 16u)          /* 16 bits CRC */
 195:Generated_Source\PSoC5/CRC.c ****                 CRC_SEED_COPY_A__A1_REG = HI8(seed);
 196:Generated_Source\PSoC5/CRC.c ****                 CRC_SEED_COPY_A__A0_REG = LO8(seed);
 197:Generated_Source\PSoC5/CRC.c **** 
 198:Generated_Source\PSoC5/CRC.c ****             #elif (CRC_CRC_SIZE <= 24u)        /* 24 bits CRC */
 199:Generated_Source\PSoC5/CRC.c ****                 CRC_SEED_COPY_B__A1_REG = LO8(HI16(seed));
 200:Generated_Source\PSoC5/CRC.c ****                 CRC_SEED_COPY_B__A0_REG = HI8(seed);
 201:Generated_Source\PSoC5/CRC.c ****                 CRC_SEED_COPY_A__A0_REG = LO8(seed);
 202:Generated_Source\PSoC5/CRC.c **** 
 203:Generated_Source\PSoC5/CRC.c ****             #else                                           /* 32 bits CRC */
 204:Generated_Source\PSoC5/CRC.c ****                 CRC_SEED_COPY_B__A1_REG = HI8(HI16(seed));
 205:Generated_Source\PSoC5/CRC.c ****                 CRC_SEED_COPY_A__A1_REG = LO8(HI16(seed));
 206:Generated_Source\PSoC5/CRC.c ****                 CRC_SEED_COPY_B__A0_REG = HI8(seed);
 207:Generated_Source\PSoC5/CRC.c ****                 CRC_SEED_COPY_A__A0_REG = LO8(seed);
 208:Generated_Source\PSoC5/CRC.c ****             #endif  /* End (CRC_CRC_SIZE <= 32u) */
 209:Generated_Source\PSoC5/CRC.c **** 
 210:Generated_Source\PSoC5/CRC.c ****         #else
 211:Generated_Source\PSoC5/CRC.c ****             /* Set FIFOs to single register */
 212:Generated_Source\PSoC5/CRC.c ****             #if (CRC_CRC_SIZE <= 8u)         /* 8 bits CRC */
 213:Generated_Source\PSoC5/CRC.c ****                 CRC_AUX_CONTROL_A_REG |= CRC_AUXCTRL_FIFO_SINGLE_REG;
  95              		.loc 1 213 0
  96 000a 054A     		ldr	r2, .L9
  97 000c 1378     		ldrb	r3, [r2]	@ zero_extendqisi2
  98 000e 43F00303 		orr	r3, r3, #3
  99 0012 1370     		strb	r3, [r2]
 214:Generated_Source\PSoC5/CRC.c **** 
 215:Generated_Source\PSoC5/CRC.c ****             #elif (CRC_CRC_SIZE <= 16u)      /* 16 bits CRC */
 216:Generated_Source\PSoC5/CRC.c ****                 CRC_AUX_CONTROL_A_REG  |= CRC_AUXCTRL_FIFO_SINGLE_REG;
 217:Generated_Source\PSoC5/CRC.c ****                 CRC_AUX_CONTROL_B_REG  |= CRC_AUXCTRL_FIFO_SINGLE_REG;
 218:Generated_Source\PSoC5/CRC.c **** 
 219:Generated_Source\PSoC5/CRC.c ****             #elif (CRC_CRC_SIZE <= 24u)      /* 24 bits CRC */
 220:Generated_Source\PSoC5/CRC.c ****                 CRC_AUX_CONTROL_A_REG  |= CRC_AUXCTRL_FIFO_SINGLE_REG;
 221:Generated_Source\PSoC5/CRC.c ****                 CRC_AUX_CONTROL_B_REG  |= CRC_AUXCTRL_FIFO_SINGLE_REG;
 222:Generated_Source\PSoC5/CRC.c ****                 CRC_AUX_CONTROL_C_REG  |= CRC_AUXCTRL_FIFO_SINGLE_REG;
 223:Generated_Source\PSoC5/CRC.c **** 
 224:Generated_Source\PSoC5/CRC.c ****             #elif (CRC_CRC_SIZE <= 32u)      /* 32 bits CRC */
 225:Generated_Source\PSoC5/CRC.c ****                 CRC_AUX_CONTROL_A_REG  |= CRC_AUXCTRL_FIFO_SINGLE_REG;
 226:Generated_Source\PSoC5/CRC.c ****                 CRC_AUX_CONTROL_B_REG  |= CRC_AUXCTRL_FIFO_SINGLE_REG;
 227:Generated_Source\PSoC5/CRC.c ****                 CRC_AUX_CONTROL_C_REG  |= CRC_AUXCTRL_FIFO_SINGLE_REG;
 228:Generated_Source\PSoC5/CRC.c ****                 CRC_AUX_CONTROL_D_REG  |= CRC_AUXCTRL_FIFO_SINGLE_REG;
 229:Generated_Source\PSoC5/CRC.c **** 
 230:Generated_Source\PSoC5/CRC.c ****             #endif  /* End (CRC_CRC_SIZE <= 8u) */
 231:Generated_Source\PSoC5/CRC.c **** 
 232:Generated_Source\PSoC5/CRC.c ****             /* AuxControl reg setting are done */
 233:Generated_Source\PSoC5/CRC.c ****             CyExitCriticalSection(enableInterrupts);
 100              		.loc 1 233 0
 101 0014 FFF7FEFF 		bl	CyExitCriticalSection
 102              	.LVL3:
 234:Generated_Source\PSoC5/CRC.c **** 
 235:Generated_Source\PSoC5/CRC.c ****             /* Write Seed COPY */
 236:Generated_Source\PSoC5/CRC.c ****             CY_SET_REG8(CRC_SEED_COPY_PTR, seed);
 103              		.loc 1 236 0
 104 0018 024B     		ldr	r3, .L9+4
 105 001a 1C70     		strb	r4, [r3]
 106 001c 10BD     		pop	{r4, pc}
ARM GAS  C:\Users\sdysart\AppData\Local\Temp\ccLktsif.s 			page 7


 107              	.LVL4:
 108              	.L10:
 109 001e 00BF     		.align	2
 110              	.L9:
 111 0020 92640040 		.word	1073767570
 112 0024 42640040 		.word	1073767490
 113              		.cfi_endproc
 114              	.LFE4:
 115              		.size	CRC_ResetSeedInit, .-CRC_ResetSeedInit
 116              		.section	.text.CRC_ReadCRC,"ax",%progbits
 117              		.align	2
 118              		.global	CRC_ReadCRC
 119              		.thumb
 120              		.thumb_func
 121              		.type	CRC_ReadCRC, %function
 122              	CRC_ReadCRC:
 123              	.LFB5:
 237:Generated_Source\PSoC5/CRC.c ****         #endif  /* End (CRC_TIME_MULTIPLEXING_ENABLE) */
 238:Generated_Source\PSoC5/CRC.c ****     }
 239:Generated_Source\PSoC5/CRC.c **** 
 240:Generated_Source\PSoC5/CRC.c **** #else
 241:Generated_Source\PSoC5/CRC.c **** 
 242:Generated_Source\PSoC5/CRC.c ****     /*******************************************************************************
 243:Generated_Source\PSoC5/CRC.c ****     * FUNCTION NAME: CRC_ResetSeedInitUpper
 244:Generated_Source\PSoC5/CRC.c ****     ********************************************************************************
 245:Generated_Source\PSoC5/CRC.c ****     *
 246:Generated_Source\PSoC5/CRC.c ****     * Summary:
 247:Generated_Source\PSoC5/CRC.c ****     *  Increments the CRC by one when API single step mode is used.
 248:Generated_Source\PSoC5/CRC.c ****     *
 249:Generated_Source\PSoC5/CRC.c ****     * Parameters:
 250:Generated_Source\PSoC5/CRC.c ****     *  void
 251:Generated_Source\PSoC5/CRC.c ****     *
 252:Generated_Source\PSoC5/CRC.c ****     * Return:
 253:Generated_Source\PSoC5/CRC.c ****     *  void
 254:Generated_Source\PSoC5/CRC.c ****     *
 255:Generated_Source\PSoC5/CRC.c ****     *******************************************************************************/
 256:Generated_Source\PSoC5/CRC.c ****     void CRC_ResetSeedInitUpper(uint32 seed) 
 257:Generated_Source\PSoC5/CRC.c ****     {
 258:Generated_Source\PSoC5/CRC.c ****         uint8 enableInterrupts;
 259:Generated_Source\PSoC5/CRC.c **** 
 260:Generated_Source\PSoC5/CRC.c ****         /* Mask the Seed Upper half to cut unused bits in case, when CRC size is not byte-aligned o
 261:Generated_Source\PSoC5/CRC.c ****         #if((0u != (CRC_CRC_SIZE % 8u)) || (CRC_CRC_SIZE == 24u))
 262:Generated_Source\PSoC5/CRC.c ****             seed &= CRC_MASK;
 263:Generated_Source\PSoC5/CRC.c ****         #endif /* ((0u != (CRC_CRC_SIZE % 8u)) || (CRC_CRC_SIZE == 24u)) */
 264:Generated_Source\PSoC5/CRC.c **** 
 265:Generated_Source\PSoC5/CRC.c ****         /* Change AuxControl reg, need to be safety */
 266:Generated_Source\PSoC5/CRC.c ****         enableInterrupts = CyEnterCriticalSection();
 267:Generated_Source\PSoC5/CRC.c **** 
 268:Generated_Source\PSoC5/CRC.c ****         /* Set FIFOs to single register */
 269:Generated_Source\PSoC5/CRC.c ****         CRC_AUX_CONTROL_A_REG |= CRC_AUXCTRL_FIFO_SINGLE_REG;
 270:Generated_Source\PSoC5/CRC.c ****         CRC_AUX_CONTROL_B_REG |= CRC_AUXCTRL_FIFO_SINGLE_REG;
 271:Generated_Source\PSoC5/CRC.c ****         CRC_AUX_CONTROL_C_REG |= CRC_AUXCTRL_FIFO_SINGLE_REG;
 272:Generated_Source\PSoC5/CRC.c **** 
 273:Generated_Source\PSoC5/CRC.c ****         #if (CRC_CRC_SIZE > 48u)               /* 49-64 bits CRC */
 274:Generated_Source\PSoC5/CRC.c ****             CRC_AUX_CONTROL_D_REG |= CRC_AUXCTRL_FIFO_SINGLE_REG;
 275:Generated_Source\PSoC5/CRC.c ****         #endif  /* End (CRC_CRC_SIZE <= 8u) */
 276:Generated_Source\PSoC5/CRC.c **** 
ARM GAS  C:\Users\sdysart\AppData\Local\Temp\ccLktsif.s 			page 8


 277:Generated_Source\PSoC5/CRC.c ****         /* AuxControl reg settings are done */
 278:Generated_Source\PSoC5/CRC.c ****         CyExitCriticalSection(enableInterrupts);
 279:Generated_Source\PSoC5/CRC.c **** 
 280:Generated_Source\PSoC5/CRC.c ****         /* Write Seed Upper COPY */
 281:Generated_Source\PSoC5/CRC.c ****         #if (CRC_CRC_SIZE <= 40u)          /* 40 bits CRC */
 282:Generated_Source\PSoC5/CRC.c ****             CRC_SEED_UPPER_COPY_C__A1_REG = LO8(seed);
 283:Generated_Source\PSoC5/CRC.c **** 
 284:Generated_Source\PSoC5/CRC.c ****         #elif (CRC_CRC_SIZE <= 48u)        /* 48 bits CRC */
 285:Generated_Source\PSoC5/CRC.c ****             CRC_SEED_UPPER_COPY_C__A1_REG = HI8(seed);
 286:Generated_Source\PSoC5/CRC.c ****             CRC_SEED_UPPER_COPY_B__A1_REG = LO8(seed);
 287:Generated_Source\PSoC5/CRC.c **** 
 288:Generated_Source\PSoC5/CRC.c ****         #elif (CRC_CRC_SIZE <= 56u)        /* 56 bits CRC */
 289:Generated_Source\PSoC5/CRC.c ****             CRC_SEED_UPPER_COPY_D__A1_REG = LO8(HI16(seed));
 290:Generated_Source\PSoC5/CRC.c ****             CRC_SEED_UPPER_COPY_C__A1_REG = HI8(seed);
 291:Generated_Source\PSoC5/CRC.c ****             CRC_SEED_UPPER_COPY_B__A1_REG = HI8(seed);
 292:Generated_Source\PSoC5/CRC.c **** 
 293:Generated_Source\PSoC5/CRC.c ****         #else                                           /* 64 bits CRC */
 294:Generated_Source\PSoC5/CRC.c ****             CRC_SEED_UPPER_COPY_D__A1_REG = HI8(HI16(seed));
 295:Generated_Source\PSoC5/CRC.c ****             CRC_SEED_UPPER_COPY_C__A1_REG = LO8(HI16(seed));
 296:Generated_Source\PSoC5/CRC.c ****             CRC_SEED_UPPER_COPY_B__A1_REG = HI8(seed);
 297:Generated_Source\PSoC5/CRC.c ****             CRC_SEED_UPPER_COPY_A__A1_REG = LO8(seed);
 298:Generated_Source\PSoC5/CRC.c **** 
 299:Generated_Source\PSoC5/CRC.c ****         #endif  /* End (CRC_CRC_SIZE <= 32u) */
 300:Generated_Source\PSoC5/CRC.c ****     }
 301:Generated_Source\PSoC5/CRC.c **** 
 302:Generated_Source\PSoC5/CRC.c **** 
 303:Generated_Source\PSoC5/CRC.c ****     /*******************************************************************************
 304:Generated_Source\PSoC5/CRC.c ****     * FUNCTION NAME: CRC_ResetSeedInitLower
 305:Generated_Source\PSoC5/CRC.c ****     ********************************************************************************
 306:Generated_Source\PSoC5/CRC.c ****     *
 307:Generated_Source\PSoC5/CRC.c ****     * Summary:
 308:Generated_Source\PSoC5/CRC.c ****     *  Increments the CRC by one when API single step mode is used.
 309:Generated_Source\PSoC5/CRC.c ****     *
 310:Generated_Source\PSoC5/CRC.c ****     * Parameters:
 311:Generated_Source\PSoC5/CRC.c ****     *  void
 312:Generated_Source\PSoC5/CRC.c ****     *
 313:Generated_Source\PSoC5/CRC.c ****     * Return:
 314:Generated_Source\PSoC5/CRC.c ****     *  void
 315:Generated_Source\PSoC5/CRC.c ****     *
 316:Generated_Source\PSoC5/CRC.c ****     *******************************************************************************/
 317:Generated_Source\PSoC5/CRC.c ****     void CRC_ResetSeedInitLower(uint32 seed) 
 318:Generated_Source\PSoC5/CRC.c ****     {
 319:Generated_Source\PSoC5/CRC.c ****         /* Write Seed Lower COPY */
 320:Generated_Source\PSoC5/CRC.c ****         #if (CRC_CRC_SIZE <= 40u)          /* 40 bits CRC */
 321:Generated_Source\PSoC5/CRC.c ****             CRC_SEED_LOWER_COPY_B__A1_REG = HI8(HI16(seed));
 322:Generated_Source\PSoC5/CRC.c ****             CRC_SEED_LOWER_COPY_C__A0_REG = LO8(HI16(seed));
 323:Generated_Source\PSoC5/CRC.c ****             CRC_SEED_LOWER_COPY_B__A0_REG = HI8(seed);
 324:Generated_Source\PSoC5/CRC.c ****             CRC_SEED_LOWER_COPY_A__A0_REG = LO8(seed);
 325:Generated_Source\PSoC5/CRC.c **** 
 326:Generated_Source\PSoC5/CRC.c ****         #elif (CRC_CRC_SIZE <= 48u)        /* 48 bits CRC */
 327:Generated_Source\PSoC5/CRC.c ****             CRC_SEED_LOWER_COPY_A__A1_REG = HI8(HI16(seed));
 328:Generated_Source\PSoC5/CRC.c ****             CRC_SEED_LOWER_COPY_C__A0_REG = LO8(HI16(seed));
 329:Generated_Source\PSoC5/CRC.c ****             CRC_SEED_LOWER_COPY_B__A0_REG = HI8(seed);
 330:Generated_Source\PSoC5/CRC.c ****             CRC_SEED_LOWER_COPY_A__A0_REG = LO8(seed);
 331:Generated_Source\PSoC5/CRC.c **** 
 332:Generated_Source\PSoC5/CRC.c ****         #else                                           /* 64 bits CRC */
 333:Generated_Source\PSoC5/CRC.c ****             CRC_SEED_LOWER_COPY_D__A0_REG = HI8(HI16(seed));
ARM GAS  C:\Users\sdysart\AppData\Local\Temp\ccLktsif.s 			page 9


 334:Generated_Source\PSoC5/CRC.c ****             CRC_SEED_LOWER_COPY_C__A0_REG = LO8(HI16(seed));
 335:Generated_Source\PSoC5/CRC.c ****             CRC_SEED_LOWER_COPY_B__A0_REG = HI8(seed);
 336:Generated_Source\PSoC5/CRC.c ****             CRC_SEED_LOWER_COPY_A__A0_REG = LO8(seed);
 337:Generated_Source\PSoC5/CRC.c **** 
 338:Generated_Source\PSoC5/CRC.c ****         #endif  /* End (CRC_CRC_SIZE <= 32u) */
 339:Generated_Source\PSoC5/CRC.c ****     }
 340:Generated_Source\PSoC5/CRC.c **** #endif  /* End (CRC_CRC_SIZE <= 32u) */
 341:Generated_Source\PSoC5/CRC.c **** 
 342:Generated_Source\PSoC5/CRC.c **** 
 343:Generated_Source\PSoC5/CRC.c **** #if(CRC_CRC_SIZE <= 32u) /* 8-32 bits CRC */
 344:Generated_Source\PSoC5/CRC.c ****     /*******************************************************************************
 345:Generated_Source\PSoC5/CRC.c ****     * Function Name: CRC_ReadCRC
 346:Generated_Source\PSoC5/CRC.c ****     ********************************************************************************
 347:Generated_Source\PSoC5/CRC.c ****     *
 348:Generated_Source\PSoC5/CRC.c ****     * Summary:
 349:Generated_Source\PSoC5/CRC.c ****     *  Reads CRC value.
 350:Generated_Source\PSoC5/CRC.c ****     *
 351:Generated_Source\PSoC5/CRC.c ****     * Parameters:
 352:Generated_Source\PSoC5/CRC.c ****     *  void
 353:Generated_Source\PSoC5/CRC.c ****     *
 354:Generated_Source\PSoC5/CRC.c ****     * Return:
 355:Generated_Source\PSoC5/CRC.c ****     *  Returns CRC value.
 356:Generated_Source\PSoC5/CRC.c ****     *
 357:Generated_Source\PSoC5/CRC.c ****     * Side Effects:
 358:Generated_Source\PSoC5/CRC.c ****     *  The CRC value is cut according to mask = 2^(Resolution) - 1.
 359:Generated_Source\PSoC5/CRC.c ****     *  For example if CRC Resolution is 14 bits the mask value is:
 360:Generated_Source\PSoC5/CRC.c ****     *  mask = 2^(14) - 1 = 0x3FFFu.
 361:Generated_Source\PSoC5/CRC.c ****     *  The seed value = 0xFFFFu is cut:
 362:Generated_Source\PSoC5/CRC.c ****     *  seed & mask = 0xFFFFu & 0x3FFFu = 0x3FFFu.
 363:Generated_Source\PSoC5/CRC.c ****     *
 364:Generated_Source\PSoC5/CRC.c ****     *******************************************************************************/
 365:Generated_Source\PSoC5/CRC.c ****     uint8 CRC_ReadCRC(void) 
 366:Generated_Source\PSoC5/CRC.c ****     {
 124              		.loc 1 366 0
 125              		.cfi_startproc
 126              		@ args = 0, pretend = 0, frame = 0
 127              		@ frame_needed = 0, uses_anonymous_args = 0
 128              		@ link register save eliminated.
 367:Generated_Source\PSoC5/CRC.c ****         /* Read CRC */
 368:Generated_Source\PSoC5/CRC.c ****         #if (CRC_TIME_MULTIPLEXING_ENABLE)
 369:Generated_Source\PSoC5/CRC.c **** 
 370:Generated_Source\PSoC5/CRC.c ****             uint8 seed;
 371:Generated_Source\PSoC5/CRC.c **** 
 372:Generated_Source\PSoC5/CRC.c ****             #if (CRC_CRC_SIZE <= 16u)          /* 16 bits CRC */
 373:Generated_Source\PSoC5/CRC.c ****                 seed = ((uint16) CRC_SEED_A__A1_REG) << 8u;
 374:Generated_Source\PSoC5/CRC.c ****                 seed |= CRC_SEED_A__A0_REG;
 375:Generated_Source\PSoC5/CRC.c **** 
 376:Generated_Source\PSoC5/CRC.c ****             #elif (CRC_CRC_SIZE <= 24u)        /* 24 bits CRC */
 377:Generated_Source\PSoC5/CRC.c ****                 seed = ((uint32) (CRC_SEED_B__A1_REG)) << 16u;
 378:Generated_Source\PSoC5/CRC.c ****                 seed |= ((uint32) (CRC_SEED_B__A0_REG)) << 8u;
 379:Generated_Source\PSoC5/CRC.c ****                 seed |= CRC_SEED_A__A0_REG;
 380:Generated_Source\PSoC5/CRC.c **** 
 381:Generated_Source\PSoC5/CRC.c ****             #else                                           /* 32 bits CRC */
 382:Generated_Source\PSoC5/CRC.c ****                 seed = ((uint32) CRC_SEED_B__A1_REG) << 24u;
 383:Generated_Source\PSoC5/CRC.c ****                 seed |= ((uint32) CRC_SEED_A__A1_REG) << 16u;
 384:Generated_Source\PSoC5/CRC.c ****                 seed |= ((uint32) CRC_SEED_B__A0_REG) << 8u;
 385:Generated_Source\PSoC5/CRC.c ****                 seed |= CRC_SEED_A__A0_REG;
ARM GAS  C:\Users\sdysart\AppData\Local\Temp\ccLktsif.s 			page 10


 386:Generated_Source\PSoC5/CRC.c **** 
 387:Generated_Source\PSoC5/CRC.c ****             #endif  /* End (CRC_CRC_SIZE <= 8u) */
 388:Generated_Source\PSoC5/CRC.c ****             
 389:Generated_Source\PSoC5/CRC.c ****             #if((0u != (CRC_CRC_SIZE % 8u)) || (CRC_CRC_SIZE == 24u))
 390:Generated_Source\PSoC5/CRC.c ****                 seed &= CRC_MASK;
 391:Generated_Source\PSoC5/CRC.c ****             #endif /* ((0u != (CRC_CRC_SIZE % 8u)) || (CRC_CRC_SIZE == 24u)) */
 392:Generated_Source\PSoC5/CRC.c ****             
 393:Generated_Source\PSoC5/CRC.c ****             return (seed);
 394:Generated_Source\PSoC5/CRC.c **** 
 395:Generated_Source\PSoC5/CRC.c ****         #else
 396:Generated_Source\PSoC5/CRC.c ****             
 397:Generated_Source\PSoC5/CRC.c ****             #if((0u != (CRC_CRC_SIZE % 8u)) || (CRC_CRC_SIZE == 24u))
 398:Generated_Source\PSoC5/CRC.c ****                 return (CY_GET_REG8(CRC_SEED_PTR)  & CRC_MASK);
 129              		.loc 1 398 0
 130 0000 024B     		ldr	r3, .L12
 131 0002 1878     		ldrb	r0, [r3]	@ zero_extendqisi2
 399:Generated_Source\PSoC5/CRC.c ****             #else
 400:Generated_Source\PSoC5/CRC.c ****                 return (CY_GET_REG8(CRC_SEED_PTR));
 401:Generated_Source\PSoC5/CRC.c ****             #endif /* ((0u != (CRC_CRC_SIZE % 8u)) || (CRC_CRC_SIZE == 24u)) */
 402:Generated_Source\PSoC5/CRC.c ****             
 403:Generated_Source\PSoC5/CRC.c **** 
 404:Generated_Source\PSoC5/CRC.c ****         #endif  /* End (CRC_TIME_MULTIPLEXING_ENABLE) */
 405:Generated_Source\PSoC5/CRC.c ****     }
 132              		.loc 1 405 0
 133 0004 00F00F00 		and	r0, r0, #15
 134 0008 7047     		bx	lr
 135              	.L13:
 136 000a 00BF     		.align	2
 137              	.L12:
 138 000c 02640040 		.word	1073767426
 139              		.cfi_endproc
 140              	.LFE5:
 141              		.size	CRC_ReadCRC, .-CRC_ReadCRC
 142              		.section	.text.CRC_WriteSeed,"ax",%progbits
 143              		.align	2
 144              		.global	CRC_WriteSeed
 145              		.thumb
 146              		.thumb_func
 147              		.type	CRC_WriteSeed, %function
 148              	CRC_WriteSeed:
 149              	.LFB6:
 406:Generated_Source\PSoC5/CRC.c **** 
 407:Generated_Source\PSoC5/CRC.c **** 
 408:Generated_Source\PSoC5/CRC.c ****     /*******************************************************************************
 409:Generated_Source\PSoC5/CRC.c ****     * Function Name: CRC_WriteSeed
 410:Generated_Source\PSoC5/CRC.c ****     ********************************************************************************
 411:Generated_Source\PSoC5/CRC.c ****     *
 412:Generated_Source\PSoC5/CRC.c ****     * Summary:
 413:Generated_Source\PSoC5/CRC.c ****     *  Writes seed value.
 414:Generated_Source\PSoC5/CRC.c ****     *
 415:Generated_Source\PSoC5/CRC.c ****     * Parameters:
 416:Generated_Source\PSoC5/CRC.c ****     *  seed:  Seed value.
 417:Generated_Source\PSoC5/CRC.c ****     *
 418:Generated_Source\PSoC5/CRC.c ****     * Return:
 419:Generated_Source\PSoC5/CRC.c ****     *  void
 420:Generated_Source\PSoC5/CRC.c ****     *
 421:Generated_Source\PSoC5/CRC.c ****     * Side Effects:
ARM GAS  C:\Users\sdysart\AppData\Local\Temp\ccLktsif.s 			page 11


 422:Generated_Source\PSoC5/CRC.c ****     *  The seed value is cut according to mask = 2^(Resolution) - 1.
 423:Generated_Source\PSoC5/CRC.c ****     *  For example if CRC Resolution is 14 bits the mask value is:
 424:Generated_Source\PSoC5/CRC.c ****     *  mask = 2^(14) - 1 = 0x3FFFu.
 425:Generated_Source\PSoC5/CRC.c ****     *  The seed value = 0xFFFFu is cut:
 426:Generated_Source\PSoC5/CRC.c ****     *  seed & mask = 0xFFFFu & 0x3FFFu = 0x3FFFu.
 427:Generated_Source\PSoC5/CRC.c ****     *
 428:Generated_Source\PSoC5/CRC.c ****     *******************************************************************************/
 429:Generated_Source\PSoC5/CRC.c ****     void CRC_WriteSeed(uint8 seed) 
 430:Generated_Source\PSoC5/CRC.c ****     {
 150              		.loc 1 430 0
 151              		.cfi_startproc
 152              		@ args = 0, pretend = 0, frame = 0
 153              		@ frame_needed = 0, uses_anonymous_args = 0
 154              		@ link register save eliminated.
 155              	.LVL5:
 431:Generated_Source\PSoC5/CRC.c ****         /* Mask the Seed Upper half to cut unused bits in case, when CRC size is not byte-aligned o
 432:Generated_Source\PSoC5/CRC.c ****         #if((0u != (CRC_CRC_SIZE % 8u)) || (CRC_CRC_SIZE == 24u))
 433:Generated_Source\PSoC5/CRC.c ****             seed &= CRC_MASK;
 156              		.loc 1 433 0
 157 0000 00F00F00 		and	r0, r0, #15
 158              	.LVL6:
 434:Generated_Source\PSoC5/CRC.c ****         #endif /* ((0u != (CRC_CRC_SIZE % 8u)) || (CRC_CRC_SIZE == 24u)) */
 435:Generated_Source\PSoC5/CRC.c **** 
 436:Generated_Source\PSoC5/CRC.c ****         /* Writes Seed */
 437:Generated_Source\PSoC5/CRC.c ****         #if (CRC_TIME_MULTIPLEXING_ENABLE)
 438:Generated_Source\PSoC5/CRC.c **** 
 439:Generated_Source\PSoC5/CRC.c ****             #if (CRC_CRC_SIZE <= 16u)          /* 16 bits CRC */
 440:Generated_Source\PSoC5/CRC.c ****                 CRC_SEED_A__A1_REG = HI8(seed);
 441:Generated_Source\PSoC5/CRC.c ****                 CRC_SEED_A__A0_REG = LO8(seed);
 442:Generated_Source\PSoC5/CRC.c **** 
 443:Generated_Source\PSoC5/CRC.c ****             #elif (CRC_CRC_SIZE <= 24u)        /* 24 bits CRC */
 444:Generated_Source\PSoC5/CRC.c ****                 CRC_SEED_B__A1_REG = LO8(HI16(seed));
 445:Generated_Source\PSoC5/CRC.c ****                 CRC_SEED_B__A0_REG = HI8(seed);
 446:Generated_Source\PSoC5/CRC.c ****                 CRC_SEED_A__A0_REG = LO8(seed);
 447:Generated_Source\PSoC5/CRC.c **** 
 448:Generated_Source\PSoC5/CRC.c ****             #else                                           /* 32 bits CRC */
 449:Generated_Source\PSoC5/CRC.c ****                 CRC_SEED_B__A1_REG = HI8(HI16(seed));
 450:Generated_Source\PSoC5/CRC.c ****                 CRC_SEED_A__A1_REG = LO8(HI16(seed));
 451:Generated_Source\PSoC5/CRC.c ****                 CRC_SEED_B__A0_REG = HI8(seed);
 452:Generated_Source\PSoC5/CRC.c ****                 CRC_SEED_A__A0_REG = LO8(seed);
 453:Generated_Source\PSoC5/CRC.c ****             #endif  /* End (CRC_CRC_SIZE <= 32u) */
 454:Generated_Source\PSoC5/CRC.c **** 
 455:Generated_Source\PSoC5/CRC.c ****             /* Resets triggers */
 456:Generated_Source\PSoC5/CRC.c ****             CRC_EXECUTE_DFF_RESET;
 457:Generated_Source\PSoC5/CRC.c **** 
 458:Generated_Source\PSoC5/CRC.c ****         #else
 459:Generated_Source\PSoC5/CRC.c **** 
 460:Generated_Source\PSoC5/CRC.c ****             CY_SET_REG8(CRC_SEED_PTR, seed);
 159              		.loc 1 460 0
 160 0004 014B     		ldr	r3, .L15
 161 0006 1870     		strb	r0, [r3]
 162 0008 7047     		bx	lr
 163              	.L16:
 164 000a 00BF     		.align	2
 165              	.L15:
 166 000c 02640040 		.word	1073767426
 167              		.cfi_endproc
ARM GAS  C:\Users\sdysart\AppData\Local\Temp\ccLktsif.s 			page 12


 168              	.LFE6:
 169              		.size	CRC_WriteSeed, .-CRC_WriteSeed
 170              		.section	.text.CRC_ReadPolynomial,"ax",%progbits
 171              		.align	2
 172              		.global	CRC_ReadPolynomial
 173              		.thumb
 174              		.thumb_func
 175              		.type	CRC_ReadPolynomial, %function
 176              	CRC_ReadPolynomial:
 177              	.LFB7:
 461:Generated_Source\PSoC5/CRC.c **** 
 462:Generated_Source\PSoC5/CRC.c ****         #endif  /* End (CRC_TIME_MULTIPLEXING_ENABLE) */
 463:Generated_Source\PSoC5/CRC.c ****     }
 464:Generated_Source\PSoC5/CRC.c **** 
 465:Generated_Source\PSoC5/CRC.c **** 
 466:Generated_Source\PSoC5/CRC.c ****     /*******************************************************************************
 467:Generated_Source\PSoC5/CRC.c ****     * Function Name: CRC_ReadPolynomial
 468:Generated_Source\PSoC5/CRC.c ****     ********************************************************************************
 469:Generated_Source\PSoC5/CRC.c ****     *
 470:Generated_Source\PSoC5/CRC.c ****     * Summary:
 471:Generated_Source\PSoC5/CRC.c ****     *  Reads CRC polynomial value.
 472:Generated_Source\PSoC5/CRC.c ****     *
 473:Generated_Source\PSoC5/CRC.c ****     * Parameters:
 474:Generated_Source\PSoC5/CRC.c ****     *  void
 475:Generated_Source\PSoC5/CRC.c ****     *
 476:Generated_Source\PSoC5/CRC.c ****     * Return:
 477:Generated_Source\PSoC5/CRC.c ****     *  Returns CRC polynomial value.
 478:Generated_Source\PSoC5/CRC.c ****     *
 479:Generated_Source\PSoC5/CRC.c ****     *******************************************************************************/
 480:Generated_Source\PSoC5/CRC.c ****     uint8 CRC_ReadPolynomial(void)
 481:Generated_Source\PSoC5/CRC.c ****                                                
 482:Generated_Source\PSoC5/CRC.c ****     {
 178              		.loc 1 482 0
 179              		.cfi_startproc
 180              		@ args = 0, pretend = 0, frame = 0
 181              		@ frame_needed = 0, uses_anonymous_args = 0
 182              		@ link register save eliminated.
 483:Generated_Source\PSoC5/CRC.c ****         /* Reads polynomial */
 484:Generated_Source\PSoC5/CRC.c ****         #if (CRC_TIME_MULTIPLEXING_ENABLE)
 485:Generated_Source\PSoC5/CRC.c **** 
 486:Generated_Source\PSoC5/CRC.c ****             uint8 polynomial;
 487:Generated_Source\PSoC5/CRC.c **** 
 488:Generated_Source\PSoC5/CRC.c ****             #if (CRC_CRC_SIZE <= 16u)          /* 16 bits CRC */
 489:Generated_Source\PSoC5/CRC.c ****                 polynomial = ((uint16) CRC_POLYNOM_A__D1_REG) << 8u;
 490:Generated_Source\PSoC5/CRC.c ****                 polynomial |= (CRC_POLYNOM_A__D0_REG);
 491:Generated_Source\PSoC5/CRC.c **** 
 492:Generated_Source\PSoC5/CRC.c ****             #elif (CRC_CRC_SIZE <= 24u)        /* 24 bits CRC */
 493:Generated_Source\PSoC5/CRC.c ****                 polynomial = ((uint32) CRC_POLYNOM_B__D1_REG) << 16u;
 494:Generated_Source\PSoC5/CRC.c ****                 polynomial |= ((uint32) CRC_POLYNOM_B__D0_REG) << 8u;
 495:Generated_Source\PSoC5/CRC.c ****                 polynomial |= CRC_POLYNOM_A__D0_REG;
 496:Generated_Source\PSoC5/CRC.c **** 
 497:Generated_Source\PSoC5/CRC.c ****             #else                                           /* 32 bits CRC */
 498:Generated_Source\PSoC5/CRC.c ****                 polynomial = ((uint32) CRC_POLYNOM_B__D1_REG) << 24u;
 499:Generated_Source\PSoC5/CRC.c ****                 polynomial |= ((uint32) CRC_POLYNOM_A__D1_REG) << 16u;
 500:Generated_Source\PSoC5/CRC.c ****                 polynomial |= ((uint32) CRC_POLYNOM_B__D0_REG) << 8u;
 501:Generated_Source\PSoC5/CRC.c ****                 polynomial |= CRC_POLYNOM_A__D0_REG;
 502:Generated_Source\PSoC5/CRC.c **** 
ARM GAS  C:\Users\sdysart\AppData\Local\Temp\ccLktsif.s 			page 13


 503:Generated_Source\PSoC5/CRC.c ****             #endif  /* End (CRC_CRC_SIZE <= 32u) */
 504:Generated_Source\PSoC5/CRC.c **** 
 505:Generated_Source\PSoC5/CRC.c ****             return polynomial;
 506:Generated_Source\PSoC5/CRC.c **** 
 507:Generated_Source\PSoC5/CRC.c ****         #else
 508:Generated_Source\PSoC5/CRC.c **** 
 509:Generated_Source\PSoC5/CRC.c ****             return CY_GET_REG8(CRC_POLYNOM_PTR);
 183              		.loc 1 509 0
 184 0000 014B     		ldr	r3, .L18
 185 0002 1878     		ldrb	r0, [r3]	@ zero_extendqisi2
 510:Generated_Source\PSoC5/CRC.c **** 
 511:Generated_Source\PSoC5/CRC.c ****         #endif  /* End (CRC_TIME_MULTIPLEXING_ENABLE) */
 512:Generated_Source\PSoC5/CRC.c ****     }
 186              		.loc 1 512 0
 187 0004 7047     		bx	lr
 188              	.L19:
 189 0006 00BF     		.align	2
 190              	.L18:
 191 0008 22640040 		.word	1073767458
 192              		.cfi_endproc
 193              	.LFE7:
 194              		.size	CRC_ReadPolynomial, .-CRC_ReadPolynomial
 195              		.section	.text.CRC_WritePolynomial,"ax",%progbits
 196              		.align	2
 197              		.global	CRC_WritePolynomial
 198              		.thumb
 199              		.thumb_func
 200              		.type	CRC_WritePolynomial, %function
 201              	CRC_WritePolynomial:
 202              	.LFB8:
 513:Generated_Source\PSoC5/CRC.c **** 
 514:Generated_Source\PSoC5/CRC.c **** 
 515:Generated_Source\PSoC5/CRC.c ****     /*******************************************************************************
 516:Generated_Source\PSoC5/CRC.c ****     * Function Name: CRC_WritePolynomial
 517:Generated_Source\PSoC5/CRC.c ****     ********************************************************************************
 518:Generated_Source\PSoC5/CRC.c ****     *
 519:Generated_Source\PSoC5/CRC.c ****     * Summary:
 520:Generated_Source\PSoC5/CRC.c ****     *  Writes CRC polynomial value.
 521:Generated_Source\PSoC5/CRC.c ****     *
 522:Generated_Source\PSoC5/CRC.c ****     * Parameters:
 523:Generated_Source\PSoC5/CRC.c ****     *  polynomial:  CRC polynomial.
 524:Generated_Source\PSoC5/CRC.c ****     *
 525:Generated_Source\PSoC5/CRC.c ****     * Return:
 526:Generated_Source\PSoC5/CRC.c ****     *  void
 527:Generated_Source\PSoC5/CRC.c ****     *
 528:Generated_Source\PSoC5/CRC.c ****     * Side Effects:
 529:Generated_Source\PSoC5/CRC.c ****     *  The polynomial value is cut according to mask = 2^(Resolution) - 1.
 530:Generated_Source\PSoC5/CRC.c ****     *  For example if CRC Resolution is 14 bits the mask value is:
 531:Generated_Source\PSoC5/CRC.c ****     *  mask = 2^(14) - 1 = 0x3FFFu.
 532:Generated_Source\PSoC5/CRC.c ****     *  The polynomial value = 0xFFFFu is cut:
 533:Generated_Source\PSoC5/CRC.c ****     *  polynomial & mask = 0xFFFFu & 0x3FFFu = 0x3FFFu.
 534:Generated_Source\PSoC5/CRC.c ****     *
 535:Generated_Source\PSoC5/CRC.c ****     *******************************************************************************/
 536:Generated_Source\PSoC5/CRC.c ****     void CRC_WritePolynomial(uint8 polynomial)
 537:Generated_Source\PSoC5/CRC.c ****                                           
 538:Generated_Source\PSoC5/CRC.c ****     {
 203              		.loc 1 538 0
ARM GAS  C:\Users\sdysart\AppData\Local\Temp\ccLktsif.s 			page 14


 204              		.cfi_startproc
 205              		@ args = 0, pretend = 0, frame = 0
 206              		@ frame_needed = 0, uses_anonymous_args = 0
 207              		@ link register save eliminated.
 208              	.LVL7:
 539:Generated_Source\PSoC5/CRC.c ****         /* Mask polynomial to cut unused bits in case, when CRC size is not byte-aligned or equal 2
 540:Generated_Source\PSoC5/CRC.c ****         #if((0u != (CRC_CRC_SIZE % 8u)) || (CRC_CRC_SIZE == 24u))
 541:Generated_Source\PSoC5/CRC.c ****             polynomial &= CRC_MASK;
 209              		.loc 1 541 0
 210 0000 00F00F00 		and	r0, r0, #15
 211              	.LVL8:
 542:Generated_Source\PSoC5/CRC.c ****         #endif /* ((0u != (CRC_CRC_SIZE % 8u)) || (CRC_CRC_SIZE == 24u)) */
 543:Generated_Source\PSoC5/CRC.c **** 
 544:Generated_Source\PSoC5/CRC.c ****         /* Write polynomial */
 545:Generated_Source\PSoC5/CRC.c ****         #if (CRC_TIME_MULTIPLEXING_ENABLE)
 546:Generated_Source\PSoC5/CRC.c **** 
 547:Generated_Source\PSoC5/CRC.c ****             #if (CRC_CRC_SIZE <= 16u)          /* 16 bits CRC */
 548:Generated_Source\PSoC5/CRC.c **** 
 549:Generated_Source\PSoC5/CRC.c ****                 CRC_POLYNOM_A__D1_REG = HI8(polynomial);
 550:Generated_Source\PSoC5/CRC.c ****                 CRC_POLYNOM_A__D0_REG = LO8(polynomial);
 551:Generated_Source\PSoC5/CRC.c **** 
 552:Generated_Source\PSoC5/CRC.c ****             #elif (CRC_CRC_SIZE <= 24u)        /* 24 bits CRC */
 553:Generated_Source\PSoC5/CRC.c ****                 CRC_POLYNOM_B__D1_REG = LO8(HI16(polynomial));
 554:Generated_Source\PSoC5/CRC.c ****                 CRC_POLYNOM_B__D0_REG = HI8(polynomial);
 555:Generated_Source\PSoC5/CRC.c ****                 CRC_POLYNOM_A__D0_REG = LO8(polynomial);
 556:Generated_Source\PSoC5/CRC.c **** 
 557:Generated_Source\PSoC5/CRC.c ****             #else                                           /* 32 bits CRC */
 558:Generated_Source\PSoC5/CRC.c ****                 CRC_POLYNOM_B__D1_REG = HI8(HI16(polynomial));
 559:Generated_Source\PSoC5/CRC.c ****                 CRC_POLYNOM_A__D1_REG = LO8(HI16(polynomial));
 560:Generated_Source\PSoC5/CRC.c ****                 CRC_POLYNOM_B__D0_REG = HI8(polynomial);
 561:Generated_Source\PSoC5/CRC.c ****                 CRC_POLYNOM_A__D0_REG = LO8(polynomial);
 562:Generated_Source\PSoC5/CRC.c **** 
 563:Generated_Source\PSoC5/CRC.c ****             #endif  /* End (CRC_CRC_SIZE <= 32u) */
 564:Generated_Source\PSoC5/CRC.c **** 
 565:Generated_Source\PSoC5/CRC.c ****             /* Resets triggers */
 566:Generated_Source\PSoC5/CRC.c ****             CRC_EXECUTE_DFF_RESET;
 567:Generated_Source\PSoC5/CRC.c **** 
 568:Generated_Source\PSoC5/CRC.c ****         #else
 569:Generated_Source\PSoC5/CRC.c **** 
 570:Generated_Source\PSoC5/CRC.c ****             CY_SET_REG8(CRC_POLYNOM_PTR, polynomial);
 212              		.loc 1 570 0
 213 0004 014B     		ldr	r3, .L21
 214 0006 1870     		strb	r0, [r3]
 215 0008 7047     		bx	lr
 216              	.L22:
 217 000a 00BF     		.align	2
 218              	.L21:
 219 000c 22640040 		.word	1073767458
 220              		.cfi_endproc
 221              	.LFE8:
 222              		.size	CRC_WritePolynomial, .-CRC_WritePolynomial
 223              		.section	.text.CRC_Init,"ax",%progbits
 224              		.align	2
 225              		.global	CRC_Init
 226              		.thumb
 227              		.thumb_func
 228              		.type	CRC_Init, %function
ARM GAS  C:\Users\sdysart\AppData\Local\Temp\ccLktsif.s 			page 15


 229              	CRC_Init:
 230              	.LFB0:
  57:Generated_Source\PSoC5/CRC.c ****     /* Writes seed value and ponynom value provided for customizer */
 231              		.loc 1 57 0
 232              		.cfi_startproc
 233              		@ args = 0, pretend = 0, frame = 0
 234              		@ frame_needed = 0, uses_anonymous_args = 0
 235 0000 08B5     		push	{r3, lr}
 236              		.cfi_def_cfa_offset 8
 237              		.cfi_offset 3, -8
 238              		.cfi_offset 14, -4
  60:Generated_Source\PSoC5/CRC.c ****         CRC_WriteSeed(CRC_DEFAULT_SEED);
 239              		.loc 1 60 0
 240 0002 0920     		movs	r0, #9
 241 0004 FFF7FEFF 		bl	CRC_WritePolynomial
 242              	.LVL9:
  61:Generated_Source\PSoC5/CRC.c ****         CRC_ResetSeedInit(CRC_DEFAULT_SEED);
 243              		.loc 1 61 0
 244 0008 0020     		movs	r0, #0
 245 000a FFF7FEFF 		bl	CRC_WriteSeed
 246              	.LVL10:
  62:Generated_Source\PSoC5/CRC.c **** 
 247              		.loc 1 62 0
 248 000e 0020     		movs	r0, #0
 249 0010 FFF7FEFF 		bl	CRC_ResetSeedInit
 250              	.LVL11:
 251 0014 08BD     		pop	{r3, pc}
 252              		.cfi_endproc
 253              	.LFE0:
 254              		.size	CRC_Init, .-CRC_Init
 255 0016 00BF     		.section	.text.CRC_Start,"ax",%progbits
 256              		.align	2
 257              		.global	CRC_Start
 258              		.thumb
 259              		.thumb_func
 260              		.type	CRC_Start, %function
 261              	CRC_Start:
 262              	.LFB2:
 119:Generated_Source\PSoC5/CRC.c ****     /* Writes seed value and ponynom value provided from customizer */
 263              		.loc 1 119 0
 264              		.cfi_startproc
 265              		@ args = 0, pretend = 0, frame = 0
 266              		@ frame_needed = 0, uses_anonymous_args = 0
 267 0000 08B5     		push	{r3, lr}
 268              		.cfi_def_cfa_offset 8
 269              		.cfi_offset 3, -8
 270              		.cfi_offset 14, -4
 121:Generated_Source\PSoC5/CRC.c ****     {
 271              		.loc 1 121 0
 272 0002 054B     		ldr	r3, .L28
 273 0004 1B78     		ldrb	r3, [r3]	@ zero_extendqisi2
 274 0006 23B9     		cbnz	r3, .L26
 123:Generated_Source\PSoC5/CRC.c ****         CRC_initVar = 1u;
 275              		.loc 1 123 0
 276 0008 FFF7FEFF 		bl	CRC_Init
 277              	.LVL12:
 124:Generated_Source\PSoC5/CRC.c ****     }
ARM GAS  C:\Users\sdysart\AppData\Local\Temp\ccLktsif.s 			page 16


 278              		.loc 1 124 0
 279 000c 0122     		movs	r2, #1
 280 000e 024B     		ldr	r3, .L28
 281 0010 1A70     		strb	r2, [r3]
 282              	.L26:
 127:Generated_Source\PSoC5/CRC.c **** }
 283              		.loc 1 127 0
 284 0012 FFF7FEFF 		bl	CRC_Enable
 285              	.LVL13:
 286 0016 08BD     		pop	{r3, pc}
 287              	.L29:
 288              		.align	2
 289              	.L28:
 290 0018 00000000 		.word	.LANCHOR0
 291              		.cfi_endproc
 292              	.LFE2:
 293              		.size	CRC_Start, .-CRC_Start
 294              		.global	CRC_backup
 295              		.global	CRC_initVar
 296              		.bss
 297              		.align	2
 298              		.set	.LANCHOR0,. + 0
 299              		.type	CRC_initVar, %object
 300              		.size	CRC_initVar, 1
 301              	CRC_initVar:
 302 0000 00       		.space	1
 303 0001 000000   		.space	3
 304              		.type	CRC_backup, %object
 305              		.size	CRC_backup, 1
 306              	CRC_backup:
 307 0004 00       		.space	1
 308              		.text
 309              	.Letext0:
 310              		.file 2 "Generated_Source\\PSoC5\\cytypes.h"
 311              		.file 3 "Generated_Source\\PSoC5\\CRC.h"
 312              		.file 4 "Generated_Source\\PSoC5\\CyLib.h"