ARM GAS  C:\Users\ipfajard\AppData\Local\Temp\ccV9e12l.s 			page 1


   1              		.syntax unified
   2              		.cpu cortex-m3
   3              		.fpu softvfp
   4              		.eabi_attribute 20, 1
   5              		.eabi_attribute 21, 1
   6              		.eabi_attribute 23, 3
   7              		.eabi_attribute 24, 1
   8              		.eabi_attribute 25, 1
   9              		.eabi_attribute 26, 1
  10              		.eabi_attribute 30, 1
  11              		.eabi_attribute 34, 1
  12              		.eabi_attribute 18, 4
  13              		.thumb
  14              		.syntax unified
  15              		.file	"cyfitter_cfg.c"
  16              		.text
  17              	.Ltext0:
  18              		.cfi_sections	.debug_frame
  19              		.section	.text.CyClockStartupError,"ax",%progbits
  20              		.align	2
  21              		.thumb
  22              		.thumb_func
  23              		.type	CyClockStartupError, %function
  24              	CyClockStartupError:
  25              	.LFB3:
  26              		.file 1 "Generated_Source\\PSoC5\\cyfitter_cfg.c"
   1:Generated_Source\PSoC5/cyfitter_cfg.c **** 
   2:Generated_Source\PSoC5/cyfitter_cfg.c **** /*******************************************************************************
   3:Generated_Source\PSoC5/cyfitter_cfg.c **** * File Name: cyfitter_cfg.c
   4:Generated_Source\PSoC5/cyfitter_cfg.c **** * 
   5:Generated_Source\PSoC5/cyfitter_cfg.c **** * PSoC Creator  4.1 Update 1
   6:Generated_Source\PSoC5/cyfitter_cfg.c **** *
   7:Generated_Source\PSoC5/cyfitter_cfg.c **** * Description:
   8:Generated_Source\PSoC5/cyfitter_cfg.c **** * This file contains device initialization code.
   9:Generated_Source\PSoC5/cyfitter_cfg.c **** * Except for the user defined sections in CyClockStartupError(), this file should not be modified.
  10:Generated_Source\PSoC5/cyfitter_cfg.c **** * This file is automatically generated by PSoC Creator.
  11:Generated_Source\PSoC5/cyfitter_cfg.c **** *
  12:Generated_Source\PSoC5/cyfitter_cfg.c **** ********************************************************************************
  13:Generated_Source\PSoC5/cyfitter_cfg.c **** * Copyright (c) 2007-2017 Cypress Semiconductor.  All rights reserved.
  14:Generated_Source\PSoC5/cyfitter_cfg.c **** * You may use this file only in accordance with the license, terms, conditions, 
  15:Generated_Source\PSoC5/cyfitter_cfg.c **** * disclaimers, and limitations in the end user license agreement accompanying 
  16:Generated_Source\PSoC5/cyfitter_cfg.c **** * the software package with which this file was provided.
  17:Generated_Source\PSoC5/cyfitter_cfg.c **** ********************************************************************************/
  18:Generated_Source\PSoC5/cyfitter_cfg.c **** 
  19:Generated_Source\PSoC5/cyfitter_cfg.c **** #include <string.h>
  20:Generated_Source\PSoC5/cyfitter_cfg.c **** #include "cytypes.h"
  21:Generated_Source\PSoC5/cyfitter_cfg.c **** #include "cydevice_trm.h"
  22:Generated_Source\PSoC5/cyfitter_cfg.c **** #include "cyfitter.h"
  23:Generated_Source\PSoC5/cyfitter_cfg.c **** #include "CyLib.h"
  24:Generated_Source\PSoC5/cyfitter_cfg.c **** #include "cyfitter_cfg.h"
  25:Generated_Source\PSoC5/cyfitter_cfg.c **** #include "cyapicallbacks.h"
  26:Generated_Source\PSoC5/cyfitter_cfg.c **** 
  27:Generated_Source\PSoC5/cyfitter_cfg.c **** #define CY_NEED_CYCLOCKSTARTUPERROR 1
  28:Generated_Source\PSoC5/cyfitter_cfg.c **** 
  29:Generated_Source\PSoC5/cyfitter_cfg.c **** 
  30:Generated_Source\PSoC5/cyfitter_cfg.c **** #if defined(__GNUC__) || defined(__ARMCC_VERSION)
  31:Generated_Source\PSoC5/cyfitter_cfg.c ****     #define CYPACKED 
ARM GAS  C:\Users\ipfajard\AppData\Local\Temp\ccV9e12l.s 			page 2


  32:Generated_Source\PSoC5/cyfitter_cfg.c ****     #define CYPACKED_ATTR __attribute__ ((packed))
  33:Generated_Source\PSoC5/cyfitter_cfg.c ****     #define CYALIGNED __attribute__ ((aligned))
  34:Generated_Source\PSoC5/cyfitter_cfg.c ****     #define CY_CFG_UNUSED __attribute__ ((unused))
  35:Generated_Source\PSoC5/cyfitter_cfg.c ****     #ifndef CY_CFG_SECTION
  36:Generated_Source\PSoC5/cyfitter_cfg.c ****         #define CY_CFG_SECTION __attribute__ ((section(".psocinit")))
  37:Generated_Source\PSoC5/cyfitter_cfg.c ****     #endif
  38:Generated_Source\PSoC5/cyfitter_cfg.c ****     
  39:Generated_Source\PSoC5/cyfitter_cfg.c ****     #if defined(__ARMCC_VERSION)
  40:Generated_Source\PSoC5/cyfitter_cfg.c ****         #define CY_CFG_MEMORY_BARRIER() __memory_changed()
  41:Generated_Source\PSoC5/cyfitter_cfg.c ****     #else
  42:Generated_Source\PSoC5/cyfitter_cfg.c ****         #define CY_CFG_MEMORY_BARRIER() __sync_synchronize()
  43:Generated_Source\PSoC5/cyfitter_cfg.c ****     #endif
  44:Generated_Source\PSoC5/cyfitter_cfg.c ****     
  45:Generated_Source\PSoC5/cyfitter_cfg.c **** #elif defined(__ICCARM__)
  46:Generated_Source\PSoC5/cyfitter_cfg.c ****     #include <intrinsics.h>
  47:Generated_Source\PSoC5/cyfitter_cfg.c **** 
  48:Generated_Source\PSoC5/cyfitter_cfg.c ****     #define CYPACKED __packed
  49:Generated_Source\PSoC5/cyfitter_cfg.c ****     #define CYPACKED_ATTR 
  50:Generated_Source\PSoC5/cyfitter_cfg.c ****     #define CYALIGNED _Pragma("data_alignment=4")
  51:Generated_Source\PSoC5/cyfitter_cfg.c ****     #define CY_CFG_UNUSED _Pragma("diag_suppress=Pe177")
  52:Generated_Source\PSoC5/cyfitter_cfg.c ****     #define CY_CFG_SECTION _Pragma("location=\".psocinit\"")
  53:Generated_Source\PSoC5/cyfitter_cfg.c ****     
  54:Generated_Source\PSoC5/cyfitter_cfg.c ****     #define CY_CFG_MEMORY_BARRIER() __DMB()
  55:Generated_Source\PSoC5/cyfitter_cfg.c ****     
  56:Generated_Source\PSoC5/cyfitter_cfg.c **** #else
  57:Generated_Source\PSoC5/cyfitter_cfg.c ****     #error Unsupported toolchain
  58:Generated_Source\PSoC5/cyfitter_cfg.c **** #endif
  59:Generated_Source\PSoC5/cyfitter_cfg.c **** 
  60:Generated_Source\PSoC5/cyfitter_cfg.c **** #ifndef CYCODE
  61:Generated_Source\PSoC5/cyfitter_cfg.c ****     #define CYCODE
  62:Generated_Source\PSoC5/cyfitter_cfg.c **** #endif
  63:Generated_Source\PSoC5/cyfitter_cfg.c **** #ifndef CYDATA
  64:Generated_Source\PSoC5/cyfitter_cfg.c ****     #define CYDATA
  65:Generated_Source\PSoC5/cyfitter_cfg.c **** #endif
  66:Generated_Source\PSoC5/cyfitter_cfg.c **** #ifndef CYFAR
  67:Generated_Source\PSoC5/cyfitter_cfg.c ****     #define CYFAR
  68:Generated_Source\PSoC5/cyfitter_cfg.c **** #endif
  69:Generated_Source\PSoC5/cyfitter_cfg.c **** #ifndef CYXDATA
  70:Generated_Source\PSoC5/cyfitter_cfg.c ****     #define CYXDATA
  71:Generated_Source\PSoC5/cyfitter_cfg.c **** #endif
  72:Generated_Source\PSoC5/cyfitter_cfg.c **** 
  73:Generated_Source\PSoC5/cyfitter_cfg.c **** 
  74:Generated_Source\PSoC5/cyfitter_cfg.c **** CY_CFG_UNUSED
  75:Generated_Source\PSoC5/cyfitter_cfg.c **** static void CYMEMZERO(void *s, size_t n);
  76:Generated_Source\PSoC5/cyfitter_cfg.c **** CY_CFG_UNUSED
  77:Generated_Source\PSoC5/cyfitter_cfg.c **** static void CYMEMZERO(void *s, size_t n)
  78:Generated_Source\PSoC5/cyfitter_cfg.c **** {
  79:Generated_Source\PSoC5/cyfitter_cfg.c **** 	(void)memset(s, 0, n);
  80:Generated_Source\PSoC5/cyfitter_cfg.c **** }
  81:Generated_Source\PSoC5/cyfitter_cfg.c **** CY_CFG_UNUSED
  82:Generated_Source\PSoC5/cyfitter_cfg.c **** static void CYCONFIGCPY(void *dest, const void *src, size_t n);
  83:Generated_Source\PSoC5/cyfitter_cfg.c **** CY_CFG_UNUSED
  84:Generated_Source\PSoC5/cyfitter_cfg.c **** static void CYCONFIGCPY(void *dest, const void *src, size_t n)
  85:Generated_Source\PSoC5/cyfitter_cfg.c **** {
  86:Generated_Source\PSoC5/cyfitter_cfg.c **** 	(void)memcpy(dest, src, n);
  87:Generated_Source\PSoC5/cyfitter_cfg.c **** }
  88:Generated_Source\PSoC5/cyfitter_cfg.c **** CY_CFG_UNUSED
ARM GAS  C:\Users\ipfajard\AppData\Local\Temp\ccV9e12l.s 			page 3


  89:Generated_Source\PSoC5/cyfitter_cfg.c **** static void CYCONFIGCPYCODE(void *dest, const void *src, size_t n);
  90:Generated_Source\PSoC5/cyfitter_cfg.c **** CY_CFG_UNUSED
  91:Generated_Source\PSoC5/cyfitter_cfg.c **** static void CYCONFIGCPYCODE(void *dest, const void *src, size_t n)
  92:Generated_Source\PSoC5/cyfitter_cfg.c **** {
  93:Generated_Source\PSoC5/cyfitter_cfg.c **** 	(void)memcpy(dest, src, n);
  94:Generated_Source\PSoC5/cyfitter_cfg.c **** }
  95:Generated_Source\PSoC5/cyfitter_cfg.c **** 
  96:Generated_Source\PSoC5/cyfitter_cfg.c **** 
  97:Generated_Source\PSoC5/cyfitter_cfg.c **** 
  98:Generated_Source\PSoC5/cyfitter_cfg.c **** 
  99:Generated_Source\PSoC5/cyfitter_cfg.c **** /* Clock startup error codes                                                   */
 100:Generated_Source\PSoC5/cyfitter_cfg.c **** #define CYCLOCKSTART_NO_ERROR    0u
 101:Generated_Source\PSoC5/cyfitter_cfg.c **** #define CYCLOCKSTART_XTAL_ERROR  1u
 102:Generated_Source\PSoC5/cyfitter_cfg.c **** #define CYCLOCKSTART_32KHZ_ERROR 2u
 103:Generated_Source\PSoC5/cyfitter_cfg.c **** #define CYCLOCKSTART_PLL_ERROR   3u
 104:Generated_Source\PSoC5/cyfitter_cfg.c **** #define CYCLOCKSTART_FLL_ERROR   4u
 105:Generated_Source\PSoC5/cyfitter_cfg.c **** 
 106:Generated_Source\PSoC5/cyfitter_cfg.c **** 
 107:Generated_Source\PSoC5/cyfitter_cfg.c **** #ifdef CY_NEED_CYCLOCKSTARTUPERROR
 108:Generated_Source\PSoC5/cyfitter_cfg.c **** /*******************************************************************************
 109:Generated_Source\PSoC5/cyfitter_cfg.c **** * Function Name: CyClockStartupError
 110:Generated_Source\PSoC5/cyfitter_cfg.c **** ********************************************************************************
 111:Generated_Source\PSoC5/cyfitter_cfg.c **** * Summary:
 112:Generated_Source\PSoC5/cyfitter_cfg.c **** *  If an error is encountered during clock configuration (crystal startup error,
 113:Generated_Source\PSoC5/cyfitter_cfg.c **** *  PLL lock error, etc.), the system will end up here.  Unless reimplemented by
 114:Generated_Source\PSoC5/cyfitter_cfg.c **** *  the customer, this function will stop in an infinite loop.
 115:Generated_Source\PSoC5/cyfitter_cfg.c **** *
 116:Generated_Source\PSoC5/cyfitter_cfg.c **** * Parameters:
 117:Generated_Source\PSoC5/cyfitter_cfg.c **** *   void
 118:Generated_Source\PSoC5/cyfitter_cfg.c **** *
 119:Generated_Source\PSoC5/cyfitter_cfg.c **** * Return:
 120:Generated_Source\PSoC5/cyfitter_cfg.c **** *   void
 121:Generated_Source\PSoC5/cyfitter_cfg.c **** *
 122:Generated_Source\PSoC5/cyfitter_cfg.c **** *******************************************************************************/
 123:Generated_Source\PSoC5/cyfitter_cfg.c **** CY_CFG_UNUSED
 124:Generated_Source\PSoC5/cyfitter_cfg.c **** static void CyClockStartupError(uint8 errorCode);
 125:Generated_Source\PSoC5/cyfitter_cfg.c **** CY_CFG_UNUSED
 126:Generated_Source\PSoC5/cyfitter_cfg.c **** static void CyClockStartupError(uint8 errorCode)
 127:Generated_Source\PSoC5/cyfitter_cfg.c **** {
  27              		.loc 1 127 0
  28              		.cfi_startproc
  29              		@ Volatile: function does not return.
  30              		@ args = 0, pretend = 0, frame = 0
  31              		@ frame_needed = 0, uses_anonymous_args = 0
  32              		@ link register save eliminated.
  33              	.LVL0:
  34              	.L2:
  35 0000 FEE7     		b	.L2
  36              		.cfi_endproc
  37              	.LFE3:
  38              		.size	CyClockStartupError, .-CyClockStartupError
  39 0002 00BF     		.section	.text.cfg_write_bytes32,"ax",%progbits
  40              		.align	2
  41              		.thumb
  42              		.thumb_func
  43              		.type	cfg_write_bytes32, %function
  44              	cfg_write_bytes32:
ARM GAS  C:\Users\ipfajard\AppData\Local\Temp\ccV9e12l.s 			page 4


  45              	.LFB4:
 128:Generated_Source\PSoC5/cyfitter_cfg.c ****     /* To remove the compiler warning if errorCode not used. */
 129:Generated_Source\PSoC5/cyfitter_cfg.c **** #if defined(CY_PSOC3) && (CY_PSOC3)
 130:Generated_Source\PSoC5/cyfitter_cfg.c ****     errorCode = errorCode;
 131:Generated_Source\PSoC5/cyfitter_cfg.c **** #else
 132:Generated_Source\PSoC5/cyfitter_cfg.c ****     (void)errorCode;
 133:Generated_Source\PSoC5/cyfitter_cfg.c **** #endif /* CY_PSOC3 */
 134:Generated_Source\PSoC5/cyfitter_cfg.c **** 
 135:Generated_Source\PSoC5/cyfitter_cfg.c ****     /* If we have a clock startup error (bad MHz crystal, PLL lock, etc.),  */
 136:Generated_Source\PSoC5/cyfitter_cfg.c ****     /* we will end up here to allow the customer to implement something to  */
 137:Generated_Source\PSoC5/cyfitter_cfg.c ****     /* deal with the clock condition.                                       */
 138:Generated_Source\PSoC5/cyfitter_cfg.c **** 
 139:Generated_Source\PSoC5/cyfitter_cfg.c **** #ifdef CY_CFG_CLOCK_STARTUP_ERROR_CALLBACK
 140:Generated_Source\PSoC5/cyfitter_cfg.c ****     CY_CFG_Clock_Startup_ErrorCallback();
 141:Generated_Source\PSoC5/cyfitter_cfg.c **** #else
 142:Generated_Source\PSoC5/cyfitter_cfg.c ****     /*  If not using CY_CFG_CLOCK_STARTUP_ERROR_CALLBACK, place your clock startup code here. */
 143:Generated_Source\PSoC5/cyfitter_cfg.c ****     /* `#START CyClockStartupError` */
 144:Generated_Source\PSoC5/cyfitter_cfg.c **** 
 145:Generated_Source\PSoC5/cyfitter_cfg.c **** 
 146:Generated_Source\PSoC5/cyfitter_cfg.c **** 
 147:Generated_Source\PSoC5/cyfitter_cfg.c ****     /* `#END` */
 148:Generated_Source\PSoC5/cyfitter_cfg.c **** 
 149:Generated_Source\PSoC5/cyfitter_cfg.c ****     while(1) {}
 150:Generated_Source\PSoC5/cyfitter_cfg.c **** #endif /* CY_CFG_CLOCK_STARTUP_ERROR_CALLBACK */
 151:Generated_Source\PSoC5/cyfitter_cfg.c **** }
 152:Generated_Source\PSoC5/cyfitter_cfg.c **** #endif
 153:Generated_Source\PSoC5/cyfitter_cfg.c **** 
 154:Generated_Source\PSoC5/cyfitter_cfg.c **** #define CY_CFG_BASE_ADDR_COUNT 20u
 155:Generated_Source\PSoC5/cyfitter_cfg.c **** CYPACKED typedef struct
 156:Generated_Source\PSoC5/cyfitter_cfg.c **** {
 157:Generated_Source\PSoC5/cyfitter_cfg.c **** 	uint8 offset;
 158:Generated_Source\PSoC5/cyfitter_cfg.c **** 	uint8 value;
 159:Generated_Source\PSoC5/cyfitter_cfg.c **** } CYPACKED_ATTR cy_cfg_addrvalue_t;
 160:Generated_Source\PSoC5/cyfitter_cfg.c **** 
 161:Generated_Source\PSoC5/cyfitter_cfg.c **** #define cy_cfg_addr_table ((const uint32 CYFAR *)0x48000000u)
 162:Generated_Source\PSoC5/cyfitter_cfg.c **** #define cy_cfg_data_table ((const cy_cfg_addrvalue_t CYFAR *)0x48000050u)
 163:Generated_Source\PSoC5/cyfitter_cfg.c **** 
 164:Generated_Source\PSoC5/cyfitter_cfg.c **** /* IOPINS0_0 Address: CYREG_PRT0_DM0 Size (bytes): 8 */
 165:Generated_Source\PSoC5/cyfitter_cfg.c **** #define BS_IOPINS0_0_VAL ((const uint8 CYFAR *)0x480000B4u)
 166:Generated_Source\PSoC5/cyfitter_cfg.c **** 
 167:Generated_Source\PSoC5/cyfitter_cfg.c **** /* IOPINS0_1 Address: CYREG_PRT1_DM0 Size (bytes): 8 */
 168:Generated_Source\PSoC5/cyfitter_cfg.c **** #define BS_IOPINS0_1_VAL ((const uint8 CYFAR *)0x480000BCu)
 169:Generated_Source\PSoC5/cyfitter_cfg.c **** 
 170:Generated_Source\PSoC5/cyfitter_cfg.c **** /* CYDEV_CLKDIST_ACFG0_CFG0 Address: CYREG_CLKDIST_ACFG0_CFG0 Size (bytes): 4 */
 171:Generated_Source\PSoC5/cyfitter_cfg.c **** #define BS_CYDEV_CLKDIST_ACFG0_CFG0_VAL ((const uint8 CYFAR *)0x480000C4u)
 172:Generated_Source\PSoC5/cyfitter_cfg.c **** 
 173:Generated_Source\PSoC5/cyfitter_cfg.c **** 
 174:Generated_Source\PSoC5/cyfitter_cfg.c **** /*******************************************************************************
 175:Generated_Source\PSoC5/cyfitter_cfg.c **** * Function Name: cfg_write_bytes32
 176:Generated_Source\PSoC5/cyfitter_cfg.c **** ********************************************************************************
 177:Generated_Source\PSoC5/cyfitter_cfg.c **** * Summary:
 178:Generated_Source\PSoC5/cyfitter_cfg.c **** *  This function is used for setting up the chip configuration areas that
 179:Generated_Source\PSoC5/cyfitter_cfg.c **** *  contain relatively sparse data.
 180:Generated_Source\PSoC5/cyfitter_cfg.c **** *
 181:Generated_Source\PSoC5/cyfitter_cfg.c **** * Parameters:
 182:Generated_Source\PSoC5/cyfitter_cfg.c **** *   void
 183:Generated_Source\PSoC5/cyfitter_cfg.c **** *
ARM GAS  C:\Users\ipfajard\AppData\Local\Temp\ccV9e12l.s 			page 5


 184:Generated_Source\PSoC5/cyfitter_cfg.c **** * Return:
 185:Generated_Source\PSoC5/cyfitter_cfg.c **** *   void
 186:Generated_Source\PSoC5/cyfitter_cfg.c **** *
 187:Generated_Source\PSoC5/cyfitter_cfg.c **** *******************************************************************************/
 188:Generated_Source\PSoC5/cyfitter_cfg.c **** static void cfg_write_bytes32(const uint32 addr_table[], const cy_cfg_addrvalue_t data_table[]);
 189:Generated_Source\PSoC5/cyfitter_cfg.c **** static void cfg_write_bytes32(const uint32 addr_table[], const cy_cfg_addrvalue_t data_table[])
 190:Generated_Source\PSoC5/cyfitter_cfg.c **** {
  46              		.loc 1 190 0
  47              		.cfi_startproc
  48              		@ args = 0, pretend = 0, frame = 0
  49              		@ frame_needed = 0, uses_anonymous_args = 0
  50              		@ link register save eliminated.
  51              	.LVL1:
  52              		.loc 1 190 0
  53 0000 F0B4     		push	{r4, r5, r6, r7}
  54              		.cfi_def_cfa_offset 16
  55              		.cfi_offset 4, -16
  56              		.cfi_offset 5, -12
  57              		.cfi_offset 6, -8
  58              		.cfi_offset 7, -4
  59              	.LVL2:
 191:Generated_Source\PSoC5/cyfitter_cfg.c **** 	/* For 32-bit little-endian architectures */
 192:Generated_Source\PSoC5/cyfitter_cfg.c **** 	uint32 i, j = 0u;
  60              		.loc 1 192 0
  61 0002 0022     		movs	r2, #0
 193:Generated_Source\PSoC5/cyfitter_cfg.c **** 	for (i = 0u; i < CY_CFG_BASE_ADDR_COUNT; i++)
  62              		.loc 1 193 0
  63 0004 1746     		mov	r7, r2
  64 0006 11E0     		b	.L4
  65              	.LVL3:
  66              	.L7:
  67              	.LBB2:
 194:Generated_Source\PSoC5/cyfitter_cfg.c **** 	{
 195:Generated_Source\PSoC5/cyfitter_cfg.c **** 		uint32 baseAddr = addr_table[i];
  68              		.loc 1 195 0
  69 0008 50F82760 		ldr	r6, [r0, r7, lsl #2]
  70              	.LVL4:
 196:Generated_Source\PSoC5/cyfitter_cfg.c **** 		uint8 count = (uint8)baseAddr;
  71              		.loc 1 196 0
  72 000c F3B2     		uxtb	r3, r6
  73              	.LVL5:
 197:Generated_Source\PSoC5/cyfitter_cfg.c **** 		baseAddr &= 0xFFFFFF00u;
  74              		.loc 1 197 0
  75 000e 26F0FF06 		bic	r6, r6, #255
  76              	.LVL6:
 198:Generated_Source\PSoC5/cyfitter_cfg.c **** 		while (count != 0u)
  77              		.loc 1 198 0
  78 0012 08E0     		b	.L5
  79              	.L6:
 199:Generated_Source\PSoC5/cyfitter_cfg.c **** 		{
 200:Generated_Source\PSoC5/cyfitter_cfg.c **** 			CY_SET_REG8((void *)(baseAddr + data_table[j].offset), data_table[j].value);
  80              		.loc 1 200 0
  81 0014 01EB4205 		add	r5, r1, r2, lsl #1
  82 0018 11F81240 		ldrb	r4, [r1, r2, lsl #1]	@ zero_extendqisi2
  83 001c 6D78     		ldrb	r5, [r5, #1]	@ zero_extendqisi2
  84 001e A555     		strb	r5, [r4, r6]
 201:Generated_Source\PSoC5/cyfitter_cfg.c **** 			j++;
ARM GAS  C:\Users\ipfajard\AppData\Local\Temp\ccV9e12l.s 			page 6


  85              		.loc 1 201 0
  86 0020 0132     		adds	r2, r2, #1
  87              	.LVL7:
 202:Generated_Source\PSoC5/cyfitter_cfg.c **** 			count--;
  88              		.loc 1 202 0
  89 0022 013B     		subs	r3, r3, #1
  90              	.LVL8:
  91 0024 DBB2     		uxtb	r3, r3
  92              	.LVL9:
  93              	.L5:
 198:Generated_Source\PSoC5/cyfitter_cfg.c **** 		{
  94              		.loc 1 198 0
  95 0026 002B     		cmp	r3, #0
  96 0028 F4D1     		bne	.L6
  97              	.LBE2:
 193:Generated_Source\PSoC5/cyfitter_cfg.c **** 	{
  98              		.loc 1 193 0 discriminator 2
  99 002a 0137     		adds	r7, r7, #1
 100              	.LVL10:
 101              	.L4:
 193:Generated_Source\PSoC5/cyfitter_cfg.c **** 	{
 102              		.loc 1 193 0 is_stmt 0 discriminator 1
 103 002c 132F     		cmp	r7, #19
 104 002e EBD9     		bls	.L7
 203:Generated_Source\PSoC5/cyfitter_cfg.c **** 		}
 204:Generated_Source\PSoC5/cyfitter_cfg.c **** 	}
 205:Generated_Source\PSoC5/cyfitter_cfg.c **** }
 105              		.loc 1 205 0 is_stmt 1
 106 0030 F0BC     		pop	{r4, r5, r6, r7}
 107              		.cfi_restore 7
 108              		.cfi_restore 6
 109              		.cfi_restore 5
 110              		.cfi_restore 4
 111              		.cfi_def_cfa_offset 0
 112              	.LVL11:
 113 0032 7047     		bx	lr
 114              		.cfi_endproc
 115              	.LFE4:
 116              		.size	cfg_write_bytes32, .-cfg_write_bytes32
 117              		.section	.text.CYMEMZERO,"ax",%progbits
 118              		.align	2
 119              		.thumb
 120              		.thumb_func
 121              		.type	CYMEMZERO, %function
 122              	CYMEMZERO:
 123              	.LFB0:
  78:Generated_Source\PSoC5/cyfitter_cfg.c **** 	(void)memset(s, 0, n);
 124              		.loc 1 78 0
 125              		.cfi_startproc
 126              		@ args = 0, pretend = 0, frame = 0
 127              		@ frame_needed = 0, uses_anonymous_args = 0
 128              	.LVL12:
 129 0000 08B5     		push	{r3, lr}
 130              		.cfi_def_cfa_offset 8
 131              		.cfi_offset 3, -8
 132              		.cfi_offset 14, -4
  79:Generated_Source\PSoC5/cyfitter_cfg.c **** }
ARM GAS  C:\Users\ipfajard\AppData\Local\Temp\ccV9e12l.s 			page 7


 133              		.loc 1 79 0
 134 0002 0A46     		mov	r2, r1
 135 0004 0021     		movs	r1, #0
 136              	.LVL13:
 137 0006 FFF7FEFF 		bl	memset
 138              	.LVL14:
 139 000a 08BD     		pop	{r3, pc}
 140              		.cfi_endproc
 141              	.LFE0:
 142              		.size	CYMEMZERO, .-CYMEMZERO
 143              		.section	.text.AnalogSetDefault,"ax",%progbits
 144              		.align	2
 145              		.thumb
 146              		.thumb_func
 147              		.type	AnalogSetDefault, %function
 148              	AnalogSetDefault:
 149              	.LFB6:
 206:Generated_Source\PSoC5/cyfitter_cfg.c **** 
 207:Generated_Source\PSoC5/cyfitter_cfg.c **** /*******************************************************************************
 208:Generated_Source\PSoC5/cyfitter_cfg.c **** * Function Name: ClockSetup
 209:Generated_Source\PSoC5/cyfitter_cfg.c **** ********************************************************************************
 210:Generated_Source\PSoC5/cyfitter_cfg.c **** *
 211:Generated_Source\PSoC5/cyfitter_cfg.c **** * Summary:
 212:Generated_Source\PSoC5/cyfitter_cfg.c **** *  Performs the initialization of all of the clocks in the device based on the
 213:Generated_Source\PSoC5/cyfitter_cfg.c **** *  settings in the Clock tab of the DWR.  This includes enabling the requested
 214:Generated_Source\PSoC5/cyfitter_cfg.c **** *  clocks and setting the necessary dividers to produce the desired frequency. 
 215:Generated_Source\PSoC5/cyfitter_cfg.c **** *
 216:Generated_Source\PSoC5/cyfitter_cfg.c **** * Parameters:
 217:Generated_Source\PSoC5/cyfitter_cfg.c **** *  void
 218:Generated_Source\PSoC5/cyfitter_cfg.c **** *
 219:Generated_Source\PSoC5/cyfitter_cfg.c **** * Return:
 220:Generated_Source\PSoC5/cyfitter_cfg.c **** *  void
 221:Generated_Source\PSoC5/cyfitter_cfg.c **** *
 222:Generated_Source\PSoC5/cyfitter_cfg.c **** *******************************************************************************/
 223:Generated_Source\PSoC5/cyfitter_cfg.c **** static void ClockSetup(void);
 224:Generated_Source\PSoC5/cyfitter_cfg.c **** static void ClockSetup(void)
 225:Generated_Source\PSoC5/cyfitter_cfg.c **** {
 226:Generated_Source\PSoC5/cyfitter_cfg.c **** 	uint32 timeout;
 227:Generated_Source\PSoC5/cyfitter_cfg.c **** 	uint8 pllLock;
 228:Generated_Source\PSoC5/cyfitter_cfg.c **** 
 229:Generated_Source\PSoC5/cyfitter_cfg.c **** 
 230:Generated_Source\PSoC5/cyfitter_cfg.c **** 	/* Configure Digital Clocks based on settings from Clock DWR */
 231:Generated_Source\PSoC5/cyfitter_cfg.c **** 	CY_SET_XTND_REG16((void CYFAR *)(CYREG_CLKDIST_DCFG0_CFG0), 0x0000u);
 232:Generated_Source\PSoC5/cyfitter_cfg.c **** 	CY_SET_XTND_REG8((void CYFAR *)(CYREG_CLKDIST_DCFG0_CFG0 + 0x2u), 0x50u);
 233:Generated_Source\PSoC5/cyfitter_cfg.c **** 	CY_SET_XTND_REG16((void CYFAR *)(CYREG_CLKDIST_DCFG1_CFG0), 0x0001u);
 234:Generated_Source\PSoC5/cyfitter_cfg.c **** 	CY_SET_XTND_REG8((void CYFAR *)(CYREG_CLKDIST_DCFG1_CFG0 + 0x2u), 0x18u);
 235:Generated_Source\PSoC5/cyfitter_cfg.c **** 
 236:Generated_Source\PSoC5/cyfitter_cfg.c **** 	/* Configure Analog Clocks based on settings from Clock DWR */
 237:Generated_Source\PSoC5/cyfitter_cfg.c **** 	CYCONFIGCPY((void CYFAR *)(CYREG_CLKDIST_ACFG0_CFG0), (const void CYFAR *)(BS_CYDEV_CLKDIST_ACFG0_
 238:Generated_Source\PSoC5/cyfitter_cfg.c **** 
 239:Generated_Source\PSoC5/cyfitter_cfg.c **** 	/* Configure ILO based on settings from Clock DWR */
 240:Generated_Source\PSoC5/cyfitter_cfg.c **** 	CY_SET_XTND_REG8((void CYFAR *)(CYREG_SLOWCLK_ILO_CR0), 0x02u);
 241:Generated_Source\PSoC5/cyfitter_cfg.c **** 	CY_SET_XTND_REG8((void CYFAR *)(CYREG_CLKDIST_CR), 0x08u);
 242:Generated_Source\PSoC5/cyfitter_cfg.c **** 
 243:Generated_Source\PSoC5/cyfitter_cfg.c **** 	/* Configure IMO based on settings from Clock DWR */
 244:Generated_Source\PSoC5/cyfitter_cfg.c **** 	CY_SET_XTND_REG8((void CYFAR *)(CYREG_FASTCLK_IMO_CR), 0x03u);
 245:Generated_Source\PSoC5/cyfitter_cfg.c **** 	CY_SET_XTND_REG8((void CYFAR *)(CYREG_IMO_TR1), (CY_GET_XTND_REG8((void CYFAR *)CYREG_FLSHID_CUST_
ARM GAS  C:\Users\ipfajard\AppData\Local\Temp\ccV9e12l.s 			page 8


 246:Generated_Source\PSoC5/cyfitter_cfg.c **** 
 247:Generated_Source\PSoC5/cyfitter_cfg.c **** 	/* Configure PLL based on settings from Clock DWR */
 248:Generated_Source\PSoC5/cyfitter_cfg.c **** 	CY_SET_XTND_REG16((void CYFAR *)(CYREG_FASTCLK_PLL_P), 0x0008u);
 249:Generated_Source\PSoC5/cyfitter_cfg.c **** 	CY_SET_XTND_REG16((void CYFAR *)(CYREG_FASTCLK_PLL_CFG0), 0x1251u);
 250:Generated_Source\PSoC5/cyfitter_cfg.c **** 	/* Wait up to 250us for the PLL to lock */
 251:Generated_Source\PSoC5/cyfitter_cfg.c **** 	pllLock = 0u;
 252:Generated_Source\PSoC5/cyfitter_cfg.c **** 	for (timeout = 250u / 10u; (timeout > 0u) && (pllLock != 0x03u); timeout--)
 253:Generated_Source\PSoC5/cyfitter_cfg.c **** 	{ 
 254:Generated_Source\PSoC5/cyfitter_cfg.c **** 		pllLock = 0x03u & ((uint8)((uint8)pllLock << 1) | ((CY_GET_XTND_REG8((void CYFAR *)CYREG_FASTCLK_
 255:Generated_Source\PSoC5/cyfitter_cfg.c **** 		CyDelayCycles(10u * 12u); /* Delay 10us based on 12MHz clock */
 256:Generated_Source\PSoC5/cyfitter_cfg.c **** 	}
 257:Generated_Source\PSoC5/cyfitter_cfg.c **** 	/* If we ran out of time the PLL didn't lock so go to the error function */
 258:Generated_Source\PSoC5/cyfitter_cfg.c **** 	if (timeout == 0u)
 259:Generated_Source\PSoC5/cyfitter_cfg.c **** 	{
 260:Generated_Source\PSoC5/cyfitter_cfg.c **** 		CyClockStartupError(CYCLOCKSTART_PLL_ERROR);
 261:Generated_Source\PSoC5/cyfitter_cfg.c **** 	}
 262:Generated_Source\PSoC5/cyfitter_cfg.c **** 
 263:Generated_Source\PSoC5/cyfitter_cfg.c **** 	/* Configure Bus/Master Clock based on settings from Clock DWR */
 264:Generated_Source\PSoC5/cyfitter_cfg.c **** 	CY_SET_XTND_REG16((void CYFAR *)(CYREG_CLKDIST_MSTR0), 0x0100u);
 265:Generated_Source\PSoC5/cyfitter_cfg.c **** 	CY_SET_XTND_REG8((void CYFAR *)(CYREG_CLKDIST_MSTR0), 0x07u);
 266:Generated_Source\PSoC5/cyfitter_cfg.c **** 	CY_SET_XTND_REG8((void CYFAR *)(CYREG_CLKDIST_BCFG0), 0x00u);
 267:Generated_Source\PSoC5/cyfitter_cfg.c **** 	CY_SET_XTND_REG8((void CYFAR *)(CYREG_CLKDIST_BCFG2), 0x48u);
 268:Generated_Source\PSoC5/cyfitter_cfg.c **** 	CY_SET_XTND_REG8((void CYFAR *)(CYREG_CLKDIST_MSTR0), 0x00u);
 269:Generated_Source\PSoC5/cyfitter_cfg.c **** 	CY_SET_XTND_REG8((void CYFAR *)(CYREG_CLKDIST_LD), 0x02u);
 270:Generated_Source\PSoC5/cyfitter_cfg.c **** 	CY_SET_XTND_REG8((void CYFAR *)(CYREG_CLKDIST_DLY1), 0x04u);
 271:Generated_Source\PSoC5/cyfitter_cfg.c **** 
 272:Generated_Source\PSoC5/cyfitter_cfg.c **** 	CY_SET_XTND_REG8((void CYFAR *)(CYREG_PM_ACT_CFG2), ((CY_GET_XTND_REG8((void CYFAR *)CYREG_PM_ACT_
 273:Generated_Source\PSoC5/cyfitter_cfg.c **** 	CY_SET_XTND_REG8((void CYFAR *)(CYREG_PM_ACT_CFG1), ((CY_GET_XTND_REG8((void CYFAR *)CYREG_PM_ACT_
 274:Generated_Source\PSoC5/cyfitter_cfg.c **** 	CY_SET_XTND_REG8((void CYFAR *)(CYREG_PM_ACT_CFG0), ((CY_GET_XTND_REG8((void CYFAR *)CYREG_PM_ACT_
 275:Generated_Source\PSoC5/cyfitter_cfg.c **** }
 276:Generated_Source\PSoC5/cyfitter_cfg.c **** 
 277:Generated_Source\PSoC5/cyfitter_cfg.c **** 
 278:Generated_Source\PSoC5/cyfitter_cfg.c **** /* Analog API Functions */
 279:Generated_Source\PSoC5/cyfitter_cfg.c **** 
 280:Generated_Source\PSoC5/cyfitter_cfg.c **** 
 281:Generated_Source\PSoC5/cyfitter_cfg.c **** /*******************************************************************************
 282:Generated_Source\PSoC5/cyfitter_cfg.c **** * Function Name: AnalogSetDefault
 283:Generated_Source\PSoC5/cyfitter_cfg.c **** ********************************************************************************
 284:Generated_Source\PSoC5/cyfitter_cfg.c **** *
 285:Generated_Source\PSoC5/cyfitter_cfg.c **** * Summary:
 286:Generated_Source\PSoC5/cyfitter_cfg.c **** *  Sets up the analog portions of the chip to default values based on chip
 287:Generated_Source\PSoC5/cyfitter_cfg.c **** *  configuration options from the project.
 288:Generated_Source\PSoC5/cyfitter_cfg.c **** *
 289:Generated_Source\PSoC5/cyfitter_cfg.c **** * Parameters:
 290:Generated_Source\PSoC5/cyfitter_cfg.c **** *  void
 291:Generated_Source\PSoC5/cyfitter_cfg.c **** *
 292:Generated_Source\PSoC5/cyfitter_cfg.c **** * Return:
 293:Generated_Source\PSoC5/cyfitter_cfg.c **** *  void
 294:Generated_Source\PSoC5/cyfitter_cfg.c **** *
 295:Generated_Source\PSoC5/cyfitter_cfg.c **** *******************************************************************************/
 296:Generated_Source\PSoC5/cyfitter_cfg.c **** static void AnalogSetDefault(void);
 297:Generated_Source\PSoC5/cyfitter_cfg.c **** static void AnalogSetDefault(void)
 298:Generated_Source\PSoC5/cyfitter_cfg.c **** {
 150              		.loc 1 298 0
 151              		.cfi_startproc
 152              		@ args = 0, pretend = 0, frame = 0
 153              		@ frame_needed = 0, uses_anonymous_args = 0
ARM GAS  C:\Users\ipfajard\AppData\Local\Temp\ccV9e12l.s 			page 9


 154 0000 F8B5     		push	{r3, r4, r5, r6, r7, lr}
 155              		.cfi_def_cfa_offset 24
 156              		.cfi_offset 3, -24
 157              		.cfi_offset 4, -20
 158              		.cfi_offset 5, -16
 159              		.cfi_offset 6, -12
 160              		.cfi_offset 7, -8
 161              		.cfi_offset 14, -4
 299:Generated_Source\PSoC5/cyfitter_cfg.c **** 	uint8 bg_xover_inl_trim = CY_GET_XTND_REG8((void CYFAR *)(CYREG_FLSHID_MFG_CFG_BG_XOVER_INL_TRIM +
 162              		.loc 1 299 0
 163 0002 1C4B     		ldr	r3, .L13
 164 0004 1B78     		ldrb	r3, [r3]	@ zero_extendqisi2
 165 0006 DBB2     		uxtb	r3, r3
 166              	.LVL15:
 300:Generated_Source\PSoC5/cyfitter_cfg.c **** 	uint8 cr4 = CY_GET_XTND_REG8((void CYFAR *)(CYREG_RESET_CR4));
 167              		.loc 1 300 0
 168 0008 1B4E     		ldr	r6, .L13+4
 169 000a 3478     		ldrb	r4, [r6]	@ zero_extendqisi2
 170 000c E4B2     		uxtb	r4, r4
 171              	.LVL16:
 301:Generated_Source\PSoC5/cyfitter_cfg.c **** 	uint8 cr5 = CY_GET_XTND_REG8((void CYFAR *)(CYREG_RESET_CR5));
 172              		.loc 1 301 0
 173 000e 1B4F     		ldr	r7, .L13+8
 174 0010 3D78     		ldrb	r5, [r7]	@ zero_extendqisi2
 175 0012 EDB2     		uxtb	r5, r5
 176              	.LVL17:
 302:Generated_Source\PSoC5/cyfitter_cfg.c **** 	CY_SET_XTND_REG8((void CYFAR *)(CYREG_BG_DFT0), (bg_xover_inl_trim & 0x07u));
 177              		.loc 1 302 0
 178 0014 03F00701 		and	r1, r3, #7
 179 0018 194A     		ldr	r2, .L13+12
 180 001a 1170     		strb	r1, [r2]
 303:Generated_Source\PSoC5/cyfitter_cfg.c **** 	CY_SET_XTND_REG8((void CYFAR *)(CYREG_BG_DFT1), ((bg_xover_inl_trim >> 4) & 0x0Fu));
 181              		.loc 1 303 0
 182 001c 1B09     		lsrs	r3, r3, #4
 183              	.LVL18:
 184 001e 0132     		adds	r2, r2, #1
 185 0020 1370     		strb	r3, [r2]
 304:Generated_Source\PSoC5/cyfitter_cfg.c **** 	/* Disable PRES while setting up SAR voltage reference */
 305:Generated_Source\PSoC5/cyfitter_cfg.c **** 	CY_SET_XTND_REG8((void CYFAR *)(CYREG_RESET_CR4), (cr4 | 0x03u));
 186              		.loc 1 305 0
 187 0022 44F00303 		orr	r3, r4, #3
 188 0026 3370     		strb	r3, [r6]
 306:Generated_Source\PSoC5/cyfitter_cfg.c **** 	CY_SET_XTND_REG8((void CYFAR *)(CYREG_RESET_CR5), (cr5 | 0x03u));
 189              		.loc 1 306 0
 190 0028 45F00303 		orr	r3, r5, #3
 191 002c 3B70     		strb	r3, [r7]
 307:Generated_Source\PSoC5/cyfitter_cfg.c **** 	CY_SET_XTND_REG8((void CYFAR *)CYREG_PRT0_AG, 0x03u);
 192              		.loc 1 307 0
 193 002e 0322     		movs	r2, #3
 194 0030 144B     		ldr	r3, .L13+16
 195 0032 1A70     		strb	r2, [r3]
 308:Generated_Source\PSoC5/cyfitter_cfg.c **** 	CY_SET_XTND_REG16((void CYFAR *)CYREG_PRT1_AMUX, 0x2040u);
 196              		.loc 1 308 0
 197 0034 4FF40152 		mov	r2, #8256
 198 0038 0F33     		adds	r3, r3, #15
 199 003a 1A80     		strh	r2, [r3]	@ movhi
 309:Generated_Source\PSoC5/cyfitter_cfg.c **** 	CY_SET_XTND_REG8((void CYFAR *)CYREG_SAR0_CSR1, 0x40u);
ARM GAS  C:\Users\ipfajard\AppData\Local\Temp\ccV9e12l.s 			page 10


 200              		.loc 1 309 0
 201 003c 4023     		movs	r3, #64
 202 003e 124A     		ldr	r2, .L13+20
 203 0040 1370     		strb	r3, [r2]
 310:Generated_Source\PSoC5/cyfitter_cfg.c **** 	CY_SET_XTND_REG8((void CYFAR *)CYREG_SAR0_CSR3, 0x40u);
 204              		.loc 1 310 0
 205 0042 0232     		adds	r2, r2, #2
 206 0044 1370     		strb	r3, [r2]
 311:Generated_Source\PSoC5/cyfitter_cfg.c **** 	CY_SET_XTND_REG8((void CYFAR *)CYREG_DAC1_SW0, 0x02u);
 207              		.loc 1 311 0
 208 0046 0222     		movs	r2, #2
 209 0048 104B     		ldr	r3, .L13+24
 210 004a 1A70     		strb	r2, [r3]
 312:Generated_Source\PSoC5/cyfitter_cfg.c **** 	CY_SET_XTND_REG8((void CYFAR *)CYREG_DAC3_SW3, 0x01u);
 211              		.loc 1 312 0
 212 004c 0122     		movs	r2, #1
 213 004e 1333     		adds	r3, r3, #19
 214 0050 1A70     		strb	r2, [r3]
 313:Generated_Source\PSoC5/cyfitter_cfg.c **** 	CY_SET_XTND_REG8((void CYFAR *)CYREG_DSM0_SW0, 0x10u);
 215              		.loc 1 313 0
 216 0052 1022     		movs	r2, #16
 217 0054 6533     		adds	r3, r3, #101
 218 0056 1A70     		strb	r2, [r3]
 314:Generated_Source\PSoC5/cyfitter_cfg.c **** 	CY_SET_XTND_REG8((void CYFAR *)CYREG_SAR0_SW0, 0x20u);
 219              		.loc 1 314 0
 220 0058 2023     		movs	r3, #32
 221 005a 0D4A     		ldr	r2, .L13+28
 222 005c 1370     		strb	r3, [r2]
 315:Generated_Source\PSoC5/cyfitter_cfg.c **** 	CY_SET_XTND_REG8((void CYFAR *)CYREG_SAR0_SW3, 0x20u);
 223              		.loc 1 315 0
 224 005e 0332     		adds	r2, r2, #3
 225 0060 1370     		strb	r3, [r2]
 316:Generated_Source\PSoC5/cyfitter_cfg.c **** 	CyDelayUs(10u); /* Allow vref to settle before re-enabling PRES */
 226              		.loc 1 316 0
 227 0062 0A20     		movs	r0, #10
 228 0064 FFF7FEFF 		bl	CyDelayUs
 229              	.LVL19:
 317:Generated_Source\PSoC5/cyfitter_cfg.c **** 	CY_SET_XTND_REG8((void CYFAR *)(CYREG_RESET_CR5), (cr5));
 230              		.loc 1 317 0
 231 0068 3D70     		strb	r5, [r7]
 318:Generated_Source\PSoC5/cyfitter_cfg.c **** 	CY_SET_XTND_REG8((void CYFAR *)(CYREG_RESET_CR4), (cr4));
 232              		.loc 1 318 0
 233 006a 3470     		strb	r4, [r6]
 319:Generated_Source\PSoC5/cyfitter_cfg.c **** 	CY_SET_XTND_REG8((void CYFAR *)CYREG_PUMP_CR0, 0x44u);
 234              		.loc 1 319 0
 235 006c 4422     		movs	r2, #68
 236 006e 094B     		ldr	r3, .L13+32
 237 0070 1A70     		strb	r2, [r3]
 238 0072 F8BD     		pop	{r3, r4, r5, r6, r7, pc}
 239              	.LVL20:
 240              	.L14:
 241              		.align	2
 242              	.L13:
 243 0074 CF010049 		.word	1224737231
 244 0078 F8460040 		.word	1073759992
 245 007c F9460040 		.word	1073759993
 246 0080 6E580040 		.word	1073764462
ARM GAS  C:\Users\ipfajard\AppData\Local\Temp\ccV9e12l.s 			page 11


 247 0084 0D510040 		.word	1073762573
 248 0088 01590040 		.word	1073764609
 249 008c 885A0040 		.word	1073765000
 250 0090 205B0040 		.word	1073765152
 251 0094 76580040 		.word	1073764470
 252              		.cfi_endproc
 253              	.LFE6:
 254              		.size	AnalogSetDefault, .-AnalogSetDefault
 255              		.section	.text.CYCONFIGCPY,"ax",%progbits
 256              		.align	2
 257              		.thumb
 258              		.thumb_func
 259              		.type	CYCONFIGCPY, %function
 260              	CYCONFIGCPY:
 261              	.LFB1:
  85:Generated_Source\PSoC5/cyfitter_cfg.c **** 	(void)memcpy(dest, src, n);
 262              		.loc 1 85 0
 263              		.cfi_startproc
 264              		@ args = 0, pretend = 0, frame = 0
 265              		@ frame_needed = 0, uses_anonymous_args = 0
 266              	.LVL21:
 267 0000 08B5     		push	{r3, lr}
 268              		.cfi_def_cfa_offset 8
 269              		.cfi_offset 3, -8
 270              		.cfi_offset 14, -4
  86:Generated_Source\PSoC5/cyfitter_cfg.c **** }
 271              		.loc 1 86 0
 272 0002 FFF7FEFF 		bl	memcpy
 273              	.LVL22:
 274 0006 08BD     		pop	{r3, pc}
 275              		.cfi_endproc
 276              	.LFE1:
 277              		.size	CYCONFIGCPY, .-CYCONFIGCPY
 278              		.section	.text.ClockSetup,"ax",%progbits
 279              		.align	2
 280              		.thumb
 281              		.thumb_func
 282              		.type	ClockSetup, %function
 283              	ClockSetup:
 284              	.LFB5:
 225:Generated_Source\PSoC5/cyfitter_cfg.c **** 	uint32 timeout;
 285              		.loc 1 225 0
 286              		.cfi_startproc
 287              		@ args = 0, pretend = 0, frame = 0
 288              		@ frame_needed = 0, uses_anonymous_args = 0
 289 0000 38B5     		push	{r3, r4, r5, lr}
 290              		.cfi_def_cfa_offset 16
 291              		.cfi_offset 3, -16
 292              		.cfi_offset 4, -12
 293              		.cfi_offset 5, -8
 294              		.cfi_offset 14, -4
 231:Generated_Source\PSoC5/cyfitter_cfg.c **** 	CY_SET_XTND_REG8((void CYFAR *)(CYREG_CLKDIST_DCFG0_CFG0 + 0x2u), 0x50u);
 295              		.loc 1 231 0
 296 0002 0024     		movs	r4, #0
 297 0004 2E4B     		ldr	r3, .L23
 298 0006 1C80     		strh	r4, [r3]	@ movhi
 232:Generated_Source\PSoC5/cyfitter_cfg.c **** 	CY_SET_XTND_REG16((void CYFAR *)(CYREG_CLKDIST_DCFG1_CFG0), 0x0001u);
ARM GAS  C:\Users\ipfajard\AppData\Local\Temp\ccV9e12l.s 			page 12


 299              		.loc 1 232 0
 300 0008 5022     		movs	r2, #80
 301 000a 0233     		adds	r3, r3, #2
 302 000c 1A70     		strb	r2, [r3]
 233:Generated_Source\PSoC5/cyfitter_cfg.c **** 	CY_SET_XTND_REG8((void CYFAR *)(CYREG_CLKDIST_DCFG1_CFG0 + 0x2u), 0x18u);
 303              		.loc 1 233 0
 304 000e 0122     		movs	r2, #1
 305 0010 0233     		adds	r3, r3, #2
 306 0012 1A80     		strh	r2, [r3]	@ movhi
 234:Generated_Source\PSoC5/cyfitter_cfg.c **** 
 307              		.loc 1 234 0
 308 0014 1822     		movs	r2, #24
 309 0016 0233     		adds	r3, r3, #2
 310 0018 1A70     		strb	r2, [r3]
 237:Generated_Source\PSoC5/cyfitter_cfg.c **** 
 311              		.loc 1 237 0
 312 001a 0422     		movs	r2, #4
 313 001c 2949     		ldr	r1, .L23+4
 314 001e 2A48     		ldr	r0, .L23+8
 315 0020 FFF7FEFF 		bl	CYCONFIGCPY
 316              	.LVL23:
 240:Generated_Source\PSoC5/cyfitter_cfg.c **** 	CY_SET_XTND_REG8((void CYFAR *)(CYREG_CLKDIST_CR), 0x08u);
 317              		.loc 1 240 0
 318 0024 0222     		movs	r2, #2
 319 0026 294B     		ldr	r3, .L23+12
 320 0028 1A70     		strb	r2, [r3]
 241:Generated_Source\PSoC5/cyfitter_cfg.c **** 
 321              		.loc 1 241 0
 322 002a 0822     		movs	r2, #8
 323 002c 4FF04023 		mov	r3, #1073758208
 324 0030 1A70     		strb	r2, [r3]
 244:Generated_Source\PSoC5/cyfitter_cfg.c **** 	CY_SET_XTND_REG8((void CYFAR *)(CYREG_IMO_TR1), (CY_GET_XTND_REG8((void CYFAR *)CYREG_FLSHID_CUST_
 325              		.loc 1 244 0
 326 0032 0321     		movs	r1, #3
 327 0034 03F50073 		add	r3, r3, #512
 328 0038 1970     		strb	r1, [r3]
 245:Generated_Source\PSoC5/cyfitter_cfg.c **** 
 329              		.loc 1 245 0
 330 003a 254B     		ldr	r3, .L23+16
 331 003c 1B78     		ldrb	r3, [r3]	@ zero_extendqisi2
 332 003e DBB2     		uxtb	r3, r3
 333 0040 2449     		ldr	r1, .L23+20
 334 0042 0B70     		strb	r3, [r1]
 248:Generated_Source\PSoC5/cyfitter_cfg.c **** 	CY_SET_XTND_REG16((void CYFAR *)(CYREG_FASTCLK_PLL_CFG0), 0x1251u);
 335              		.loc 1 248 0
 336 0044 244B     		ldr	r3, .L23+24
 337 0046 1A80     		strh	r2, [r3]	@ movhi
 249:Generated_Source\PSoC5/cyfitter_cfg.c **** 	/* Wait up to 250us for the PLL to lock */
 338              		.loc 1 249 0
 339 0048 41F25122 		movw	r2, #4689
 340 004c 023B     		subs	r3, r3, #2
 341 004e 1A80     		strh	r2, [r3]	@ movhi
 342              	.LVL24:
 252:Generated_Source\PSoC5/cyfitter_cfg.c **** 	{ 
 343              		.loc 1 252 0
 344 0050 1925     		movs	r5, #25
 345 0052 0BE0     		b	.L18
ARM GAS  C:\Users\ipfajard\AppData\Local\Temp\ccV9e12l.s 			page 13


 346              	.LVL25:
 347              	.L20:
 254:Generated_Source\PSoC5/cyfitter_cfg.c **** 		CyDelayCycles(10u * 12u); /* Delay 10us based on 12MHz clock */
 348              		.loc 1 254 0 discriminator 4
 349 0054 214B     		ldr	r3, .L23+28
 350 0056 1B78     		ldrb	r3, [r3]	@ zero_extendqisi2
 351 0058 03F00103 		and	r3, r3, #1
 352 005c 43EA4404 		orr	r4, r3, r4, lsl #1
 353              	.LVL26:
 354 0060 04F00304 		and	r4, r4, #3
 355              	.LVL27:
 255:Generated_Source\PSoC5/cyfitter_cfg.c **** 	}
 356              		.loc 1 255 0 discriminator 4
 357 0064 7820     		movs	r0, #120
 358 0066 FFF7FEFF 		bl	CyDelayCycles
 359              	.LVL28:
 252:Generated_Source\PSoC5/cyfitter_cfg.c **** 	{ 
 360              		.loc 1 252 0 discriminator 4
 361 006a 013D     		subs	r5, r5, #1
 362              	.LVL29:
 363              	.L18:
 252:Generated_Source\PSoC5/cyfitter_cfg.c **** 	{ 
 364              		.loc 1 252 0 is_stmt 0 discriminator 1
 365 006c 0DB1     		cbz	r5, .L19
 252:Generated_Source\PSoC5/cyfitter_cfg.c **** 	{ 
 366              		.loc 1 252 0 discriminator 3
 367 006e 032C     		cmp	r4, #3
 368 0070 F0D1     		bne	.L20
 369              	.L19:
 258:Generated_Source\PSoC5/cyfitter_cfg.c **** 	{
 370              		.loc 1 258 0 is_stmt 1
 371 0072 15B9     		cbnz	r5, .L21
 260:Generated_Source\PSoC5/cyfitter_cfg.c **** 	}
 372              		.loc 1 260 0
 373 0074 0320     		movs	r0, #3
 374 0076 FFF7FEFF 		bl	CyClockStartupError
 375              	.LVL30:
 376              	.L21:
 264:Generated_Source\PSoC5/cyfitter_cfg.c **** 	CY_SET_XTND_REG8((void CYFAR *)(CYREG_CLKDIST_MSTR0), 0x07u);
 377              		.loc 1 264 0
 378 007a 194B     		ldr	r3, .L23+32
 379 007c 4FF48072 		mov	r2, #256
 380 0080 1A80     		strh	r2, [r3]	@ movhi
 265:Generated_Source\PSoC5/cyfitter_cfg.c **** 	CY_SET_XTND_REG8((void CYFAR *)(CYREG_CLKDIST_BCFG0), 0x00u);
 381              		.loc 1 265 0
 382 0082 0722     		movs	r2, #7
 383 0084 1A70     		strb	r2, [r3]
 266:Generated_Source\PSoC5/cyfitter_cfg.c **** 	CY_SET_XTND_REG8((void CYFAR *)(CYREG_CLKDIST_BCFG2), 0x48u);
 384              		.loc 1 266 0
 385 0086 0022     		movs	r2, #0
 386 0088 1649     		ldr	r1, .L23+36
 387 008a 0A70     		strb	r2, [r1]
 267:Generated_Source\PSoC5/cyfitter_cfg.c **** 	CY_SET_XTND_REG8((void CYFAR *)(CYREG_CLKDIST_MSTR0), 0x00u);
 388              		.loc 1 267 0
 389 008c 4820     		movs	r0, #72
 390 008e 0231     		adds	r1, r1, #2
 391 0090 0870     		strb	r0, [r1]
ARM GAS  C:\Users\ipfajard\AppData\Local\Temp\ccV9e12l.s 			page 14


 268:Generated_Source\PSoC5/cyfitter_cfg.c **** 	CY_SET_XTND_REG8((void CYFAR *)(CYREG_CLKDIST_LD), 0x02u);
 392              		.loc 1 268 0
 393 0092 1A70     		strb	r2, [r3]
 269:Generated_Source\PSoC5/cyfitter_cfg.c **** 	CY_SET_XTND_REG8((void CYFAR *)(CYREG_CLKDIST_DLY1), 0x04u);
 394              		.loc 1 269 0
 395 0094 0222     		movs	r2, #2
 396 0096 033B     		subs	r3, r3, #3
 397 0098 1A70     		strb	r2, [r3]
 270:Generated_Source\PSoC5/cyfitter_cfg.c **** 
 398              		.loc 1 270 0
 399 009a 0422     		movs	r2, #4
 400 009c 0A33     		adds	r3, r3, #10
 401 009e 1A70     		strb	r2, [r3]
 272:Generated_Source\PSoC5/cyfitter_cfg.c **** 	CY_SET_XTND_REG8((void CYFAR *)(CYREG_PM_ACT_CFG1), ((CY_GET_XTND_REG8((void CYFAR *)CYREG_PM_ACT_
 402              		.loc 1 272 0
 403 00a0 114A     		ldr	r2, .L23+40
 404 00a2 1378     		ldrb	r3, [r2]	@ zero_extendqisi2
 405 00a4 43F00303 		orr	r3, r3, #3
 406 00a8 1370     		strb	r3, [r2]
 273:Generated_Source\PSoC5/cyfitter_cfg.c **** 	CY_SET_XTND_REG8((void CYFAR *)(CYREG_PM_ACT_CFG0), ((CY_GET_XTND_REG8((void CYFAR *)CYREG_PM_ACT_
 407              		.loc 1 273 0
 408 00aa 013A     		subs	r2, r2, #1
 409 00ac 1378     		ldrb	r3, [r2]	@ zero_extendqisi2
 410 00ae 43F00103 		orr	r3, r3, #1
 411 00b2 1370     		strb	r3, [r2]
 274:Generated_Source\PSoC5/cyfitter_cfg.c **** }
 412              		.loc 1 274 0
 413 00b4 013A     		subs	r2, r2, #1
 414 00b6 1378     		ldrb	r3, [r2]	@ zero_extendqisi2
 415 00b8 43F08003 		orr	r3, r3, #128
 416 00bc 1370     		strb	r3, [r2]
 417 00be 38BD     		pop	{r3, r4, r5, pc}
 418              	.LVL31:
 419              	.L24:
 420              		.align	2
 421              	.L23:
 422 00c0 80400040 		.word	1073758336
 423 00c4 C4000048 		.word	1207959748
 424 00c8 00410040 		.word	1073758464
 425 00cc 00430040 		.word	1073758976
 426 00d0 08010049 		.word	1224737032
 427 00d4 A1460040 		.word	1073759905
 428 00d8 22420040 		.word	1073758754
 429 00dc 25420040 		.word	1073758757
 430 00e0 04400040 		.word	1073758212
 431 00e4 06400040 		.word	1073758214
 432 00e8 A2430040 		.word	1073759138
 433              		.cfi_endproc
 434              	.LFE5:
 435              		.size	ClockSetup, .-ClockSetup
 436              		.section	.text.SetAnalogRoutingPumps,"ax",%progbits
 437              		.align	2
 438              		.global	SetAnalogRoutingPumps
 439              		.thumb
 440              		.thumb_func
 441              		.type	SetAnalogRoutingPumps, %function
 442              	SetAnalogRoutingPumps:
ARM GAS  C:\Users\ipfajard\AppData\Local\Temp\ccV9e12l.s 			page 15


 443              	.LFB7:
 320:Generated_Source\PSoC5/cyfitter_cfg.c **** }
 321:Generated_Source\PSoC5/cyfitter_cfg.c **** 
 322:Generated_Source\PSoC5/cyfitter_cfg.c **** 
 323:Generated_Source\PSoC5/cyfitter_cfg.c **** /*******************************************************************************
 324:Generated_Source\PSoC5/cyfitter_cfg.c **** * Function Name: SetAnalogRoutingPumps
 325:Generated_Source\PSoC5/cyfitter_cfg.c **** ********************************************************************************
 326:Generated_Source\PSoC5/cyfitter_cfg.c **** *
 327:Generated_Source\PSoC5/cyfitter_cfg.c **** * Summary:
 328:Generated_Source\PSoC5/cyfitter_cfg.c **** * Enables or disables the analog pumps feeding analog routing switches.
 329:Generated_Source\PSoC5/cyfitter_cfg.c **** * Intended to be called at startup, based on the Vdda system configuration;
 330:Generated_Source\PSoC5/cyfitter_cfg.c **** * may be called during operation when the user informs us that the Vdda voltage
 331:Generated_Source\PSoC5/cyfitter_cfg.c **** * crossed the pump threshold.
 332:Generated_Source\PSoC5/cyfitter_cfg.c **** *
 333:Generated_Source\PSoC5/cyfitter_cfg.c **** * Parameters:
 334:Generated_Source\PSoC5/cyfitter_cfg.c **** *  enabled - 1 to enable the pumps, 0 to disable the pumps
 335:Generated_Source\PSoC5/cyfitter_cfg.c **** *
 336:Generated_Source\PSoC5/cyfitter_cfg.c **** * Return:
 337:Generated_Source\PSoC5/cyfitter_cfg.c **** *  void
 338:Generated_Source\PSoC5/cyfitter_cfg.c **** *
 339:Generated_Source\PSoC5/cyfitter_cfg.c **** *******************************************************************************/
 340:Generated_Source\PSoC5/cyfitter_cfg.c **** void SetAnalogRoutingPumps(uint8 enabled)
 341:Generated_Source\PSoC5/cyfitter_cfg.c **** {
 444              		.loc 1 341 0
 445              		.cfi_startproc
 446              		@ args = 0, pretend = 0, frame = 0
 447              		@ frame_needed = 0, uses_anonymous_args = 0
 448              		@ link register save eliminated.
 449              	.LVL32:
 342:Generated_Source\PSoC5/cyfitter_cfg.c **** 	uint8 regValue = CY_GET_XTND_REG8((void CYFAR *)CYREG_PUMP_CR0);
 450              		.loc 1 342 0
 451 0000 054B     		ldr	r3, .L28
 452 0002 1B78     		ldrb	r3, [r3]	@ zero_extendqisi2
 453 0004 DBB2     		uxtb	r3, r3
 454              	.LVL33:
 343:Generated_Source\PSoC5/cyfitter_cfg.c **** 	if (enabled != 0u)
 455              		.loc 1 343 0
 456 0006 10B1     		cbz	r0, .L26
 344:Generated_Source\PSoC5/cyfitter_cfg.c **** 	{
 345:Generated_Source\PSoC5/cyfitter_cfg.c **** 		regValue |= 0x22u;
 457              		.loc 1 345 0
 458 0008 43F02203 		orr	r3, r3, #34
 459              	.LVL34:
 460 000c 01E0     		b	.L27
 461              	.L26:
 346:Generated_Source\PSoC5/cyfitter_cfg.c **** 	}
 347:Generated_Source\PSoC5/cyfitter_cfg.c **** 	else
 348:Generated_Source\PSoC5/cyfitter_cfg.c **** 	{
 349:Generated_Source\PSoC5/cyfitter_cfg.c **** 		regValue &= (uint8)~0x22u;
 462              		.loc 1 349 0
 463 000e 03F0DD03 		and	r3, r3, #221
 464              	.LVL35:
 465              	.L27:
 350:Generated_Source\PSoC5/cyfitter_cfg.c **** 	}
 351:Generated_Source\PSoC5/cyfitter_cfg.c **** 	CY_SET_XTND_REG8((void CYFAR *)CYREG_PUMP_CR0, regValue);
 466              		.loc 1 351 0
 467 0012 014A     		ldr	r2, .L28
ARM GAS  C:\Users\ipfajard\AppData\Local\Temp\ccV9e12l.s 			page 16


 468 0014 1370     		strb	r3, [r2]
 469 0016 7047     		bx	lr
 470              	.L29:
 471              		.align	2
 472              	.L28:
 473 0018 76580040 		.word	1073764470
 474              		.cfi_endproc
 475              	.LFE7:
 476              		.size	SetAnalogRoutingPumps, .-SetAnalogRoutingPumps
 477              		.section	.text.ADC_DelSig_1_AMux_Set,"ax",%progbits
 478              		.align	2
 479              		.global	ADC_DelSig_1_AMux_Set
 480              		.thumb
 481              		.thumb_func
 482              		.type	ADC_DelSig_1_AMux_Set, %function
 483              	ADC_DelSig_1_AMux_Set:
 484              	.LFB8:
 352:Generated_Source\PSoC5/cyfitter_cfg.c **** }
 353:Generated_Source\PSoC5/cyfitter_cfg.c **** 
 354:Generated_Source\PSoC5/cyfitter_cfg.c **** 
 355:Generated_Source\PSoC5/cyfitter_cfg.c **** #define CY_AMUX_UNUSED CYREG_BOOST_SR
 356:Generated_Source\PSoC5/cyfitter_cfg.c **** /* This is an implementation detail of the AMux. Code that depends on it may be
 357:Generated_Source\PSoC5/cyfitter_cfg.c ****    incompatible with other versions of PSoC Creator. */
 358:Generated_Source\PSoC5/cyfitter_cfg.c **** uint8 CYXDATA * const CYCODE ADC_DelSig_1_AMux__addrTable[2] = {
 359:Generated_Source\PSoC5/cyfitter_cfg.c **** 	(uint8 CYXDATA *)CYREG_DSM0_SW3, 
 360:Generated_Source\PSoC5/cyfitter_cfg.c **** 	(uint8 CYXDATA *)CY_AMUX_UNUSED, 
 361:Generated_Source\PSoC5/cyfitter_cfg.c **** };
 362:Generated_Source\PSoC5/cyfitter_cfg.c **** 
 363:Generated_Source\PSoC5/cyfitter_cfg.c **** /* This is an implementation detail of the AMux. Code that depends on it may be
 364:Generated_Source\PSoC5/cyfitter_cfg.c ****    incompatible with other versions of PSoC Creator. */
 365:Generated_Source\PSoC5/cyfitter_cfg.c **** const uint8 CYCODE ADC_DelSig_1_AMux__maskTable[2] = {
 366:Generated_Source\PSoC5/cyfitter_cfg.c **** 	0x40u, 
 367:Generated_Source\PSoC5/cyfitter_cfg.c **** 	0x00u, 
 368:Generated_Source\PSoC5/cyfitter_cfg.c **** };
 369:Generated_Source\PSoC5/cyfitter_cfg.c **** 
 370:Generated_Source\PSoC5/cyfitter_cfg.c **** /*******************************************************************************
 371:Generated_Source\PSoC5/cyfitter_cfg.c **** * Function Name: ADC_DelSig_1_AMux_Set
 372:Generated_Source\PSoC5/cyfitter_cfg.c **** ********************************************************************************
 373:Generated_Source\PSoC5/cyfitter_cfg.c **** * Summary:
 374:Generated_Source\PSoC5/cyfitter_cfg.c **** *  This function is used to set a particular channel as active on the AMux.
 375:Generated_Source\PSoC5/cyfitter_cfg.c **** *
 376:Generated_Source\PSoC5/cyfitter_cfg.c **** * Parameters:  
 377:Generated_Source\PSoC5/cyfitter_cfg.c **** *   channel - The mux channel input to set as active
 378:Generated_Source\PSoC5/cyfitter_cfg.c **** *
 379:Generated_Source\PSoC5/cyfitter_cfg.c **** * Return:
 380:Generated_Source\PSoC5/cyfitter_cfg.c **** *   void
 381:Generated_Source\PSoC5/cyfitter_cfg.c **** *
 382:Generated_Source\PSoC5/cyfitter_cfg.c **** *******************************************************************************/
 383:Generated_Source\PSoC5/cyfitter_cfg.c **** void ADC_DelSig_1_AMux_Set(uint8 channel)
 384:Generated_Source\PSoC5/cyfitter_cfg.c **** {
 485              		.loc 1 384 0
 486              		.cfi_startproc
 487              		@ args = 0, pretend = 0, frame = 0
 488              		@ frame_needed = 0, uses_anonymous_args = 0
 489              		@ link register save eliminated.
 490              	.LVL36:
 385:Generated_Source\PSoC5/cyfitter_cfg.c **** 	if (channel < 2)
ARM GAS  C:\Users\ipfajard\AppData\Local\Temp\ccV9e12l.s 			page 17


 491              		.loc 1 385 0
 492 0000 0128     		cmp	r0, #1
 493 0002 07D8     		bhi	.L30
 386:Generated_Source\PSoC5/cyfitter_cfg.c **** 	{
 387:Generated_Source\PSoC5/cyfitter_cfg.c **** 		*ADC_DelSig_1_AMux__addrTable[channel] |= ADC_DelSig_1_AMux__maskTable[channel];
 494              		.loc 1 387 0
 495 0004 044B     		ldr	r3, .L32
 496 0006 53F82020 		ldr	r2, [r3, r0, lsl #2]
 497 000a 1844     		add	r0, r0, r3
 498              	.LVL37:
 499 000c 017A     		ldrb	r1, [r0, #8]	@ zero_extendqisi2
 500 000e 1378     		ldrb	r3, [r2]	@ zero_extendqisi2
 501 0010 0B43     		orrs	r3, r3, r1
 502 0012 1370     		strb	r3, [r2]
 503              	.L30:
 504 0014 7047     		bx	lr
 505              	.L33:
 506 0016 00BF     		.align	2
 507              	.L32:
 508 0018 00000000 		.word	.LANCHOR0
 509              		.cfi_endproc
 510              	.LFE8:
 511              		.size	ADC_DelSig_1_AMux_Set, .-ADC_DelSig_1_AMux_Set
 512              		.section	.text.ADC_DelSig_1_AMux_Unset,"ax",%progbits
 513              		.align	2
 514              		.global	ADC_DelSig_1_AMux_Unset
 515              		.thumb
 516              		.thumb_func
 517              		.type	ADC_DelSig_1_AMux_Unset, %function
 518              	ADC_DelSig_1_AMux_Unset:
 519              	.LFB9:
 388:Generated_Source\PSoC5/cyfitter_cfg.c **** 	}
 389:Generated_Source\PSoC5/cyfitter_cfg.c **** }
 390:Generated_Source\PSoC5/cyfitter_cfg.c **** 
 391:Generated_Source\PSoC5/cyfitter_cfg.c **** /*******************************************************************************
 392:Generated_Source\PSoC5/cyfitter_cfg.c **** * Function Name: ADC_DelSig_1_AMux_Unset
 393:Generated_Source\PSoC5/cyfitter_cfg.c **** ********************************************************************************
 394:Generated_Source\PSoC5/cyfitter_cfg.c **** * Summary:
 395:Generated_Source\PSoC5/cyfitter_cfg.c **** *  This function is used to clear a particular channel from being active on the
 396:Generated_Source\PSoC5/cyfitter_cfg.c **** *  AMux.
 397:Generated_Source\PSoC5/cyfitter_cfg.c **** *
 398:Generated_Source\PSoC5/cyfitter_cfg.c **** * Parameters:  
 399:Generated_Source\PSoC5/cyfitter_cfg.c **** *   channel - The mux channel input to mark inactive
 400:Generated_Source\PSoC5/cyfitter_cfg.c **** *
 401:Generated_Source\PSoC5/cyfitter_cfg.c **** * Return:
 402:Generated_Source\PSoC5/cyfitter_cfg.c **** *   void
 403:Generated_Source\PSoC5/cyfitter_cfg.c **** *
 404:Generated_Source\PSoC5/cyfitter_cfg.c **** *******************************************************************************/
 405:Generated_Source\PSoC5/cyfitter_cfg.c **** void ADC_DelSig_1_AMux_Unset(uint8 channel)
 406:Generated_Source\PSoC5/cyfitter_cfg.c **** {
 520              		.loc 1 406 0
 521              		.cfi_startproc
 522              		@ args = 0, pretend = 0, frame = 0
 523              		@ frame_needed = 0, uses_anonymous_args = 0
 524              		@ link register save eliminated.
 525              	.LVL38:
 407:Generated_Source\PSoC5/cyfitter_cfg.c **** 	if (channel < 2)
ARM GAS  C:\Users\ipfajard\AppData\Local\Temp\ccV9e12l.s 			page 18


 526              		.loc 1 407 0
 527 0000 0128     		cmp	r0, #1
 528 0002 08D8     		bhi	.L34
 408:Generated_Source\PSoC5/cyfitter_cfg.c **** 	{
 409:Generated_Source\PSoC5/cyfitter_cfg.c **** 		*ADC_DelSig_1_AMux__addrTable[channel] &= (uint8)~ADC_DelSig_1_AMux__maskTable[channel];
 529              		.loc 1 409 0
 530 0004 044B     		ldr	r3, .L36
 531 0006 53F82020 		ldr	r2, [r3, r0, lsl #2]
 532 000a 1844     		add	r0, r0, r3
 533              	.LVL39:
 534 000c 017A     		ldrb	r1, [r0, #8]	@ zero_extendqisi2
 535 000e 1378     		ldrb	r3, [r2]	@ zero_extendqisi2
 536 0010 23EA0103 		bic	r3, r3, r1
 537 0014 1370     		strb	r3, [r2]
 538              	.L34:
 539 0016 7047     		bx	lr
 540              	.L37:
 541              		.align	2
 542              	.L36:
 543 0018 00000000 		.word	.LANCHOR0
 544              		.cfi_endproc
 545              	.LFE9:
 546              		.size	ADC_DelSig_1_AMux_Unset, .-ADC_DelSig_1_AMux_Unset
 547              		.section	.text.cyfitter_cfg,"ax",%progbits
 548              		.align	2
 549              		.global	cyfitter_cfg
 550              		.thumb
 551              		.thumb_func
 552              		.type	cyfitter_cfg, %function
 553              	cyfitter_cfg:
 554              	.LFB10:
 410:Generated_Source\PSoC5/cyfitter_cfg.c **** 	}
 411:Generated_Source\PSoC5/cyfitter_cfg.c **** }
 412:Generated_Source\PSoC5/cyfitter_cfg.c **** 
 413:Generated_Source\PSoC5/cyfitter_cfg.c **** 
 414:Generated_Source\PSoC5/cyfitter_cfg.c **** 
 415:Generated_Source\PSoC5/cyfitter_cfg.c **** /*******************************************************************************
 416:Generated_Source\PSoC5/cyfitter_cfg.c **** * Function Name: cyfitter_cfg
 417:Generated_Source\PSoC5/cyfitter_cfg.c **** ********************************************************************************
 418:Generated_Source\PSoC5/cyfitter_cfg.c **** * Summary:
 419:Generated_Source\PSoC5/cyfitter_cfg.c **** *  This function is called by the start-up code for the selected device. It
 420:Generated_Source\PSoC5/cyfitter_cfg.c **** *  performs all of the necessary device configuration based on the design
 421:Generated_Source\PSoC5/cyfitter_cfg.c **** *  settings.  This includes settings from the Design Wide Resources (DWR) such
 422:Generated_Source\PSoC5/cyfitter_cfg.c **** *  as Clocks and Pins as well as any component configuration that is necessary.
 423:Generated_Source\PSoC5/cyfitter_cfg.c **** *
 424:Generated_Source\PSoC5/cyfitter_cfg.c **** * Parameters:
 425:Generated_Source\PSoC5/cyfitter_cfg.c **** *   void
 426:Generated_Source\PSoC5/cyfitter_cfg.c **** *
 427:Generated_Source\PSoC5/cyfitter_cfg.c **** * Return:
 428:Generated_Source\PSoC5/cyfitter_cfg.c **** *   void
 429:Generated_Source\PSoC5/cyfitter_cfg.c **** *
 430:Generated_Source\PSoC5/cyfitter_cfg.c **** *******************************************************************************/
 431:Generated_Source\PSoC5/cyfitter_cfg.c **** 
 432:Generated_Source\PSoC5/cyfitter_cfg.c **** void cyfitter_cfg(void)
 433:Generated_Source\PSoC5/cyfitter_cfg.c **** {
 555              		.loc 1 433 0
 556              		.cfi_startproc
ARM GAS  C:\Users\ipfajard\AppData\Local\Temp\ccV9e12l.s 			page 19


 557              		@ args = 0, pretend = 0, frame = 0
 558              		@ frame_needed = 0, uses_anonymous_args = 0
 559 0000 10B5     		push	{r4, lr}
 560              		.cfi_def_cfa_offset 8
 561              		.cfi_offset 4, -8
 562              		.cfi_offset 14, -4
 434:Generated_Source\PSoC5/cyfitter_cfg.c **** #ifdef CYGlobalIntDisable
 435:Generated_Source\PSoC5/cyfitter_cfg.c **** 	/* Disable interrupts by default. Let user enable if/when they want. */
 436:Generated_Source\PSoC5/cyfitter_cfg.c **** 	CYGlobalIntDisable
 563              		.loc 1 436 0
 564              		.syntax unified
 565              	@ 436 "Generated_Source\PSoC5\cyfitter_cfg.c" 1
 566 0002 72B6     		CPSID   i
 567              	@ 0 "" 2
 437:Generated_Source\PSoC5/cyfitter_cfg.c **** #endif
 438:Generated_Source\PSoC5/cyfitter_cfg.c **** 
 439:Generated_Source\PSoC5/cyfitter_cfg.c **** 
 440:Generated_Source\PSoC5/cyfitter_cfg.c **** 	/* Set Flash Cycles based on max possible frequency in case a glitch occurs during ClockSetup(). *
 441:Generated_Source\PSoC5/cyfitter_cfg.c **** 	CY_SET_XTND_REG8((void CYFAR *)(CYREG_CACHE_CC_CTL), (((CYDEV_INSTRUCT_CACHE_ENABLED) != 0) ? 0x61
 568              		.loc 1 441 0
 569              		.thumb
 570              		.syntax unified
 571 0004 294C     		ldr	r4, .L42
 572 0006 6123     		movs	r3, #97
 573 0008 2370     		strb	r3, [r4]
 442:Generated_Source\PSoC5/cyfitter_cfg.c **** 	/* Setup clocks based on selections from Clock DWR */
 443:Generated_Source\PSoC5/cyfitter_cfg.c **** 	ClockSetup();
 574              		.loc 1 443 0
 575 000a FFF7FEFF 		bl	ClockSetup
 576              	.LVL40:
 444:Generated_Source\PSoC5/cyfitter_cfg.c **** 	/* Set Flash Cycles based on newly configured 24.00MHz Bus Clock. */
 445:Generated_Source\PSoC5/cyfitter_cfg.c **** 	CY_SET_XTND_REG8((void CYFAR *)(CYREG_CACHE_CC_CTL), (((CYDEV_INSTRUCT_CACHE_ENABLED) != 0) ? 0x81
 577              		.loc 1 445 0
 578 000e 8123     		movs	r3, #129
 579 0010 2370     		strb	r3, [r4]
 446:Generated_Source\PSoC5/cyfitter_cfg.c **** 	/* Enable/Disable Debug functionality based on settings from System DWR */
 447:Generated_Source\PSoC5/cyfitter_cfg.c **** 	CY_SET_XTND_REG8((void CYFAR *)CYREG_MLOGIC_DEBUG, (CY_GET_XTND_REG8((void CYFAR *)CYREG_MLOGIC_DE
 580              		.loc 1 447 0
 581 0012 274A     		ldr	r2, .L42+4
 582 0014 1378     		ldrb	r3, [r2]	@ zero_extendqisi2
 583 0016 43F00403 		orr	r3, r3, #4
 584 001a 1370     		strb	r3, [r2]
 585              	.LVL41:
 586              	.LBB3:
 448:Generated_Source\PSoC5/cyfitter_cfg.c **** 
 449:Generated_Source\PSoC5/cyfitter_cfg.c **** 	{
 450:Generated_Source\PSoC5/cyfitter_cfg.c **** 
 451:Generated_Source\PSoC5/cyfitter_cfg.c **** 		CYPACKED typedef struct {
 452:Generated_Source\PSoC5/cyfitter_cfg.c **** 			void CYFAR *address;
 453:Generated_Source\PSoC5/cyfitter_cfg.c **** 			uint16 size;
 454:Generated_Source\PSoC5/cyfitter_cfg.c **** 		} CYPACKED_ATTR cfg_memset_t;
 455:Generated_Source\PSoC5/cyfitter_cfg.c **** 
 456:Generated_Source\PSoC5/cyfitter_cfg.c **** 		static const cfg_memset_t CYCODE cfg_memset_list[] = {
 457:Generated_Source\PSoC5/cyfitter_cfg.c **** 			/* address, size */
 458:Generated_Source\PSoC5/cyfitter_cfg.c **** 			{(void CYFAR *)(CYREG_PRT2_DR), 80u},
 459:Generated_Source\PSoC5/cyfitter_cfg.c **** 			{(void CYFAR *)(CYREG_PRT12_DR), 16u},
 460:Generated_Source\PSoC5/cyfitter_cfg.c **** 			{(void CYFAR *)(CYREG_PRT15_DR), 16u},
ARM GAS  C:\Users\ipfajard\AppData\Local\Temp\ccV9e12l.s 			page 20


 461:Generated_Source\PSoC5/cyfitter_cfg.c **** 			{(void CYFAR *)(CYDEV_UCFG_B0_P0_U0_BASE), 4096u},
 462:Generated_Source\PSoC5/cyfitter_cfg.c **** 			{(void CYFAR *)(CYDEV_UCFG_B1_P2_U0_BASE), 2048u},
 463:Generated_Source\PSoC5/cyfitter_cfg.c **** 			{(void CYFAR *)(CYDEV_UCFG_DSI0_BASE), 2560u},
 464:Generated_Source\PSoC5/cyfitter_cfg.c **** 			{(void CYFAR *)(CYDEV_UCFG_DSI12_BASE), 512u},
 465:Generated_Source\PSoC5/cyfitter_cfg.c **** 			{(void CYFAR *)(CYREG_BCTL0_MDCLK_EN), 32u},
 466:Generated_Source\PSoC5/cyfitter_cfg.c **** 		};
 467:Generated_Source\PSoC5/cyfitter_cfg.c **** 
 468:Generated_Source\PSoC5/cyfitter_cfg.c **** 		uint8 CYDATA i;
 469:Generated_Source\PSoC5/cyfitter_cfg.c **** 
 470:Generated_Source\PSoC5/cyfitter_cfg.c **** 		/* Zero out critical memory blocks before beginning configuration */
 471:Generated_Source\PSoC5/cyfitter_cfg.c **** 		for (i = 0u; i < (sizeof(cfg_memset_list)/sizeof(cfg_memset_list[0])); i++)
 587              		.loc 1 471 0
 588 001c 0024     		movs	r4, #0
 589 001e 0BE0     		b	.L39
 590              	.LVL42:
 591              	.L40:
 592              	.LBB4:
 472:Generated_Source\PSoC5/cyfitter_cfg.c **** 		{
 473:Generated_Source\PSoC5/cyfitter_cfg.c **** 			const cfg_memset_t CYCODE * CYDATA ms = &cfg_memset_list[i];
 474:Generated_Source\PSoC5/cyfitter_cfg.c **** 			CYMEMZERO(ms->address, (size_t)(uint32)(ms->size));
 593              		.loc 1 474 0 discriminator 3
 594 0020 2448     		ldr	r0, .L42+8
 595 0022 6300     		lsls	r3, r4, #1
 596 0024 1A19     		adds	r2, r3, r4
 597 0026 5100     		lsls	r1, r2, #1
 598 0028 0144     		add	r1, r1, r0
 599 002a 0A46     		mov	r2, r1
 600 002c 098A     		ldrh	r1, [r1, #16]
 601 002e D068     		ldr	r0, [r2, #12]	@ unaligned
 602 0030 FFF7FEFF 		bl	CYMEMZERO
 603              	.LVL43:
 604              	.LBE4:
 471:Generated_Source\PSoC5/cyfitter_cfg.c **** 		{
 605              		.loc 1 471 0 discriminator 3
 606 0034 0134     		adds	r4, r4, #1
 607              	.LVL44:
 608 0036 E4B2     		uxtb	r4, r4
 609              	.LVL45:
 610              	.L39:
 471:Generated_Source\PSoC5/cyfitter_cfg.c **** 		{
 611              		.loc 1 471 0 is_stmt 0 discriminator 1
 612 0038 072C     		cmp	r4, #7
 613 003a F1D9     		bls	.L40
 475:Generated_Source\PSoC5/cyfitter_cfg.c **** 		}
 476:Generated_Source\PSoC5/cyfitter_cfg.c **** 
 477:Generated_Source\PSoC5/cyfitter_cfg.c **** 		cfg_write_bytes32(cy_cfg_addr_table, cy_cfg_data_table);
 614              		.loc 1 477 0 is_stmt 1
 615 003c 1E49     		ldr	r1, .L42+12
 616 003e 4FF09040 		mov	r0, #1207959552
 617 0042 FFF7FEFF 		bl	cfg_write_bytes32
 618              	.LVL46:
 478:Generated_Source\PSoC5/cyfitter_cfg.c **** 
 479:Generated_Source\PSoC5/cyfitter_cfg.c **** 		/* Perform normal device configuration. Order is not critical for these items. */
 480:Generated_Source\PSoC5/cyfitter_cfg.c **** 		CY_SET_XTND_REG8((void CYFAR *)(CYREG_DSM0_CR3), 0x0Au);
 619              		.loc 1 480 0
 620 0046 0A22     		movs	r2, #10
 621 0048 1C4B     		ldr	r3, .L42+16
ARM GAS  C:\Users\ipfajard\AppData\Local\Temp\ccV9e12l.s 			page 21


 622 004a 1A70     		strb	r2, [r3]
 481:Generated_Source\PSoC5/cyfitter_cfg.c **** 
 482:Generated_Source\PSoC5/cyfitter_cfg.c **** 		/* Enable digital routing */
 483:Generated_Source\PSoC5/cyfitter_cfg.c **** 		CY_SET_XTND_REG8((void CYFAR *)CYREG_BCTL0_BANK_CTL, CY_GET_XTND_REG8((void CYFAR *)CYREG_BCTL0_B
 623              		.loc 1 483 0
 624 004c 1C4A     		ldr	r2, .L42+20
 625 004e 1378     		ldrb	r3, [r2]	@ zero_extendqisi2
 626 0050 43F00203 		orr	r3, r3, #2
 627 0054 1370     		strb	r3, [r2]
 484:Generated_Source\PSoC5/cyfitter_cfg.c **** 		CY_SET_XTND_REG8((void CYFAR *)CYREG_BCTL1_BANK_CTL, CY_GET_XTND_REG8((void CYFAR *)CYREG_BCTL1_B
 628              		.loc 1 484 0
 629 0056 1032     		adds	r2, r2, #16
 630 0058 1378     		ldrb	r3, [r2]	@ zero_extendqisi2
 631 005a 43F00203 		orr	r3, r3, #2
 632 005e 1370     		strb	r3, [r2]
 485:Generated_Source\PSoC5/cyfitter_cfg.c **** 
 486:Generated_Source\PSoC5/cyfitter_cfg.c **** 		/* Enable UDB array */
 487:Generated_Source\PSoC5/cyfitter_cfg.c **** 		CY_SET_XTND_REG8((void CYFAR *)CYREG_PM_ACT_CFG0, CY_GET_XTND_REG8((void CYFAR *)CYREG_PM_ACT_CFG
 633              		.loc 1 487 0
 634 0060 184C     		ldr	r4, .L42+24
 635              	.LVL47:
 636 0062 2378     		ldrb	r3, [r4]	@ zero_extendqisi2
 637 0064 43F04003 		orr	r3, r3, #64
 638 0068 2370     		strb	r3, [r4]
 488:Generated_Source\PSoC5/cyfitter_cfg.c **** 		CY_SET_XTND_REG8((void CYFAR *)CYREG_PM_AVAIL_CR2, CY_GET_XTND_REG8((void CYFAR *)CYREG_PM_AVAIL_
 639              		.loc 1 488 0
 640 006a A2F58632 		sub	r2, r2, #68608
 641 006e 513A     		subs	r2, r2, #81
 642 0070 1378     		ldrb	r3, [r2]	@ zero_extendqisi2
 643 0072 43F01003 		orr	r3, r3, #16
 644 0076 1370     		strb	r3, [r2]
 645              	.LBE3:
 489:Generated_Source\PSoC5/cyfitter_cfg.c **** 	}
 490:Generated_Source\PSoC5/cyfitter_cfg.c **** 
 491:Generated_Source\PSoC5/cyfitter_cfg.c **** 
 492:Generated_Source\PSoC5/cyfitter_cfg.c **** 	/* Perform second pass device configuration. These items must be configured in specific order afte
 493:Generated_Source\PSoC5/cyfitter_cfg.c **** 	CYCONFIGCPY((void CYFAR *)(CYREG_PRT0_DM0), (const void CYFAR *)(BS_IOPINS0_0_VAL), 8u);
 646              		.loc 1 493 0
 647 0078 0822     		movs	r2, #8
 648 007a 1349     		ldr	r1, .L42+28
 649 007c 1348     		ldr	r0, .L42+32
 650 007e FFF7FEFF 		bl	CYCONFIGCPY
 651              	.LVL48:
 494:Generated_Source\PSoC5/cyfitter_cfg.c **** 	CYCONFIGCPY((void CYFAR *)(CYREG_PRT1_DM0), (const void CYFAR *)(BS_IOPINS0_1_VAL), 8u);
 652              		.loc 1 494 0
 653 0082 0822     		movs	r2, #8
 654 0084 1249     		ldr	r1, .L42+36
 655 0086 1348     		ldr	r0, .L42+40
 656 0088 FFF7FEFF 		bl	CYCONFIGCPY
 657              	.LVL49:
 495:Generated_Source\PSoC5/cyfitter_cfg.c **** 	/* Switch Boost to the precision bandgap reference from its internal reference */
 496:Generated_Source\PSoC5/cyfitter_cfg.c **** 	CY_SET_REG8((void CYXDATA *)CYREG_BOOST_CR2, (CY_GET_REG8((void CYXDATA *)CYREG_BOOST_CR2) | 0x08u
 658              		.loc 1 496 0
 659 008c 124A     		ldr	r2, .L42+44
 660 008e 1378     		ldrb	r3, [r2]	@ zero_extendqisi2
 661 0090 43F00803 		orr	r3, r3, #8
 662 0094 1370     		strb	r3, [r2]
ARM GAS  C:\Users\ipfajard\AppData\Local\Temp\ccV9e12l.s 			page 22


 497:Generated_Source\PSoC5/cyfitter_cfg.c **** 	CY_SET_XTND_REG8((void CYFAR *)(CYREG_PANTHER_WAITPIPE), 0x01u);
 663              		.loc 1 497 0
 664 0096 0122     		movs	r2, #1
 665 0098 104B     		ldr	r3, .L42+48
 666 009a 1A70     		strb	r2, [r3]
 498:Generated_Source\PSoC5/cyfitter_cfg.c **** 
 499:Generated_Source\PSoC5/cyfitter_cfg.c **** 	/* Perform basic analog initialization to defaults */
 500:Generated_Source\PSoC5/cyfitter_cfg.c **** 	AnalogSetDefault();
 667              		.loc 1 500 0
 668 009c FFF7FEFF 		bl	AnalogSetDefault
 669              	.LVL50:
 501:Generated_Source\PSoC5/cyfitter_cfg.c **** 
 502:Generated_Source\PSoC5/cyfitter_cfg.c **** 	/* Configure alternate active mode */
 503:Generated_Source\PSoC5/cyfitter_cfg.c **** 	CYCONFIGCPY((void CYFAR *)CYDEV_PM_STBY_BASE, (const void CYFAR *)CYDEV_PM_ACT_BASE, 14u);
 670              		.loc 1 503 0
 671 00a0 0E22     		movs	r2, #14
 672 00a2 2146     		mov	r1, r4
 673 00a4 0E48     		ldr	r0, .L42+52
 674 00a6 FFF7FEFF 		bl	CYCONFIGCPY
 675              	.LVL51:
 676 00aa 10BD     		pop	{r4, pc}
 677              	.L43:
 678              		.align	2
 679              	.L42:
 680 00ac 00480040 		.word	1073760256
 681 00b0 E8460040 		.word	1073759976
 682 00b4 00000000 		.word	.LANCHOR0
 683 00b8 50000048 		.word	1207959632
 684 00bc 83580040 		.word	1073764483
 685 00c0 03500140 		.word	1073827843
 686 00c4 A0430040 		.word	1073759136
 687 00c8 B4000048 		.word	1207959732
 688 00cc 02510040 		.word	1073762562
 689 00d0 BC000048 		.word	1207959740
 690 00d4 12510040 		.word	1073762578
 691 00d8 22430040 		.word	1073759010
 692 00dc 04000840 		.word	1074266116
 693 00e0 B0430040 		.word	1073759152
 694              		.cfi_endproc
 695              	.LFE10:
 696              		.size	cyfitter_cfg, .-cyfitter_cfg
 697              		.global	ADC_DelSig_1_AMux__maskTable
 698              		.global	ADC_DelSig_1_AMux__addrTable
 699              		.section	.rodata
 700              		.align	2
 701              		.set	.LANCHOR0,. + 0
 702              		.type	ADC_DelSig_1_AMux__addrTable, %object
 703              		.size	ADC_DelSig_1_AMux__addrTable, 8
 704              	ADC_DelSig_1_AMux__addrTable:
 705 0000 035B0040 		.word	1073765123
 706 0004 24430040 		.word	1073759012
 707              		.type	ADC_DelSig_1_AMux__maskTable, %object
 708              		.size	ADC_DelSig_1_AMux__maskTable, 2
 709              	ADC_DelSig_1_AMux__maskTable:
 710 0008 40       		.byte	64
 711 0009 00       		.byte	0
 712 000a 0000     		.space	2
ARM GAS  C:\Users\ipfajard\AppData\Local\Temp\ccV9e12l.s 			page 23


 713              		.type	cfg_memset_list.5019, %object
 714              		.size	cfg_memset_list.5019, 48
 715              	cfg_memset_list.5019:
 716 000c 20510040 		.word	1073762592
 717 0010 5000     		.short	80
 718 0012 C0510040 		.4byte	1073762752
 719 0016 1000     		.short	16
 720 0018 F0510040 		.word	1073762800
 721 001c 1000     		.short	16
 722 001e 00000140 		.4byte	1073807360
 723 0022 0010     		.short	4096
 724 0024 00140140 		.word	1073812480
 725 0028 0008     		.short	2048
 726 002a 00400140 		.4byte	1073823744
 727 002e 000A     		.short	2560
 728 0030 004C0140 		.word	1073826816
 729 0034 0002     		.short	512
 730 0036 00500140 		.4byte	1073827840
 731 003a 2000     		.short	32
 732              		.text
 733              	.Letext0:
 734              		.file 2 "c:\\program files (x86)\\cypress\\psoc creator\\4.1\\psoc creator\\import\\gnu\\arm\\5.4.
 735              		.file 3 "Generated_Source\\PSoC5\\cytypes.h"
 736              		.file 4 "Generated_Source\\PSoC5\\CyLib.h"