ARM GAS  C:\Users\sdysart\AppData\Local\Temp\cc6jwMsr.s 			page 1


   1              		.syntax unified
   2              		.cpu cortex-m3
   3              		.fpu softvfp
   4              		.eabi_attribute 20, 1
   5              		.eabi_attribute 21, 1
   6              		.eabi_attribute 23, 3
   7              		.eabi_attribute 24, 1
   8              		.eabi_attribute 25, 1
   9              		.eabi_attribute 26, 1
  10              		.eabi_attribute 30, 1
  11              		.eabi_attribute 34, 1
  12              		.eabi_attribute 18, 4
  13              		.thumb
  14              		.syntax unified
  15              		.file	"main.c"
  16              		.text
  17              	.Ltext0:
  18              		.cfi_sections	.debug_frame
  19              		.section	.text.RxIsr,"ax",%progbits
  20              		.align	2
  21              		.global	RxIsr
  22              		.thumb
  23              		.thumb_func
  24              		.type	RxIsr, %function
  25              	RxIsr:
  26              	.LFB65:
  27              		.file 1 "main.c"
   1:main.c        **** /* ========================================
   2:main.c        ****  *
   3:main.c        ****  * UACS - Smart Crab Trap
   4:main.c        ****  * Created by : Stephanie Salazar
   5:main.c        ****  * Created : 5/31/18
   6:main.c        ****  *
   7:main.c        ****  * Description : This project uses a UART
   8:main.c        ****  * to receive data from the Rx FSK Module.
   9:main.c        ****  * It is output to an LCD screen.
  10:main.c        ****  *
  11:main.c        ****  * ========================================
  12:main.c        **** */
  13:main.c        **** #include "project.h"
  14:main.c        **** #include <stdio.h>
  15:main.c        **** #include "stdlib.h"
  16:main.c        **** 
  17:main.c        **** CY_ISR_PROTO(RxIsr); // RX Interrupt
  18:main.c        **** 
  19:main.c        **** /* Character LCD String Length */
  20:main.c        **** #define LINE_STR_LENGTH     (20u)  
  21:main.c        **** 
  22:main.c        **** char8 data[LINE_STR_LENGTH];
  23:main.c        **** uint8 crabsReceived = 0;
  24:main.c        **** uint8 errorStatus = 0;
  25:main.c        **** 
  26:main.c        **** int main(void)
  27:main.c        **** {
  28:main.c        ****     CyGlobalIntEnable; /* Enable global interrupts. */
  29:main.c        ****     UART_Start();
  30:main.c        ****     LCD_Start();
ARM GAS  C:\Users\sdysart\AppData\Local\Temp\cc6jwMsr.s 			page 2


  31:main.c        ****     isr_rx_StartEx(RxIsr);
  32:main.c        **** 
  33:main.c        ****     for(;;)
  34:main.c        ****     {
  35:main.c        ****     }
  36:main.c        **** }
  37:main.c        **** /*******************************************************************************
  38:main.c        **** * Function Name: RxIsr
  39:main.c        **** ********************************************************************************
  40:main.c        **** *
  41:main.c        **** * Summary:
  42:main.c        **** *  Interrupt Service Routine for RX portion of the UART taken from
  43:main.c        **** *  example code and edited for storing data to send
  44:main.c        **** *
  45:main.c        **** * Parameters:
  46:main.c        **** *  None.
  47:main.c        **** *
  48:main.c        **** * Return:
  49:main.c        **** *  None.
  50:main.c        **** *
  51:main.c        **** *******************************************************************************/
  52:main.c        **** CY_ISR(RxIsr)
  53:main.c        **** {
  28              		.loc 1 53 0
  29              		.cfi_startproc
  30              		@ args = 0, pretend = 0, frame = 0
  31              		@ frame_needed = 0, uses_anonymous_args = 0
  32 0000 38B5     		push	{r3, r4, r5, lr}
  33              		.cfi_def_cfa_offset 16
  34              		.cfi_offset 3, -16
  35              		.cfi_offset 4, -12
  36              		.cfi_offset 5, -8
  37              		.cfi_offset 14, -4
  38              	.L5:
  54:main.c        ****     
  55:main.c        ****     //sleepToggle_Write(ON);
  56:main.c        ****     uint8 rxStatus;   
  57:main.c        ****     do
  58:main.c        ****     {
  59:main.c        ****         /* Read receiver status register */
  60:main.c        ****         rxStatus = UART_RXSTATUS_REG;
  39              		.loc 1 60 0
  40 0002 204B     		ldr	r3, .L7
  41 0004 1B78     		ldrb	r3, [r3]	@ zero_extendqisi2
  42 0006 DBB2     		uxtb	r3, r3
  43              	.LVL0:
  61:main.c        **** 
  62:main.c        ****         if((rxStatus & (UART_RX_STS_BREAK      | UART_RX_STS_PAR_ERROR |
  44              		.loc 1 62 0
  45 0008 13F01E0F 		tst	r3, #30
  46 000c 05D0     		beq	.L2
  63:main.c        ****                         UART_RX_STS_STOP_ERROR | UART_RX_STS_OVERRUN)) != 0u)
  64:main.c        ****         {
  65:main.c        ****             /* ERROR handling. */
  66:main.c        ****             errorStatus |= rxStatus & ( UART_RX_STS_BREAK      | UART_RX_STS_PAR_ERROR | 
  47              		.loc 1 66 0
  48 000e 1E48     		ldr	r0, .L7+4
ARM GAS  C:\Users\sdysart\AppData\Local\Temp\cc6jwMsr.s 			page 3


  49 0010 03F01E02 		and	r2, r3, #30
  50 0014 0178     		ldrb	r1, [r0]	@ zero_extendqisi2
  51 0016 0A43     		orrs	r2, r2, r1
  52 0018 0270     		strb	r2, [r0]
  53              	.L2:
  54 001a 03F02003 		and	r3, r3, #32
  55              	.LVL1:
  67:main.c        ****                                         UART_RX_STS_STOP_ERROR | UART_RX_STS_OVERRUN);
  68:main.c        ****         }
  69:main.c        ****         
  70:main.c        ****         if((rxStatus & UART_RX_STS_FIFO_NOTEMPTY) != 0u)
  56              		.loc 1 70 0
  57 001e 03F0FF04 		and	r4, r3, #255
  58 0022 53B3     		cbz	r3, .L3
  71:main.c        ****         {
  72:main.c        ****             /* Read data from the RX data register */
  73:main.c        ****             //crabsToSend = UART_RXDATA_REG;
  74:main.c        ****             crabsReceived =  UART_GetByte()  ;
  59              		.loc 1 74 0
  60 0024 FFF7FEFF 		bl	UART_GetByte
  61              	.LVL2:
  62 0028 C0B2     		uxtb	r0, r0
  63 002a 174B     		ldr	r3, .L7+4
  64 002c 5870     		strb	r0, [r3, #1]
  75:main.c        ****             if(errorStatus == 0u)
  65              		.loc 1 75 0
  66 002e 1B78     		ldrb	r3, [r3]	@ zero_extendqisi2
  67 0030 BBB9     		cbnz	r3, .L4
  76:main.c        ****             {
  77:main.c        ****                 /* Send data backward */
  78:main.c        ****                 UART_TXDATA_REG = crabsReceived;
  68              		.loc 1 78 0
  69 0032 164B     		ldr	r3, .L7+8
  70 0034 1870     		strb	r0, [r3]
  79:main.c        ****                 /* Clear LCD line. */
  80:main.c        ****                 LCD_Position(0u, 0u);
  71              		.loc 1 80 0
  72 0036 0021     		movs	r1, #0
  73 0038 0846     		mov	r0, r1
  74 003a FFF7FEFF 		bl	LCD_Position
  75              	.LVL3:
  81:main.c        ****                 sprintf(data,"Crabs: %d", crabsReceived);
  76              		.loc 1 81 0
  77 003e 144D     		ldr	r5, .L7+12
  78 0040 114B     		ldr	r3, .L7+4
  79 0042 5A78     		ldrb	r2, [r3, #1]	@ zero_extendqisi2
  80 0044 1349     		ldr	r1, .L7+16
  81 0046 2846     		mov	r0, r5
  82 0048 FFF7FEFF 		bl	sprintf
  83              	.LVL4:
  82:main.c        ****                 LCD_PrintString("             ");
  84              		.loc 1 82 0
  85 004c 1248     		ldr	r0, .L7+20
  86 004e FFF7FEFF 		bl	LCD_PrintString
  87              	.LVL5:
  83:main.c        ****                 /* Output string on LCD. */
  84:main.c        ****                 LCD_Position(0u, 0u);
ARM GAS  C:\Users\sdysart\AppData\Local\Temp\cc6jwMsr.s 			page 4


  88              		.loc 1 84 0
  89 0052 0021     		movs	r1, #0
  90 0054 0846     		mov	r0, r1
  91 0056 FFF7FEFF 		bl	LCD_Position
  92              	.LVL6:
  85:main.c        ****                 LCD_PrintString(data);
  93              		.loc 1 85 0
  94 005a 2846     		mov	r0, r5
  95 005c FFF7FEFF 		bl	LCD_PrintString
  96              	.LVL7:
  97 0060 0BE0     		b	.L3
  98              	.L4:
  86:main.c        **** 
  87:main.c        ****             }else{
  88:main.c        ****                 isr_rx_SetPending();
  99              		.loc 1 88 0
 100 0062 FFF7FEFF 		bl	isr_rx_SetPending
 101              	.LVL8:
  89:main.c        ****                 sprintf(data,"%d", errorStatus);
 102              		.loc 1 89 0
 103 0066 0A4D     		ldr	r5, .L7+12
 104 0068 074B     		ldr	r3, .L7+4
 105 006a 1A78     		ldrb	r2, [r3]	@ zero_extendqisi2
 106 006c 0B49     		ldr	r1, .L7+24
 107 006e 2846     		mov	r0, r5
 108 0070 FFF7FEFF 		bl	sprintf
 109              	.LVL9:
  90:main.c        ****                 LCD_PrintString(data);
 110              		.loc 1 90 0
 111 0074 2846     		mov	r0, r5
 112 0076 FFF7FEFF 		bl	LCD_PrintString
 113              	.LVL10:
 114              	.L3:
  91:main.c        ****             }
  92:main.c        **** 
  93:main.c        ****         }
  94:main.c        ****     // Read FIFO until empty
  95:main.c        ****     }while((rxStatus & UART_RX_STS_FIFO_NOTEMPTY) != 0u);
 115              		.loc 1 95 0
 116 007a 002C     		cmp	r4, #0
 117 007c C1D1     		bne	.L5
  96:main.c        ****     
  97:main.c        ****     isr_rx_ClearPending();
 118              		.loc 1 97 0
 119 007e FFF7FEFF 		bl	isr_rx_ClearPending
 120              	.LVL11:
 121 0082 38BD     		pop	{r3, r4, r5, pc}
 122              	.L8:
 123              		.align	2
 124              	.L7:
 125 0084 68650040 		.word	1073767784
 126 0088 00000000 		.word	.LANCHOR0
 127 008c 48640040 		.word	1073767496
 128 0090 00000000 		.word	data
 129 0094 00000000 		.word	.LC0
 130 0098 0C000000 		.word	.LC1
 131 009c 1C000000 		.word	.LC2
ARM GAS  C:\Users\sdysart\AppData\Local\Temp\cc6jwMsr.s 			page 5


 132              		.cfi_endproc
 133              	.LFE65:
 134              		.size	RxIsr, .-RxIsr
 135              		.section	.text.main,"ax",%progbits
 136              		.align	2
 137              		.global	main
 138              		.thumb
 139              		.thumb_func
 140              		.type	main, %function
 141              	main:
 142              	.LFB64:
  27:main.c        ****     CyGlobalIntEnable; /* Enable global interrupts. */
 143              		.loc 1 27 0
 144              		.cfi_startproc
 145              		@ Volatile: function does not return.
 146              		@ args = 0, pretend = 0, frame = 0
 147              		@ frame_needed = 0, uses_anonymous_args = 0
 148 0000 08B5     		push	{r3, lr}
 149              		.cfi_def_cfa_offset 8
 150              		.cfi_offset 3, -8
 151              		.cfi_offset 14, -4
  28:main.c        ****     UART_Start();
 152              		.loc 1 28 0
 153              		.syntax unified
 154              	@ 28 "main.c" 1
 155 0002 62B6     		CPSIE   i
 156              	@ 0 "" 2
  29:main.c        ****     LCD_Start();
 157              		.loc 1 29 0
 158              		.thumb
 159              		.syntax unified
 160 0004 FFF7FEFF 		bl	UART_Start
 161              	.LVL12:
  30:main.c        ****     isr_rx_StartEx(RxIsr);
 162              		.loc 1 30 0
 163 0008 FFF7FEFF 		bl	LCD_Start
 164              	.LVL13:
  31:main.c        **** 
 165              		.loc 1 31 0
 166 000c 0148     		ldr	r0, .L12
 167 000e FFF7FEFF 		bl	isr_rx_StartEx
 168              	.LVL14:
 169              	.L10:
 170 0012 FEE7     		b	.L10
 171              	.L13:
 172              		.align	2
 173              	.L12:
 174 0014 00000000 		.word	RxIsr
 175              		.cfi_endproc
 176              	.LFE64:
 177              		.size	main, .-main
 178              		.global	errorStatus
 179              		.global	crabsReceived
 180              		.comm	data,20,4
 181              		.section	.rodata.str1.4,"aMS",%progbits,1
 182              		.align	2
 183              	.LC0:
ARM GAS  C:\Users\sdysart\AppData\Local\Temp\cc6jwMsr.s 			page 6


 184 0000 43726162 		.ascii	"Crabs: %d\000"
 184      733A2025 
 184      6400
 185 000a 0000     		.space	2
 186              	.LC1:
 187 000c 20202020 		.ascii	"             \000"
 187      20202020 
 187      20202020 
 187      2000
 188 001a 0000     		.space	2
 189              	.LC2:
 190 001c 256400   		.ascii	"%d\000"
 191              		.bss
 192              		.set	.LANCHOR0,. + 0
 193              		.type	errorStatus, %object
 194              		.size	errorStatus, 1
 195              	errorStatus:
 196 0000 00       		.space	1
 197              		.type	crabsReceived, %object
 198              		.size	crabsReceived, 1
 199              	crabsReceived:
 200 0001 00       		.space	1
 201              		.text
 202              	.Letext0:
 203              		.file 2 "c:\\program files (x86)\\cypress\\psoc creator\\4.1\\psoc creator\\import\\gnu\\arm\\5.4.
 204              		.file 3 "c:\\program files (x86)\\cypress\\psoc creator\\4.1\\psoc creator\\import\\gnu\\arm\\5.4.
 205              		.file 4 "Generated_Source\\PSoC5/cytypes.h"
 206              		.file 5 "Generated_Source\\PSoC5/core_cm3.h"
 207              		.file 6 "Generated_Source\\PSoC5/UART.h"
 208              		.file 7 "Generated_Source\\PSoC5/LCD.h"
 209              		.file 8 "c:\\program files (x86)\\cypress\\psoc creator\\4.1\\psoc creator\\import\\gnu\\arm\\5.4.
 210              		.file 9 "Generated_Source\\PSoC5/isr_rx.h"