ARM GAS  C:\Users\sdysart\AppData\Local\Temp\ccwm4OIn.s 			page 1


   1              		.syntax unified
   2              		.cpu cortex-m3
   3              		.fpu softvfp
   4              		.eabi_attribute 20, 1
   5              		.eabi_attribute 21, 1
   6              		.eabi_attribute 23, 3
   7              		.eabi_attribute 24, 1
   8              		.eabi_attribute 25, 1
   9              		.eabi_attribute 26, 1
  10              		.eabi_attribute 30, 1
  11              		.eabi_attribute 34, 1
  12              		.eabi_attribute 18, 4
  13              		.thumb
  14              		.syntax unified
  15              		.file	"main.c"
  16              		.text
  17              	.Ltext0:
  18              		.cfi_sections	.debug_frame
  19              		.section	.text.LowF_Zero_Int,"ax",%progbits
  20              		.align	2
  21              		.global	LowF_Zero_Int
  22              		.thumb
  23              		.thumb_func
  24              		.type	LowF_Zero_Int, %function
  25              	LowF_Zero_Int:
  26              	.LFB64:
  27              		.file 1 "main.c"
   1:main.c        **** /* ========================================
   2:main.c        ****  *
   3:main.c        ****  * Copyright YOUR COMPANY, THE YEAR
   4:main.c        ****  * All Rights Reserved
   5:main.c        ****  * UNPUBLISHED, LICENSED SOFTWARE.
   6:main.c        ****  *
   7:main.c        ****  * CONFIDENTIAL AND PROPRIETARY INFORMATION
   8:main.c        ****  * WHICH IS THE PROPERTY OF your company.
   9:main.c        ****  *
  10:main.c        ****  * ========================================
  11:main.c        **** */
  12:main.c        **** #include "project.h"
  13:main.c        **** //LowF Counts for 0.5s bit time
  14:main.c        **** //count = 0.5s / T
  15:main.c        **** #define L_OneHalf_Second 50
  16:main.c        **** #define L_ZeroHalf_Second 43
  17:main.c        **** 
  18:main.c        **** #define H_OneHalf_Second 55
  19:main.c        **** #define H_ZeroHalf_Second 45
  20:main.c        **** 
  21:main.c        **** #define LED_ON  0xFF
  22:main.c        **** #define LED_OFF 0 
  23:main.c        **** #define oneByte 4 
  24:main.c        **** #define twoByte 8
  25:main.c        **** #define ZERO 0
  26:main.c        **** #define ONE 0xFF
  27:main.c        **** 
  28:main.c        **** //Low F Interrupts
  29:main.c        **** CY_ISR_PROTO(LowF_Zero_Int);
  30:main.c        **** CY_ISR_PROTO(LowF_One_Int);
ARM GAS  C:\Users\sdysart\AppData\Local\Temp\ccwm4OIn.s 			page 2


  31:main.c        **** 
  32:main.c        **** CY_ISR_PROTO(HighF_Zero_Int);
  33:main.c        **** CY_ISR_PROTO(HighF_One_Int);
  34:main.c        **** 
  35:main.c        **** 
  36:main.c        **** //Static Variables
  37:main.c        **** static int L_oneCounter = 1;
  38:main.c        **** static int L_zeroCounter = 1;
  39:main.c        **** static int H_oneCounter = 1;
  40:main.c        **** static int H_zeroCounter = 1;
  41:main.c        **** static uint8 L_messageBit = 0;    //Controls flow of bit 'state machine' 
  42:main.c        **** static uint8 H_messageBit = 0;    //Controls flow of bit 'state machine' 
  43:main.c        **** static uint8 bitCase = ZERO;    //Controls which bit (0 or 1) is being transmitted 
  44:main.c        **** static uint8 testLEDStatus = LED_ON;
  45:main.c        **** 
  46:main.c        **** int main(void)
  47:main.c        **** {
  48:main.c        ****     CyGlobalIntEnable; /* Enable global interrupts. */
  49:main.c        **** 
  50:main.c        ****     /* Place your initialization/startup code here (e.g. MyInst_Start()) */
  51:main.c        ****     LowF_OnePWM_Start(); 
  52:main.c        ****     //LowF_ZeroPWM_Start();
  53:main.c        ****     LowF_ZeroPWM_Sleep();
  54:main.c        ****     
  55:main.c        ****     HighF_OnePWM_Start(); 
  56:main.c        ****     //HighF_ZeroPWM_Start();
  57:main.c        ****     HighF_ZeroPWM_Sleep();
  58:main.c        ****     
  59:main.c        ****     LEDTest_Write(testLEDStatus);
  60:main.c        ****     
  61:main.c        ****     //Low F Interrupts
  62:main.c        ****     LowF_OneInt_StartEx(LowF_Zero_Int);
  63:main.c        ****     LowF_ZeroInt_StartEx(LowF_One_Int);
  64:main.c        ****     
  65:main.c        ****     
  66:main.c        ****    //High F Interrupts
  67:main.c        ****     HighF_OneInt_StartEx(HighF_Zero_Int);
  68:main.c        ****     HighF_ZeroInt_StartEx(HighF_One_Int);
  69:main.c        **** 
  70:main.c        ****     
  71:main.c        ****     for(;;)
  72:main.c        ****     {
  73:main.c        ****         /* Place your application code here. */
  74:main.c        ****         
  75:main.c        ****         //When the counters are such that the bit has been held for 0.5s
  76:main.c        ****         //Move all counters such that next bit is being transmitted 
  77:main.c        ****         if((L_oneCounter % L_OneHalf_Second) == 0){
  78:main.c        ****             testLEDStatus = testLEDStatus ^ 0xFF; 
  79:main.c        ****             LEDTest_Write(testLEDStatus); 
  80:main.c        ****             L_messageBit++;
  81:main.c        ****             L_oneCounter = 1;
  82:main.c        ****             //can't reset to 0 due to mod operator, so reset to 1
  83:main.c        ****         }
  84:main.c        ****         
  85:main.c        ****         if((L_zeroCounter % L_ZeroHalf_Second) == 0){
  86:main.c        ****             testLEDStatus = testLEDStatus ^ 0xFF; 
  87:main.c        ****             LEDTest_Write(testLEDStatus); 
ARM GAS  C:\Users\sdysart\AppData\Local\Temp\ccwm4OIn.s 			page 3


  88:main.c        ****             L_messageBit++;
  89:main.c        ****             L_zeroCounter = 1;
  90:main.c        ****             //can't reset to 0 due to mod operator, so reset to 1
  91:main.c        ****         }
  92:main.c        ****         
  93:main.c        ****         if((H_oneCounter % H_OneHalf_Second) == 0){
  94:main.c        ****             testLEDStatus = testLEDStatus ^ 0xFF; 
  95:main.c        ****             LEDTest_Write(testLEDStatus); 
  96:main.c        ****             H_messageBit++;
  97:main.c        ****             H_oneCounter = 1;
  98:main.c        ****             //can't reset to 0 due to mod operator, so reset to 1
  99:main.c        ****         }
 100:main.c        ****         
 101:main.c        ****         if((H_zeroCounter % H_ZeroHalf_Second) == 0){
 102:main.c        ****             testLEDStatus = testLEDStatus ^ 0xFF; 
 103:main.c        ****             LEDTest_Write(testLEDStatus); 
 104:main.c        ****             H_messageBit++;
 105:main.c        ****             H_zeroCounter = 1;
 106:main.c        ****             //can't reset to 0 due to mod operator, so reset to 1
 107:main.c        ****         }
 108:main.c        ****         
 109:main.c        ****         switch(L_messageBit){
 110:main.c        ****         
 111:main.c        ****             case 0:
 112:main.c        ****                 bitCase = ONE;
 113:main.c        ****             
 114:main.c        ****             break; 
 115:main.c        ****             case 1:
 116:main.c        ****                 bitCase = ONE; 
 117:main.c        ****             break;
 118:main.c        ****             case 2:
 119:main.c        ****                 bitCase = ONE; 
 120:main.c        ****             break;
 121:main.c        ****             case 3:
 122:main.c        ****                 bitCase = ONE; 
 123:main.c        ****             break;
 124:main.c        ****             case 4:
 125:main.c        ****                 bitCase = ZERO; 
 126:main.c        ****                 LowF_OnePWM_Sleep();
 127:main.c        ****                 LowF_ZeroPWM_Start();
 128:main.c        ****                 
 129:main.c        ****             break; 
 130:main.c        ****             case 5:
 131:main.c        ****                 bitCase = ZERO; 
 132:main.c        ****               
 133:main.c        ****             break; 
 134:main.c        ****             case 6:
 135:main.c        ****                 bitCase = ONE; 
 136:main.c        ****                 LowF_ZeroPWM_Sleep();
 137:main.c        ****                 LowF_OnePWM_Start();
 138:main.c        ****             break; 
 139:main.c        ****             case 7:
 140:main.c        ****                 bitCase = ZERO; 
 141:main.c        ****                 LowF_OnePWM_Sleep();
 142:main.c        ****                 LowF_ZeroPWM_Start();
 143:main.c        ****             break; 
 144:main.c        ****             case 8:
ARM GAS  C:\Users\sdysart\AppData\Local\Temp\ccwm4OIn.s 			page 4


 145:main.c        ****                 bitCase = ONE; 
 146:main.c        ****                 LowF_ZeroPWM_Sleep();
 147:main.c        ****                 LowF_OnePWM_Start();
 148:main.c        ****             break;     
 149:main.c        ****             case 9:
 150:main.c        ****                 bitCase = ONE; 
 151:main.c        ****             break;
 152:main.c        ****             case 10:
 153:main.c        ****                 bitCase = ONE; 
 154:main.c        ****                 
 155:main.c        ****             break;
 156:main.c        ****             case 11:
 157:main.c        ****                 bitCase = ONE; 
 158:main.c        ****                 L_messageBit = 0;
 159:main.c        ****                 
 160:main.c        ****             break;    
 161:main.c        ****             
 162:main.c        ****         default:
 163:main.c        ****         break; 
 164:main.c        ****   
 165:main.c        ****         }
 166:main.c        ****         
 167:main.c        ****         
 168:main.c        ****         
 169:main.c        ****         switch(H_messageBit){
 170:main.c        ****         
 171:main.c        ****             case 0:
 172:main.c        ****                 bitCase = ONE;
 173:main.c        ****             
 174:main.c        ****             break; 
 175:main.c        ****             case 1:
 176:main.c        ****                 bitCase = ONE; 
 177:main.c        ****             break;
 178:main.c        ****             case 2:
 179:main.c        ****                 bitCase = ONE; 
 180:main.c        ****             break;
 181:main.c        ****             case 3:
 182:main.c        ****                 bitCase = ONE; 
 183:main.c        ****             break;
 184:main.c        ****             case 4:
 185:main.c        ****                 bitCase = ZERO; 
 186:main.c        ****                 HighF_OnePWM_Sleep();
 187:main.c        ****                 HighF_ZeroPWM_Start();
 188:main.c        ****                 
 189:main.c        ****             break; 
 190:main.c        ****             case 5:
 191:main.c        ****                 bitCase = ZERO; 
 192:main.c        ****               
 193:main.c        ****             break; 
 194:main.c        ****             case 6:
 195:main.c        ****                 bitCase = ONE; 
 196:main.c        ****                 HighF_ZeroPWM_Sleep();
 197:main.c        ****                 HighF_OnePWM_Start();
 198:main.c        ****             break; 
 199:main.c        ****             case 7:
 200:main.c        ****                 bitCase = ZERO; 
 201:main.c        ****                 HighF_OnePWM_Sleep();
ARM GAS  C:\Users\sdysart\AppData\Local\Temp\ccwm4OIn.s 			page 5


 202:main.c        ****                 HighF_ZeroPWM_Start();
 203:main.c        ****             break; 
 204:main.c        ****             case 8:
 205:main.c        ****                 bitCase = ONE; 
 206:main.c        ****                 HighF_ZeroPWM_Sleep();
 207:main.c        ****                 HighF_OnePWM_Start();
 208:main.c        ****             break;     
 209:main.c        ****             case 9:
 210:main.c        ****                 bitCase = ONE; 
 211:main.c        ****             break;
 212:main.c        ****             case 10:
 213:main.c        ****                 bitCase = ONE; 
 214:main.c        ****                 
 215:main.c        ****             break;
 216:main.c        ****             case 11:
 217:main.c        ****                 bitCase = ONE; 
 218:main.c        ****                 H_messageBit = 0;
 219:main.c        ****                 
 220:main.c        ****             break;    
 221:main.c        ****             
 222:main.c        ****         default:
 223:main.c        ****         break; 
 224:main.c        ****   
 225:main.c        ****         }
 226:main.c        ****         
 227:main.c        ****         LowF_MuxSelOut_Write(bitCase);
 228:main.c        ****         HighF_MuxSelOut_Write(bitCase);
 229:main.c        ****     }
 230:main.c        **** }
 231:main.c        **** 
 232:main.c        **** //Low F Interrupts
 233:main.c        **** //Triggered on PWM TC
 234:main.c        **** //Will increment counter, that will determine the bit time in main code
 235:main.c        **** CY_ISR(LowF_Zero_Int){
  28              		.loc 1 235 0
  29              		.cfi_startproc
  30              		@ args = 0, pretend = 0, frame = 0
  31              		@ frame_needed = 0, uses_anonymous_args = 0
  32              		@ link register save eliminated.
 236:main.c        ****    
 237:main.c        ****    L_zeroCounter++;
  33              		.loc 1 237 0
  34 0000 024A     		ldr	r2, .L2
  35 0002 1368     		ldr	r3, [r2]
  36 0004 0133     		adds	r3, r3, #1
  37 0006 1360     		str	r3, [r2]
  38 0008 7047     		bx	lr
  39              	.L3:
  40 000a 00BF     		.align	2
  41              	.L2:
  42 000c 00000000 		.word	.LANCHOR0
  43              		.cfi_endproc
  44              	.LFE64:
  45              		.size	LowF_Zero_Int, .-LowF_Zero_Int
  46              		.section	.text.LowF_One_Int,"ax",%progbits
  47              		.align	2
  48              		.global	LowF_One_Int
ARM GAS  C:\Users\sdysart\AppData\Local\Temp\ccwm4OIn.s 			page 6


  49              		.thumb
  50              		.thumb_func
  51              		.type	LowF_One_Int, %function
  52              	LowF_One_Int:
  53              	.LFB65:
 238:main.c        **** 
 239:main.c        **** }
 240:main.c        **** 
 241:main.c        **** CY_ISR(LowF_One_Int){
  54              		.loc 1 241 0
  55              		.cfi_startproc
  56              		@ args = 0, pretend = 0, frame = 0
  57              		@ frame_needed = 0, uses_anonymous_args = 0
  58              		@ link register save eliminated.
 242:main.c        ****     
 243:main.c        ****     L_oneCounter++;
  59              		.loc 1 243 0
  60 0000 024A     		ldr	r2, .L5
  61 0002 5368     		ldr	r3, [r2, #4]
  62 0004 0133     		adds	r3, r3, #1
  63 0006 5360     		str	r3, [r2, #4]
  64 0008 7047     		bx	lr
  65              	.L6:
  66 000a 00BF     		.align	2
  67              	.L5:
  68 000c 00000000 		.word	.LANCHOR0
  69              		.cfi_endproc
  70              	.LFE65:
  71              		.size	LowF_One_Int, .-LowF_One_Int
  72              		.section	.text.HighF_Zero_Int,"ax",%progbits
  73              		.align	2
  74              		.global	HighF_Zero_Int
  75              		.thumb
  76              		.thumb_func
  77              		.type	HighF_Zero_Int, %function
  78              	HighF_Zero_Int:
  79              	.LFB66:
 244:main.c        **** 
 245:main.c        **** }
 246:main.c        **** 
 247:main.c        **** CY_ISR_PROTO(HighF_Zero_Int){
  80              		.loc 1 247 0
  81              		.cfi_startproc
  82              		@ args = 0, pretend = 0, frame = 0
  83              		@ frame_needed = 0, uses_anonymous_args = 0
  84              		@ link register save eliminated.
 248:main.c        ****    
 249:main.c        ****     H_zeroCounter++;
  85              		.loc 1 249 0
  86 0000 024A     		ldr	r2, .L8
  87 0002 9368     		ldr	r3, [r2, #8]
  88 0004 0133     		adds	r3, r3, #1
  89 0006 9360     		str	r3, [r2, #8]
  90 0008 7047     		bx	lr
  91              	.L9:
  92 000a 00BF     		.align	2
  93              	.L8:
ARM GAS  C:\Users\sdysart\AppData\Local\Temp\ccwm4OIn.s 			page 7


  94 000c 00000000 		.word	.LANCHOR0
  95              		.cfi_endproc
  96              	.LFE66:
  97              		.size	HighF_Zero_Int, .-HighF_Zero_Int
  98              		.section	.text.HighF_One_Int,"ax",%progbits
  99              		.align	2
 100              		.global	HighF_One_Int
 101              		.thumb
 102              		.thumb_func
 103              		.type	HighF_One_Int, %function
 104              	HighF_One_Int:
 105              	.LFB67:
 250:main.c        **** 
 251:main.c        **** }
 252:main.c        **** CY_ISR_PROTO(HighF_One_Int){
 106              		.loc 1 252 0
 107              		.cfi_startproc
 108              		@ args = 0, pretend = 0, frame = 0
 109              		@ frame_needed = 0, uses_anonymous_args = 0
 110              		@ link register save eliminated.
 253:main.c        ****     
 254:main.c        ****     H_oneCounter++;
 111              		.loc 1 254 0
 112 0000 024A     		ldr	r2, .L11
 113 0002 D368     		ldr	r3, [r2, #12]
 114 0004 0133     		adds	r3, r3, #1
 115 0006 D360     		str	r3, [r2, #12]
 116 0008 7047     		bx	lr
 117              	.L12:
 118 000a 00BF     		.align	2
 119              	.L11:
 120 000c 00000000 		.word	.LANCHOR0
 121              		.cfi_endproc
 122              	.LFE67:
 123              		.size	HighF_One_Int, .-HighF_One_Int
 124              		.section	.text.main,"ax",%progbits
 125              		.align	2
 126              		.global	main
 127              		.thumb
 128              		.thumb_func
 129              		.type	main, %function
 130              	main:
 131              	.LFB63:
  47:main.c        ****     CyGlobalIntEnable; /* Enable global interrupts. */
 132              		.loc 1 47 0
 133              		.cfi_startproc
 134              		@ Volatile: function does not return.
 135              		@ args = 0, pretend = 0, frame = 0
 136              		@ frame_needed = 0, uses_anonymous_args = 0
 137 0000 08B5     		push	{r3, lr}
 138              		.cfi_def_cfa_offset 8
 139              		.cfi_offset 3, -8
 140              		.cfi_offset 14, -4
  48:main.c        **** 
 141              		.loc 1 48 0
 142              		.syntax unified
 143              	@ 48 "main.c" 1
ARM GAS  C:\Users\sdysart\AppData\Local\Temp\ccwm4OIn.s 			page 8


 144 0002 62B6     		CPSIE   i
 145              	@ 0 "" 2
  51:main.c        ****     //LowF_ZeroPWM_Start();
 146              		.loc 1 51 0
 147              		.thumb
 148              		.syntax unified
 149 0004 FFF7FEFF 		bl	LowF_OnePWM_Start
 150              	.LVL0:
  53:main.c        ****     
 151              		.loc 1 53 0
 152 0008 FFF7FEFF 		bl	LowF_ZeroPWM_Sleep
 153              	.LVL1:
  55:main.c        ****     //HighF_ZeroPWM_Start();
 154              		.loc 1 55 0
 155 000c FFF7FEFF 		bl	HighF_OnePWM_Start
 156              	.LVL2:
  57:main.c        ****     
 157              		.loc 1 57 0
 158 0010 FFF7FEFF 		bl	HighF_ZeroPWM_Sleep
 159              	.LVL3:
  59:main.c        ****     
 160              		.loc 1 59 0
 161 0014 8D4B     		ldr	r3, .L48
 162 0016 187C     		ldrb	r0, [r3, #16]	@ zero_extendqisi2
 163 0018 FFF7FEFF 		bl	LEDTest_Write
 164              	.LVL4:
  62:main.c        ****     LowF_ZeroInt_StartEx(LowF_One_Int);
 165              		.loc 1 62 0
 166 001c 8C48     		ldr	r0, .L48+4
 167 001e FFF7FEFF 		bl	LowF_OneInt_StartEx
 168              	.LVL5:
  63:main.c        ****     
 169              		.loc 1 63 0
 170 0022 8C48     		ldr	r0, .L48+8
 171 0024 FFF7FEFF 		bl	LowF_ZeroInt_StartEx
 172              	.LVL6:
  67:main.c        ****     HighF_ZeroInt_StartEx(HighF_One_Int);
 173              		.loc 1 67 0
 174 0028 8B48     		ldr	r0, .L48+12
 175 002a FFF7FEFF 		bl	HighF_OneInt_StartEx
 176              	.LVL7:
  68:main.c        **** 
 177              		.loc 1 68 0
 178 002e 8B48     		ldr	r0, .L48+16
 179 0030 FFF7FEFF 		bl	HighF_ZeroInt_StartEx
 180              	.LVL8:
 181              	.L46:
  77:main.c        ****             testLEDStatus = testLEDStatus ^ 0xFF; 
 182              		.loc 1 77 0
 183 0034 854B     		ldr	r3, .L48
 184 0036 5A68     		ldr	r2, [r3, #4]
 185 0038 894B     		ldr	r3, .L48+20
 186 003a 83FB0231 		smull	r3, r1, r3, r2
 187 003e D317     		asrs	r3, r2, #31
 188 0040 C3EB2113 		rsb	r3, r3, r1, asr #4
 189 0044 3221     		movs	r1, #50
 190 0046 01FB1323 		mls	r3, r1, r3, r2
ARM GAS  C:\Users\sdysart\AppData\Local\Temp\ccwm4OIn.s 			page 9


 191 004a 63B9     		cbnz	r3, .L14
  78:main.c        ****             LEDTest_Write(testLEDStatus); 
 192              		.loc 1 78 0
 193 004c 7F4C     		ldr	r4, .L48
 194 004e 207C     		ldrb	r0, [r4, #16]	@ zero_extendqisi2
 195 0050 C043     		mvns	r0, r0
 196 0052 C0B2     		uxtb	r0, r0
 197 0054 2074     		strb	r0, [r4, #16]
  79:main.c        ****             L_messageBit++;
 198              		.loc 1 79 0
 199 0056 FFF7FEFF 		bl	LEDTest_Write
 200              	.LVL9:
  80:main.c        ****             L_oneCounter = 1;
 201              		.loc 1 80 0
 202 005a 824A     		ldr	r2, .L48+24
 203 005c 1378     		ldrb	r3, [r2]	@ zero_extendqisi2
 204 005e 0133     		adds	r3, r3, #1
 205 0060 1370     		strb	r3, [r2]
  81:main.c        ****             //can't reset to 0 due to mod operator, so reset to 1
 206              		.loc 1 81 0
 207 0062 0123     		movs	r3, #1
 208 0064 6360     		str	r3, [r4, #4]
 209              	.L14:
  85:main.c        ****             testLEDStatus = testLEDStatus ^ 0xFF; 
 210              		.loc 1 85 0
 211 0066 794B     		ldr	r3, .L48
 212 0068 1A68     		ldr	r2, [r3]
 213 006a 7F4B     		ldr	r3, .L48+28
 214 006c 83FB0231 		smull	r3, r1, r3, r2
 215 0070 D317     		asrs	r3, r2, #31
 216 0072 C3EBE103 		rsb	r3, r3, r1, asr #3
 217 0076 2B21     		movs	r1, #43
 218 0078 01FB1323 		mls	r3, r1, r3, r2
 219 007c 63B9     		cbnz	r3, .L15
  86:main.c        ****             LEDTest_Write(testLEDStatus); 
 220              		.loc 1 86 0
 221 007e 734C     		ldr	r4, .L48
 222 0080 207C     		ldrb	r0, [r4, #16]	@ zero_extendqisi2
 223 0082 C043     		mvns	r0, r0
 224 0084 C0B2     		uxtb	r0, r0
 225 0086 2074     		strb	r0, [r4, #16]
  87:main.c        ****             L_messageBit++;
 226              		.loc 1 87 0
 227 0088 FFF7FEFF 		bl	LEDTest_Write
 228              	.LVL10:
  88:main.c        ****             L_zeroCounter = 1;
 229              		.loc 1 88 0
 230 008c 754A     		ldr	r2, .L48+24
 231 008e 1378     		ldrb	r3, [r2]	@ zero_extendqisi2
 232 0090 0133     		adds	r3, r3, #1
 233 0092 1370     		strb	r3, [r2]
  89:main.c        ****             //can't reset to 0 due to mod operator, so reset to 1
 234              		.loc 1 89 0
 235 0094 0123     		movs	r3, #1
 236 0096 2360     		str	r3, [r4]
 237              	.L15:
  93:main.c        ****             testLEDStatus = testLEDStatus ^ 0xFF; 
ARM GAS  C:\Users\sdysart\AppData\Local\Temp\ccwm4OIn.s 			page 10


 238              		.loc 1 93 0
 239 0098 6C4B     		ldr	r3, .L48
 240 009a DA68     		ldr	r2, [r3, #12]
 241 009c 734B     		ldr	r3, .L48+32
 242 009e 83FB0231 		smull	r3, r1, r3, r2
 243 00a2 D317     		asrs	r3, r2, #31
 244 00a4 C3EB6103 		rsb	r3, r3, r1, asr #1
 245 00a8 C3EBC301 		rsb	r1, r3, r3, lsl #3
 246 00ac C3EBC103 		rsb	r3, r3, r1, lsl #3
 247 00b0 9A42     		cmp	r2, r3
 248 00b2 0CD1     		bne	.L16
  94:main.c        ****             LEDTest_Write(testLEDStatus); 
 249              		.loc 1 94 0
 250 00b4 654C     		ldr	r4, .L48
 251 00b6 207C     		ldrb	r0, [r4, #16]	@ zero_extendqisi2
 252 00b8 C043     		mvns	r0, r0
 253 00ba C0B2     		uxtb	r0, r0
 254 00bc 2074     		strb	r0, [r4, #16]
  95:main.c        ****             H_messageBit++;
 255              		.loc 1 95 0
 256 00be FFF7FEFF 		bl	LEDTest_Write
 257              	.LVL11:
  96:main.c        ****             H_oneCounter = 1;
 258              		.loc 1 96 0
 259 00c2 684A     		ldr	r2, .L48+24
 260 00c4 5378     		ldrb	r3, [r2, #1]	@ zero_extendqisi2
 261 00c6 0133     		adds	r3, r3, #1
 262 00c8 5370     		strb	r3, [r2, #1]
  97:main.c        ****             //can't reset to 0 due to mod operator, so reset to 1
 263              		.loc 1 97 0
 264 00ca 0123     		movs	r3, #1
 265 00cc E360     		str	r3, [r4, #12]
 266              	.L16:
 101:main.c        ****             testLEDStatus = testLEDStatus ^ 0xFF; 
 267              		.loc 1 101 0
 268 00ce 5F4B     		ldr	r3, .L48
 269 00d0 9A68     		ldr	r2, [r3, #8]
 270 00d2 6748     		ldr	r0, .L48+36
 271 00d4 82FB0001 		smull	r0, r1, r2, r0
 272 00d8 1144     		add	r1, r1, r2
 273 00da D317     		asrs	r3, r2, #31
 274 00dc C3EB6113 		rsb	r3, r3, r1, asr #5
 275 00e0 03EB4303 		add	r3, r3, r3, lsl #1
 276 00e4 C3EB0313 		rsb	r3, r3, r3, lsl #4
 277 00e8 9A42     		cmp	r2, r3
 278 00ea 0CD1     		bne	.L17
 102:main.c        ****             LEDTest_Write(testLEDStatus); 
 279              		.loc 1 102 0
 280 00ec 574C     		ldr	r4, .L48
 281 00ee 207C     		ldrb	r0, [r4, #16]	@ zero_extendqisi2
 282 00f0 C043     		mvns	r0, r0
 283 00f2 C0B2     		uxtb	r0, r0
 284 00f4 2074     		strb	r0, [r4, #16]
 103:main.c        ****             H_messageBit++;
 285              		.loc 1 103 0
 286 00f6 FFF7FEFF 		bl	LEDTest_Write
 287              	.LVL12:
ARM GAS  C:\Users\sdysart\AppData\Local\Temp\ccwm4OIn.s 			page 11


 104:main.c        ****             H_zeroCounter = 1;
 288              		.loc 1 104 0
 289 00fa 5A4A     		ldr	r2, .L48+24
 290 00fc 5378     		ldrb	r3, [r2, #1]	@ zero_extendqisi2
 291 00fe 0133     		adds	r3, r3, #1
 292 0100 5370     		strb	r3, [r2, #1]
 105:main.c        ****             //can't reset to 0 due to mod operator, so reset to 1
 293              		.loc 1 105 0
 294 0102 0123     		movs	r3, #1
 295 0104 A360     		str	r3, [r4, #8]
 296              	.L17:
 109:main.c        ****         
 297              		.loc 1 109 0
 298 0106 574B     		ldr	r3, .L48+24
 299 0108 1B78     		ldrb	r3, [r3]	@ zero_extendqisi2
 300 010a 0B2B     		cmp	r3, #11
 301 010c 48D8     		bhi	.L18
 302 010e DFE803F0 		tbb	[pc, r3]
 303              	.L20:
 304 0112 06       		.byte	(.L19-.L20)/2
 305 0113 0A       		.byte	(.L21-.L20)/2
 306 0114 0E       		.byte	(.L22-.L20)/2
 307 0115 12       		.byte	(.L23-.L20)/2
 308 0116 16       		.byte	(.L24-.L20)/2
 309 0117 1E       		.byte	(.L25-.L20)/2
 310 0118 22       		.byte	(.L26-.L20)/2
 311 0119 2A       		.byte	(.L27-.L20)/2
 312 011a 32       		.byte	(.L28-.L20)/2
 313 011b 3A       		.byte	(.L29-.L20)/2
 314 011c 3E       		.byte	(.L30-.L20)/2
 315 011d 42       		.byte	(.L31-.L20)/2
 316              		.p2align 1
 317              	.L19:
 112:main.c        ****             
 318              		.loc 1 112 0
 319 011e FF22     		movs	r2, #255
 320 0120 504B     		ldr	r3, .L48+24
 321 0122 9A70     		strb	r2, [r3, #2]
 114:main.c        ****             case 1:
 322              		.loc 1 114 0
 323 0124 3CE0     		b	.L18
 324              	.L21:
 116:main.c        ****             break;
 325              		.loc 1 116 0
 326 0126 FF22     		movs	r2, #255
 327 0128 4E4B     		ldr	r3, .L48+24
 328 012a 9A70     		strb	r2, [r3, #2]
 117:main.c        ****             case 2:
 329              		.loc 1 117 0
 330 012c 38E0     		b	.L18
 331              	.L22:
 119:main.c        ****             break;
 332              		.loc 1 119 0
 333 012e FF22     		movs	r2, #255
 334 0130 4C4B     		ldr	r3, .L48+24
 335 0132 9A70     		strb	r2, [r3, #2]
 120:main.c        ****             case 3:
ARM GAS  C:\Users\sdysart\AppData\Local\Temp\ccwm4OIn.s 			page 12


 336              		.loc 1 120 0
 337 0134 34E0     		b	.L18
 338              	.L23:
 122:main.c        ****             break;
 339              		.loc 1 122 0
 340 0136 FF22     		movs	r2, #255
 341 0138 4A4B     		ldr	r3, .L48+24
 342 013a 9A70     		strb	r2, [r3, #2]
 123:main.c        ****             case 4:
 343              		.loc 1 123 0
 344 013c 30E0     		b	.L18
 345              	.L24:
 125:main.c        ****                 LowF_OnePWM_Sleep();
 346              		.loc 1 125 0
 347 013e 0022     		movs	r2, #0
 348 0140 484B     		ldr	r3, .L48+24
 349 0142 9A70     		strb	r2, [r3, #2]
 126:main.c        ****                 LowF_ZeroPWM_Start();
 350              		.loc 1 126 0
 351 0144 FFF7FEFF 		bl	LowF_OnePWM_Sleep
 352              	.LVL13:
 127:main.c        ****                 
 353              		.loc 1 127 0
 354 0148 FFF7FEFF 		bl	LowF_ZeroPWM_Start
 355              	.LVL14:
 129:main.c        ****             case 5:
 356              		.loc 1 129 0
 357 014c 28E0     		b	.L18
 358              	.L25:
 131:main.c        ****               
 359              		.loc 1 131 0
 360 014e 0022     		movs	r2, #0
 361 0150 444B     		ldr	r3, .L48+24
 362 0152 9A70     		strb	r2, [r3, #2]
 133:main.c        ****             case 6:
 363              		.loc 1 133 0
 364 0154 24E0     		b	.L18
 365              	.L26:
 135:main.c        ****                 LowF_ZeroPWM_Sleep();
 366              		.loc 1 135 0
 367 0156 FF22     		movs	r2, #255
 368 0158 424B     		ldr	r3, .L48+24
 369 015a 9A70     		strb	r2, [r3, #2]
 136:main.c        ****                 LowF_OnePWM_Start();
 370              		.loc 1 136 0
 371 015c FFF7FEFF 		bl	LowF_ZeroPWM_Sleep
 372              	.LVL15:
 137:main.c        ****             break; 
 373              		.loc 1 137 0
 374 0160 FFF7FEFF 		bl	LowF_OnePWM_Start
 375              	.LVL16:
 138:main.c        ****             case 7:
 376              		.loc 1 138 0
 377 0164 1CE0     		b	.L18
 378              	.L27:
 140:main.c        ****                 LowF_OnePWM_Sleep();
 379              		.loc 1 140 0
ARM GAS  C:\Users\sdysart\AppData\Local\Temp\ccwm4OIn.s 			page 13


 380 0166 0022     		movs	r2, #0
 381 0168 3E4B     		ldr	r3, .L48+24
 382 016a 9A70     		strb	r2, [r3, #2]
 141:main.c        ****                 LowF_ZeroPWM_Start();
 383              		.loc 1 141 0
 384 016c FFF7FEFF 		bl	LowF_OnePWM_Sleep
 385              	.LVL17:
 142:main.c        ****             break; 
 386              		.loc 1 142 0
 387 0170 FFF7FEFF 		bl	LowF_ZeroPWM_Start
 388              	.LVL18:
 143:main.c        ****             case 8:
 389              		.loc 1 143 0
 390 0174 14E0     		b	.L18
 391              	.L28:
 145:main.c        ****                 LowF_ZeroPWM_Sleep();
 392              		.loc 1 145 0
 393 0176 FF22     		movs	r2, #255
 394 0178 3A4B     		ldr	r3, .L48+24
 395 017a 9A70     		strb	r2, [r3, #2]
 146:main.c        ****                 LowF_OnePWM_Start();
 396              		.loc 1 146 0
 397 017c FFF7FEFF 		bl	LowF_ZeroPWM_Sleep
 398              	.LVL19:
 147:main.c        ****             break;     
 399              		.loc 1 147 0
 400 0180 FFF7FEFF 		bl	LowF_OnePWM_Start
 401              	.LVL20:
 148:main.c        ****             case 9:
 402              		.loc 1 148 0
 403 0184 0CE0     		b	.L18
 404              	.L29:
 150:main.c        ****             break;
 405              		.loc 1 150 0
 406 0186 FF22     		movs	r2, #255
 407 0188 364B     		ldr	r3, .L48+24
 408 018a 9A70     		strb	r2, [r3, #2]
 151:main.c        ****             case 10:
 409              		.loc 1 151 0
 410 018c 08E0     		b	.L18
 411              	.L30:
 153:main.c        ****                 
 412              		.loc 1 153 0
 413 018e FF22     		movs	r2, #255
 414 0190 344B     		ldr	r3, .L48+24
 415 0192 9A70     		strb	r2, [r3, #2]
 155:main.c        ****             case 11:
 416              		.loc 1 155 0
 417 0194 04E0     		b	.L18
 418              	.L31:
 157:main.c        ****                 L_messageBit = 0;
 419              		.loc 1 157 0
 420 0196 334B     		ldr	r3, .L48+24
 421 0198 FF22     		movs	r2, #255
 422 019a 9A70     		strb	r2, [r3, #2]
 158:main.c        ****                 
 423              		.loc 1 158 0
ARM GAS  C:\Users\sdysart\AppData\Local\Temp\ccwm4OIn.s 			page 14


 424 019c 0022     		movs	r2, #0
 425 019e 1A70     		strb	r2, [r3]
 426              	.L18:
 169:main.c        ****         
 427              		.loc 1 169 0
 428 01a0 304B     		ldr	r3, .L48+24
 429 01a2 5B78     		ldrb	r3, [r3, #1]	@ zero_extendqisi2
 430 01a4 0B2B     		cmp	r3, #11
 431 01a6 48D8     		bhi	.L32
 432 01a8 DFE803F0 		tbb	[pc, r3]
 433              	.L34:
 434 01ac 06       		.byte	(.L33-.L34)/2
 435 01ad 0A       		.byte	(.L35-.L34)/2
 436 01ae 0E       		.byte	(.L36-.L34)/2
 437 01af 12       		.byte	(.L37-.L34)/2
 438 01b0 16       		.byte	(.L38-.L34)/2
 439 01b1 1E       		.byte	(.L39-.L34)/2
 440 01b2 22       		.byte	(.L40-.L34)/2
 441 01b3 2A       		.byte	(.L41-.L34)/2
 442 01b4 32       		.byte	(.L42-.L34)/2
 443 01b5 3A       		.byte	(.L43-.L34)/2
 444 01b6 3E       		.byte	(.L44-.L34)/2
 445 01b7 42       		.byte	(.L45-.L34)/2
 446              		.p2align 1
 447              	.L33:
 172:main.c        ****             
 448              		.loc 1 172 0
 449 01b8 FF22     		movs	r2, #255
 450 01ba 2A4B     		ldr	r3, .L48+24
 451 01bc 9A70     		strb	r2, [r3, #2]
 174:main.c        ****             case 1:
 452              		.loc 1 174 0
 453 01be 3CE0     		b	.L32
 454              	.L35:
 176:main.c        ****             break;
 455              		.loc 1 176 0
 456 01c0 FF22     		movs	r2, #255
 457 01c2 284B     		ldr	r3, .L48+24
 458 01c4 9A70     		strb	r2, [r3, #2]
 177:main.c        ****             case 2:
 459              		.loc 1 177 0
 460 01c6 38E0     		b	.L32
 461              	.L36:
 179:main.c        ****             break;
 462              		.loc 1 179 0
 463 01c8 FF22     		movs	r2, #255
 464 01ca 264B     		ldr	r3, .L48+24
 465 01cc 9A70     		strb	r2, [r3, #2]
 180:main.c        ****             case 3:
 466              		.loc 1 180 0
 467 01ce 34E0     		b	.L32
 468              	.L37:
 182:main.c        ****             break;
 469              		.loc 1 182 0
 470 01d0 FF22     		movs	r2, #255
 471 01d2 244B     		ldr	r3, .L48+24
 472 01d4 9A70     		strb	r2, [r3, #2]
ARM GAS  C:\Users\sdysart\AppData\Local\Temp\ccwm4OIn.s 			page 15


 183:main.c        ****             case 4:
 473              		.loc 1 183 0
 474 01d6 30E0     		b	.L32
 475              	.L38:
 185:main.c        ****                 HighF_OnePWM_Sleep();
 476              		.loc 1 185 0
 477 01d8 0022     		movs	r2, #0
 478 01da 224B     		ldr	r3, .L48+24
 479 01dc 9A70     		strb	r2, [r3, #2]
 186:main.c        ****                 HighF_ZeroPWM_Start();
 480              		.loc 1 186 0
 481 01de FFF7FEFF 		bl	HighF_OnePWM_Sleep
 482              	.LVL21:
 187:main.c        ****                 
 483              		.loc 1 187 0
 484 01e2 FFF7FEFF 		bl	HighF_ZeroPWM_Start
 485              	.LVL22:
 189:main.c        ****             case 5:
 486              		.loc 1 189 0
 487 01e6 28E0     		b	.L32
 488              	.L39:
 191:main.c        ****               
 489              		.loc 1 191 0
 490 01e8 0022     		movs	r2, #0
 491 01ea 1E4B     		ldr	r3, .L48+24
 492 01ec 9A70     		strb	r2, [r3, #2]
 193:main.c        ****             case 6:
 493              		.loc 1 193 0
 494 01ee 24E0     		b	.L32
 495              	.L40:
 195:main.c        ****                 HighF_ZeroPWM_Sleep();
 496              		.loc 1 195 0
 497 01f0 FF22     		movs	r2, #255
 498 01f2 1C4B     		ldr	r3, .L48+24
 499 01f4 9A70     		strb	r2, [r3, #2]
 196:main.c        ****                 HighF_OnePWM_Start();
 500              		.loc 1 196 0
 501 01f6 FFF7FEFF 		bl	HighF_ZeroPWM_Sleep
 502              	.LVL23:
 197:main.c        ****             break; 
 503              		.loc 1 197 0
 504 01fa FFF7FEFF 		bl	HighF_OnePWM_Start
 505              	.LVL24:
 198:main.c        ****             case 7:
 506              		.loc 1 198 0
 507 01fe 1CE0     		b	.L32
 508              	.L41:
 200:main.c        ****                 HighF_OnePWM_Sleep();
 509              		.loc 1 200 0
 510 0200 0022     		movs	r2, #0
 511 0202 184B     		ldr	r3, .L48+24
 512 0204 9A70     		strb	r2, [r3, #2]
 201:main.c        ****                 HighF_ZeroPWM_Start();
 513              		.loc 1 201 0
 514 0206 FFF7FEFF 		bl	HighF_OnePWM_Sleep
 515              	.LVL25:
 202:main.c        ****             break; 
ARM GAS  C:\Users\sdysart\AppData\Local\Temp\ccwm4OIn.s 			page 16


 516              		.loc 1 202 0
 517 020a FFF7FEFF 		bl	HighF_ZeroPWM_Start
 518              	.LVL26:
 203:main.c        ****             case 8:
 519              		.loc 1 203 0
 520 020e 14E0     		b	.L32
 521              	.L42:
 205:main.c        ****                 HighF_ZeroPWM_Sleep();
 522              		.loc 1 205 0
 523 0210 FF22     		movs	r2, #255
 524 0212 144B     		ldr	r3, .L48+24
 525 0214 9A70     		strb	r2, [r3, #2]
 206:main.c        ****                 HighF_OnePWM_Start();
 526              		.loc 1 206 0
 527 0216 FFF7FEFF 		bl	HighF_ZeroPWM_Sleep
 528              	.LVL27:
 207:main.c        ****             break;     
 529              		.loc 1 207 0
 530 021a FFF7FEFF 		bl	HighF_OnePWM_Start
 531              	.LVL28:
 208:main.c        ****             case 9:
 532              		.loc 1 208 0
 533 021e 0CE0     		b	.L32
 534              	.L43:
 210:main.c        ****             break;
 535              		.loc 1 210 0
 536 0220 FF22     		movs	r2, #255
 537 0222 104B     		ldr	r3, .L48+24
 538 0224 9A70     		strb	r2, [r3, #2]
 211:main.c        ****             case 10:
 539              		.loc 1 211 0
 540 0226 08E0     		b	.L32
 541              	.L44:
 213:main.c        ****                 
 542              		.loc 1 213 0
 543 0228 FF22     		movs	r2, #255
 544 022a 0E4B     		ldr	r3, .L48+24
 545 022c 9A70     		strb	r2, [r3, #2]
 215:main.c        ****             case 11:
 546              		.loc 1 215 0
 547 022e 04E0     		b	.L32
 548              	.L45:
 217:main.c        ****                 H_messageBit = 0;
 549              		.loc 1 217 0
 550 0230 0C4B     		ldr	r3, .L48+24
 551 0232 FF22     		movs	r2, #255
 552 0234 9A70     		strb	r2, [r3, #2]
 218:main.c        ****                 
 553              		.loc 1 218 0
 554 0236 0022     		movs	r2, #0
 555 0238 5A70     		strb	r2, [r3, #1]
 556              	.L32:
 227:main.c        ****         HighF_MuxSelOut_Write(bitCase);
 557              		.loc 1 227 0
 558 023a 0A4C     		ldr	r4, .L48+24
 559 023c A078     		ldrb	r0, [r4, #2]	@ zero_extendqisi2
 560 023e FFF7FEFF 		bl	LowF_MuxSelOut_Write
ARM GAS  C:\Users\sdysart\AppData\Local\Temp\ccwm4OIn.s 			page 17


 561              	.LVL29:
 228:main.c        ****     }
 562              		.loc 1 228 0
 563 0242 A078     		ldrb	r0, [r4, #2]	@ zero_extendqisi2
 564 0244 FFF7FEFF 		bl	HighF_MuxSelOut_Write
 565              	.LVL30:
 229:main.c        **** }
 566              		.loc 1 229 0
 567 0248 F4E6     		b	.L46
 568              	.L49:
 569 024a 00BF     		.align	2
 570              	.L48:
 571 024c 00000000 		.word	.LANCHOR0
 572 0250 00000000 		.word	LowF_Zero_Int
 573 0254 00000000 		.word	LowF_One_Int
 574 0258 00000000 		.word	HighF_Zero_Int
 575 025c 00000000 		.word	HighF_One_Int
 576 0260 1F85EB51 		.word	1374389535
 577 0264 00000000 		.word	.LANCHOR1
 578 0268 83BEA02F 		.word	799063683
 579 026c 95204F09 		.word	156180629
 580 0270 B7600BB6 		.word	-1240768329
 581              		.cfi_endproc
 582              	.LFE63:
 583              		.size	main, .-main
 584              		.data
 585              		.align	2
 586              		.set	.LANCHOR0,. + 0
 587              		.type	L_zeroCounter, %object
 588              		.size	L_zeroCounter, 4
 589              	L_zeroCounter:
 590 0000 01000000 		.word	1
 591              		.type	L_oneCounter, %object
 592              		.size	L_oneCounter, 4
 593              	L_oneCounter:
 594 0004 01000000 		.word	1
 595              		.type	H_zeroCounter, %object
 596              		.size	H_zeroCounter, 4
 597              	H_zeroCounter:
 598 0008 01000000 		.word	1
 599              		.type	H_oneCounter, %object
 600              		.size	H_oneCounter, 4
 601              	H_oneCounter:
 602 000c 01000000 		.word	1
 603              		.type	testLEDStatus, %object
 604              		.size	testLEDStatus, 1
 605              	testLEDStatus:
 606 0010 FF       		.byte	-1
 607              		.bss
 608              		.set	.LANCHOR1,. + 0
 609              		.type	L_messageBit, %object
 610              		.size	L_messageBit, 1
 611              	L_messageBit:
 612 0000 00       		.space	1
 613              		.type	H_messageBit, %object
 614              		.size	H_messageBit, 1
 615              	H_messageBit:
ARM GAS  C:\Users\sdysart\AppData\Local\Temp\ccwm4OIn.s 			page 18


 616 0001 00       		.space	1
 617              		.type	bitCase, %object
 618              		.size	bitCase, 1
 619              	bitCase:
 620 0002 00       		.space	1
 621              		.text
 622              	.Letext0:
 623              		.file 2 "c:\\program files (x86)\\cypress\\psoc creator\\4.1\\psoc creator\\import\\gnu\\arm\\5.4.
 624              		.file 3 "c:\\program files (x86)\\cypress\\psoc creator\\4.1\\psoc creator\\import\\gnu\\arm\\5.4.
 625              		.file 4 "Generated_Source\\PSoC5/cytypes.h"
 626              		.file 5 "Generated_Source\\PSoC5/LowF_OnePWM.h"
 627              		.file 6 "Generated_Source\\PSoC5/LowF_ZeroPWM.h"
 628              		.file 7 "Generated_Source\\PSoC5/HighF_OnePWM.h"
 629              		.file 8 "Generated_Source\\PSoC5/HighF_ZeroPWM.h"
 630              		.file 9 "Generated_Source\\PSoC5/LEDTest.h"
 631              		.file 10 "Generated_Source\\PSoC5/LowF_OneInt.h"
 632              		.file 11 "Generated_Source\\PSoC5/LowF_ZeroInt.h"
 633              		.file 12 "Generated_Source\\PSoC5/HighF_OneInt.h"
 634              		.file 13 "Generated_Source\\PSoC5/HighF_ZeroInt.h"
 635              		.file 14 "Generated_Source\\PSoC5/LowF_MuxSelOut.h"
 636              		.file 15 "Generated_Source\\PSoC5/HighF_MuxSelOut.h"
 637              		.file 16 "Generated_Source\\PSoC5/core_cm3.h"