ARM GAS  C:\Users\jucsalaz\AppData\Local\Temp\ccO7qVTa.s 			page 1


   1              		.syntax unified
   2              		.cpu cortex-m3
   3              		.fpu softvfp
   4              		.eabi_attribute 20, 1
   5              		.eabi_attribute 21, 1
   6              		.eabi_attribute 23, 3
   7              		.eabi_attribute 24, 1
   8              		.eabi_attribute 25, 1
   9              		.eabi_attribute 26, 1
  10              		.eabi_attribute 30, 1
  11              		.eabi_attribute 34, 1
  12              		.eabi_attribute 18, 4
  13              		.thumb
  14              		.syntax unified
  15              		.file	"main.c"
  16              		.text
  17              	.Ltext0:
  18              		.cfi_sections	.debug_frame
  19              		.section	.text.WakeupIsr,"ax",%progbits
  20              		.align	2
  21              		.global	WakeupIsr
  22              		.thumb
  23              		.thumb_func
  24              		.type	WakeupIsr, %function
  25              	WakeupIsr:
  26              	.LFB64:
  27              		.file 1 "main.c"
   1:main.c        **** /* 
   2:main.c        ****  * File: main.c
   3:main.c        ****  * Project: TogglingPin
   4:main.c        ****  * Workspace: Power
   5:main.c        ****  * Author: Julian Salazar
   6:main.c        ****  * Date: 5/10/18
   7:main.c        ****  * Purpose: The purpose of this project is to simply toggle a pin on and off.
   8:main.c        ****  *     The pin will connect to the base of a NPN transistor which will serve as
   9:main.c        ****  *     a switch to turn the analog circuitry off and on.
  10:main.c        ****  * Edits:
  11:main.c        ****  *      - Sleep current too high. Adjusted to have sleep current of .24mA.(JS)
  12:main.c        ****  * 
  13:main.c        ****  */
  14:main.c        **** 
  15:main.c        **** /******************************************************************************
  16:main.c        ****  * Included Header Files
  17:main.c        ****  *****************************************************************************/
  18:main.c        **** #include "project.h"
  19:main.c        **** 
  20:main.c        **** /******************************************************************************
  21:main.c        ****  * Definitions
  22:main.c        ****  *****************************************************************************/
  23:main.c        **** #define ON  1
  24:main.c        **** #define OFF 0
  25:main.c        **** 
  26:main.c        **** /******************************************************************************
  27:main.c        ****  * Function Prototypes
  28:main.c        ****  *****************************************************************************/
  29:main.c        **** CY_ISR_PROTO(WakeupIsr);
  30:main.c        **** 
ARM GAS  C:\Users\jucsalaz\AppData\Local\Temp\ccO7qVTa.s 			page 2


  31:main.c        **** /*
  32:main.c        ****  * function: main()
  33:main.c        ****  * parameters: none
  34:main.c        ****  * returns: int (Should never return)
  35:main.c        ****  * description: toggles a pin off and on every four seconds and sends a 40k PWM
  36:main.c        ****  *      signal 
  37:main.c        ****  */
  38:main.c        **** int main(void)
  39:main.c        **** {
  40:main.c        ****     /* Enable global interrupts */
  41:main.c        ****     CyGlobalIntEnable;
  42:main.c        ****     
  43:main.c        ****     /* Initialize hardware blocks */
  44:main.c        ****     Sleep_ISR_StartEx(WakeupIsr);
  45:main.c        ****     SleepTimer_Start();
  46:main.c        ****     PWM_40k_Start();
  47:main.c        ****     
  48:main.c        ****     while(1) {
  49:main.c        ****         // After the sleep timer ISR activates and turns on a pin, it will stay
  50:main.c        ****         // on for 4s before sleeping again.
  51:main.c        ****         CyDelay(100);
  52:main.c        ****         
  53:main.c        ****         // Prepares hardware for 
  54:main.c        ****         //Toggle_Pin_Write(OFF);
  55:main.c        ****         PWM_40k_Stop();
  56:main.c        ****         PWM_40k_Sleep();
  57:main.c        ****         
  58:main.c        ****         // PSoC Sleep command. To adjust sleep time, change in the hardware
  59:main.c        ****         //  block. No sleep time parameters taken in PSoC5LP.
  60:main.c        ****         //  PM_SLEEP_TIME_NONE is a relic of PSoC3
  61:main.c        ****         CyPmSleep(PM_SLEEP_TIME_NONE, PM_SLEEP_SRC_CTW);
  62:main.c        ****         
  63:main.c        ****         // Reactivatespwm hardware blocks from sleep
  64:main.c        ****         PWM_40k_Wakeup();
  65:main.c        ****         
  66:main.c        ****         CyDelay(5); // Allow voltage booster to charge before sending signal
  67:main.c        ****         PWM_40k_Start();
  68:main.c        ****         
  69:main.c        ****     }//end while(1)
  70:main.c        ****     
  71:main.c        **** } //end main
  72:main.c        **** 
  73:main.c        **** CY_ISR(WakeupIsr)
  74:main.c        **** {
  28              		.loc 1 74 0
  29              		.cfi_startproc
  30              		@ args = 0, pretend = 0, frame = 0
  31              		@ frame_needed = 0, uses_anonymous_args = 0
  32 0000 08B5     		push	{r3, lr}
  33              		.cfi_def_cfa_offset 8
  34              		.cfi_offset 3, -8
  35              		.cfi_offset 14, -4
  75:main.c        ****     SleepTimer_GetStatus(); // Clears the sleep timer interrupt
  36              		.loc 1 75 0
  37 0002 FFF7FEFF 		bl	SleepTimer_GetStatus
  38              	.LVL0:
  76:main.c        ****     Toggle_Pin_Write(ON); //Turns pin on upon waking up.
ARM GAS  C:\Users\jucsalaz\AppData\Local\Temp\ccO7qVTa.s 			page 3


  39              		.loc 1 76 0
  40 0006 0120     		movs	r0, #1
  41 0008 FFF7FEFF 		bl	Toggle_Pin_Write
  42              	.LVL1:
  43 000c 08BD     		pop	{r3, pc}
  44              		.cfi_endproc
  45              	.LFE64:
  46              		.size	WakeupIsr, .-WakeupIsr
  47 000e 00BF     		.section	.text.main,"ax",%progbits
  48              		.align	2
  49              		.global	main
  50              		.thumb
  51              		.thumb_func
  52              		.type	main, %function
  53              	main:
  54              	.LFB63:
  39:main.c        ****     /* Enable global interrupts */
  55              		.loc 1 39 0
  56              		.cfi_startproc
  57              		@ Volatile: function does not return.
  58              		@ args = 0, pretend = 0, frame = 0
  59              		@ frame_needed = 0, uses_anonymous_args = 0
  60 0000 08B5     		push	{r3, lr}
  61              		.cfi_def_cfa_offset 8
  62              		.cfi_offset 3, -8
  63              		.cfi_offset 14, -4
  41:main.c        ****     
  64              		.loc 1 41 0
  65              		.syntax unified
  66              	@ 41 "main.c" 1
  67 0002 62B6     		CPSIE   i
  68              	@ 0 "" 2
  44:main.c        ****     SleepTimer_Start();
  69              		.loc 1 44 0
  70              		.thumb
  71              		.syntax unified
  72 0004 0D48     		ldr	r0, .L6
  73 0006 FFF7FEFF 		bl	Sleep_ISR_StartEx
  74              	.LVL2:
  45:main.c        ****     PWM_40k_Start();
  75              		.loc 1 45 0
  76 000a FFF7FEFF 		bl	SleepTimer_Start
  77              	.LVL3:
  46:main.c        ****     
  78              		.loc 1 46 0
  79 000e FFF7FEFF 		bl	PWM_40k_Start
  80              	.LVL4:
  81              	.L4:
  51:main.c        ****         
  82              		.loc 1 51 0 discriminator 1
  83 0012 6420     		movs	r0, #100
  84 0014 FFF7FEFF 		bl	CyDelay
  85              	.LVL5:
  55:main.c        ****         PWM_40k_Sleep();
  86              		.loc 1 55 0 discriminator 1
  87 0018 FFF7FEFF 		bl	PWM_40k_Stop
  88              	.LVL6:
ARM GAS  C:\Users\jucsalaz\AppData\Local\Temp\ccO7qVTa.s 			page 4


  56:main.c        ****         
  89              		.loc 1 56 0 discriminator 1
  90 001c FFF7FEFF 		bl	PWM_40k_Sleep
  91              	.LVL7:
  61:main.c        ****         
  92              		.loc 1 61 0 discriminator 1
  93 0020 4FF40061 		mov	r1, #2048
  94 0024 0020     		movs	r0, #0
  95 0026 FFF7FEFF 		bl	CyPmSleep
  96              	.LVL8:
  64:main.c        ****         
  97              		.loc 1 64 0 discriminator 1
  98 002a FFF7FEFF 		bl	PWM_40k_Wakeup
  99              	.LVL9:
  66:main.c        ****         PWM_40k_Start();
 100              		.loc 1 66 0 discriminator 1
 101 002e 0520     		movs	r0, #5
 102 0030 FFF7FEFF 		bl	CyDelay
 103              	.LVL10:
  67:main.c        ****         
 104              		.loc 1 67 0 discriminator 1
 105 0034 FFF7FEFF 		bl	PWM_40k_Start
 106              	.LVL11:
 107 0038 EBE7     		b	.L4
 108              	.L7:
 109 003a 00BF     		.align	2
 110              	.L6:
 111 003c 00000000 		.word	WakeupIsr
 112              		.cfi_endproc
 113              	.LFE63:
 114              		.size	main, .-main
 115              		.text
 116              	.Letext0:
 117              		.file 2 "c:\\program files (x86)\\cypress\\psoc creator\\4.1\\psoc creator\\import\\gnu\\arm\\5.4.
 118              		.file 3 "c:\\program files (x86)\\cypress\\psoc creator\\4.1\\psoc creator\\import\\gnu\\arm\\5.4.
 119              		.file 4 "Generated_Source\\PSoC5/SleepTimer.h"
 120              		.file 5 "Generated_Source\\PSoC5/Toggle_Pin.h"
 121              		.file 6 "Generated_Source\\PSoC5/Sleep_ISR.h"
 122              		.file 7 "Generated_Source\\PSoC5/PWM_40k.h"
 123              		.file 8 "Generated_Source\\PSoC5/CyLib.h"
 124              		.file 9 "Generated_Source\\PSoC5/cyPm.h"
 125              		.file 10 "Generated_Source\\PSoC5/core_cm3.h"