ARM GAS  C:\Users\jucsalaz\AppData\Local\Temp\ccDzOoxz.s 			page 1


   1              		.syntax unified
   2              		.cpu cortex-m3
   3              		.fpu softvfp
   4              		.eabi_attribute 20, 1
   5              		.eabi_attribute 21, 1
   6              		.eabi_attribute 23, 3
   7              		.eabi_attribute 24, 1
   8              		.eabi_attribute 25, 1
   9              		.eabi_attribute 26, 1
  10              		.eabi_attribute 30, 1
  11              		.eabi_attribute 34, 1
  12              		.eabi_attribute 18, 4
  13              		.thumb
  14              		.syntax unified
  15              		.file	"cyfitter_cfg.c"
  16              		.text
  17              	.Ltext0:
  18              		.cfi_sections	.debug_frame
  19              		.section	.text.cfg_write_bytes32,"ax",%progbits
  20              		.align	2
  21              		.thumb
  22              		.thumb_func
  23              		.type	cfg_write_bytes32, %function
  24              	cfg_write_bytes32:
  25              	.LFB3:
  26              		.file 1 "Generated_Source\\PSoC5\\cyfitter_cfg.c"
   1:Generated_Source\PSoC5/cyfitter_cfg.c **** 
   2:Generated_Source\PSoC5/cyfitter_cfg.c **** /*******************************************************************************
   3:Generated_Source\PSoC5/cyfitter_cfg.c **** * File Name: cyfitter_cfg.c
   4:Generated_Source\PSoC5/cyfitter_cfg.c **** * 
   5:Generated_Source\PSoC5/cyfitter_cfg.c **** * PSoC Creator  4.1 Update 1
   6:Generated_Source\PSoC5/cyfitter_cfg.c **** *
   7:Generated_Source\PSoC5/cyfitter_cfg.c **** * Description:
   8:Generated_Source\PSoC5/cyfitter_cfg.c **** * This file contains device initialization code.
   9:Generated_Source\PSoC5/cyfitter_cfg.c **** * Except for the user defined sections in CyClockStartupError(), this file should not be modified.
  10:Generated_Source\PSoC5/cyfitter_cfg.c **** * This file is automatically generated by PSoC Creator.
  11:Generated_Source\PSoC5/cyfitter_cfg.c **** *
  12:Generated_Source\PSoC5/cyfitter_cfg.c **** ********************************************************************************
  13:Generated_Source\PSoC5/cyfitter_cfg.c **** * Copyright (c) 2007-2017 Cypress Semiconductor.  All rights reserved.
  14:Generated_Source\PSoC5/cyfitter_cfg.c **** * You may use this file only in accordance with the license, terms, conditions, 
  15:Generated_Source\PSoC5/cyfitter_cfg.c **** * disclaimers, and limitations in the end user license agreement accompanying 
  16:Generated_Source\PSoC5/cyfitter_cfg.c **** * the software package with which this file was provided.
  17:Generated_Source\PSoC5/cyfitter_cfg.c **** ********************************************************************************/
  18:Generated_Source\PSoC5/cyfitter_cfg.c **** 
  19:Generated_Source\PSoC5/cyfitter_cfg.c **** #include <string.h>
  20:Generated_Source\PSoC5/cyfitter_cfg.c **** #include "cytypes.h"
  21:Generated_Source\PSoC5/cyfitter_cfg.c **** #include "cydevice_trm.h"
  22:Generated_Source\PSoC5/cyfitter_cfg.c **** #include "cyfitter.h"
  23:Generated_Source\PSoC5/cyfitter_cfg.c **** #include "CyLib.h"
  24:Generated_Source\PSoC5/cyfitter_cfg.c **** #include "cyfitter_cfg.h"
  25:Generated_Source\PSoC5/cyfitter_cfg.c **** #include "cyapicallbacks.h"
  26:Generated_Source\PSoC5/cyfitter_cfg.c **** 
  27:Generated_Source\PSoC5/cyfitter_cfg.c **** 
  28:Generated_Source\PSoC5/cyfitter_cfg.c **** #if defined(__GNUC__) || defined(__ARMCC_VERSION)
  29:Generated_Source\PSoC5/cyfitter_cfg.c ****     #define CYPACKED 
  30:Generated_Source\PSoC5/cyfitter_cfg.c ****     #define CYPACKED_ATTR __attribute__ ((packed))
  31:Generated_Source\PSoC5/cyfitter_cfg.c ****     #define CYALIGNED __attribute__ ((aligned))
ARM GAS  C:\Users\jucsalaz\AppData\Local\Temp\ccDzOoxz.s 			page 2


  32:Generated_Source\PSoC5/cyfitter_cfg.c ****     #define CY_CFG_UNUSED __attribute__ ((unused))
  33:Generated_Source\PSoC5/cyfitter_cfg.c ****     #ifndef CY_CFG_SECTION
  34:Generated_Source\PSoC5/cyfitter_cfg.c ****         #define CY_CFG_SECTION __attribute__ ((section(".psocinit")))
  35:Generated_Source\PSoC5/cyfitter_cfg.c ****     #endif
  36:Generated_Source\PSoC5/cyfitter_cfg.c ****     
  37:Generated_Source\PSoC5/cyfitter_cfg.c ****     #if defined(__ARMCC_VERSION)
  38:Generated_Source\PSoC5/cyfitter_cfg.c ****         #define CY_CFG_MEMORY_BARRIER() __memory_changed()
  39:Generated_Source\PSoC5/cyfitter_cfg.c ****     #else
  40:Generated_Source\PSoC5/cyfitter_cfg.c ****         #define CY_CFG_MEMORY_BARRIER() __sync_synchronize()
  41:Generated_Source\PSoC5/cyfitter_cfg.c ****     #endif
  42:Generated_Source\PSoC5/cyfitter_cfg.c ****     
  43:Generated_Source\PSoC5/cyfitter_cfg.c **** #elif defined(__ICCARM__)
  44:Generated_Source\PSoC5/cyfitter_cfg.c ****     #include <intrinsics.h>
  45:Generated_Source\PSoC5/cyfitter_cfg.c **** 
  46:Generated_Source\PSoC5/cyfitter_cfg.c ****     #define CYPACKED __packed
  47:Generated_Source\PSoC5/cyfitter_cfg.c ****     #define CYPACKED_ATTR 
  48:Generated_Source\PSoC5/cyfitter_cfg.c ****     #define CYALIGNED _Pragma("data_alignment=4")
  49:Generated_Source\PSoC5/cyfitter_cfg.c ****     #define CY_CFG_UNUSED _Pragma("diag_suppress=Pe177")
  50:Generated_Source\PSoC5/cyfitter_cfg.c ****     #define CY_CFG_SECTION _Pragma("location=\".psocinit\"")
  51:Generated_Source\PSoC5/cyfitter_cfg.c ****     
  52:Generated_Source\PSoC5/cyfitter_cfg.c ****     #define CY_CFG_MEMORY_BARRIER() __DMB()
  53:Generated_Source\PSoC5/cyfitter_cfg.c ****     
  54:Generated_Source\PSoC5/cyfitter_cfg.c **** #else
  55:Generated_Source\PSoC5/cyfitter_cfg.c ****     #error Unsupported toolchain
  56:Generated_Source\PSoC5/cyfitter_cfg.c **** #endif
  57:Generated_Source\PSoC5/cyfitter_cfg.c **** 
  58:Generated_Source\PSoC5/cyfitter_cfg.c **** #ifndef CYCODE
  59:Generated_Source\PSoC5/cyfitter_cfg.c ****     #define CYCODE
  60:Generated_Source\PSoC5/cyfitter_cfg.c **** #endif
  61:Generated_Source\PSoC5/cyfitter_cfg.c **** #ifndef CYDATA
  62:Generated_Source\PSoC5/cyfitter_cfg.c ****     #define CYDATA
  63:Generated_Source\PSoC5/cyfitter_cfg.c **** #endif
  64:Generated_Source\PSoC5/cyfitter_cfg.c **** #ifndef CYFAR
  65:Generated_Source\PSoC5/cyfitter_cfg.c ****     #define CYFAR
  66:Generated_Source\PSoC5/cyfitter_cfg.c **** #endif
  67:Generated_Source\PSoC5/cyfitter_cfg.c **** #ifndef CYXDATA
  68:Generated_Source\PSoC5/cyfitter_cfg.c ****     #define CYXDATA
  69:Generated_Source\PSoC5/cyfitter_cfg.c **** #endif
  70:Generated_Source\PSoC5/cyfitter_cfg.c **** 
  71:Generated_Source\PSoC5/cyfitter_cfg.c **** 
  72:Generated_Source\PSoC5/cyfitter_cfg.c **** CY_CFG_UNUSED
  73:Generated_Source\PSoC5/cyfitter_cfg.c **** static void CYMEMZERO(void *s, size_t n);
  74:Generated_Source\PSoC5/cyfitter_cfg.c **** CY_CFG_UNUSED
  75:Generated_Source\PSoC5/cyfitter_cfg.c **** static void CYMEMZERO(void *s, size_t n)
  76:Generated_Source\PSoC5/cyfitter_cfg.c **** {
  77:Generated_Source\PSoC5/cyfitter_cfg.c **** 	(void)memset(s, 0, n);
  78:Generated_Source\PSoC5/cyfitter_cfg.c **** }
  79:Generated_Source\PSoC5/cyfitter_cfg.c **** CY_CFG_UNUSED
  80:Generated_Source\PSoC5/cyfitter_cfg.c **** static void CYCONFIGCPY(void *dest, const void *src, size_t n);
  81:Generated_Source\PSoC5/cyfitter_cfg.c **** CY_CFG_UNUSED
  82:Generated_Source\PSoC5/cyfitter_cfg.c **** static void CYCONFIGCPY(void *dest, const void *src, size_t n)
  83:Generated_Source\PSoC5/cyfitter_cfg.c **** {
  84:Generated_Source\PSoC5/cyfitter_cfg.c **** 	(void)memcpy(dest, src, n);
  85:Generated_Source\PSoC5/cyfitter_cfg.c **** }
  86:Generated_Source\PSoC5/cyfitter_cfg.c **** CY_CFG_UNUSED
  87:Generated_Source\PSoC5/cyfitter_cfg.c **** static void CYCONFIGCPYCODE(void *dest, const void *src, size_t n);
  88:Generated_Source\PSoC5/cyfitter_cfg.c **** CY_CFG_UNUSED
ARM GAS  C:\Users\jucsalaz\AppData\Local\Temp\ccDzOoxz.s 			page 3


  89:Generated_Source\PSoC5/cyfitter_cfg.c **** static void CYCONFIGCPYCODE(void *dest, const void *src, size_t n)
  90:Generated_Source\PSoC5/cyfitter_cfg.c **** {
  91:Generated_Source\PSoC5/cyfitter_cfg.c **** 	(void)memcpy(dest, src, n);
  92:Generated_Source\PSoC5/cyfitter_cfg.c **** }
  93:Generated_Source\PSoC5/cyfitter_cfg.c **** 
  94:Generated_Source\PSoC5/cyfitter_cfg.c **** 
  95:Generated_Source\PSoC5/cyfitter_cfg.c **** 
  96:Generated_Source\PSoC5/cyfitter_cfg.c **** 
  97:Generated_Source\PSoC5/cyfitter_cfg.c **** /* Clock startup error codes                                                   */
  98:Generated_Source\PSoC5/cyfitter_cfg.c **** #define CYCLOCKSTART_NO_ERROR    0u
  99:Generated_Source\PSoC5/cyfitter_cfg.c **** #define CYCLOCKSTART_XTAL_ERROR  1u
 100:Generated_Source\PSoC5/cyfitter_cfg.c **** #define CYCLOCKSTART_32KHZ_ERROR 2u
 101:Generated_Source\PSoC5/cyfitter_cfg.c **** #define CYCLOCKSTART_PLL_ERROR   3u
 102:Generated_Source\PSoC5/cyfitter_cfg.c **** #define CYCLOCKSTART_FLL_ERROR   4u
 103:Generated_Source\PSoC5/cyfitter_cfg.c **** 
 104:Generated_Source\PSoC5/cyfitter_cfg.c **** 
 105:Generated_Source\PSoC5/cyfitter_cfg.c **** #ifdef CY_NEED_CYCLOCKSTARTUPERROR
 106:Generated_Source\PSoC5/cyfitter_cfg.c **** /*******************************************************************************
 107:Generated_Source\PSoC5/cyfitter_cfg.c **** * Function Name: CyClockStartupError
 108:Generated_Source\PSoC5/cyfitter_cfg.c **** ********************************************************************************
 109:Generated_Source\PSoC5/cyfitter_cfg.c **** * Summary:
 110:Generated_Source\PSoC5/cyfitter_cfg.c **** *  If an error is encountered during clock configuration (crystal startup error,
 111:Generated_Source\PSoC5/cyfitter_cfg.c **** *  PLL lock error, etc.), the system will end up here.  Unless reimplemented by
 112:Generated_Source\PSoC5/cyfitter_cfg.c **** *  the customer, this function will stop in an infinite loop.
 113:Generated_Source\PSoC5/cyfitter_cfg.c **** *
 114:Generated_Source\PSoC5/cyfitter_cfg.c **** * Parameters:
 115:Generated_Source\PSoC5/cyfitter_cfg.c **** *   void
 116:Generated_Source\PSoC5/cyfitter_cfg.c **** *
 117:Generated_Source\PSoC5/cyfitter_cfg.c **** * Return:
 118:Generated_Source\PSoC5/cyfitter_cfg.c **** *   void
 119:Generated_Source\PSoC5/cyfitter_cfg.c **** *
 120:Generated_Source\PSoC5/cyfitter_cfg.c **** *******************************************************************************/
 121:Generated_Source\PSoC5/cyfitter_cfg.c **** CY_CFG_UNUSED
 122:Generated_Source\PSoC5/cyfitter_cfg.c **** static void CyClockStartupError(uint8 errorCode);
 123:Generated_Source\PSoC5/cyfitter_cfg.c **** CY_CFG_UNUSED
 124:Generated_Source\PSoC5/cyfitter_cfg.c **** static void CyClockStartupError(uint8 errorCode)
 125:Generated_Source\PSoC5/cyfitter_cfg.c **** {
 126:Generated_Source\PSoC5/cyfitter_cfg.c ****     /* To remove the compiler warning if errorCode not used. */
 127:Generated_Source\PSoC5/cyfitter_cfg.c **** #if defined(CY_PSOC3) && (CY_PSOC3)
 128:Generated_Source\PSoC5/cyfitter_cfg.c ****     errorCode = errorCode;
 129:Generated_Source\PSoC5/cyfitter_cfg.c **** #else
 130:Generated_Source\PSoC5/cyfitter_cfg.c ****     (void)errorCode;
 131:Generated_Source\PSoC5/cyfitter_cfg.c **** #endif /* CY_PSOC3 */
 132:Generated_Source\PSoC5/cyfitter_cfg.c **** 
 133:Generated_Source\PSoC5/cyfitter_cfg.c ****     /* If we have a clock startup error (bad MHz crystal, PLL lock, etc.),  */
 134:Generated_Source\PSoC5/cyfitter_cfg.c ****     /* we will end up here to allow the customer to implement something to  */
 135:Generated_Source\PSoC5/cyfitter_cfg.c ****     /* deal with the clock condition.                                       */
 136:Generated_Source\PSoC5/cyfitter_cfg.c **** 
 137:Generated_Source\PSoC5/cyfitter_cfg.c **** #ifdef CY_CFG_CLOCK_STARTUP_ERROR_CALLBACK
 138:Generated_Source\PSoC5/cyfitter_cfg.c ****     CY_CFG_Clock_Startup_ErrorCallback();
 139:Generated_Source\PSoC5/cyfitter_cfg.c **** #else
 140:Generated_Source\PSoC5/cyfitter_cfg.c ****     /*  If not using CY_CFG_CLOCK_STARTUP_ERROR_CALLBACK, place your clock startup code here. */
 141:Generated_Source\PSoC5/cyfitter_cfg.c ****     /* `#START CyClockStartupError` */
 142:Generated_Source\PSoC5/cyfitter_cfg.c **** 
 143:Generated_Source\PSoC5/cyfitter_cfg.c **** 
 144:Generated_Source\PSoC5/cyfitter_cfg.c **** 
 145:Generated_Source\PSoC5/cyfitter_cfg.c ****     /* `#END` */
ARM GAS  C:\Users\jucsalaz\AppData\Local\Temp\ccDzOoxz.s 			page 4


 146:Generated_Source\PSoC5/cyfitter_cfg.c **** 
 147:Generated_Source\PSoC5/cyfitter_cfg.c ****     while(1) {}
 148:Generated_Source\PSoC5/cyfitter_cfg.c **** #endif /* CY_CFG_CLOCK_STARTUP_ERROR_CALLBACK */
 149:Generated_Source\PSoC5/cyfitter_cfg.c **** }
 150:Generated_Source\PSoC5/cyfitter_cfg.c **** #endif
 151:Generated_Source\PSoC5/cyfitter_cfg.c **** 
 152:Generated_Source\PSoC5/cyfitter_cfg.c **** #define CY_CFG_BASE_ADDR_COUNT 12u
 153:Generated_Source\PSoC5/cyfitter_cfg.c **** CYPACKED typedef struct
 154:Generated_Source\PSoC5/cyfitter_cfg.c **** {
 155:Generated_Source\PSoC5/cyfitter_cfg.c **** 	uint8 offset;
 156:Generated_Source\PSoC5/cyfitter_cfg.c **** 	uint8 value;
 157:Generated_Source\PSoC5/cyfitter_cfg.c **** } CYPACKED_ATTR cy_cfg_addrvalue_t;
 158:Generated_Source\PSoC5/cyfitter_cfg.c **** 
 159:Generated_Source\PSoC5/cyfitter_cfg.c **** #define cy_cfg_addr_table ((const uint32 CYFAR *)0x48000000u)
 160:Generated_Source\PSoC5/cyfitter_cfg.c **** #define cy_cfg_data_table ((const cy_cfg_addrvalue_t CYFAR *)0x48000030u)
 161:Generated_Source\PSoC5/cyfitter_cfg.c **** 
 162:Generated_Source\PSoC5/cyfitter_cfg.c **** /* IOPINS0_1 Address: CYREG_PRT1_DM0 Size (bytes): 8 */
 163:Generated_Source\PSoC5/cyfitter_cfg.c **** #define BS_IOPINS0_1_VAL ((const uint8 CYFAR *)0x4800024Cu)
 164:Generated_Source\PSoC5/cyfitter_cfg.c **** 
 165:Generated_Source\PSoC5/cyfitter_cfg.c **** 
 166:Generated_Source\PSoC5/cyfitter_cfg.c **** /*******************************************************************************
 167:Generated_Source\PSoC5/cyfitter_cfg.c **** * Function Name: cfg_write_bytes32
 168:Generated_Source\PSoC5/cyfitter_cfg.c **** ********************************************************************************
 169:Generated_Source\PSoC5/cyfitter_cfg.c **** * Summary:
 170:Generated_Source\PSoC5/cyfitter_cfg.c **** *  This function is used for setting up the chip configuration areas that
 171:Generated_Source\PSoC5/cyfitter_cfg.c **** *  contain relatively sparse data.
 172:Generated_Source\PSoC5/cyfitter_cfg.c **** *
 173:Generated_Source\PSoC5/cyfitter_cfg.c **** * Parameters:
 174:Generated_Source\PSoC5/cyfitter_cfg.c **** *   void
 175:Generated_Source\PSoC5/cyfitter_cfg.c **** *
 176:Generated_Source\PSoC5/cyfitter_cfg.c **** * Return:
 177:Generated_Source\PSoC5/cyfitter_cfg.c **** *   void
 178:Generated_Source\PSoC5/cyfitter_cfg.c **** *
 179:Generated_Source\PSoC5/cyfitter_cfg.c **** *******************************************************************************/
 180:Generated_Source\PSoC5/cyfitter_cfg.c **** static void cfg_write_bytes32(const uint32 addr_table[], const cy_cfg_addrvalue_t data_table[]);
 181:Generated_Source\PSoC5/cyfitter_cfg.c **** static void cfg_write_bytes32(const uint32 addr_table[], const cy_cfg_addrvalue_t data_table[])
 182:Generated_Source\PSoC5/cyfitter_cfg.c **** {
  27              		.loc 1 182 0
  28              		.cfi_startproc
  29              		@ args = 0, pretend = 0, frame = 0
  30              		@ frame_needed = 0, uses_anonymous_args = 0
  31              		@ link register save eliminated.
  32              	.LVL0:
  33 0000 F0B4     		push	{r4, r5, r6, r7}
  34              		.cfi_def_cfa_offset 16
  35              		.cfi_offset 4, -16
  36              		.cfi_offset 5, -12
  37              		.cfi_offset 6, -8
  38              		.cfi_offset 7, -4
  39              	.LVL1:
 183:Generated_Source\PSoC5/cyfitter_cfg.c **** 	/* For 32-bit little-endian architectures */
 184:Generated_Source\PSoC5/cyfitter_cfg.c **** 	uint32 i, j = 0u;
  40              		.loc 1 184 0
  41 0002 0022     		movs	r2, #0
 185:Generated_Source\PSoC5/cyfitter_cfg.c **** 	for (i = 0u; i < CY_CFG_BASE_ADDR_COUNT; i++)
  42              		.loc 1 185 0
  43 0004 1746     		mov	r7, r2
ARM GAS  C:\Users\jucsalaz\AppData\Local\Temp\ccDzOoxz.s 			page 5


  44 0006 11E0     		b	.L2
  45              	.LVL2:
  46              	.L5:
  47              	.LBB2:
 186:Generated_Source\PSoC5/cyfitter_cfg.c **** 	{
 187:Generated_Source\PSoC5/cyfitter_cfg.c **** 		uint32 baseAddr = addr_table[i];
  48              		.loc 1 187 0
  49 0008 50F82760 		ldr	r6, [r0, r7, lsl #2]
  50              	.LVL3:
 188:Generated_Source\PSoC5/cyfitter_cfg.c **** 		uint8 count = (uint8)baseAddr;
  51              		.loc 1 188 0
  52 000c F3B2     		uxtb	r3, r6
  53              	.LVL4:
 189:Generated_Source\PSoC5/cyfitter_cfg.c **** 		baseAddr &= 0xFFFFFF00u;
  54              		.loc 1 189 0
  55 000e 26F0FF06 		bic	r6, r6, #255
  56              	.LVL5:
 190:Generated_Source\PSoC5/cyfitter_cfg.c **** 		while (count != 0u)
  57              		.loc 1 190 0
  58 0012 08E0     		b	.L3
  59              	.L4:
 191:Generated_Source\PSoC5/cyfitter_cfg.c **** 		{
 192:Generated_Source\PSoC5/cyfitter_cfg.c **** 			CY_SET_REG8((void *)(baseAddr + data_table[j].offset), data_table[j].value);
  60              		.loc 1 192 0
  61 0014 01EB4205 		add	r5, r1, r2, lsl #1
  62 0018 11F81240 		ldrb	r4, [r1, r2, lsl #1]	@ zero_extendqisi2
  63 001c 6D78     		ldrb	r5, [r5, #1]	@ zero_extendqisi2
  64 001e A555     		strb	r5, [r4, r6]
 193:Generated_Source\PSoC5/cyfitter_cfg.c **** 			j++;
  65              		.loc 1 193 0
  66 0020 0132     		adds	r2, r2, #1
  67              	.LVL6:
 194:Generated_Source\PSoC5/cyfitter_cfg.c **** 			count--;
  68              		.loc 1 194 0
  69 0022 013B     		subs	r3, r3, #1
  70              	.LVL7:
  71 0024 DBB2     		uxtb	r3, r3
  72              	.LVL8:
  73              	.L3:
 190:Generated_Source\PSoC5/cyfitter_cfg.c **** 		{
  74              		.loc 1 190 0
  75 0026 002B     		cmp	r3, #0
  76 0028 F4D1     		bne	.L4
  77              	.LBE2:
 185:Generated_Source\PSoC5/cyfitter_cfg.c **** 	{
  78              		.loc 1 185 0 discriminator 2
  79 002a 0137     		adds	r7, r7, #1
  80              	.LVL9:
  81              	.L2:
 185:Generated_Source\PSoC5/cyfitter_cfg.c **** 	{
  82              		.loc 1 185 0 is_stmt 0 discriminator 1
  83 002c 0B2F     		cmp	r7, #11
  84 002e EBD9     		bls	.L5
 195:Generated_Source\PSoC5/cyfitter_cfg.c **** 		}
 196:Generated_Source\PSoC5/cyfitter_cfg.c **** 	}
 197:Generated_Source\PSoC5/cyfitter_cfg.c **** }
  85              		.loc 1 197 0 is_stmt 1
ARM GAS  C:\Users\jucsalaz\AppData\Local\Temp\ccDzOoxz.s 			page 6


  86 0030 F0BC     		pop	{r4, r5, r6, r7}
  87              		.cfi_restore 7
  88              		.cfi_restore 6
  89              		.cfi_restore 5
  90              		.cfi_restore 4
  91              		.cfi_def_cfa_offset 0
  92              	.LVL10:
  93 0032 7047     		bx	lr
  94              		.cfi_endproc
  95              	.LFE3:
  96              		.size	cfg_write_bytes32, .-cfg_write_bytes32
  97              		.section	.text.ClockSetup,"ax",%progbits
  98              		.align	2
  99              		.thumb
 100              		.thumb_func
 101              		.type	ClockSetup, %function
 102              	ClockSetup:
 103              	.LFB4:
 198:Generated_Source\PSoC5/cyfitter_cfg.c **** 
 199:Generated_Source\PSoC5/cyfitter_cfg.c **** /*******************************************************************************
 200:Generated_Source\PSoC5/cyfitter_cfg.c **** * Function Name: ClockSetup
 201:Generated_Source\PSoC5/cyfitter_cfg.c **** ********************************************************************************
 202:Generated_Source\PSoC5/cyfitter_cfg.c **** *
 203:Generated_Source\PSoC5/cyfitter_cfg.c **** * Summary:
 204:Generated_Source\PSoC5/cyfitter_cfg.c **** *  Performs the initialization of all of the clocks in the device based on the
 205:Generated_Source\PSoC5/cyfitter_cfg.c **** *  settings in the Clock tab of the DWR.  This includes enabling the requested
 206:Generated_Source\PSoC5/cyfitter_cfg.c **** *  clocks and setting the necessary dividers to produce the desired frequency. 
 207:Generated_Source\PSoC5/cyfitter_cfg.c **** *
 208:Generated_Source\PSoC5/cyfitter_cfg.c **** * Parameters:
 209:Generated_Source\PSoC5/cyfitter_cfg.c **** *  void
 210:Generated_Source\PSoC5/cyfitter_cfg.c **** *
 211:Generated_Source\PSoC5/cyfitter_cfg.c **** * Return:
 212:Generated_Source\PSoC5/cyfitter_cfg.c **** *  void
 213:Generated_Source\PSoC5/cyfitter_cfg.c **** *
 214:Generated_Source\PSoC5/cyfitter_cfg.c **** *******************************************************************************/
 215:Generated_Source\PSoC5/cyfitter_cfg.c **** static void ClockSetup(void);
 216:Generated_Source\PSoC5/cyfitter_cfg.c **** static void ClockSetup(void)
 217:Generated_Source\PSoC5/cyfitter_cfg.c **** {
 104              		.loc 1 217 0
 105              		.cfi_startproc
 106              		@ args = 0, pretend = 0, frame = 0
 107              		@ frame_needed = 0, uses_anonymous_args = 0
 108              		@ link register save eliminated.
 109 0000 10B4     		push	{r4}
 110              		.cfi_def_cfa_offset 4
 111              		.cfi_offset 4, -4
 218:Generated_Source\PSoC5/cyfitter_cfg.c **** 
 219:Generated_Source\PSoC5/cyfitter_cfg.c **** 
 220:Generated_Source\PSoC5/cyfitter_cfg.c **** 	/* Configure Digital Clocks based on settings from Clock DWR */
 221:Generated_Source\PSoC5/cyfitter_cfg.c **** 	CY_SET_XTND_REG16((void CYFAR *)(CYREG_CLKDIST_DCFG0_CFG0), 0x0000u);
 112              		.loc 1 221 0
 113 0002 0023     		movs	r3, #0
 114 0004 194A     		ldr	r2, .L9
 115 0006 1380     		strh	r3, [r2]	@ movhi
 222:Generated_Source\PSoC5/cyfitter_cfg.c **** 	CY_SET_XTND_REG8((void CYFAR *)(CYREG_CLKDIST_DCFG0_CFG0 + 0x2u), 0x58u);
 116              		.loc 1 222 0
 117 0008 5822     		movs	r2, #88
ARM GAS  C:\Users\jucsalaz\AppData\Local\Temp\ccDzOoxz.s 			page 7


 118 000a 1949     		ldr	r1, .L9+4
 119 000c 0A70     		strb	r2, [r1]
 223:Generated_Source\PSoC5/cyfitter_cfg.c **** 	CY_SET_XTND_REG16((void CYFAR *)(CYREG_CLKDIST_DCFG1_CFG0), 0x0000u);
 120              		.loc 1 223 0
 121 000e 0231     		adds	r1, r1, #2
 122 0010 0B80     		strh	r3, [r1]	@ movhi
 224:Generated_Source\PSoC5/cyfitter_cfg.c **** 	CY_SET_XTND_REG8((void CYFAR *)(CYREG_CLKDIST_DCFG1_CFG0 + 0x2u), 0x58u);
 123              		.loc 1 224 0
 124 0012 0231     		adds	r1, r1, #2
 125 0014 0A70     		strb	r2, [r1]
 225:Generated_Source\PSoC5/cyfitter_cfg.c **** 	CY_SET_XTND_REG16((void CYFAR *)(CYREG_CLKDIST_DCFG2_CFG0), 0x0005u);
 126              		.loc 1 225 0
 127 0016 0521     		movs	r1, #5
 128 0018 164A     		ldr	r2, .L9+8
 129 001a 1180     		strh	r1, [r2]	@ movhi
 226:Generated_Source\PSoC5/cyfitter_cfg.c **** 	CY_SET_XTND_REG8((void CYFAR *)(CYREG_CLKDIST_DCFG2_CFG0 + 0x2u), 0x19u);
 130              		.loc 1 226 0
 131 001c 1921     		movs	r1, #25
 132 001e 0232     		adds	r2, r2, #2
 133 0020 1170     		strb	r1, [r2]
 227:Generated_Source\PSoC5/cyfitter_cfg.c **** 
 228:Generated_Source\PSoC5/cyfitter_cfg.c **** 	/* Configure ILO based on settings from Clock DWR */
 229:Generated_Source\PSoC5/cyfitter_cfg.c **** 	CY_SET_XTND_REG8((void CYFAR *)(CYREG_SLOWCLK_ILO_CR0), 0x02u);
 134              		.loc 1 229 0
 135 0022 0221     		movs	r1, #2
 136 0024 02F27622 		addw	r2, r2, #630
 137 0028 1170     		strb	r1, [r2]
 230:Generated_Source\PSoC5/cyfitter_cfg.c **** 	CY_SET_XTND_REG8((void CYFAR *)(CYREG_CLKDIST_CR), 0x08u);
 138              		.loc 1 230 0
 139 002a 0820     		movs	r0, #8
 140 002c 4FF04022 		mov	r2, #1073758208
 141 0030 1070     		strb	r0, [r2]
 231:Generated_Source\PSoC5/cyfitter_cfg.c **** 
 232:Generated_Source\PSoC5/cyfitter_cfg.c **** 	/* Configure IMO based on settings from Clock DWR */
 233:Generated_Source\PSoC5/cyfitter_cfg.c **** 	CY_SET_XTND_REG8((void CYFAR *)(CYREG_FASTCLK_IMO_CR), 0x03u);
 142              		.loc 1 233 0
 143 0032 0320     		movs	r0, #3
 144 0034 02F50072 		add	r2, r2, #512
 145 0038 1070     		strb	r0, [r2]
 234:Generated_Source\PSoC5/cyfitter_cfg.c **** 	CY_SET_XTND_REG8((void CYFAR *)(CYREG_IMO_TR1), (CY_GET_XTND_REG8((void CYFAR *)CYREG_FLSHID_CUST_
 146              		.loc 1 234 0
 147 003a 0F4A     		ldr	r2, .L9+12
 148 003c 1278     		ldrb	r2, [r2]	@ zero_extendqisi2
 149 003e D2B2     		uxtb	r2, r2
 150 0040 0E48     		ldr	r0, .L9+16
 151 0042 0270     		strb	r2, [r0]
 235:Generated_Source\PSoC5/cyfitter_cfg.c **** 
 236:Generated_Source\PSoC5/cyfitter_cfg.c **** 	/* Configure Bus/Master Clock based on settings from Clock DWR */
 237:Generated_Source\PSoC5/cyfitter_cfg.c **** 	CY_SET_XTND_REG16((void CYFAR *)(CYREG_CLKDIST_MSTR0), 0x0000u);
 152              		.loc 1 237 0
 153 0044 0E4A     		ldr	r2, .L9+20
 154 0046 1380     		strh	r3, [r2]	@ movhi
 238:Generated_Source\PSoC5/cyfitter_cfg.c **** 	CY_SET_XTND_REG8((void CYFAR *)(CYREG_CLKDIST_MSTR0), 0x07u);
 155              		.loc 1 238 0
 156 0048 0720     		movs	r0, #7
 157 004a 1070     		strb	r0, [r2]
 239:Generated_Source\PSoC5/cyfitter_cfg.c **** 	CY_SET_XTND_REG8((void CYFAR *)(CYREG_CLKDIST_BCFG0), 0x00u);
ARM GAS  C:\Users\jucsalaz\AppData\Local\Temp\ccDzOoxz.s 			page 8


 158              		.loc 1 239 0
 159 004c 0D48     		ldr	r0, .L9+24
 160 004e 0370     		strb	r3, [r0]
 240:Generated_Source\PSoC5/cyfitter_cfg.c **** 	CY_SET_XTND_REG8((void CYFAR *)(CYREG_CLKDIST_BCFG2), 0x48u);
 161              		.loc 1 240 0
 162 0050 4824     		movs	r4, #72
 163 0052 0230     		adds	r0, r0, #2
 164 0054 0470     		strb	r4, [r0]
 241:Generated_Source\PSoC5/cyfitter_cfg.c **** 	CY_SET_XTND_REG8((void CYFAR *)(CYREG_CLKDIST_MSTR0), 0x00u);
 165              		.loc 1 241 0
 166 0056 1370     		strb	r3, [r2]
 242:Generated_Source\PSoC5/cyfitter_cfg.c **** 	CY_SET_XTND_REG8((void CYFAR *)(CYREG_CLKDIST_LD), 0x02u);
 167              		.loc 1 242 0
 168 0058 0B4B     		ldr	r3, .L9+28
 169 005a 1970     		strb	r1, [r3]
 243:Generated_Source\PSoC5/cyfitter_cfg.c **** 
 244:Generated_Source\PSoC5/cyfitter_cfg.c **** 	CY_SET_XTND_REG8((void CYFAR *)(CYREG_PM_ACT_CFG2), ((CY_GET_XTND_REG8((void CYFAR *)CYREG_PM_ACT_
 170              		.loc 1 244 0
 171 005c 02F29E32 		addw	r2, r2, #926
 172 0060 1378     		ldrb	r3, [r2]	@ zero_extendqisi2
 173 0062 43F00703 		orr	r3, r3, #7
 174 0066 1370     		strb	r3, [r2]
 245:Generated_Source\PSoC5/cyfitter_cfg.c **** }
 175              		.loc 1 245 0
 176 0068 10BC     		pop	{r4}
 177              		.cfi_restore 4
 178              		.cfi_def_cfa_offset 0
 179 006a 7047     		bx	lr
 180              	.L10:
 181              		.align	2
 182              	.L9:
 183 006c 80400040 		.word	1073758336
 184 0070 82400040 		.word	1073758338
 185 0074 88400040 		.word	1073758344
 186 0078 08010049 		.word	1224737032
 187 007c A1460040 		.word	1073759905
 188 0080 04400040 		.word	1073758212
 189 0084 06400040 		.word	1073758214
 190 0088 01400040 		.word	1073758209
 191              		.cfi_endproc
 192              	.LFE4:
 193              		.size	ClockSetup, .-ClockSetup
 194              		.section	.text.AnalogSetDefault,"ax",%progbits
 195              		.align	2
 196              		.thumb
 197              		.thumb_func
 198              		.type	AnalogSetDefault, %function
 199              	AnalogSetDefault:
 200              	.LFB5:
 246:Generated_Source\PSoC5/cyfitter_cfg.c **** 
 247:Generated_Source\PSoC5/cyfitter_cfg.c **** 
 248:Generated_Source\PSoC5/cyfitter_cfg.c **** /* Analog API Functions */
 249:Generated_Source\PSoC5/cyfitter_cfg.c **** 
 250:Generated_Source\PSoC5/cyfitter_cfg.c **** 
 251:Generated_Source\PSoC5/cyfitter_cfg.c **** /*******************************************************************************
 252:Generated_Source\PSoC5/cyfitter_cfg.c **** * Function Name: AnalogSetDefault
 253:Generated_Source\PSoC5/cyfitter_cfg.c **** ********************************************************************************
ARM GAS  C:\Users\jucsalaz\AppData\Local\Temp\ccDzOoxz.s 			page 9


 254:Generated_Source\PSoC5/cyfitter_cfg.c **** *
 255:Generated_Source\PSoC5/cyfitter_cfg.c **** * Summary:
 256:Generated_Source\PSoC5/cyfitter_cfg.c **** *  Sets up the analog portions of the chip to default values based on chip
 257:Generated_Source\PSoC5/cyfitter_cfg.c **** *  configuration options from the project.
 258:Generated_Source\PSoC5/cyfitter_cfg.c **** *
 259:Generated_Source\PSoC5/cyfitter_cfg.c **** * Parameters:
 260:Generated_Source\PSoC5/cyfitter_cfg.c **** *  void
 261:Generated_Source\PSoC5/cyfitter_cfg.c **** *
 262:Generated_Source\PSoC5/cyfitter_cfg.c **** * Return:
 263:Generated_Source\PSoC5/cyfitter_cfg.c **** *  void
 264:Generated_Source\PSoC5/cyfitter_cfg.c **** *
 265:Generated_Source\PSoC5/cyfitter_cfg.c **** *******************************************************************************/
 266:Generated_Source\PSoC5/cyfitter_cfg.c **** static void AnalogSetDefault(void);
 267:Generated_Source\PSoC5/cyfitter_cfg.c **** static void AnalogSetDefault(void)
 268:Generated_Source\PSoC5/cyfitter_cfg.c **** {
 201              		.loc 1 268 0
 202              		.cfi_startproc
 203              		@ args = 0, pretend = 0, frame = 0
 204              		@ frame_needed = 0, uses_anonymous_args = 0
 205              		@ link register save eliminated.
 269:Generated_Source\PSoC5/cyfitter_cfg.c **** 	uint8 bg_xover_inl_trim = CY_GET_XTND_REG8((void CYFAR *)(CYREG_FLSHID_MFG_CFG_BG_XOVER_INL_TRIM +
 206              		.loc 1 269 0
 207 0000 064B     		ldr	r3, .L12
 208 0002 1B78     		ldrb	r3, [r3]	@ zero_extendqisi2
 209 0004 DBB2     		uxtb	r3, r3
 210              	.LVL11:
 270:Generated_Source\PSoC5/cyfitter_cfg.c **** 	CY_SET_XTND_REG8((void CYFAR *)(CYREG_BG_DFT0), (bg_xover_inl_trim & 0x07u));
 211              		.loc 1 270 0
 212 0006 03F00701 		and	r1, r3, #7
 213 000a 054A     		ldr	r2, .L12+4
 214 000c 1170     		strb	r1, [r2]
 271:Generated_Source\PSoC5/cyfitter_cfg.c **** 	CY_SET_XTND_REG8((void CYFAR *)(CYREG_BG_DFT1), ((bg_xover_inl_trim >> 4) & 0x0Fu));
 215              		.loc 1 271 0
 216 000e 1B09     		lsrs	r3, r3, #4
 217              	.LVL12:
 218 0010 0132     		adds	r2, r2, #1
 219 0012 1370     		strb	r3, [r2]
 272:Generated_Source\PSoC5/cyfitter_cfg.c **** 	CY_SET_XTND_REG8((void CYFAR *)CYREG_PUMP_CR0, 0x44u);
 220              		.loc 1 272 0
 221 0014 4422     		movs	r2, #68
 222 0016 034B     		ldr	r3, .L12+8
 223 0018 1A70     		strb	r2, [r3]
 224 001a 7047     		bx	lr
 225              	.L13:
 226              		.align	2
 227              	.L12:
 228 001c CF010049 		.word	1224737231
 229 0020 6E580040 		.word	1073764462
 230 0024 76580040 		.word	1073764470
 231              		.cfi_endproc
 232              	.LFE5:
 233              		.size	AnalogSetDefault, .-AnalogSetDefault
 234              		.section	.text.CYMEMZERO,"ax",%progbits
 235              		.align	2
 236              		.thumb
 237              		.thumb_func
 238              		.type	CYMEMZERO, %function
ARM GAS  C:\Users\jucsalaz\AppData\Local\Temp\ccDzOoxz.s 			page 10


 239              	CYMEMZERO:
 240              	.LFB0:
  76:Generated_Source\PSoC5/cyfitter_cfg.c **** 	(void)memset(s, 0, n);
 241              		.loc 1 76 0
 242              		.cfi_startproc
 243              		@ args = 0, pretend = 0, frame = 0
 244              		@ frame_needed = 0, uses_anonymous_args = 0
 245              	.LVL13:
 246 0000 08B5     		push	{r3, lr}
 247              		.cfi_def_cfa_offset 8
 248              		.cfi_offset 3, -8
 249              		.cfi_offset 14, -4
  77:Generated_Source\PSoC5/cyfitter_cfg.c **** }
 250              		.loc 1 77 0
 251 0002 0A46     		mov	r2, r1
 252 0004 0021     		movs	r1, #0
 253              	.LVL14:
 254 0006 FFF7FEFF 		bl	memset
 255              	.LVL15:
 256 000a 08BD     		pop	{r3, pc}
 257              		.cfi_endproc
 258              	.LFE0:
 259              		.size	CYMEMZERO, .-CYMEMZERO
 260              		.section	.text.CYCONFIGCPY,"ax",%progbits
 261              		.align	2
 262              		.thumb
 263              		.thumb_func
 264              		.type	CYCONFIGCPY, %function
 265              	CYCONFIGCPY:
 266              	.LFB1:
  83:Generated_Source\PSoC5/cyfitter_cfg.c **** 	(void)memcpy(dest, src, n);
 267              		.loc 1 83 0
 268              		.cfi_startproc
 269              		@ args = 0, pretend = 0, frame = 0
 270              		@ frame_needed = 0, uses_anonymous_args = 0
 271              	.LVL16:
 272 0000 08B5     		push	{r3, lr}
 273              		.cfi_def_cfa_offset 8
 274              		.cfi_offset 3, -8
 275              		.cfi_offset 14, -4
  84:Generated_Source\PSoC5/cyfitter_cfg.c **** }
 276              		.loc 1 84 0
 277 0002 FFF7FEFF 		bl	memcpy
 278              	.LVL17:
 279 0006 08BD     		pop	{r3, pc}
 280              		.cfi_endproc
 281              	.LFE1:
 282              		.size	CYCONFIGCPY, .-CYCONFIGCPY
 283              		.section	.text.SetAnalogRoutingPumps,"ax",%progbits
 284              		.align	2
 285              		.global	SetAnalogRoutingPumps
 286              		.thumb
 287              		.thumb_func
 288              		.type	SetAnalogRoutingPumps, %function
 289              	SetAnalogRoutingPumps:
 290              	.LFB6:
 273:Generated_Source\PSoC5/cyfitter_cfg.c **** }
ARM GAS  C:\Users\jucsalaz\AppData\Local\Temp\ccDzOoxz.s 			page 11


 274:Generated_Source\PSoC5/cyfitter_cfg.c **** 
 275:Generated_Source\PSoC5/cyfitter_cfg.c **** 
 276:Generated_Source\PSoC5/cyfitter_cfg.c **** /*******************************************************************************
 277:Generated_Source\PSoC5/cyfitter_cfg.c **** * Function Name: SetAnalogRoutingPumps
 278:Generated_Source\PSoC5/cyfitter_cfg.c **** ********************************************************************************
 279:Generated_Source\PSoC5/cyfitter_cfg.c **** *
 280:Generated_Source\PSoC5/cyfitter_cfg.c **** * Summary:
 281:Generated_Source\PSoC5/cyfitter_cfg.c **** * Enables or disables the analog pumps feeding analog routing switches.
 282:Generated_Source\PSoC5/cyfitter_cfg.c **** * Intended to be called at startup, based on the Vdda system configuration;
 283:Generated_Source\PSoC5/cyfitter_cfg.c **** * may be called during operation when the user informs us that the Vdda voltage
 284:Generated_Source\PSoC5/cyfitter_cfg.c **** * crossed the pump threshold.
 285:Generated_Source\PSoC5/cyfitter_cfg.c **** *
 286:Generated_Source\PSoC5/cyfitter_cfg.c **** * Parameters:
 287:Generated_Source\PSoC5/cyfitter_cfg.c **** *  enabled - 1 to enable the pumps, 0 to disable the pumps
 288:Generated_Source\PSoC5/cyfitter_cfg.c **** *
 289:Generated_Source\PSoC5/cyfitter_cfg.c **** * Return:
 290:Generated_Source\PSoC5/cyfitter_cfg.c **** *  void
 291:Generated_Source\PSoC5/cyfitter_cfg.c **** *
 292:Generated_Source\PSoC5/cyfitter_cfg.c **** *******************************************************************************/
 293:Generated_Source\PSoC5/cyfitter_cfg.c **** void SetAnalogRoutingPumps(uint8 enabled)
 294:Generated_Source\PSoC5/cyfitter_cfg.c **** {
 291              		.loc 1 294 0
 292              		.cfi_startproc
 293              		@ args = 0, pretend = 0, frame = 0
 294              		@ frame_needed = 0, uses_anonymous_args = 0
 295              		@ link register save eliminated.
 296              	.LVL18:
 295:Generated_Source\PSoC5/cyfitter_cfg.c **** 	uint8 regValue = CY_GET_XTND_REG8((void CYFAR *)CYREG_PUMP_CR0);
 297              		.loc 1 295 0
 298 0000 024A     		ldr	r2, .L19
 299 0002 1378     		ldrb	r3, [r2]	@ zero_extendqisi2
 300 0004 DBB2     		uxtb	r3, r3
 301              	.LVL19:
 296:Generated_Source\PSoC5/cyfitter_cfg.c **** 	if (enabled != 0u)
 297:Generated_Source\PSoC5/cyfitter_cfg.c **** 	{
 298:Generated_Source\PSoC5/cyfitter_cfg.c **** 		regValue |= 0x00u;
 299:Generated_Source\PSoC5/cyfitter_cfg.c **** 	}
 300:Generated_Source\PSoC5/cyfitter_cfg.c **** 	else
 301:Generated_Source\PSoC5/cyfitter_cfg.c **** 	{
 302:Generated_Source\PSoC5/cyfitter_cfg.c **** 		regValue &= (uint8)~0x00u;
 303:Generated_Source\PSoC5/cyfitter_cfg.c **** 	}
 304:Generated_Source\PSoC5/cyfitter_cfg.c **** 	CY_SET_XTND_REG8((void CYFAR *)CYREG_PUMP_CR0, regValue);
 302              		.loc 1 304 0
 303 0006 1370     		strb	r3, [r2]
 304 0008 7047     		bx	lr
 305              	.L20:
 306 000a 00BF     		.align	2
 307              	.L19:
 308 000c 76580040 		.word	1073764470
 309              		.cfi_endproc
 310              	.LFE6:
 311              		.size	SetAnalogRoutingPumps, .-SetAnalogRoutingPumps
 312              		.section	.text.cyfitter_cfg,"ax",%progbits
 313              		.align	2
 314              		.global	cyfitter_cfg
 315              		.thumb
 316              		.thumb_func
ARM GAS  C:\Users\jucsalaz\AppData\Local\Temp\ccDzOoxz.s 			page 12


 317              		.type	cyfitter_cfg, %function
 318              	cyfitter_cfg:
 319              	.LFB7:
 305:Generated_Source\PSoC5/cyfitter_cfg.c **** }
 306:Generated_Source\PSoC5/cyfitter_cfg.c **** 
 307:Generated_Source\PSoC5/cyfitter_cfg.c **** 
 308:Generated_Source\PSoC5/cyfitter_cfg.c **** 
 309:Generated_Source\PSoC5/cyfitter_cfg.c **** 
 310:Generated_Source\PSoC5/cyfitter_cfg.c **** /*******************************************************************************
 311:Generated_Source\PSoC5/cyfitter_cfg.c **** * Function Name: cyfitter_cfg
 312:Generated_Source\PSoC5/cyfitter_cfg.c **** ********************************************************************************
 313:Generated_Source\PSoC5/cyfitter_cfg.c **** * Summary:
 314:Generated_Source\PSoC5/cyfitter_cfg.c **** *  This function is called by the start-up code for the selected device. It
 315:Generated_Source\PSoC5/cyfitter_cfg.c **** *  performs all of the necessary device configuration based on the design
 316:Generated_Source\PSoC5/cyfitter_cfg.c **** *  settings.  This includes settings from the Design Wide Resources (DWR) such
 317:Generated_Source\PSoC5/cyfitter_cfg.c **** *  as Clocks and Pins as well as any component configuration that is necessary.
 318:Generated_Source\PSoC5/cyfitter_cfg.c **** *
 319:Generated_Source\PSoC5/cyfitter_cfg.c **** * Parameters:
 320:Generated_Source\PSoC5/cyfitter_cfg.c **** *   void
 321:Generated_Source\PSoC5/cyfitter_cfg.c **** *
 322:Generated_Source\PSoC5/cyfitter_cfg.c **** * Return:
 323:Generated_Source\PSoC5/cyfitter_cfg.c **** *   void
 324:Generated_Source\PSoC5/cyfitter_cfg.c **** *
 325:Generated_Source\PSoC5/cyfitter_cfg.c **** *******************************************************************************/
 326:Generated_Source\PSoC5/cyfitter_cfg.c **** 
 327:Generated_Source\PSoC5/cyfitter_cfg.c **** void cyfitter_cfg(void)
 328:Generated_Source\PSoC5/cyfitter_cfg.c **** {
 320              		.loc 1 328 0
 321              		.cfi_startproc
 322              		@ args = 0, pretend = 0, frame = 0
 323              		@ frame_needed = 0, uses_anonymous_args = 0
 324 0000 38B5     		push	{r3, r4, r5, lr}
 325              		.cfi_def_cfa_offset 16
 326              		.cfi_offset 3, -16
 327              		.cfi_offset 4, -12
 328              		.cfi_offset 5, -8
 329              		.cfi_offset 14, -4
 329:Generated_Source\PSoC5/cyfitter_cfg.c **** #ifdef CYGlobalIntDisable
 330:Generated_Source\PSoC5/cyfitter_cfg.c **** 	/* Disable interrupts by default. Let user enable if/when they want. */
 331:Generated_Source\PSoC5/cyfitter_cfg.c **** 	CYGlobalIntDisable
 330              		.loc 1 331 0
 331              		.syntax unified
 332              	@ 331 "Generated_Source\PSoC5\cyfitter_cfg.c" 1
 333 0002 72B6     		CPSID   i
 334              	@ 0 "" 2
 332:Generated_Source\PSoC5/cyfitter_cfg.c **** #endif
 333:Generated_Source\PSoC5/cyfitter_cfg.c **** 
 334:Generated_Source\PSoC5/cyfitter_cfg.c **** 	/* Enable/Disable Debug functionality based on settings from System DWR */
 335:Generated_Source\PSoC5/cyfitter_cfg.c **** 	CY_SET_XTND_REG8((void CYFAR *)CYREG_MLOGIC_DEBUG, (CY_GET_XTND_REG8((void CYFAR *)CYREG_MLOGIC_DE
 335              		.loc 1 335 0
 336              		.thumb
 337              		.syntax unified
 338 0004 264A     		ldr	r2, .L25
 339 0006 1378     		ldrb	r3, [r2]	@ zero_extendqisi2
 340 0008 43F00403 		orr	r3, r3, #4
 341 000c 1370     		strb	r3, [r2]
 342              	.LVL20:
ARM GAS  C:\Users\jucsalaz\AppData\Local\Temp\ccDzOoxz.s 			page 13


 343              	.LBB3:
 336:Generated_Source\PSoC5/cyfitter_cfg.c **** 
 337:Generated_Source\PSoC5/cyfitter_cfg.c **** 	{
 338:Generated_Source\PSoC5/cyfitter_cfg.c **** 
 339:Generated_Source\PSoC5/cyfitter_cfg.c **** 		CYPACKED typedef struct {
 340:Generated_Source\PSoC5/cyfitter_cfg.c **** 			void CYFAR *address;
 341:Generated_Source\PSoC5/cyfitter_cfg.c **** 			uint16 size;
 342:Generated_Source\PSoC5/cyfitter_cfg.c **** 		} CYPACKED_ATTR cfg_memset_t;
 343:Generated_Source\PSoC5/cyfitter_cfg.c **** 
 344:Generated_Source\PSoC5/cyfitter_cfg.c **** 		static const cfg_memset_t CYCODE cfg_memset_list[] = {
 345:Generated_Source\PSoC5/cyfitter_cfg.c **** 			/* address, size */
 346:Generated_Source\PSoC5/cyfitter_cfg.c **** 			{(void CYFAR *)(CYREG_PRT0_DR), 16u},
 347:Generated_Source\PSoC5/cyfitter_cfg.c **** 			{(void CYFAR *)(CYREG_PRT2_DR), 80u},
 348:Generated_Source\PSoC5/cyfitter_cfg.c **** 			{(void CYFAR *)(CYREG_PRT12_DR), 16u},
 349:Generated_Source\PSoC5/cyfitter_cfg.c **** 			{(void CYFAR *)(CYREG_PRT15_DR), 16u},
 350:Generated_Source\PSoC5/cyfitter_cfg.c **** 			{(void CYFAR *)(CYDEV_UCFG_B0_P0_U0_BASE), 4096u},
 351:Generated_Source\PSoC5/cyfitter_cfg.c **** 			{(void CYFAR *)(CYDEV_UCFG_B1_P2_U0_BASE), 2048u},
 352:Generated_Source\PSoC5/cyfitter_cfg.c **** 			{(void CYFAR *)(CYDEV_UCFG_DSI0_BASE), 2560u},
 353:Generated_Source\PSoC5/cyfitter_cfg.c **** 			{(void CYFAR *)(CYDEV_UCFG_DSI12_BASE), 512u},
 354:Generated_Source\PSoC5/cyfitter_cfg.c **** 			{(void CYFAR *)(CYREG_BCTL0_MDCLK_EN), 32u},
 355:Generated_Source\PSoC5/cyfitter_cfg.c **** 		};
 356:Generated_Source\PSoC5/cyfitter_cfg.c **** 
 357:Generated_Source\PSoC5/cyfitter_cfg.c **** 		uint8 CYDATA i;
 358:Generated_Source\PSoC5/cyfitter_cfg.c **** 
 359:Generated_Source\PSoC5/cyfitter_cfg.c **** 		/* Zero out critical memory blocks before beginning configuration */
 360:Generated_Source\PSoC5/cyfitter_cfg.c **** 		for (i = 0u; i < (sizeof(cfg_memset_list)/sizeof(cfg_memset_list[0])); i++)
 344              		.loc 1 360 0
 345 000e 0024     		movs	r4, #0
 346 0010 0CE0     		b	.L22
 347              	.LVL21:
 348              	.L23:
 349              	.LBB4:
 361:Generated_Source\PSoC5/cyfitter_cfg.c **** 		{
 362:Generated_Source\PSoC5/cyfitter_cfg.c **** 			const cfg_memset_t CYCODE * CYDATA ms = &cfg_memset_list[i];
 363:Generated_Source\PSoC5/cyfitter_cfg.c **** 			CYMEMZERO(ms->address, (size_t)(uint32)(ms->size));
 350              		.loc 1 363 0 discriminator 3
 351 0012 244D     		ldr	r5, .L25+4
 352 0014 6300     		lsls	r3, r4, #1
 353 0016 1919     		adds	r1, r3, r4
 354 0018 4A00     		lsls	r2, r1, #1
 355 001a 1146     		mov	r1, r2
 356 001c 2A44     		add	r2, r2, r5
 357 001e 0846     		mov	r0, r1
 358 0020 9188     		ldrh	r1, [r2, #4]
 359 0022 2858     		ldr	r0, [r5, r0]	@ unaligned
 360 0024 FFF7FEFF 		bl	CYMEMZERO
 361              	.LVL22:
 362              	.LBE4:
 360:Generated_Source\PSoC5/cyfitter_cfg.c **** 		{
 363              		.loc 1 360 0 discriminator 3
 364 0028 0134     		adds	r4, r4, #1
 365              	.LVL23:
 366 002a E4B2     		uxtb	r4, r4
 367              	.LVL24:
 368              	.L22:
 360:Generated_Source\PSoC5/cyfitter_cfg.c **** 		{
 369              		.loc 1 360 0 is_stmt 0 discriminator 1
ARM GAS  C:\Users\jucsalaz\AppData\Local\Temp\ccDzOoxz.s 			page 14


 370 002c 082C     		cmp	r4, #8
 371 002e F0D9     		bls	.L23
 364:Generated_Source\PSoC5/cyfitter_cfg.c **** 		}
 365:Generated_Source\PSoC5/cyfitter_cfg.c **** 
 366:Generated_Source\PSoC5/cyfitter_cfg.c **** 		cfg_write_bytes32(cy_cfg_addr_table, cy_cfg_data_table);
 372              		.loc 1 366 0 is_stmt 1
 373 0030 1D49     		ldr	r1, .L25+8
 374 0032 4FF09040 		mov	r0, #1207959552
 375 0036 FFF7FEFF 		bl	cfg_write_bytes32
 376              	.LVL25:
 367:Generated_Source\PSoC5/cyfitter_cfg.c **** 
 368:Generated_Source\PSoC5/cyfitter_cfg.c **** 		/* Enable digital routing */
 369:Generated_Source\PSoC5/cyfitter_cfg.c **** 		CY_SET_XTND_REG8((void CYFAR *)CYREG_BCTL0_BANK_CTL, CY_GET_XTND_REG8((void CYFAR *)CYREG_BCTL0_B
 377              		.loc 1 369 0
 378 003a 1C4A     		ldr	r2, .L25+12
 379 003c 1378     		ldrb	r3, [r2]	@ zero_extendqisi2
 380 003e 43F00203 		orr	r3, r3, #2
 381 0042 1370     		strb	r3, [r2]
 370:Generated_Source\PSoC5/cyfitter_cfg.c **** 		CY_SET_XTND_REG8((void CYFAR *)CYREG_BCTL1_BANK_CTL, CY_GET_XTND_REG8((void CYFAR *)CYREG_BCTL1_B
 382              		.loc 1 370 0
 383 0044 1032     		adds	r2, r2, #16
 384 0046 1378     		ldrb	r3, [r2]	@ zero_extendqisi2
 385 0048 43F00203 		orr	r3, r3, #2
 386 004c 1370     		strb	r3, [r2]
 371:Generated_Source\PSoC5/cyfitter_cfg.c **** 
 372:Generated_Source\PSoC5/cyfitter_cfg.c **** 		/* Enable UDB array */
 373:Generated_Source\PSoC5/cyfitter_cfg.c **** 		CY_SET_XTND_REG8((void CYFAR *)CYREG_PM_ACT_CFG0, CY_GET_XTND_REG8((void CYFAR *)CYREG_PM_ACT_CFG
 387              		.loc 1 373 0
 388 004e 184C     		ldr	r4, .L25+16
 389              	.LVL26:
 390 0050 2378     		ldrb	r3, [r4]	@ zero_extendqisi2
 391 0052 43F04003 		orr	r3, r3, #64
 392 0056 2370     		strb	r3, [r4]
 374:Generated_Source\PSoC5/cyfitter_cfg.c **** 		CY_SET_XTND_REG8((void CYFAR *)CYREG_PM_AVAIL_CR2, CY_GET_XTND_REG8((void CYFAR *)CYREG_PM_AVAIL_
 393              		.loc 1 374 0
 394 0058 A2F58632 		sub	r2, r2, #68608
 395 005c 513A     		subs	r2, r2, #81
 396 005e 1378     		ldrb	r3, [r2]	@ zero_extendqisi2
 397 0060 43F01003 		orr	r3, r3, #16
 398 0064 1370     		strb	r3, [r2]
 399              	.LBE3:
 375:Generated_Source\PSoC5/cyfitter_cfg.c **** 	}
 376:Generated_Source\PSoC5/cyfitter_cfg.c **** 
 377:Generated_Source\PSoC5/cyfitter_cfg.c **** 
 378:Generated_Source\PSoC5/cyfitter_cfg.c **** 	/* Perform second pass device configuration. These items must be configured in specific order afte
 379:Generated_Source\PSoC5/cyfitter_cfg.c **** 	CYCONFIGCPY((void CYFAR *)(CYREG_PRT1_DM0), (const void CYFAR *)(BS_IOPINS0_1_VAL), 8u);
 400              		.loc 1 379 0
 401 0066 0822     		movs	r2, #8
 402 0068 1249     		ldr	r1, .L25+20
 403 006a 1348     		ldr	r0, .L25+24
 404 006c FFF7FEFF 		bl	CYCONFIGCPY
 405              	.LVL27:
 380:Generated_Source\PSoC5/cyfitter_cfg.c **** 	/* Switch Boost to the precision bandgap reference from its internal reference */
 381:Generated_Source\PSoC5/cyfitter_cfg.c **** 	CY_SET_REG8((void CYXDATA *)CYREG_BOOST_CR2, (CY_GET_REG8((void CYXDATA *)CYREG_BOOST_CR2) | 0x08u
 406              		.loc 1 381 0
 407 0070 124A     		ldr	r2, .L25+28
 408 0072 1378     		ldrb	r3, [r2]	@ zero_extendqisi2
ARM GAS  C:\Users\jucsalaz\AppData\Local\Temp\ccDzOoxz.s 			page 15


 409 0074 43F00803 		orr	r3, r3, #8
 410 0078 1370     		strb	r3, [r2]
 382:Generated_Source\PSoC5/cyfitter_cfg.c **** 
 383:Generated_Source\PSoC5/cyfitter_cfg.c **** 	/* Set Flash Cycles based on max possible frequency in case a glitch occurs during ClockSetup(). *
 384:Generated_Source\PSoC5/cyfitter_cfg.c **** 	CY_SET_XTND_REG8((void CYFAR *)(CYREG_CACHE_CC_CTL), (((CYDEV_INSTRUCT_CACHE_ENABLED) != 0) ? 0x61
 411              		.loc 1 384 0
 412 007a 114D     		ldr	r5, .L25+32
 413 007c 6123     		movs	r3, #97
 414 007e 2B70     		strb	r3, [r5]
 385:Generated_Source\PSoC5/cyfitter_cfg.c **** 	/* Setup clocks based on selections from Clock DWR */
 386:Generated_Source\PSoC5/cyfitter_cfg.c **** 	ClockSetup();
 415              		.loc 1 386 0
 416 0080 FFF7FEFF 		bl	ClockSetup
 417              	.LVL28:
 387:Generated_Source\PSoC5/cyfitter_cfg.c **** 	/* Set Flash Cycles based on newly configured 3.00MHz Bus Clock. */
 388:Generated_Source\PSoC5/cyfitter_cfg.c **** 	CY_SET_XTND_REG8((void CYFAR *)(CYREG_CACHE_CC_CTL), (((CYDEV_INSTRUCT_CACHE_ENABLED) != 0) ? 0x41
 418              		.loc 1 388 0
 419 0084 4123     		movs	r3, #65
 420 0086 2B70     		strb	r3, [r5]
 389:Generated_Source\PSoC5/cyfitter_cfg.c **** 	CY_SET_XTND_REG8((void CYFAR *)(CYREG_PANTHER_WAITPIPE), 0x01u);
 421              		.loc 1 389 0
 422 0088 0122     		movs	r2, #1
 423 008a 0E4B     		ldr	r3, .L25+36
 424 008c 1A70     		strb	r2, [r3]
 390:Generated_Source\PSoC5/cyfitter_cfg.c **** 
 391:Generated_Source\PSoC5/cyfitter_cfg.c **** 	/* Perform basic analog initialization to defaults */
 392:Generated_Source\PSoC5/cyfitter_cfg.c **** 	AnalogSetDefault();
 425              		.loc 1 392 0
 426 008e FFF7FEFF 		bl	AnalogSetDefault
 427              	.LVL29:
 393:Generated_Source\PSoC5/cyfitter_cfg.c **** 
 394:Generated_Source\PSoC5/cyfitter_cfg.c **** 	/* Configure alternate active mode */
 395:Generated_Source\PSoC5/cyfitter_cfg.c **** 	CYCONFIGCPY((void CYFAR *)CYDEV_PM_STBY_BASE, (const void CYFAR *)CYDEV_PM_ACT_BASE, 14u);
 428              		.loc 1 395 0
 429 0092 0E22     		movs	r2, #14
 430 0094 2146     		mov	r1, r4
 431 0096 0C48     		ldr	r0, .L25+40
 432 0098 FFF7FEFF 		bl	CYCONFIGCPY
 433              	.LVL30:
 434 009c 38BD     		pop	{r3, r4, r5, pc}
 435              	.L26:
 436 009e 00BF     		.align	2
 437              	.L25:
 438 00a0 E8460040 		.word	1073759976
 439 00a4 00000000 		.word	.LANCHOR0
 440 00a8 30000048 		.word	1207959600
 441 00ac 03500140 		.word	1073827843
 442 00b0 A0430040 		.word	1073759136
 443 00b4 4C020048 		.word	1207960140
 444 00b8 12510040 		.word	1073762578
 445 00bc 22430040 		.word	1073759010
 446 00c0 00480040 		.word	1073760256
 447 00c4 04000840 		.word	1074266116
 448 00c8 B0430040 		.word	1073759152
 449              		.cfi_endproc
 450              	.LFE7:
 451              		.size	cyfitter_cfg, .-cyfitter_cfg
ARM GAS  C:\Users\jucsalaz\AppData\Local\Temp\ccDzOoxz.s 			page 16


 452              		.section	.rodata
 453              		.align	2
 454              		.set	.LANCHOR0,. + 0
 455              		.type	cfg_memset_list.4992, %object
 456              		.size	cfg_memset_list.4992, 54
 457              	cfg_memset_list.4992:
 458 0000 00510040 		.word	1073762560
 459 0004 1000     		.short	16
 460 0006 20510040 		.4byte	1073762592
 461 000a 5000     		.short	80
 462 000c C0510040 		.word	1073762752
 463 0010 1000     		.short	16
 464 0012 F0510040 		.4byte	1073762800
 465 0016 1000     		.short	16
 466 0018 00000140 		.word	1073807360
 467 001c 0010     		.short	4096
 468 001e 00140140 		.4byte	1073812480
 469 0022 0008     		.short	2048
 470 0024 00400140 		.word	1073823744
 471 0028 000A     		.short	2560
 472 002a 004C0140 		.4byte	1073826816
 473 002e 0002     		.short	512
 474 0030 00500140 		.word	1073827840
 475 0034 2000     		.short	32
 476              		.text
 477              	.Letext0:
 478              		.file 2 "c:\\program files (x86)\\cypress\\psoc creator\\4.1\\psoc creator\\import\\gnu\\arm\\5.4.
 479              		.file 3 "Generated_Source\\PSoC5\\cytypes.h"