ARM GAS  C:\Users\ipfajard\AppData\Local\Temp\ccZYZuxG.s 			page 1


   1              		.syntax unified
   2              		.cpu cortex-m3
   3              		.fpu softvfp
   4              		.eabi_attribute 20, 1
   5              		.eabi_attribute 21, 1
   6              		.eabi_attribute 23, 3
   7              		.eabi_attribute 24, 1
   8              		.eabi_attribute 25, 1
   9              		.eabi_attribute 26, 1
  10              		.eabi_attribute 30, 1
  11              		.eabi_attribute 34, 1
  12              		.eabi_attribute 18, 4
  13              		.thumb
  14              		.syntax unified
  15              		.file	"main.c"
  16              		.text
  17              	.Ltext0:
  18              		.cfi_sections	.debug_frame
  19              		.section	.text.Bit_Timer,"ax",%progbits
  20              		.align	2
  21              		.global	Bit_Timer
  22              		.thumb
  23              		.thumb_func
  24              		.type	Bit_Timer, %function
  25              	Bit_Timer:
  26              	.LFB65:
  27              		.file 1 "main.c"
   1:main.c        **** /* =============================================================================
   2:main.c        ****  * Smart Crab Trap
   3:main.c        ****  * FSK RX 
   4:main.c        ****  * Edited by: Stephanie Salazar
   5:main.c        ****  * Revision: 5/10/18
   6:main.c        ****  * Function: This project takes in a signal from an outside source
   7:main.c        ****  * and reads the data within the signal. This code waits for a pre-fix
   8:main.c        ****  * of 0xFF and then reads the next 4 bits as the data and confirms
   9:main.c        ****  * the message with a post-fix of 0x01. The data is displayed on an LCD display.
  10:main.c        ****  * =============================================================================
  11:main.c        **** */
  12:main.c        **** 
  13:main.c        **** #include "project.h"
  14:main.c        **** #include <stdio.h>
  15:main.c        **** #include "LCD_Char.h"
  16:main.c        **** 
  17:main.c        **** #define ARRAY_SIZE        12
  18:main.c        **** #define COUNT             100
  19:main.c        **** #define PREFIX_ACCURACY   90
  20:main.c        **** #define DATA_ACCURACY     70
  21:main.c        **** #define DATA_LENGTH       7
  22:main.c        **** #define PREFIX            0xFF
  23:main.c        **** #define POSTFIX           0x01
  24:main.c        **** #define BIT_0_MASK        0x1
  25:main.c        **** #define SUCCESS           0x1
  26:main.c        **** #define FAILURE           0x0
  27:main.c        **** #define TRUE              0x1
  28:main.c        **** #define FALSE             0x0
  29:main.c        **** #define FiveSecs          5000
  30:main.c        **** #define TRANSMISSIONS_3    2
ARM GAS  C:\Users\ipfajard\AppData\Local\Temp\ccZYZuxG.s 			page 2


  31:main.c        **** #define Delay              1
  32:main.c        **** 
  33:main.c        **** /*Function Prototypes*/
  34:main.c        **** void Display(void);
  35:main.c        **** int CheckParity(int);
  36:main.c        **** void SendData(void);
  37:main.c        **** void startModules(void);
  38:main.c        **** void stopModules(void);
  39:main.c        **** 
  40:main.c        **** // Interrupt for switching bits 5 ms
  41:main.c        **** CY_ISR_PROTO(Bit_Timer);
  42:main.c        **** CY_ISR_PROTO(watchDogCheck);
  43:main.c        **** CY_ISR_PROTO(wakeUp_ISR);
  44:main.c        **** 
  45:main.c        **** // Global Variables
  46:main.c        **** static uint16 levelCounter = 0; // Timer counter to debounce bit
  47:main.c        **** static uint16 zeroCount = 0; // 0 count used in timer counter debounce
  48:main.c        **** static uint16 oneCount = 0; // 1 count used in timer counter debounce
  49:main.c        **** static uint8 currentBit = 0; // x/10 bit decision for 500 ms bit
  50:main.c        **** static uint8 dataCount = 0; // which bit of data we are looking at
  51:main.c        **** static uint16 data = 0; // byte bits of data
  52:main.c        **** static uint16 crabs = 0; // byte of data transferred from data variable
  53:main.c        **** static uint8 dataFlag = 0; // Flag to start looking for data
  54:main.c        **** static uint8 decodeFlag = 0; // Flag to start looking for post-fix
  55:main.c        **** static int paritySuccess = 0;
  56:main.c        **** static uint8 threeTransmissions = 0; // checks for 3 transmission before reinstatiating sleep timer
  57:main.c        **** static uint8 sleepFlag = FALSE; 
  58:main.c        **** 
  59:main.c        **** // LCD String Variables
  60:main.c        **** char OutputString[ARRAY_SIZE];
  61:main.c        **** char display[ARRAY_SIZE];
  62:main.c        **** 
  63:main.c        **** // FLAGS for turning on messages on LCD screen
  64:main.c        **** static uint8 lcdFlagEncode = FALSE; // Turns on pre-fix message
  65:main.c        **** static uint8 lcdFlagData = FALSE; // Displays data 
  66:main.c        **** static uint8 lcdFlagDecode = FALSE; // good or bad postfix
  67:main.c        **** static uint8 decodeWrong = FALSE;
  68:main.c        **** 
  69:main.c        **** 
  70:main.c        **** int main(void)
  71:main.c        **** {
  72:main.c        ****     
  73:main.c        ****     CyGlobalIntEnable;
  74:main.c        ****     
  75:main.c        ****     startModules(); 
  76:main.c        ****     
  77:main.c        ****     /* Module is turned on- will display again if watchdog timer is enabled */
  78:main.c        ****     sprintf(display, "Starting Module!");
  79:main.c        ****     LCD_Char_Position(0u,0u); // Resets cursor to top of LCD Screen
  80:main.c        ****     LCD_Char_PrintString(display);
  81:main.c        ****     //CyDelay(FiveSecs);
  82:main.c        **** 
  83:main.c        ****      
  84:main.c        ****  
  85:main.c        ****     /* initialization/startup code here */
  86:main.c        ****     Timer_ISR_StartEx(Bit_Timer);
  87:main.c        ****     Sleep_ISR_StartEx(wakeUp_ISR);    
ARM GAS  C:\Users\ipfajard\AppData\Local\Temp\ccZYZuxG.s 			page 3


  88:main.c        ****     watchDogCheck_StartEx(watchDogCheck);
  89:main.c        ****     
  90:main.c        ****     
  91:main.c        ****     // Start watch dog timer to check for blocks in code
  92:main.c        ****     CyWdtStart(CYWDT_1024_TICKS, CYWDT_LPMODE_NOCHANGE);
  93:main.c        ****     
  94:main.c        ****     SleepTimer_Start();
  95:main.c        **** 
  96:main.c        ****     // Displays Loading Message before receiving pre-fix=
  97:main.c        ****     sprintf(display, "counting crabs...");
  98:main.c        ****     LCD_Char_Position(0u,0u); // Resets cursor to top of LCD Screen
  99:main.c        ****     LCD_Char_PrintString(display);
 100:main.c        ****     
 101:main.c        ****     Power_Toggle_Write(TRUE); // Turn analog circuit on
 102:main.c        **** 
 103:main.c        ****     for(;;)
 104:main.c        ****     {
 105:main.c        ****         Display();
 106:main.c        ****          // PSoC Sleep command. To adjust sleep time, change in the hardware
 107:main.c        ****         //  block. No sleep time parameters taken in PSoC5LP.
 108:main.c        ****         //  PM_SLEEP_TIME_NONE is a relic of PSoC3
 109:main.c        ****         if(sleepFlag == TRUE){
 110:main.c        ****             
 111:main.c        ****             sleepFlag = FALSE; 
 112:main.c        ****             Power_Toggle_Write(FALSE);
 113:main.c        ****             stopModules(); 
 114:main.c        ****             CyPmSleep(PM_SLEEP_TIME_NONE, PM_SLEEP_SRC_CTW);
 115:main.c        ****         
 116:main.c        ****         }
 117:main.c        **** 
 118:main.c        ****     } // end of for(;;)
 119:main.c        **** } // end of main()
 120:main.c        **** 
 121:main.c        **** 
 122:main.c        **** 
 123:main.c        **** //Bit length = 500 ms
 124:main.c        **** //timer period = 5 ms
 125:main.c        **** //will check bit COUNT times, to debounce
 126:main.c        **** CY_ISR(Bit_Timer){
  28              		.loc 1 126 0
  29              		.cfi_startproc
  30              		@ args = 0, pretend = 0, frame = 0
  31              		@ frame_needed = 0, uses_anonymous_args = 0
  32 0000 08B5     		push	{r3, lr}
  33              		.cfi_def_cfa_offset 8
  34              		.cfi_offset 3, -8
  35              		.cfi_offset 14, -4
 127:main.c        ****     levelCounter++;
  36              		.loc 1 127 0
  37 0002 484A     		ldr	r2, .L14
  38 0004 1388     		ldrh	r3, [r2]
  39 0006 0133     		adds	r3, r3, #1
  40 0008 1380     		strh	r3, [r2]	@ movhi
 128:main.c        ****     
 129:main.c        ****     // Count whether bit is currently 1 or 0
 130:main.c        ****     if(Out_Comp_GetCompare() != 0){
  41              		.loc 1 130 0
ARM GAS  C:\Users\ipfajard\AppData\Local\Temp\ccZYZuxG.s 			page 4


  42 000a FFF7FEFF 		bl	Out_Comp_GetCompare
  43              	.LVL0:
  44 000e 20B1     		cbz	r0, .L2
 131:main.c        ****         oneCount++;
  45              		.loc 1 131 0
  46 0010 444A     		ldr	r2, .L14
  47 0012 5388     		ldrh	r3, [r2, #2]
  48 0014 0133     		adds	r3, r3, #1
  49 0016 5380     		strh	r3, [r2, #2]	@ movhi
  50 0018 03E0     		b	.L3
  51              	.L2:
 132:main.c        ****     }else{
 133:main.c        ****         zeroCount++;
  52              		.loc 1 133 0
  53 001a 424A     		ldr	r2, .L14
  54 001c 9388     		ldrh	r3, [r2, #4]
  55 001e 0133     		adds	r3, r3, #1
  56 0020 9380     		strh	r3, [r2, #4]	@ movhi
  57              	.L3:
 134:main.c        ****     }
 135:main.c        ****     
 136:main.c        ****     // Debouncing
 137:main.c        ****     if(levelCounter == COUNT){
  58              		.loc 1 137 0
  59 0022 404B     		ldr	r3, .L14
  60 0024 1B88     		ldrh	r3, [r3]
  61 0026 642B     		cmp	r3, #100
  62 0028 7BD1     		bne	.L1
 138:main.c        ****         if((dataFlag == FALSE) && (decodeFlag == FALSE)){ //looking for prefix
  63              		.loc 1 138 0
  64 002a 3E4B     		ldr	r3, .L14
  65 002c 9B79     		ldrb	r3, [r3, #6]	@ zero_extendqisi2
  66 002e ABB9     		cbnz	r3, .L5
  67              		.loc 1 138 0 is_stmt 0 discriminator 1
  68 0030 3C4B     		ldr	r3, .L14
  69 0032 DB79     		ldrb	r3, [r3, #7]	@ zero_extendqisi2
  70 0034 93B9     		cbnz	r3, .L5
 139:main.c        ****             if(oneCount >= PREFIX_ACCURACY){ // 1 bit must be Accuracy/100 = 1 
  71              		.loc 1 139 0 is_stmt 1
  72 0036 3B4B     		ldr	r3, .L14
  73 0038 5B88     		ldrh	r3, [r3, #2]
  74 003a 592B     		cmp	r3, #89
  75 003c 07D9     		bls	.L6
 140:main.c        ****                 currentBit = 0x01;
  76              		.loc 1 140 0
  77 003e 394B     		ldr	r3, .L14
  78 0040 0120     		movs	r0, #1
  79 0042 1872     		strb	r0, [r3, #8]
 141:main.c        ****                 oneCount = 0;
  80              		.loc 1 141 0
  81 0044 0022     		movs	r2, #0
  82 0046 5A80     		strh	r2, [r3, #2]	@ movhi
 142:main.c        ****                 Count_Out_Write(1);
  83              		.loc 1 142 0
  84 0048 FFF7FEFF 		bl	Count_Out_Write
  85              	.LVL1:
  86 004c 18E0     		b	.L7
ARM GAS  C:\Users\ipfajard\AppData\Local\Temp\ccZYZuxG.s 			page 5


  87              	.L6:
 143:main.c        ****         
 144:main.c        ****             }else{ // if oneCount <= PREFIX_ACCURACY, bit is 0
 145:main.c        ****                 currentBit = 0x00; 
  88              		.loc 1 145 0
  89 004e 354B     		ldr	r3, .L14
  90 0050 0020     		movs	r0, #0
  91 0052 1872     		strb	r0, [r3, #8]
 146:main.c        ****                 zeroCount = 0; 
  92              		.loc 1 146 0
  93 0054 9880     		strh	r0, [r3, #4]	@ movhi
 147:main.c        ****                 Count_Out_Write(0);
  94              		.loc 1 147 0
  95 0056 FFF7FEFF 		bl	Count_Out_Write
  96              	.LVL2:
  97 005a 11E0     		b	.L7
  98              	.L5:
 148:main.c        ****             
 149:main.c        ****             }
 150:main.c        ****         }else{ // looking for data bits, can have less accuracy
 151:main.c        ****             if(oneCount >= DATA_ACCURACY){ // 1 bit must be Accuracy/100 = 1 
  99              		.loc 1 151 0
 100 005c 314B     		ldr	r3, .L14
 101 005e 5B88     		ldrh	r3, [r3, #2]
 102 0060 452B     		cmp	r3, #69
 103 0062 07D9     		bls	.L8
 152:main.c        ****                 currentBit = 0x01;
 104              		.loc 1 152 0
 105 0064 2F4B     		ldr	r3, .L14
 106 0066 0120     		movs	r0, #1
 107 0068 1872     		strb	r0, [r3, #8]
 153:main.c        ****                 oneCount = 0;
 108              		.loc 1 153 0
 109 006a 0022     		movs	r2, #0
 110 006c 5A80     		strh	r2, [r3, #2]	@ movhi
 154:main.c        ****                 Count_Out_Write(1);
 111              		.loc 1 154 0
 112 006e FFF7FEFF 		bl	Count_Out_Write
 113              	.LVL3:
 114 0072 05E0     		b	.L7
 115              	.L8:
 155:main.c        ****         
 156:main.c        ****             }else{ // if oneCount <= DATA_ACCURACY, bit is 0
 157:main.c        ****                 currentBit = 0x00; 
 116              		.loc 1 157 0
 117 0074 2B4B     		ldr	r3, .L14
 118 0076 0020     		movs	r0, #0
 119 0078 1872     		strb	r0, [r3, #8]
 158:main.c        ****                 zeroCount = 0; 
 120              		.loc 1 158 0
 121 007a 9880     		strh	r0, [r3, #4]	@ movhi
 159:main.c        ****                 Count_Out_Write(0);
 122              		.loc 1 159 0
 123 007c FFF7FEFF 		bl	Count_Out_Write
 124              	.LVL4:
 125              	.L7:
 160:main.c        ****             
ARM GAS  C:\Users\ipfajard\AppData\Local\Temp\ccZYZuxG.s 			page 6


 161:main.c        ****             }
 162:main.c        ****         }
 163:main.c        ****         dataCount++; // Keep track of what bit we are on
 126              		.loc 1 163 0
 127 0080 284B     		ldr	r3, .L14
 128 0082 5A7A     		ldrb	r2, [r3, #9]	@ zero_extendqisi2
 129 0084 0132     		adds	r2, r2, #1
 130 0086 D2B2     		uxtb	r2, r2
 131 0088 5A72     		strb	r2, [r3, #9]
 164:main.c        ****         levelCounter = 0; // Reset timer bit debouncer  
 132              		.loc 1 164 0
 133 008a 0021     		movs	r1, #0
 134 008c 1980     		strh	r1, [r3]	@ movhi
 165:main.c        ****         
 166:main.c        ****         //Look for pre-fix
 167:main.c        ****         data = data << 1; // Shift data over to store next bit
 135              		.loc 1 167 0
 136 008e 5989     		ldrh	r1, [r3, #10]
 137 0090 4900     		lsls	r1, r1, #1
 138 0092 89B2     		uxth	r1, r1
 168:main.c        ****         data = data | currentBit;
 139              		.loc 1 168 0
 140 0094 187A     		ldrb	r0, [r3, #8]	@ zero_extendqisi2
 141 0096 0143     		orrs	r1, r1, r0
 142 0098 5981     		strh	r1, [r3, #10]	@ movhi
 169:main.c        ****         // Check if data is prefix(oxFF) but we are not looking for data or decode
 170:main.c        ****         if(((data & PREFIX) == PREFIX) && (dataFlag == FALSE) && (decodeFlag == FALSE)){ 
 143              		.loc 1 170 0
 144 009a CBB2     		uxtb	r3, r1
 145 009c FF2B     		cmp	r3, #255
 146 009e 0DD1     		bne	.L9
 147              		.loc 1 170 0 is_stmt 0 discriminator 1
 148 00a0 204B     		ldr	r3, .L14
 149 00a2 9B79     		ldrb	r3, [r3, #6]	@ zero_extendqisi2
 150 00a4 53B9     		cbnz	r3, .L9
 151              		.loc 1 170 0 discriminator 2
 152 00a6 1F4B     		ldr	r3, .L14
 153 00a8 DB79     		ldrb	r3, [r3, #7]	@ zero_extendqisi2
 154 00aa 3BB9     		cbnz	r3, .L9
 171:main.c        ****             dataCount = 0;
 155              		.loc 1 171 0 is_stmt 1
 156 00ac 1D4B     		ldr	r3, .L14
 157 00ae 0022     		movs	r2, #0
 158 00b0 5A72     		strb	r2, [r3, #9]
 172:main.c        ****             data = 0;
 159              		.loc 1 172 0
 160 00b2 5A81     		strh	r2, [r3, #10]	@ movhi
 173:main.c        ****             dataFlag = TRUE; //Start looking for data
 161              		.loc 1 173 0
 162 00b4 0122     		movs	r2, #1
 163 00b6 9A71     		strb	r2, [r3, #6]
 174:main.c        ****             lcdFlagEncode = TRUE; //Display pre-fix on lcd
 164              		.loc 1 174 0
 165 00b8 1A73     		strb	r2, [r3, #12]
 166 00ba 0EE0     		b	.L10
 167              	.L9:
 175:main.c        ****         
ARM GAS  C:\Users\ipfajard\AppData\Local\Temp\ccZYZuxG.s 			page 7


 176:main.c        ****         //Check data by checking next 8 bits and parity (9 bits) after the encoding
 177:main.c        ****         }else if((dataFlag == TRUE) && (dataCount > DATA_LENGTH+1)){
 168              		.loc 1 177 0
 169 00bc 194B     		ldr	r3, .L14
 170 00be 9B79     		ldrb	r3, [r3, #6]	@ zero_extendqisi2
 171 00c0 012B     		cmp	r3, #1
 172 00c2 0AD1     		bne	.L10
 173              		.loc 1 177 0 is_stmt 0 discriminator 1
 174 00c4 082A     		cmp	r2, #8
 175 00c6 08D9     		bls	.L10
 178:main.c        ****             crabs = data;
 176              		.loc 1 178 0 is_stmt 1
 177 00c8 164B     		ldr	r3, .L14
 178 00ca D981     		strh	r1, [r3, #14]	@ movhi
 179:main.c        ****             data = 0; //Restart data for decode
 179              		.loc 1 179 0
 180 00cc 0022     		movs	r2, #0
 181 00ce 5A81     		strh	r2, [r3, #10]	@ movhi
 180:main.c        ****             dataCount = 0; 
 182              		.loc 1 180 0
 183 00d0 5A72     		strb	r2, [r3, #9]
 181:main.c        ****             lcdFlagEncode = FALSE; //Turn off encode message
 184              		.loc 1 181 0
 185 00d2 1A73     		strb	r2, [r3, #12]
 182:main.c        ****             lcdFlagData = TRUE; //Display data
 186              		.loc 1 182 0
 187 00d4 0122     		movs	r2, #1
 188 00d6 1A74     		strb	r2, [r3, #16]
 183:main.c        ****             decodeFlag = TRUE;
 189              		.loc 1 183 0
 190 00d8 DA71     		strb	r2, [r3, #7]
 191              	.L10:
 184:main.c        ****         }
 185:main.c        ****         
 186:main.c        ****         // Check for 8 bits of post-fix
 187:main.c        ****         if(decodeFlag == TRUE && (dataCount > DATA_LENGTH)){
 192              		.loc 1 187 0
 193 00da 124B     		ldr	r3, .L14
 194 00dc DB79     		ldrb	r3, [r3, #7]	@ zero_extendqisi2
 195 00de 012B     		cmp	r3, #1
 196 00e0 1FD1     		bne	.L1
 197              		.loc 1 187 0 is_stmt 0 discriminator 1
 198 00e2 104B     		ldr	r3, .L14
 199 00e4 5B7A     		ldrb	r3, [r3, #9]	@ zero_extendqisi2
 200 00e6 072B     		cmp	r3, #7
 201 00e8 1BD9     		bls	.L1
 188:main.c        ****             // Correct postfix is 0x01
 189:main.c        ****             if(data == POSTFIX){
 202              		.loc 1 189 0 is_stmt 1
 203 00ea 0E4B     		ldr	r3, .L14
 204 00ec 5B89     		ldrh	r3, [r3, #10]
 205 00ee 012B     		cmp	r3, #1
 206 00f0 03D1     		bne	.L11
 190:main.c        ****              lcdFlagDecode = TRUE; // lcd flag for "good" post-fix
 207              		.loc 1 190 0
 208 00f2 0122     		movs	r2, #1
 209 00f4 0B4B     		ldr	r3, .L14
ARM GAS  C:\Users\ipfajard\AppData\Local\Temp\ccZYZuxG.s 			page 8


 210 00f6 5A74     		strb	r2, [r3, #17]
 211 00f8 02E0     		b	.L12
 212              	.L11:
 191:main.c        ****             }else{
 192:main.c        ****                 decodeWrong = TRUE; // lcd flag for "bad" post-fix
 213              		.loc 1 192 0
 214 00fa 0122     		movs	r2, #1
 215 00fc 094B     		ldr	r3, .L14
 216 00fe 9A74     		strb	r2, [r3, #18]
 217              	.L12:
 193:main.c        ****             }
 194:main.c        ****             decodeFlag = FALSE;
 218              		.loc 1 194 0
 219 0100 084A     		ldr	r2, .L14
 220 0102 0023     		movs	r3, #0
 221 0104 D371     		strb	r3, [r2, #7]
 195:main.c        ****             dataFlag = FALSE; //Don't want to check for data anymore
 222              		.loc 1 195 0
 223 0106 9371     		strb	r3, [r2, #6]
 196:main.c        ****             
 197:main.c        ****             threeTransmissions++;
 224              		.loc 1 197 0
 225 0108 D37C     		ldrb	r3, [r2, #19]	@ zero_extendqisi2
 226 010a 0133     		adds	r3, r3, #1
 227 010c DBB2     		uxtb	r3, r3
 228 010e D374     		strb	r3, [r2, #19]
 198:main.c        ****             
 199:main.c        ****             //after 3 transmissions, turn bit timer off and sleep time back on
 200:main.c        ****             if(threeTransmissions == TRANSMISSIONS_3){
 229              		.loc 1 200 0
 230 0110 022B     		cmp	r3, #2
 231 0112 06D1     		bne	.L1
 201:main.c        ****                 threeTransmissions = 0;
 232              		.loc 1 201 0
 233 0114 0022     		movs	r2, #0
 234 0116 034B     		ldr	r3, .L14
 235 0118 DA74     		strb	r2, [r3, #19]
 202:main.c        ****                     SleepTimer_Start();
 236              		.loc 1 202 0
 237 011a FFF7FEFF 		bl	SleepTimer_Start
 238              	.LVL5:
 203:main.c        ****                     Bit_Timer_Stop();
 239              		.loc 1 203 0
 240 011e FFF7FEFF 		bl	Bit_Timer_Stop
 241              	.LVL6:
 242              	.L1:
 243 0122 08BD     		pop	{r3, pc}
 244              	.L15:
 245              		.align	2
 246              	.L14:
 247 0124 00000000 		.word	.LANCHOR0
 248              		.cfi_endproc
 249              	.LFE65:
 250              		.size	Bit_Timer, .-Bit_Timer
 251              		.section	.text.watchDogCheck,"ax",%progbits
 252              		.align	2
 253              		.global	watchDogCheck
ARM GAS  C:\Users\ipfajard\AppData\Local\Temp\ccZYZuxG.s 			page 9


 254              		.thumb
 255              		.thumb_func
 256              		.type	watchDogCheck, %function
 257              	watchDogCheck:
 258              	.LFB66:
 204:main.c        ****             
 205:main.c        ****             }
 206:main.c        ****         }
 207:main.c        ****         
 208:main.c        ****     } // end of if(levelCounter == COUNT)
 209:main.c        **** } // end of CY_ISR(HighF_LevelCount)
 210:main.c        **** 
 211:main.c        **** 
 212:main.c        **** //Clears watchdog timer to avoid reset unless timing has drifted
 213:main.c        **** CY_ISR(watchDogCheck){
 259              		.loc 1 213 0
 260              		.cfi_startproc
 261              		@ args = 0, pretend = 0, frame = 0
 262              		@ frame_needed = 0, uses_anonymous_args = 0
 263 0000 08B5     		push	{r3, lr}
 264              		.cfi_def_cfa_offset 8
 265              		.cfi_offset 3, -8
 266              		.cfi_offset 14, -4
 214:main.c        ****     
 215:main.c        ****     CyWdtClear();
 267              		.loc 1 215 0
 268 0002 FFF7FEFF 		bl	CyWdtClear
 269              	.LVL7:
 270 0006 08BD     		pop	{r3, pc}
 271              		.cfi_endproc
 272              	.LFE66:
 273              		.size	watchDogCheck, .-watchDogCheck
 274              		.section	.text.CheckParity,"ax",%progbits
 275              		.align	2
 276              		.global	CheckParity
 277              		.thumb
 278              		.thumb_func
 279              		.type	CheckParity, %function
 280              	CheckParity:
 281              	.LFB69:
 216:main.c        **** //    sleepToggle_Write(TRUE);
 217:main.c        **** //    CyDelay(Delay);
 218:main.c        **** //    sleepToggle_Write(FALSE);
 219:main.c        ****      
 220:main.c        ****         
 221:main.c        **** }
 222:main.c        **** 
 223:main.c        **** //check for prefix
 224:main.c        **** //disable sleep if see prefix
 225:main.c        **** //enable timer to restart sleep if false positive
 226:main.c        **** //if no prefix, disbale interrupt and nothing else 
 227:main.c        **** CY_ISR(wakeUp_ISR){
 228:main.c        ****     
 229:main.c        ****     CyWdtClear(); 
 230:main.c        ****     SleepTimer_GetStatus(); // Clears the sleep timer interrupt
 231:main.c        ****     Power_Toggle_Write(TRUE);
 232:main.c        ****     startModules();
ARM GAS  C:\Users\ipfajard\AppData\Local\Temp\ccZYZuxG.s 			page 10


 233:main.c        **** //    sleepToggle_Write(TRUE);
 234:main.c        **** //    CyDelay(Delay);
 235:main.c        **** //    sleepToggle_Write(FALSE);
 236:main.c        ****        
 237:main.c        ****     
 238:main.c        ****     if(Out_Comp_GetCompare() != 0){
 239:main.c        ****         SleepTimer_Stop();
 240:main.c        ****         Bit_Timer_Start();
 241:main.c        ****         //trigger interrupt to avoid data loss 
 242:main.c        ****         Timer_ISR_Enable();
 243:main.c        ****     }
 244:main.c        ****     
 245:main.c        ****     sleepFlag = TRUE; 
 246:main.c        **** 
 247:main.c        **** }
 248:main.c        **** 
 249:main.c        **** 
 250:main.c        **** ///*
 251:main.c        **** // * function: void Display(void)
 252:main.c        **** // * parameters: void
 253:main.c        **** // * returns: void
 254:main.c        **** // * description: Displays current data on LCD display depending
 255:main.c        **** // * on what flags are set
 256:main.c        **** // */
 257:main.c        **** void Display()
 258:main.c        **** {
 259:main.c        ****     // LCD Screen Messages
 260:main.c        ****     // If encode is received, display message
 261:main.c        ****     if(lcdFlagEncode == TRUE){
 262:main.c        ****         LCD_Char_ClearDisplay();
 263:main.c        ****         LCD_Char_PrintString("0xFF pre-fix");
 264:main.c        ****         lcdFlagEncode = FALSE; 
 265:main.c        ****     // When 9 bits are received, data will display at top of screen
 266:main.c        ****     }else if(lcdFlagData == TRUE){
 267:main.c        ****         paritySuccess = CheckParity(crabs);
 268:main.c        ****         crabs = crabs >> 1;
 269:main.c        ****         sprintf(OutputString, "Crabs:%i Err:%i",crabs, !paritySuccess);
 270:main.c        ****         LCD_Char_ClearDisplay();
 271:main.c        ****         LCD_Char_Position(0u,0u);
 272:main.c        ****         LCD_Char_PrintString(OutputString);
 273:main.c        ****         dataFlag = FALSE;
 274:main.c        ****         lcdFlagData = FALSE;
 275:main.c        ****     // Postfix will display good or bad below data on screen
 276:main.c        ****     }else if(lcdFlagDecode == TRUE){
 277:main.c        ****         LCD_Char_Position(1u,0u);
 278:main.c        ****         char8 displayG[] = "good";
 279:main.c        ****         LCD_Char_PrintString(displayG);
 280:main.c        ****         dataFlag = FALSE;
 281:main.c        ****         lcdFlagDecode = FALSE;
 282:main.c        ****     }else if(decodeWrong == TRUE){
 283:main.c        ****         LCD_Char_Position(1u,0u);
 284:main.c        ****         char8 displayB[] = "bad";
 285:main.c        ****         LCD_Char_PrintString(displayB);
 286:main.c        ****         decodeWrong = FALSE;
 287:main.c        ****     }
 288:main.c        **** }//end Display()
 289:main.c        **** 
ARM GAS  C:\Users\ipfajard\AppData\Local\Temp\ccZYZuxG.s 			page 11


 290:main.c        **** ///*
 291:main.c        **** // * function: void CheckParity(void)
 292:main.c        **** // * parameters: void
 293:main.c        **** // * returns: void
 294:main.c        **** // * description: XORs each bit of data to get even or odd parity for
 295:main.c        **** // * error checking
 296:main.c        **** // */
 297:main.c        **** int CheckParity(int crabs)
 298:main.c        **** {
 282              		.loc 1 298 0
 283              		.cfi_startproc
 284              		@ args = 0, pretend = 0, frame = 0
 285              		@ frame_needed = 0, uses_anonymous_args = 0
 286              		@ link register save eliminated.
 287              	.LVL8:
 288 0000 10B4     		push	{r4}
 289              		.cfi_def_cfa_offset 4
 290              		.cfi_offset 4, -4
 291              	.LVL9:
 299:main.c        ****     int i = 0;
 300:main.c        ****     int bitToCheck = crabs >> 1; // Remove parity from data
 292              		.loc 1 300 0
 293 0002 4210     		asrs	r2, r0, #1
 294              	.LVL10:
 301:main.c        ****     int receivedParity = (crabs & BIT_0_MASK); //Save parity from data received
 295              		.loc 1 301 0
 296 0004 00F00100 		and	r0, r0, #1
 297              	.LVL11:
 302:main.c        ****     int parity = bitToCheck & BIT_0_MASK; // Get first bit of data to XOR
 298              		.loc 1 302 0
 299 0008 02F00101 		and	r1, r2, #1
 300              	.LVL12:
 303:main.c        ****     for(i = 0; i < DATA_LENGTH; i++){
 301              		.loc 1 303 0
 302 000c 0023     		movs	r3, #0
 303 000e 04E0     		b	.L19
 304              	.LVL13:
 305              	.L20:
 304:main.c        ****         bitToCheck = bitToCheck >> 1; // shift mask over
 306              		.loc 1 304 0 discriminator 3
 307 0010 5210     		asrs	r2, r2, #1
 308              	.LVL14:
 305:main.c        ****         parity = (bitToCheck & BIT_0_MASK) ^ parity; // XOR new bit
 309              		.loc 1 305 0 discriminator 3
 310 0012 02F00104 		and	r4, r2, #1
 311 0016 6140     		eors	r1, r1, r4
 312              	.LVL15:
 303:main.c        ****     for(i = 0; i < DATA_LENGTH; i++){
 313              		.loc 1 303 0 discriminator 3
 314 0018 0133     		adds	r3, r3, #1
 315              	.LVL16:
 316              	.L19:
 303:main.c        ****     for(i = 0; i < DATA_LENGTH; i++){
 317              		.loc 1 303 0 is_stmt 0 discriminator 1
 318 001a 062B     		cmp	r3, #6
 319 001c F8DD     		ble	.L20
 306:main.c        ****     }
ARM GAS  C:\Users\ipfajard\AppData\Local\Temp\ccZYZuxG.s 			page 12


 307:main.c        ****     if(parity == receivedParity){
 320              		.loc 1 307 0 is_stmt 1
 321 001e 8142     		cmp	r1, r0
 322 0020 01D1     		bne	.L22
 308:main.c        ****         return SUCCESS;
 323              		.loc 1 308 0
 324 0022 0120     		movs	r0, #1
 325              	.LVL17:
 326 0024 00E0     		b	.L21
 327              	.LVL18:
 328              	.L22:
 309:main.c        ****     }else{
 310:main.c        ****         return FAILURE;
 329              		.loc 1 310 0
 330 0026 0020     		movs	r0, #0
 331              	.LVL19:
 332              	.L21:
 311:main.c        ****     }
 312:main.c        **** }   
 333              		.loc 1 312 0
 334 0028 10BC     		pop	{r4}
 335              		.cfi_restore 4
 336              		.cfi_def_cfa_offset 0
 337 002a 7047     		bx	lr
 338              		.cfi_endproc
 339              	.LFE69:
 340              		.size	CheckParity, .-CheckParity
 341              		.section	.text.Display,"ax",%progbits
 342              		.align	2
 343              		.global	Display
 344              		.thumb
 345              		.thumb_func
 346              		.type	Display, %function
 347              	Display:
 348              	.LFB68:
 258:main.c        ****     // LCD Screen Messages
 349              		.loc 1 258 0
 350              		.cfi_startproc
 351              		@ args = 0, pretend = 0, frame = 8
 352              		@ frame_needed = 0, uses_anonymous_args = 0
 353 0000 30B5     		push	{r4, r5, lr}
 354              		.cfi_def_cfa_offset 12
 355              		.cfi_offset 4, -12
 356              		.cfi_offset 5, -8
 357              		.cfi_offset 14, -4
 358 0002 83B0     		sub	sp, sp, #12
 359              		.cfi_def_cfa_offset 24
 261:main.c        ****         LCD_Char_ClearDisplay();
 360              		.loc 1 261 0
 361 0004 2C4B     		ldr	r3, .L30
 362 0006 1B7B     		ldrb	r3, [r3, #12]	@ zero_extendqisi2
 363 0008 012B     		cmp	r3, #1
 364 000a 09D1     		bne	.L25
 262:main.c        ****         LCD_Char_PrintString("0xFF pre-fix");
 365              		.loc 1 262 0
 366 000c 0120     		movs	r0, #1
 367 000e FFF7FEFF 		bl	LCD_Char_WriteControl
ARM GAS  C:\Users\ipfajard\AppData\Local\Temp\ccZYZuxG.s 			page 13


 368              	.LVL20:
 263:main.c        ****         lcdFlagEncode = FALSE; 
 369              		.loc 1 263 0
 370 0012 2A48     		ldr	r0, .L30+4
 371 0014 FFF7FEFF 		bl	LCD_Char_PrintString
 372              	.LVL21:
 264:main.c        ****     // When 9 bits are received, data will display at top of screen
 373              		.loc 1 264 0
 374 0018 0022     		movs	r2, #0
 375 001a 274B     		ldr	r3, .L30
 376 001c 1A73     		strb	r2, [r3, #12]
 377 001e 48E0     		b	.L24
 378              	.L25:
 266:main.c        ****         paritySuccess = CheckParity(crabs);
 379              		.loc 1 266 0
 380 0020 254B     		ldr	r3, .L30
 381 0022 1B7C     		ldrb	r3, [r3, #16]	@ zero_extendqisi2
 382 0024 012B     		cmp	r3, #1
 383 0026 1DD1     		bne	.L27
 267:main.c        ****         crabs = crabs >> 1;
 384              		.loc 1 267 0
 385 0028 234C     		ldr	r4, .L30
 386 002a E589     		ldrh	r5, [r4, #14]
 387 002c 2846     		mov	r0, r5
 388 002e FFF7FEFF 		bl	CheckParity
 389              	.LVL22:
 390 0032 6061     		str	r0, [r4, #20]
 268:main.c        ****         sprintf(OutputString, "Crabs:%i Err:%i",crabs, !paritySuccess);
 391              		.loc 1 268 0
 392 0034 6A08     		lsrs	r2, r5, #1
 393 0036 E281     		strh	r2, [r4, #14]	@ movhi
 269:main.c        ****         LCD_Char_ClearDisplay();
 394              		.loc 1 269 0
 395 0038 214D     		ldr	r5, .L30+8
 396 003a B0FA80F3 		clz	r3, r0
 397 003e 5B09     		lsrs	r3, r3, #5
 398 0040 2049     		ldr	r1, .L30+12
 399 0042 2846     		mov	r0, r5
 400 0044 FFF7FEFF 		bl	sprintf
 401              	.LVL23:
 270:main.c        ****         LCD_Char_Position(0u,0u);
 402              		.loc 1 270 0
 403 0048 0120     		movs	r0, #1
 404 004a FFF7FEFF 		bl	LCD_Char_WriteControl
 405              	.LVL24:
 271:main.c        ****         LCD_Char_PrintString(OutputString);
 406              		.loc 1 271 0
 407 004e 0021     		movs	r1, #0
 408 0050 0846     		mov	r0, r1
 409 0052 FFF7FEFF 		bl	LCD_Char_Position
 410              	.LVL25:
 272:main.c        ****         dataFlag = FALSE;
 411              		.loc 1 272 0
 412 0056 2846     		mov	r0, r5
 413 0058 FFF7FEFF 		bl	LCD_Char_PrintString
 414              	.LVL26:
 273:main.c        ****         lcdFlagData = FALSE;
ARM GAS  C:\Users\ipfajard\AppData\Local\Temp\ccZYZuxG.s 			page 14


 415              		.loc 1 273 0
 416 005c 0023     		movs	r3, #0
 417 005e A371     		strb	r3, [r4, #6]
 274:main.c        ****     // Postfix will display good or bad below data on screen
 418              		.loc 1 274 0
 419 0060 2374     		strb	r3, [r4, #16]
 420 0062 26E0     		b	.L24
 421              	.L27:
 276:main.c        ****         LCD_Char_Position(1u,0u);
 422              		.loc 1 276 0
 423 0064 144B     		ldr	r3, .L30
 424 0066 5B7C     		ldrb	r3, [r3, #17]	@ zero_extendqisi2
 425 0068 012B     		cmp	r3, #1
 426 006a 11D1     		bne	.L28
 427              	.LBB2:
 277:main.c        ****         char8 displayG[] = "good";
 428              		.loc 1 277 0
 429 006c 0021     		movs	r1, #0
 430 006e 0120     		movs	r0, #1
 431 0070 FFF7FEFF 		bl	LCD_Char_Position
 432              	.LVL27:
 278:main.c        ****         LCD_Char_PrintString(displayG);
 433              		.loc 1 278 0
 434 0074 144B     		ldr	r3, .L30+16
 435 0076 93E80300 		ldmia	r3, {r0, r1}
 436 007a 0090     		str	r0, [sp]
 437 007c 8DF80410 		strb	r1, [sp, #4]
 279:main.c        ****         dataFlag = FALSE;
 438              		.loc 1 279 0
 439 0080 6846     		mov	r0, sp
 440 0082 FFF7FEFF 		bl	LCD_Char_PrintString
 441              	.LVL28:
 280:main.c        ****         lcdFlagDecode = FALSE;
 442              		.loc 1 280 0
 443 0086 0C4B     		ldr	r3, .L30
 444 0088 0022     		movs	r2, #0
 445 008a 9A71     		strb	r2, [r3, #6]
 281:main.c        ****     }else if(decodeWrong == TRUE){
 446              		.loc 1 281 0
 447 008c 5A74     		strb	r2, [r3, #17]
 448              	.LBE2:
 449 008e 10E0     		b	.L24
 450              	.L28:
 282:main.c        ****         LCD_Char_Position(1u,0u);
 451              		.loc 1 282 0
 452 0090 094B     		ldr	r3, .L30
 453 0092 9B7C     		ldrb	r3, [r3, #18]	@ zero_extendqisi2
 454 0094 012B     		cmp	r3, #1
 455 0096 0CD1     		bne	.L24
 456              	.LBB3:
 283:main.c        ****         char8 displayB[] = "bad";
 457              		.loc 1 283 0
 458 0098 0021     		movs	r1, #0
 459 009a 0120     		movs	r0, #1
 460 009c FFF7FEFF 		bl	LCD_Char_Position
 461              	.LVL29:
 284:main.c        ****         LCD_Char_PrintString(displayB);
ARM GAS  C:\Users\ipfajard\AppData\Local\Temp\ccZYZuxG.s 			page 15


 462              		.loc 1 284 0
 463 00a0 02A8     		add	r0, sp, #8
 464 00a2 0A4B     		ldr	r3, .L30+20
 465 00a4 40F8083D 		str	r3, [r0, #-8]!
 285:main.c        ****         decodeWrong = FALSE;
 466              		.loc 1 285 0
 467 00a8 FFF7FEFF 		bl	LCD_Char_PrintString
 468              	.LVL30:
 286:main.c        ****     }
 469              		.loc 1 286 0
 470 00ac 0022     		movs	r2, #0
 471 00ae 024B     		ldr	r3, .L30
 472 00b0 9A74     		strb	r2, [r3, #18]
 473              	.L24:
 474              	.LBE3:
 288:main.c        **** 
 475              		.loc 1 288 0
 476 00b2 03B0     		add	sp, sp, #12
 477              		.cfi_def_cfa_offset 12
 478              		@ sp needed
 479 00b4 30BD     		pop	{r4, r5, pc}
 480              	.L31:
 481 00b6 00BF     		.align	2
 482              	.L30:
 483 00b8 00000000 		.word	.LANCHOR0
 484 00bc 00000000 		.word	.LC0
 485 00c0 00000000 		.word	OutputString
 486 00c4 10000000 		.word	.LC1
 487 00c8 20000000 		.word	.LC2
 488 00cc 62616400 		.word	6578530
 489              		.cfi_endproc
 490              	.LFE68:
 491              		.size	Display, .-Display
 492              		.section	.text.SendData,"ax",%progbits
 493              		.align	2
 494              		.global	SendData
 495              		.thumb
 496              		.thumb_func
 497              		.type	SendData, %function
 498              	SendData:
 499              	.LFB70:
 313:main.c        **** 
 314:main.c        **** void SendData()
 315:main.c        **** {
 500              		.loc 1 315 0
 501              		.cfi_startproc
 502              		@ args = 0, pretend = 0, frame = 0
 503              		@ frame_needed = 0, uses_anonymous_args = 0
 504 0000 10B5     		push	{r4, lr}
 505              		.cfi_def_cfa_offset 8
 506              		.cfi_offset 4, -8
 507              		.cfi_offset 14, -4
 316:main.c        ****     UART_WriteTxData(crabs);
 508              		.loc 1 316 0
 509 0002 094C     		ldr	r4, .L36
 510 0004 A07B     		ldrb	r0, [r4, #14]	@ zero_extendqisi2
 511 0006 FFF7FEFF 		bl	UART_WriteTxData
ARM GAS  C:\Users\ipfajard\AppData\Local\Temp\ccZYZuxG.s 			page 16


 512              	.LVL31:
 317:main.c        ****     if((paritySuccess == SUCCESS) && (decodeWrong != TRUE)){
 513              		.loc 1 317 0
 514 000a 6369     		ldr	r3, [r4, #20]
 515 000c 012B     		cmp	r3, #1
 516 000e 06D1     		bne	.L33
 517              		.loc 1 317 0 is_stmt 0 discriminator 1
 518 0010 A37C     		ldrb	r3, [r4, #18]	@ zero_extendqisi2
 519 0012 012B     		cmp	r3, #1
 520 0014 03D0     		beq	.L33
 318:main.c        ****         UART_WriteTxData(SUCCESS);
 521              		.loc 1 318 0 is_stmt 1
 522 0016 0120     		movs	r0, #1
 523 0018 FFF7FEFF 		bl	UART_WriteTxData
 524              	.LVL32:
 525 001c 10BD     		pop	{r4, pc}
 526              	.L33:
 319:main.c        ****     }else{
 320:main.c        ****         UART_WriteTxData(FAILURE);
 527              		.loc 1 320 0
 528 001e 0020     		movs	r0, #0
 529 0020 FFF7FEFF 		bl	UART_WriteTxData
 530              	.LVL33:
 531 0024 10BD     		pop	{r4, pc}
 532              	.L37:
 533 0026 00BF     		.align	2
 534              	.L36:
 535 0028 00000000 		.word	.LANCHOR0
 536              		.cfi_endproc
 537              	.LFE70:
 538              		.size	SendData, .-SendData
 539              		.section	.text.stopModules,"ax",%progbits
 540              		.align	2
 541              		.global	stopModules
 542              		.thumb
 543              		.thumb_func
 544              		.type	stopModules, %function
 545              	stopModules:
 546              	.LFB71:
 321:main.c        ****     }
 322:main.c        **** }
 323:main.c        **** 
 324:main.c        **** void stopModules(void){
 547              		.loc 1 324 0
 548              		.cfi_startproc
 549              		@ args = 0, pretend = 0, frame = 0
 550              		@ frame_needed = 0, uses_anonymous_args = 0
 551 0000 08B5     		push	{r3, lr}
 552              		.cfi_def_cfa_offset 8
 553              		.cfi_offset 3, -8
 554              		.cfi_offset 14, -4
 325:main.c        ****     
 326:main.c        ****     LCD_Char_Stop();
 555              		.loc 1 326 0
 556 0002 FFF7FEFF 		bl	LCD_Char_Stop
 557              	.LVL34:
 327:main.c        ****     UART_Stop();
ARM GAS  C:\Users\ipfajard\AppData\Local\Temp\ccZYZuxG.s 			page 17


 558              		.loc 1 327 0
 559 0006 FFF7FEFF 		bl	UART_Stop
 560              	.LVL35:
 328:main.c        ****     PWM_Recon_Stop();
 561              		.loc 1 328 0
 562 000a FFF7FEFF 		bl	PWM_Recon_Stop
 563              	.LVL36:
 329:main.c        ****     Shift_Reg_Stop();
 564              		.loc 1 329 0
 565 000e FFF7FEFF 		bl	Shift_Reg_Stop
 566              	.LVL37:
 330:main.c        ****     Out_Comp_Stop();
 567              		.loc 1 330 0
 568 0012 FFF7FEFF 		bl	Out_Comp_Stop
 569              	.LVL38:
 331:main.c        ****     Bit_Timer_Stop();
 570              		.loc 1 331 0
 571 0016 FFF7FEFF 		bl	Bit_Timer_Stop
 572              	.LVL39:
 332:main.c        ****     checkWatchDogTimer_Stop();
 573              		.loc 1 332 0
 574 001a FFF7FEFF 		bl	checkWatchDogTimer_Stop
 575              	.LVL40:
 576 001e 08BD     		pop	{r3, pc}
 577              		.cfi_endproc
 578              	.LFE71:
 579              		.size	stopModules, .-stopModules
 580              		.section	.text.startModules,"ax",%progbits
 581              		.align	2
 582              		.global	startModules
 583              		.thumb
 584              		.thumb_func
 585              		.type	startModules, %function
 586              	startModules:
 587              	.LFB72:
 333:main.c        **** 
 334:main.c        **** 
 335:main.c        **** }
 336:main.c        **** void startModules(void){
 588              		.loc 1 336 0
 589              		.cfi_startproc
 590              		@ args = 0, pretend = 0, frame = 0
 591              		@ frame_needed = 0, uses_anonymous_args = 0
 592 0000 08B5     		push	{r3, lr}
 593              		.cfi_def_cfa_offset 8
 594              		.cfi_offset 3, -8
 595              		.cfi_offset 14, -4
 337:main.c        ****     
 338:main.c        ****     LCD_Char_Start();
 596              		.loc 1 338 0
 597 0002 FFF7FEFF 		bl	LCD_Char_Start
 598              	.LVL41:
 339:main.c        ****     UART_Start();
 599              		.loc 1 339 0
 600 0006 FFF7FEFF 		bl	UART_Start
 601              	.LVL42:
 340:main.c        ****     PWM_Recon_Start();
ARM GAS  C:\Users\ipfajard\AppData\Local\Temp\ccZYZuxG.s 			page 18


 602              		.loc 1 340 0
 603 000a FFF7FEFF 		bl	PWM_Recon_Start
 604              	.LVL43:
 341:main.c        ****     Shift_Reg_Start();
 605              		.loc 1 341 0
 606 000e FFF7FEFF 		bl	Shift_Reg_Start
 607              	.LVL44:
 342:main.c        ****     Out_Comp_Start();
 608              		.loc 1 342 0
 609 0012 FFF7FEFF 		bl	Out_Comp_Start
 610              	.LVL45:
 343:main.c        ****     //Bit_Timer_Start();
 344:main.c        ****     // Start timer to clear watch dog
 345:main.c        ****     checkWatchDogTimer_Start();
 611              		.loc 1 345 0
 612 0016 FFF7FEFF 		bl	checkWatchDogTimer_Start
 613              	.LVL46:
 614 001a 08BD     		pop	{r3, pc}
 615              		.cfi_endproc
 616              	.LFE72:
 617              		.size	startModules, .-startModules
 618              		.section	.text.main,"ax",%progbits
 619              		.align	2
 620              		.global	main
 621              		.thumb
 622              		.thumb_func
 623              		.type	main, %function
 624              	main:
 625              	.LFB64:
  71:main.c        ****     
 626              		.loc 1 71 0
 627              		.cfi_startproc
 628              		@ Volatile: function does not return.
 629              		@ args = 0, pretend = 0, frame = 0
 630              		@ frame_needed = 0, uses_anonymous_args = 0
 631 0000 08B5     		push	{r3, lr}
 632              		.cfi_def_cfa_offset 8
 633              		.cfi_offset 3, -8
 634              		.cfi_offset 14, -4
  73:main.c        ****     
 635              		.loc 1 73 0
 636              		.syntax unified
 637              	@ 73 "main.c" 1
 638 0002 62B6     		CPSIE   i
 639              	@ 0 "" 2
  75:main.c        ****     
 640              		.loc 1 75 0
 641              		.thumb
 642              		.syntax unified
 643 0004 FFF7FEFF 		bl	startModules
 644              	.LVL47:
  78:main.c        ****     LCD_Char_Position(0u,0u); // Resets cursor to top of LCD Screen
 645              		.loc 1 78 0
 646 0008 224C     		ldr	r4, .L46
 647 000a 234D     		ldr	r5, .L46+4
 648 000c 0FCD     		ldmia	r5!, {r0, r1, r2, r3}
 649 000e 2060     		str	r0, [r4]	@ unaligned
ARM GAS  C:\Users\ipfajard\AppData\Local\Temp\ccZYZuxG.s 			page 19


 650 0010 6160     		str	r1, [r4, #4]	@ unaligned
 651 0012 A260     		str	r2, [r4, #8]	@ unaligned
 652 0014 E360     		str	r3, [r4, #12]	@ unaligned
 653 0016 2B78     		ldrb	r3, [r5]	@ zero_extendqisi2
 654 0018 2374     		strb	r3, [r4, #16]
  79:main.c        ****     LCD_Char_PrintString(display);
 655              		.loc 1 79 0
 656 001a 0021     		movs	r1, #0
 657 001c 0846     		mov	r0, r1
 658 001e FFF7FEFF 		bl	LCD_Char_Position
 659              	.LVL48:
  80:main.c        ****     //CyDelay(FiveSecs);
 660              		.loc 1 80 0
 661 0022 2046     		mov	r0, r4
 662 0024 FFF7FEFF 		bl	LCD_Char_PrintString
 663              	.LVL49:
  86:main.c        ****     Sleep_ISR_StartEx(wakeUp_ISR);    
 664              		.loc 1 86 0
 665 0028 1C48     		ldr	r0, .L46+8
 666 002a FFF7FEFF 		bl	Timer_ISR_StartEx
 667              	.LVL50:
  87:main.c        ****     watchDogCheck_StartEx(watchDogCheck);
 668              		.loc 1 87 0
 669 002e 1C48     		ldr	r0, .L46+12
 670 0030 FFF7FEFF 		bl	Sleep_ISR_StartEx
 671              	.LVL51:
  88:main.c        ****     
 672              		.loc 1 88 0
 673 0034 1B48     		ldr	r0, .L46+16
 674 0036 FFF7FEFF 		bl	watchDogCheck_StartEx
 675              	.LVL52:
  92:main.c        ****     
 676              		.loc 1 92 0
 677 003a 0021     		movs	r1, #0
 678 003c 0320     		movs	r0, #3
 679 003e FFF7FEFF 		bl	CyWdtStart
 680              	.LVL53:
  94:main.c        **** 
 681              		.loc 1 94 0
 682 0042 FFF7FEFF 		bl	SleepTimer_Start
 683              	.LVL54:
  97:main.c        ****     LCD_Char_Position(0u,0u); // Resets cursor to top of LCD Screen
 684              		.loc 1 97 0
 685 0046 184D     		ldr	r5, .L46+20
 686 0048 0FCD     		ldmia	r5!, {r0, r1, r2, r3}
 687 004a 2060     		str	r0, [r4]	@ unaligned
 688 004c 6160     		str	r1, [r4, #4]	@ unaligned
 689 004e A260     		str	r2, [r4, #8]	@ unaligned
 690 0050 E360     		str	r3, [r4, #12]	@ unaligned
 691 0052 2B88     		ldrh	r3, [r5]	@ unaligned
 692 0054 2382     		strh	r3, [r4, #16]	@ unaligned
  98:main.c        ****     LCD_Char_PrintString(display);
 693              		.loc 1 98 0
 694 0056 0021     		movs	r1, #0
 695 0058 0846     		mov	r0, r1
 696 005a FFF7FEFF 		bl	LCD_Char_Position
 697              	.LVL55:
ARM GAS  C:\Users\ipfajard\AppData\Local\Temp\ccZYZuxG.s 			page 20


  99:main.c        ****     
 698              		.loc 1 99 0
 699 005e 2046     		mov	r0, r4
 700 0060 FFF7FEFF 		bl	LCD_Char_PrintString
 701              	.LVL56:
 101:main.c        **** 
 702              		.loc 1 101 0
 703 0064 0120     		movs	r0, #1
 704 0066 FFF7FEFF 		bl	Power_Toggle_Write
 705              	.LVL57:
 706              	.L43:
 105:main.c        ****          // PSoC Sleep command. To adjust sleep time, change in the hardware
 707              		.loc 1 105 0
 708 006a FFF7FEFF 		bl	Display
 709              	.LVL58:
 109:main.c        ****             
 710              		.loc 1 109 0
 711 006e 0F4B     		ldr	r3, .L46+24
 712 0070 1B7E     		ldrb	r3, [r3, #24]	@ zero_extendqisi2
 713 0072 012B     		cmp	r3, #1
 714 0074 F9D1     		bne	.L43
 111:main.c        ****             Power_Toggle_Write(FALSE);
 715              		.loc 1 111 0
 716 0076 0024     		movs	r4, #0
 717 0078 0C4B     		ldr	r3, .L46+24
 718 007a 1C76     		strb	r4, [r3, #24]
 112:main.c        ****             stopModules(); 
 719              		.loc 1 112 0
 720 007c 2046     		mov	r0, r4
 721 007e FFF7FEFF 		bl	Power_Toggle_Write
 722              	.LVL59:
 113:main.c        ****             CyPmSleep(PM_SLEEP_TIME_NONE, PM_SLEEP_SRC_CTW);
 723              		.loc 1 113 0
 724 0082 FFF7FEFF 		bl	stopModules
 725              	.LVL60:
 114:main.c        ****         
 726              		.loc 1 114 0
 727 0086 4FF40061 		mov	r1, #2048
 728 008a 2046     		mov	r0, r4
 729 008c FFF7FEFF 		bl	CyPmSleep
 730              	.LVL61:
 731 0090 EBE7     		b	.L43
 732              	.L47:
 733 0092 00BF     		.align	2
 734              	.L46:
 735 0094 00000000 		.word	display
 736 0098 28000000 		.word	.LC3
 737 009c 00000000 		.word	Bit_Timer
 738 00a0 00000000 		.word	wakeUp_ISR
 739 00a4 00000000 		.word	watchDogCheck
 740 00a8 3C000000 		.word	.LC4
 741 00ac 00000000 		.word	.LANCHOR0
 742              		.cfi_endproc
 743              	.LFE64:
 744              		.size	main, .-main
 745              		.section	.text.wakeUp_ISR,"ax",%progbits
 746              		.align	2
ARM GAS  C:\Users\ipfajard\AppData\Local\Temp\ccZYZuxG.s 			page 21


 747              		.global	wakeUp_ISR
 748              		.thumb
 749              		.thumb_func
 750              		.type	wakeUp_ISR, %function
 751              	wakeUp_ISR:
 752              	.LFB67:
 227:main.c        ****     
 753              		.loc 1 227 0
 754              		.cfi_startproc
 755              		@ args = 0, pretend = 0, frame = 0
 756              		@ frame_needed = 0, uses_anonymous_args = 0
 757 0000 08B5     		push	{r3, lr}
 758              		.cfi_def_cfa_offset 8
 759              		.cfi_offset 3, -8
 760              		.cfi_offset 14, -4
 229:main.c        ****     SleepTimer_GetStatus(); // Clears the sleep timer interrupt
 761              		.loc 1 229 0
 762 0002 FFF7FEFF 		bl	CyWdtClear
 763              	.LVL62:
 230:main.c        ****     Power_Toggle_Write(TRUE);
 764              		.loc 1 230 0
 765 0006 FFF7FEFF 		bl	SleepTimer_GetStatus
 766              	.LVL63:
 231:main.c        ****     startModules();
 767              		.loc 1 231 0
 768 000a 0120     		movs	r0, #1
 769 000c FFF7FEFF 		bl	Power_Toggle_Write
 770              	.LVL64:
 232:main.c        **** //    sleepToggle_Write(TRUE);
 771              		.loc 1 232 0
 772 0010 FFF7FEFF 		bl	startModules
 773              	.LVL65:
 238:main.c        ****         SleepTimer_Stop();
 774              		.loc 1 238 0
 775 0014 FFF7FEFF 		bl	Out_Comp_GetCompare
 776              	.LVL66:
 777 0018 28B1     		cbz	r0, .L49
 239:main.c        ****         Bit_Timer_Start();
 778              		.loc 1 239 0
 779 001a FFF7FEFF 		bl	SleepTimer_Stop
 780              	.LVL67:
 240:main.c        ****         //trigger interrupt to avoid data loss 
 781              		.loc 1 240 0
 782 001e FFF7FEFF 		bl	Bit_Timer_Start
 783              	.LVL68:
 242:main.c        ****     }
 784              		.loc 1 242 0
 785 0022 FFF7FEFF 		bl	Timer_ISR_Enable
 786              	.LVL69:
 787              	.L49:
 245:main.c        **** 
 788              		.loc 1 245 0
 789 0026 0122     		movs	r2, #1
 790 0028 014B     		ldr	r3, .L51
 791 002a 1A76     		strb	r2, [r3, #24]
 792 002c 08BD     		pop	{r3, pc}
 793              	.L52:
ARM GAS  C:\Users\ipfajard\AppData\Local\Temp\ccZYZuxG.s 			page 22


 794 002e 00BF     		.align	2
 795              	.L51:
 796 0030 00000000 		.word	.LANCHOR0
 797              		.cfi_endproc
 798              	.LFE67:
 799              		.size	wakeUp_ISR, .-wakeUp_ISR
 800              		.comm	display,12,4
 801              		.comm	OutputString,12,4
 802              		.section	.rodata.str1.4,"aMS",%progbits,1
 803              		.align	2
 804              	.LC0:
 805 0000 30784646 		.ascii	"0xFF pre-fix\000"
 805      20707265 
 805      2D666978 
 805      00
 806 000d 000000   		.space	3
 807              	.LC1:
 808 0010 43726162 		.ascii	"Crabs:%i Err:%i\000"
 808      733A2569 
 808      20457272 
 808      3A256900 
 809              	.LC2:
 810 0020 676F6F64 		.ascii	"good\000"
 810      00
 811 0025 000000   		.space	3
 812              	.LC3:
 813 0028 53746172 		.ascii	"Starting Module!\000"
 813      74696E67 
 813      204D6F64 
 813      756C6521 
 813      00
 814 0039 000000   		.space	3
 815              	.LC4:
 816 003c 636F756E 		.ascii	"counting crabs...\000"
 816      74696E67 
 816      20637261 
 816      62732E2E 
 816      2E00
 817              		.bss
 818              		.align	2
 819              		.set	.LANCHOR0,. + 0
 820              		.type	levelCounter, %object
 821              		.size	levelCounter, 2
 822              	levelCounter:
 823 0000 0000     		.space	2
 824              		.type	oneCount, %object
 825              		.size	oneCount, 2
 826              	oneCount:
 827 0002 0000     		.space	2
 828              		.type	zeroCount, %object
 829              		.size	zeroCount, 2
 830              	zeroCount:
 831 0004 0000     		.space	2
 832              		.type	dataFlag, %object
 833              		.size	dataFlag, 1
 834              	dataFlag:
 835 0006 00       		.space	1
ARM GAS  C:\Users\ipfajard\AppData\Local\Temp\ccZYZuxG.s 			page 23


 836              		.type	decodeFlag, %object
 837              		.size	decodeFlag, 1
 838              	decodeFlag:
 839 0007 00       		.space	1
 840              		.type	currentBit, %object
 841              		.size	currentBit, 1
 842              	currentBit:
 843 0008 00       		.space	1
 844              		.type	dataCount, %object
 845              		.size	dataCount, 1
 846              	dataCount:
 847 0009 00       		.space	1
 848              		.type	data, %object
 849              		.size	data, 2
 850              	data:
 851 000a 0000     		.space	2
 852              		.type	lcdFlagEncode, %object
 853              		.size	lcdFlagEncode, 1
 854              	lcdFlagEncode:
 855 000c 00       		.space	1
 856 000d 00       		.space	1
 857              		.type	crabs, %object
 858              		.size	crabs, 2
 859              	crabs:
 860 000e 0000     		.space	2
 861              		.type	lcdFlagData, %object
 862              		.size	lcdFlagData, 1
 863              	lcdFlagData:
 864 0010 00       		.space	1
 865              		.type	lcdFlagDecode, %object
 866              		.size	lcdFlagDecode, 1
 867              	lcdFlagDecode:
 868 0011 00       		.space	1
 869              		.type	decodeWrong, %object
 870              		.size	decodeWrong, 1
 871              	decodeWrong:
 872 0012 00       		.space	1
 873              		.type	threeTransmissions, %object
 874              		.size	threeTransmissions, 1
 875              	threeTransmissions:
 876 0013 00       		.space	1
 877              		.type	paritySuccess, %object
 878              		.size	paritySuccess, 4
 879              	paritySuccess:
 880 0014 00000000 		.space	4
 881              		.type	sleepFlag, %object
 882              		.size	sleepFlag, 1
 883              	sleepFlag:
 884 0018 00       		.space	1
 885              		.text
 886              	.Letext0:
 887              		.file 2 "c:\\program files (x86)\\cypress\\psoc creator\\4.1\\psoc creator\\import\\gnu\\arm\\5.4.
 888              		.file 3 "c:\\program files (x86)\\cypress\\psoc creator\\4.1\\psoc creator\\import\\gnu\\arm\\5.4.
 889              		.file 4 "Generated_Source\\PSoC5/cytypes.h"
 890              		.file 5 "Generated_Source\\PSoC5/core_cm3.h"
 891              		.file 6 "Generated_Source\\PSoC5/Out_Comp.h"
 892              		.file 7 "Generated_Source\\PSoC5/Count_Out.h"
ARM GAS  C:\Users\ipfajard\AppData\Local\Temp\ccZYZuxG.s 			page 24


 893              		.file 8 "Generated_Source\\PSoC5/SleepTimer.h"
 894              		.file 9 "Generated_Source\\PSoC5/Bit_Timer.h"
 895              		.file 10 "Generated_Source\\PSoC5/CyLib.h"
 896              		.file 11 "Generated_Source\\PSoC5/LCD_Char.h"
 897              		.file 12 "c:\\program files (x86)\\cypress\\psoc creator\\4.1\\psoc creator\\import\\gnu\\arm\\5.4
 898              		.file 13 "Generated_Source\\PSoC5/UART.h"
 899              		.file 14 "Generated_Source\\PSoC5/PWM_Recon.h"
 900              		.file 15 "Generated_Source\\PSoC5/Shift_Reg.h"
 901              		.file 16 "Generated_Source\\PSoC5/checkWatchDogTimer.h"
 902              		.file 17 "Generated_Source\\PSoC5/Timer_ISR.h"
 903              		.file 18 "Generated_Source\\PSoC5/Sleep_ISR.h"
 904              		.file 19 "Generated_Source\\PSoC5/watchDogCheck.h"
 905              		.file 20 "Generated_Source\\PSoC5/Power_Toggle.h"
 906              		.file 21 "Generated_Source\\PSoC5/cyPm.h"