ARM GAS  C:\Users\ipfajard\AppData\Local\Temp\ccgEIzEi.s 			page 1


   1              		.syntax unified
   2              		.cpu cortex-m3
   3              		.fpu softvfp
   4              		.eabi_attribute 20, 1
   5              		.eabi_attribute 21, 1
   6              		.eabi_attribute 23, 3
   7              		.eabi_attribute 24, 1
   8              		.eabi_attribute 25, 1
   9              		.eabi_attribute 26, 1
  10              		.eabi_attribute 30, 1
  11              		.eabi_attribute 34, 1
  12              		.eabi_attribute 18, 4
  13              		.thumb
  14              		.syntax unified
  15              		.file	"main.c"
  16              		.text
  17              	.Ltext0:
  18              		.cfi_sections	.debug_frame
  19              		.section	.text.watchDogCheck,"ax",%progbits
  20              		.align	2
  21              		.global	watchDogCheck
  22              		.thumb
  23              		.thumb_func
  24              		.type	watchDogCheck, %function
  25              	watchDogCheck:
  26              	.LFB66:
  27              		.file 1 "main.c"
   1:main.c        **** /* =============================================================================
   2:main.c        ****  * Smart Crab Trap
   3:main.c        ****  * High FSK Rx
   4:main.c        ****  * Edited by: Stephanie Salazar
   5:main.c        ****  * Revision: 5/29/18
   6:main.c        ****  * Function: This project takes in a signal from an outside source
   7:main.c        ****  * and reads the data within the signal. This code waits for a pre-fix
   8:main.c        ****  * of 0xFF and then reads the next 4 bits as the data and confirms
   9:main.c        ****  * the message with a post-fix of 0x01. The data is displayed on an LCD display.
  10:main.c        ****  * =============================================================================
  11:main.c        **** */
  12:main.c        **** 
  13:main.c        **** #include "project.h"
  14:main.c        **** #include <stdio.h>
  15:main.c        **** #include "LCD_Char.h"
  16:main.c        **** 
  17:main.c        **** #define ARRAY_SIZE        12
  18:main.c        **** #define COUNT             100
  19:main.c        **** #define PREFIX_ACCURACY   90
  20:main.c        **** #define DATA_ACCURACY     70
  21:main.c        **** #define DATA_LENGTH       7
  22:main.c        **** #define PREFIX            0xFF
  23:main.c        **** #define POSTFIX           0x01
  24:main.c        **** #define SUCCESS           0x1
  25:main.c        **** #define FAILURE           0x0
  26:main.c        **** #define TRUE              0x1
  27:main.c        **** #define FALSE             0x0
  28:main.c        **** #define ON                0x1
  29:main.c        **** #define OFF               0x0
  30:main.c        **** #define FiveSecs          5000
ARM GAS  C:\Users\ipfajard\AppData\Local\Temp\ccgEIzEi.s 			page 2


  31:main.c        **** #define TRANSMISSIONS_3   2
  32:main.c        **** #define Delay             4
  33:main.c        **** #define DATA_STORED       3
  34:main.c        **** #define OVERTIME          8105  
  35:main.c        **** 
  36:main.c        **** #define BIT_0_MASK 0x01
  37:main.c        **** #define BIT_1_MASK 0x02
  38:main.c        **** #define BIT_2_MASK 0x04
  39:main.c        **** #define BIT_3_MASK 0x08
  40:main.c        **** #define BIT_4_MASK 0x10
  41:main.c        **** #define BIT_5_MASK 0x20
  42:main.c        **** #define BIT_6_MASK 0x40
  43:main.c        **** #define BIT_7_MASK 0x80
  44:main.c        **** 
  45:main.c        **** /*Function Prototypes*/
  46:main.c        **** void Display(void);
  47:main.c        **** int CheckParity(int);
  48:main.c        **** void SendData(void);
  49:main.c        **** void startModules(void);
  50:main.c        **** void sleepModules(void);
  51:main.c        **** void wakeUpModules(void);
  52:main.c        **** void LCD_Display(void); 
  53:main.c        **** void accuracy_Check(int count, int accuracy); 
  54:main.c        **** 
  55:main.c        **** // Interrupt for switching bits 5 ms
  56:main.c        **** CY_ISR_PROTO(Bit_Timer);
  57:main.c        **** CY_ISR_PROTO(watchDogCheck);
  58:main.c        **** CY_ISR_PROTO(wakeUp_ISR);
  59:main.c        **** 
  60:main.c        **** // Global Variables
  61:main.c        **** static uint16 levelCounter = 0; // Timer counter to debounce bit
  62:main.c        **** static uint16 zeroCount = 0; // 0 count used in timer counter debounce
  63:main.c        **** static uint16 oneCount = 0; // 1 count used in timer counter debounce
  64:main.c        **** static uint8 currentBit = 0; // x/10 bit decision for 500 ms bit
  65:main.c        **** static uint8 dataCount = 0; // which bit of data we are looking at
  66:main.c        **** static uint16 data = 0; // byte bits of data
  67:main.c        **** static uint16 crabs = 0; // byte of data transferred from data variable
  68:main.c        **** static uint8 dataFlag = 0; // Flag to start looking for data
  69:main.c        **** static uint8 postfixFlag = 0; // Flag to start looking for post-fix
  70:main.c        **** static uint8 paritySuccess = 0; // Flag for whether transmitted parity matches data
  71:main.c        **** static uint8 threeTransmissions = 0; // checks for 3 transmission before reinstatiating sleep timer
  72:main.c        **** static uint8 sleepFlag = FALSE; 
  73:main.c        **** 
  74:main.c        **** // LCD String Variables
  75:main.c        **** static char OutputString[ARRAY_SIZE];
  76:main.c        **** static char display[ARRAY_SIZE];
  77:main.c        **** 
  78:main.c        **** // Store Received Data
  79:main.c        **** static uint8 allData[DATA_STORED];
  80:main.c        **** static uint8 parityResult[DATA_STORED];
  81:main.c        **** static uint8 postFixResult[DATA_STORED];
  82:main.c        **** 
  83:main.c        **** // FLAGS for turning on messages on LCD screen
  84:main.c        **** static uint8 lcdFlagEncode = FALSE; // Turns on pre-fix message
  85:main.c        **** static uint8 lcdFlagData = FALSE; // Displays data 
  86:main.c        **** static uint8 lcdFlagDecode = FALSE; // good or bad postfix
  87:main.c        **** static uint8 decodeWrong = FALSE;
ARM GAS  C:\Users\ipfajard\AppData\Local\Temp\ccgEIzEi.s 			page 3


  88:main.c        **** 
  89:main.c        **** 
  90:main.c        **** int main(void)
  91:main.c        **** {
  92:main.c        ****     CyGlobalIntEnable; 
  93:main.c        ****     startModules();
  94:main.c        ****     
  95:main.c        ****     /* Module is turned on- will display again if watchdog timer is enabled */
  96:main.c        ****     sprintf(display, "Starting Module!");
  97:main.c        ****     LCD_Display();
  98:main.c        ****     CyDelay(500);
  99:main.c        ****    
 100:main.c        ****     // Start watch dog timer to check for blocks in code
 101:main.c        ****     //CyWdtStart(CYWDT_16_TICKS, CYWDT_LPMODE_NOCHANGE); // 4-6 ms
 102:main.c        **** 
 103:main.c        ****     // Displays Loading Message before receiving pre-fix=
 104:main.c        ****     sprintf(display, "counting crabs...");
 105:main.c        ****     LCD_Char_Position(0u,0u); // Resets cursor to top of LCD Screen
 106:main.c        ****     LCD_Char_PrintString(display);
 107:main.c        ****     
 108:main.c        ****     /*  Sleep Timer will trigger an interrup upon wakeup from sleep (8ms)
 109:main.c        ****     *   System must be put to sleep right after sleep timer start
 110:main.c        ****     *   Put all modules to sleep using void sleepModules(void) before!!!
 111:main.c        ****     *   Put system to sleep using CyPmSleep(PM_SLEEP_TIME_NONE, PM_SLEEP_SRC_CTW); 
 112:main.c        ****     *   PSoC Sleep command. To adjust sleep time, change in the hardware
 113:main.c        ****     *   block. No sleep time parameters taken in PSoC5LP.
 114:main.c        ****     *   PM_SLEEP_TIME_NONE is a relic of PSoC3
 115:main.c        ****     */
 116:main.c        ****     
 117:main.c        ****     
 118:main.c        ****     SleepTimer_Start(); 
 119:main.c        ****     sleepModules();
 120:main.c        ****     CyPmSleep(PM_SLEEP_TIME_NONE, PM_SLEEP_SRC_CTW);
 121:main.c        ****    
 122:main.c        ****     
 123:main.c        ****     for(;;)
 124:main.c        ****     {
 125:main.c        ****         Display(); //Displays incoming data depending on prefix/data/postfix flags
 126:main.c        ****        
 127:main.c        ****         
 128:main.c        ****         /*  sleepFlag starts as FALSE set 
 129:main.c        ****         *   Set to TRUE if wakeup ISR DOES NOT detects data
 130:main.c        ****         *   Puts the module back to sleep
 131:main.c        ****         */
 132:main.c        ****         
 133:main.c        ****         if(sleepFlag == TRUE){
 134:main.c        ****             
 135:main.c        ****             sleepFlag = FALSE;
 136:main.c        ****             SleepTimer_Start(); 
 137:main.c        ****             sleepModules(); 
 138:main.c        ****             CyPmSleep(PM_SLEEP_TIME_NONE, PM_SLEEP_SRC_CTW);
 139:main.c        ****                       sleepToggle_Write(TRUE);
 140:main.c        ****     CyDelay(Delay);
 141:main.c        ****     sleepToggle_Write(FALSE);
 142:main.c        ****         }
 143:main.c        ****     } // end of for(;;)
 144:main.c        ****     
ARM GAS  C:\Users\ipfajard\AppData\Local\Temp\ccgEIzEi.s 			page 4


 145:main.c        **** } // end of main()
 146:main.c        **** 
 147:main.c        **** 
 148:main.c        **** ///*********************************************************************
 149:main.c        **** // * ISR: Bit_Timer
 150:main.c        **** // * parameters: void
 151:main.c        **** // * returns: void
 152:main.c        **** // * description: Bit length is 500 ms. Bit_Timer checks every 5 ms for
 153:main.c        **** // * a one or zero. After 100 checks, it decides the bit and looks for
 154:main.c        **** // * the prefix 0xff. If seen, record data. 
 155:main.c        **** // *********************************************************************
 156:main.c        **** // */
 157:main.c        **** CY_ISR(Bit_Timer){
 158:main.c        ****     
 159:main.c        ****    
 160:main.c        ****     static int overTimeCount = 0;  
 161:main.c        ****     
 162:main.c        ****     levelCounter++; //counting how many times Bit_Timer ISR set to track bits
 163:main.c        ****     overTimeCount++; 
 164:main.c        ****     
 165:main.c        ****     // Check whether bit is currently 1 or 0
 166:main.c        ****     if(Out_Comp_GetCompare() != 0){
 167:main.c        ****         oneCount++;
 168:main.c        ****     }else{
 169:main.c        ****         zeroCount++;
 170:main.c        ****     }
 171:main.c        ****     
 172:main.c        ****     // Debouncing
 173:main.c        ****     /*
 174:main.c        ****     *   Once levelCounter has reached a full bit length (100)
 175:main.c        ****     *   Depending if checking for pre-fix or payload 
 176:main.c        ****     *   Will check accuracy of data debouncing 
 177:main.c        ****     *   If >= defined accuracy will record data 
 178:main.c        ****     */
 179:main.c        ****     if(levelCounter == COUNT){
 180:main.c        ****         if((dataFlag == FALSE) && (postfixFlag == FALSE)){ //looking for prefix
 181:main.c        ****             
 182:main.c        ****             accuracy_Check(oneCount, PREFIX_ACCURACY); 
 183:main.c        **** 
 184:main.c        ****         }else{ // looking for data bits, can have less accuracy
 185:main.c        ****             
 186:main.c        ****             accuracy_Check(oneCount, DATA_ACCURACY);
 187:main.c        ****         }
 188:main.c        ****         
 189:main.c        ****         dataCount++; // Incremented after every bit
 190:main.c        ****         levelCounter = 0; // Reset timer bit debouncer  
 191:main.c        ****         
 192:main.c        ****         /*  Create data mask
 193:main.c        ****         *   Store new data (currentBit) in 0'th position 
 194:main.c        ****         */
 195:main.c        ****         data = data << 1; // Shift data over to store next bit
 196:main.c        ****         data = data | currentBit;
 197:main.c        ****         
 198:main.c        ****         
 199:main.c        ****         // Check if data is prefix(oxFF) but we are not looking for data or decode
 200:main.c        ****         if(((data & PREFIX) == PREFIX) && (dataFlag == FALSE) && (postfixFlag == FALSE)){ 
 201:main.c        ****             dataCount = 0;
ARM GAS  C:\Users\ipfajard\AppData\Local\Temp\ccgEIzEi.s 			page 5


 202:main.c        ****             data = 0;
 203:main.c        ****             dataFlag = TRUE; //Start looking for data
 204:main.c        ****             lcdFlagEncode = TRUE; //Display pre-fix on lcd
 205:main.c        ****         
 206:main.c        ****         //Check data by checking next 8 bits and parity (9 bits) after the encoding
 207:main.c        ****         }else if((dataFlag == TRUE) && (dataCount > DATA_LENGTH+1)){
 208:main.c        ****             crabs = data;
 209:main.c        ****             data = 0; //Restart data for decode
 210:main.c        ****             dataCount = 0; 
 211:main.c        ****             lcdFlagEncode = FALSE; //Turn off pre-fix message
 212:main.c        ****             lcdFlagData = TRUE; //Display data
 213:main.c        ****             postfixFlag = TRUE;
 214:main.c        ****         }
 215:main.c        ****         
 216:main.c        ****         // Check for 8 bits of post-fix
 217:main.c        ****         if(postfixFlag == TRUE && (dataCount > DATA_LENGTH)){
 218:main.c        ****             // Correct postfix is 0x01
 219:main.c        ****             if(data == POSTFIX){
 220:main.c        ****              lcdFlagDecode = TRUE; // lcd flag for "good" post-fix
 221:main.c        ****             }else{
 222:main.c        ****                 decodeWrong = TRUE; // lcd flag for "bad" post-fix
 223:main.c        ****             }
 224:main.c        ****             postfixFlag = FALSE;
 225:main.c        ****             dataFlag = FALSE; //Don't want to check for data anymore
 226:main.c        ****             
 227:main.c        ****             threeTransmissions++;
 228:main.c        ****            
 229:main.c        ****         }
 230:main.c        ****         
 231:main.c        ****         //If 3 messages recieved or data not recieved for too long
 232:main.c        ****         //then, put module back to sleep and
 233:main.c        ****         //wait for new messages 
 234:main.c        ****         if(threeTransmissions > TRANSMISSIONS_3 || overTimeCount > OVERTIME  ){
 235:main.c        ****             threeTransmissions = 0;
 236:main.c        ****             sleepModules(); 
 237:main.c        ****             CyPmSleep(PM_SLEEP_TIME_NONE, PM_SLEEP_SRC_CTW);
 238:main.c        ****             
 239:main.c        ****         }
 240:main.c        ****             
 241:main.c        ****         
 242:main.c        ****     } // end of if(levelCounter == COUNT)
 243:main.c        **** } /* END OF CY_ISR(HighF_LevelCount) */
 244:main.c        **** 
 245:main.c        **** ///*********************************************************************
 246:main.c        **** // * ISR: watchDogCheck
 247:main.c        **** // * parameters: void
 248:main.c        **** // * returns: void
 249:main.c        **** // * description: Clears watchdog timer to avoid reset unless timing 
 250:main.c        **** // * has drifted
 251:main.c        **** // *********************************************************************
 252:main.c        **** // */
 253:main.c        **** CY_ISR(watchDogCheck){
  28              		.loc 1 253 0
  29              		.cfi_startproc
  30              		@ args = 0, pretend = 0, frame = 0
  31              		@ frame_needed = 0, uses_anonymous_args = 0
  32 0000 08B5     		push	{r3, lr}
ARM GAS  C:\Users\ipfajard\AppData\Local\Temp\ccgEIzEi.s 			page 6


  33              		.cfi_def_cfa_offset 8
  34              		.cfi_offset 3, -8
  35              		.cfi_offset 14, -4
 254:main.c        ****     
 255:main.c        ****     CyWdtClear(); 
  36              		.loc 1 255 0
  37 0002 FFF7FEFF 		bl	CyWdtClear
  38              	.LVL0:
  39 0006 08BD     		pop	{r3, pc}
  40              		.cfi_endproc
  41              	.LFE66:
  42              		.size	watchDogCheck, .-watchDogCheck
  43              		.section	.text.CheckParity,"ax",%progbits
  44              		.align	2
  45              		.global	CheckParity
  46              		.thumb
  47              		.thumb_func
  48              		.type	CheckParity, %function
  49              	CheckParity:
  50              	.LFB69:
 256:main.c        ****         
 257:main.c        **** } /* END OF CY_ISR(watchDogCheck) */
 258:main.c        **** 
 259:main.c        **** ///*********************************************************************
 260:main.c        **** // * ISR: wakeUp_ISR
 261:main.c        **** // * parameters: void
 262:main.c        **** // * returns: void
 263:main.c        **** // * description: Checks for prefix and disables sleep if prefix is seen
 264:main.c        **** // * Timer is enabled to restart sleep if false positive
 265:main.c        **** // * If no prefix, disable interrupt and nothing else
 266:main.c        **** // *********************************************************************
 267:main.c        **** // */
 268:main.c        **** CY_ISR(wakeUp_ISR){
 269:main.c        ****     
 270:main.c        ****     
 271:main.c        ****     
 272:main.c        ****     CyWdtClear(); 
 273:main.c        ****     
 274:main.c        ****     SleepTimer_GetStatus(); // Clears the sleep timer interrupt
 275:main.c        ****     
 276:main.c        ****     startModules();
 277:main.c        ****     
 278:main.c        ****    
 279:main.c        ****     /*  If data detected DO NOT SLEEP
 280:main.c        ****     *   Stop sleep timer
 281:main.c        ****     *   Enable Bit_Timer to start clocking data
 282:main.c        ****     *   Trigger the data timing ISR (Data_ISR)
 283:main.c        ****     */ 
 284:main.c        ****     if(Out_Comp_GetCompare() != 0){
 285:main.c        ****         SleepTimer_Stop();
 286:main.c        ****         Bit_Timer_Start();
 287:main.c        ****         //trigger interrupt to avoid data loss 
 288:main.c        ****         Data_ISR_SetPending();
 289:main.c        ****     }else{
 290:main.c        ****         
 291:main.c        ****         sleepFlag = TRUE; 
 292:main.c        ****         
ARM GAS  C:\Users\ipfajard\AppData\Local\Temp\ccgEIzEi.s 			page 7


 293:main.c        ****     }
 294:main.c        **** 
 295:main.c        **** }/* END OF wakeUp_ISR */
 296:main.c        **** 
 297:main.c        **** 
 298:main.c        **** ///*********************************************************************
 299:main.c        **** // * function: void Display(void)
 300:main.c        **** // * parameters: void
 301:main.c        **** // * returns: void
 302:main.c        **** // * description: Displays current data on LCD display depending
 303:main.c        **** // * on what flags are set
 304:main.c        **** // *********************************************************************
 305:main.c        **** // */
 306:main.c        **** void Display()
 307:main.c        **** {
 308:main.c        ****     // LCD Screen Messages
 309:main.c        ****     // If encode is received, display message
 310:main.c        ****     if(lcdFlagEncode == TRUE){
 311:main.c        ****         LCD_Char_ClearDisplay();
 312:main.c        ****         LCD_Char_PrintString("0xFF pre-fix");
 313:main.c        ****         lcdFlagEncode = FALSE; 
 314:main.c        ****     // When 9 bits are received, data will display at top of screen
 315:main.c        ****     }else if(lcdFlagData == TRUE){
 316:main.c        ****         paritySuccess = CheckParity(crabs);
 317:main.c        ****         crabs = crabs >> 1;
 318:main.c        ****         sprintf(OutputString, "Crabs:%i Err:%i",crabs, !paritySuccess);
 319:main.c        ****         LCD_Char_ClearDisplay();
 320:main.c        ****         LCD_Char_Position(0u,0u);
 321:main.c        ****         LCD_Char_PrintString(OutputString);
 322:main.c        ****         dataFlag = FALSE;
 323:main.c        ****         lcdFlagData = FALSE;
 324:main.c        ****     // Postfix will display good or bad below data on screen
 325:main.c        ****     }else if(lcdFlagDecode == TRUE){
 326:main.c        ****         LCD_Char_Position(1u,0u);
 327:main.c        ****         char8 displayG[] = "good";
 328:main.c        ****         LCD_Char_PrintString(displayG);
 329:main.c        ****         dataFlag = FALSE;
 330:main.c        ****         lcdFlagDecode = FALSE;
 331:main.c        ****     }else if(decodeWrong == TRUE){
 332:main.c        ****         LCD_Char_Position(1u,0u);
 333:main.c        ****         char8 displayB[] = "bad";
 334:main.c        ****         LCD_Char_PrintString(displayB);
 335:main.c        ****         decodeWrong = FALSE;
 336:main.c        ****     }
 337:main.c        **** } /* END OF Display() */
 338:main.c        **** 
 339:main.c        **** ///********************************************************************
 340:main.c        **** // * function: void CheckParity(void)
 341:main.c        **** // * parameters: int received data including parity
 342:main.c        **** // * returns: int whether 
 343:main.c        **** // * description: XORs each bit of data to get even or odd parity for
 344:main.c        **** // * error checking
 345:main.c        **** // ********************************************************************
 346:main.c        **** // */
 347:main.c        **** int CheckParity(int crabs)
 348:main.c        **** {
  51              		.loc 1 348 0
ARM GAS  C:\Users\ipfajard\AppData\Local\Temp\ccgEIzEi.s 			page 8


  52              		.cfi_startproc
  53              		@ args = 0, pretend = 0, frame = 0
  54              		@ frame_needed = 0, uses_anonymous_args = 0
  55              		@ link register save eliminated.
  56              	.LVL1:
  57 0000 10B4     		push	{r4}
  58              		.cfi_def_cfa_offset 4
  59              		.cfi_offset 4, -4
  60              	.LVL2:
 349:main.c        ****     int i = 0;
 350:main.c        ****     int bitToCheck = crabs >> 1; // Remove parity from data
  61              		.loc 1 350 0
  62 0002 4210     		asrs	r2, r0, #1
  63              	.LVL3:
 351:main.c        ****     int receivedParity = (crabs & BIT_0_MASK); //Save parity from data received
  64              		.loc 1 351 0
  65 0004 00F00100 		and	r0, r0, #1
  66              	.LVL4:
 352:main.c        ****     int parity = bitToCheck & BIT_0_MASK; // Get first bit of data to XOR
  67              		.loc 1 352 0
  68 0008 02F00101 		and	r1, r2, #1
  69              	.LVL5:
 353:main.c        ****     for(i = 0; i < DATA_LENGTH; i++){
  70              		.loc 1 353 0
  71 000c 0023     		movs	r3, #0
  72 000e 04E0     		b	.L4
  73              	.LVL6:
  74              	.L5:
 354:main.c        ****         bitToCheck = bitToCheck >> 1; // shift mask over
  75              		.loc 1 354 0 discriminator 3
  76 0010 5210     		asrs	r2, r2, #1
  77              	.LVL7:
 355:main.c        ****         parity = (bitToCheck & BIT_0_MASK) ^ parity; // XOR new bit
  78              		.loc 1 355 0 discriminator 3
  79 0012 02F00104 		and	r4, r2, #1
  80 0016 6140     		eors	r1, r1, r4
  81              	.LVL8:
 353:main.c        ****     for(i = 0; i < DATA_LENGTH; i++){
  82              		.loc 1 353 0 discriminator 3
  83 0018 0133     		adds	r3, r3, #1
  84              	.LVL9:
  85              	.L4:
 353:main.c        ****     for(i = 0; i < DATA_LENGTH; i++){
  86              		.loc 1 353 0 is_stmt 0 discriminator 1
  87 001a 062B     		cmp	r3, #6
  88 001c F8DD     		ble	.L5
 356:main.c        ****     }
 357:main.c        ****     if(parity == receivedParity){
  89              		.loc 1 357 0 is_stmt 1
  90 001e 8142     		cmp	r1, r0
  91 0020 01D1     		bne	.L7
 358:main.c        ****         return SUCCESS;
  92              		.loc 1 358 0
  93 0022 0120     		movs	r0, #1
  94              	.LVL10:
  95 0024 00E0     		b	.L6
  96              	.LVL11:
ARM GAS  C:\Users\ipfajard\AppData\Local\Temp\ccgEIzEi.s 			page 9


  97              	.L7:
 359:main.c        ****     }else{
 360:main.c        ****         return FAILURE;
  98              		.loc 1 360 0
  99 0026 0020     		movs	r0, #0
 100              	.LVL12:
 101              	.L6:
 361:main.c        ****     }
 362:main.c        **** } /* END OF CheckParity() */
 102              		.loc 1 362 0
 103 0028 10BC     		pop	{r4}
 104              		.cfi_restore 4
 105              		.cfi_def_cfa_offset 0
 106 002a 7047     		bx	lr
 107              		.cfi_endproc
 108              	.LFE69:
 109              		.size	CheckParity, .-CheckParity
 110              		.section	.text.Display,"ax",%progbits
 111              		.align	2
 112              		.global	Display
 113              		.thumb
 114              		.thumb_func
 115              		.type	Display, %function
 116              	Display:
 117              	.LFB68:
 307:main.c        ****     // LCD Screen Messages
 118              		.loc 1 307 0
 119              		.cfi_startproc
 120              		@ args = 0, pretend = 0, frame = 8
 121              		@ frame_needed = 0, uses_anonymous_args = 0
 122 0000 30B5     		push	{r4, r5, lr}
 123              		.cfi_def_cfa_offset 12
 124              		.cfi_offset 4, -12
 125              		.cfi_offset 5, -8
 126              		.cfi_offset 14, -4
 127 0002 83B0     		sub	sp, sp, #12
 128              		.cfi_def_cfa_offset 24
 310:main.c        ****         LCD_Char_ClearDisplay();
 129              		.loc 1 310 0
 130 0004 2D4B     		ldr	r3, .L15
 131 0006 1B78     		ldrb	r3, [r3]	@ zero_extendqisi2
 132 0008 012B     		cmp	r3, #1
 133 000a 09D1     		bne	.L10
 311:main.c        ****         LCD_Char_PrintString("0xFF pre-fix");
 134              		.loc 1 311 0
 135 000c 0120     		movs	r0, #1
 136 000e FFF7FEFF 		bl	LCD_Char_WriteControl
 137              	.LVL13:
 312:main.c        ****         lcdFlagEncode = FALSE; 
 138              		.loc 1 312 0
 139 0012 2B48     		ldr	r0, .L15+4
 140 0014 FFF7FEFF 		bl	LCD_Char_PrintString
 141              	.LVL14:
 313:main.c        ****     // When 9 bits are received, data will display at top of screen
 142              		.loc 1 313 0
 143 0018 0022     		movs	r2, #0
 144 001a 284B     		ldr	r3, .L15
ARM GAS  C:\Users\ipfajard\AppData\Local\Temp\ccgEIzEi.s 			page 10


 145 001c 1A70     		strb	r2, [r3]
 146 001e 4AE0     		b	.L9
 147              	.L10:
 315:main.c        ****         paritySuccess = CheckParity(crabs);
 148              		.loc 1 315 0
 149 0020 264B     		ldr	r3, .L15
 150 0022 5B78     		ldrb	r3, [r3, #1]	@ zero_extendqisi2
 151 0024 012B     		cmp	r3, #1
 152 0026 1FD1     		bne	.L12
 316:main.c        ****         crabs = crabs >> 1;
 153              		.loc 1 316 0
 154 0028 244C     		ldr	r4, .L15
 155 002a 6588     		ldrh	r5, [r4, #2]
 156 002c 2846     		mov	r0, r5
 157 002e FFF7FEFF 		bl	CheckParity
 158              	.LVL15:
 159 0032 C3B2     		uxtb	r3, r0
 160 0034 2371     		strb	r3, [r4, #4]
 317:main.c        ****         sprintf(OutputString, "Crabs:%i Err:%i",crabs, !paritySuccess);
 161              		.loc 1 317 0
 162 0036 6A08     		lsrs	r2, r5, #1
 163 0038 6280     		strh	r2, [r4, #2]	@ movhi
 318:main.c        ****         LCD_Char_ClearDisplay();
 164              		.loc 1 318 0
 165 003a 04F10805 		add	r5, r4, #8
 166 003e B3FA83F3 		clz	r3, r3
 167 0042 5B09     		lsrs	r3, r3, #5
 168 0044 1F49     		ldr	r1, .L15+8
 169 0046 2846     		mov	r0, r5
 170 0048 FFF7FEFF 		bl	sprintf
 171              	.LVL16:
 319:main.c        ****         LCD_Char_Position(0u,0u);
 172              		.loc 1 319 0
 173 004c 0120     		movs	r0, #1
 174 004e FFF7FEFF 		bl	LCD_Char_WriteControl
 175              	.LVL17:
 320:main.c        ****         LCD_Char_PrintString(OutputString);
 176              		.loc 1 320 0
 177 0052 0021     		movs	r1, #0
 178 0054 0846     		mov	r0, r1
 179 0056 FFF7FEFF 		bl	LCD_Char_Position
 180              	.LVL18:
 321:main.c        ****         dataFlag = FALSE;
 181              		.loc 1 321 0
 182 005a 2846     		mov	r0, r5
 183 005c FFF7FEFF 		bl	LCD_Char_PrintString
 184              	.LVL19:
 322:main.c        ****         lcdFlagData = FALSE;
 185              		.loc 1 322 0
 186 0060 0023     		movs	r3, #0
 187 0062 2375     		strb	r3, [r4, #20]
 323:main.c        ****     // Postfix will display good or bad below data on screen
 188              		.loc 1 323 0
 189 0064 6370     		strb	r3, [r4, #1]
 190 0066 26E0     		b	.L9
 191              	.L12:
 325:main.c        ****         LCD_Char_Position(1u,0u);
ARM GAS  C:\Users\ipfajard\AppData\Local\Temp\ccgEIzEi.s 			page 11


 192              		.loc 1 325 0
 193 0068 144B     		ldr	r3, .L15
 194 006a 5B7D     		ldrb	r3, [r3, #21]	@ zero_extendqisi2
 195 006c 012B     		cmp	r3, #1
 196 006e 11D1     		bne	.L13
 197              	.LBB2:
 326:main.c        ****         char8 displayG[] = "good";
 198              		.loc 1 326 0
 199 0070 0021     		movs	r1, #0
 200 0072 0120     		movs	r0, #1
 201 0074 FFF7FEFF 		bl	LCD_Char_Position
 202              	.LVL20:
 327:main.c        ****         LCD_Char_PrintString(displayG);
 203              		.loc 1 327 0
 204 0078 134B     		ldr	r3, .L15+12
 205 007a 93E80300 		ldmia	r3, {r0, r1}
 206 007e 0090     		str	r0, [sp]
 207 0080 8DF80410 		strb	r1, [sp, #4]
 328:main.c        ****         dataFlag = FALSE;
 208              		.loc 1 328 0
 209 0084 6846     		mov	r0, sp
 210 0086 FFF7FEFF 		bl	LCD_Char_PrintString
 211              	.LVL21:
 329:main.c        ****         lcdFlagDecode = FALSE;
 212              		.loc 1 329 0
 213 008a 0C4B     		ldr	r3, .L15
 214 008c 0022     		movs	r2, #0
 215 008e 1A75     		strb	r2, [r3, #20]
 330:main.c        ****     }else if(decodeWrong == TRUE){
 216              		.loc 1 330 0
 217 0090 5A75     		strb	r2, [r3, #21]
 218              	.LBE2:
 219 0092 10E0     		b	.L9
 220              	.L13:
 331:main.c        ****         LCD_Char_Position(1u,0u);
 221              		.loc 1 331 0
 222 0094 094B     		ldr	r3, .L15
 223 0096 9B7D     		ldrb	r3, [r3, #22]	@ zero_extendqisi2
 224 0098 012B     		cmp	r3, #1
 225 009a 0CD1     		bne	.L9
 226              	.LBB3:
 332:main.c        ****         char8 displayB[] = "bad";
 227              		.loc 1 332 0
 228 009c 0021     		movs	r1, #0
 229 009e 0120     		movs	r0, #1
 230 00a0 FFF7FEFF 		bl	LCD_Char_Position
 231              	.LVL22:
 333:main.c        ****         LCD_Char_PrintString(displayB);
 232              		.loc 1 333 0
 233 00a4 02A8     		add	r0, sp, #8
 234 00a6 094B     		ldr	r3, .L15+16
 235 00a8 40F8083D 		str	r3, [r0, #-8]!
 334:main.c        ****         decodeWrong = FALSE;
 236              		.loc 1 334 0
 237 00ac FFF7FEFF 		bl	LCD_Char_PrintString
 238              	.LVL23:
 335:main.c        ****     }
ARM GAS  C:\Users\ipfajard\AppData\Local\Temp\ccgEIzEi.s 			page 12


 239              		.loc 1 335 0
 240 00b0 0022     		movs	r2, #0
 241 00b2 024B     		ldr	r3, .L15
 242 00b4 9A75     		strb	r2, [r3, #22]
 243              	.L9:
 244              	.LBE3:
 337:main.c        **** 
 245              		.loc 1 337 0
 246 00b6 03B0     		add	sp, sp, #12
 247              		.cfi_def_cfa_offset 12
 248              		@ sp needed
 249 00b8 30BD     		pop	{r4, r5, pc}
 250              	.L16:
 251 00ba 00BF     		.align	2
 252              	.L15:
 253 00bc 00000000 		.word	.LANCHOR0
 254 00c0 00000000 		.word	.LC0
 255 00c4 10000000 		.word	.LC1
 256 00c8 20000000 		.word	.LC2
 257 00cc 62616400 		.word	6578530
 258              		.cfi_endproc
 259              	.LFE68:
 260              		.size	Display, .-Display
 261              		.section	.text.SendData,"ax",%progbits
 262              		.align	2
 263              		.global	SendData
 264              		.thumb
 265              		.thumb_func
 266              		.type	SendData, %function
 267              	SendData:
 268              	.LFB70:
 363:main.c        **** 
 364:main.c        **** ///*******************************************************************
 365:main.c        **** // * function: void SendData(void)
 366:main.c        **** // * parameters: void
 367:main.c        **** // * returns: void
 368:main.c        **** // * description: Sends received data through UART 
 369:main.c        **** // * Order sent is: 1 byte: Data
 370:main.c        **** // *                1 bit : Success/Failure
 371:main.c        **** // *******************************************************************
 372:main.c        **** //*/
 373:main.c        **** void SendData(void)
 374:main.c        **** {
 269              		.loc 1 374 0
 270              		.cfi_startproc
 271              		@ args = 0, pretend = 0, frame = 0
 272              		@ frame_needed = 0, uses_anonymous_args = 0
 273 0000 10B5     		push	{r4, lr}
 274              		.cfi_def_cfa_offset 8
 275              		.cfi_offset 4, -8
 276              		.cfi_offset 14, -4
 375:main.c        ****     UART_WriteTxData(crabs);
 277              		.loc 1 375 0
 278 0002 094C     		ldr	r4, .L21
 279 0004 A078     		ldrb	r0, [r4, #2]	@ zero_extendqisi2
 280 0006 FFF7FEFF 		bl	UART_WriteTxData
 281              	.LVL24:
ARM GAS  C:\Users\ipfajard\AppData\Local\Temp\ccgEIzEi.s 			page 13


 376:main.c        ****     if((paritySuccess == SUCCESS) && (decodeWrong != TRUE)){
 282              		.loc 1 376 0
 283 000a 2379     		ldrb	r3, [r4, #4]	@ zero_extendqisi2
 284 000c 012B     		cmp	r3, #1
 285 000e 06D1     		bne	.L18
 286              		.loc 1 376 0 is_stmt 0 discriminator 1
 287 0010 A37D     		ldrb	r3, [r4, #22]	@ zero_extendqisi2
 288 0012 012B     		cmp	r3, #1
 289 0014 03D0     		beq	.L18
 377:main.c        ****         UART_WriteTxData(SUCCESS);
 290              		.loc 1 377 0 is_stmt 1
 291 0016 0120     		movs	r0, #1
 292 0018 FFF7FEFF 		bl	UART_WriteTxData
 293              	.LVL25:
 294 001c 10BD     		pop	{r4, pc}
 295              	.L18:
 378:main.c        ****     }else{
 379:main.c        ****         UART_WriteTxData(FAILURE);
 296              		.loc 1 379 0
 297 001e 0020     		movs	r0, #0
 298 0020 FFF7FEFF 		bl	UART_WriteTxData
 299              	.LVL26:
 300 0024 10BD     		pop	{r4, pc}
 301              	.L22:
 302 0026 00BF     		.align	2
 303              	.L21:
 304 0028 00000000 		.word	.LANCHOR0
 305              		.cfi_endproc
 306              	.LFE70:
 307              		.size	SendData, .-SendData
 308              		.section	.text.sleepModules,"ax",%progbits
 309              		.align	2
 310              		.global	sleepModules
 311              		.thumb
 312              		.thumb_func
 313              		.type	sleepModules, %function
 314              	sleepModules:
 315              	.LFB71:
 380:main.c        ****     }
 381:main.c        **** } /* END OF SendData() */
 382:main.c        **** 
 383:main.c        **** void sleepModules(void){
 316              		.loc 1 383 0
 317              		.cfi_startproc
 318              		@ args = 0, pretend = 0, frame = 0
 319              		@ frame_needed = 0, uses_anonymous_args = 0
 320 0000 08B5     		push	{r3, lr}
 321              		.cfi_def_cfa_offset 8
 322              		.cfi_offset 3, -8
 323              		.cfi_offset 14, -4
 384:main.c        ****     LCD_Char_Sleep();
 324              		.loc 1 384 0
 325 0002 FFF7FEFF 		bl	LCD_Char_Sleep
 326              	.LVL27:
 385:main.c        ****     UART_Sleep();
 327              		.loc 1 385 0
 328 0006 FFF7FEFF 		bl	UART_Sleep
ARM GAS  C:\Users\ipfajard\AppData\Local\Temp\ccgEIzEi.s 			page 14


 329              	.LVL28:
 386:main.c        ****     PWM_Recon_Sleep();
 330              		.loc 1 386 0
 331 000a FFF7FEFF 		bl	PWM_Recon_Sleep
 332              	.LVL29:
 387:main.c        ****     Shift_Reg_Sleep();
 333              		.loc 1 387 0
 334 000e FFF7FEFF 		bl	Shift_Reg_Sleep
 335              	.LVL30:
 388:main.c        ****     Out_Comp_Sleep();
 336              		.loc 1 388 0
 337 0012 FFF7FEFF 		bl	Out_Comp_Sleep
 338              	.LVL31:
 389:main.c        ****     Bit_Timer_Sleep();
 339              		.loc 1 389 0
 340 0016 FFF7FEFF 		bl	Bit_Timer_Sleep
 341              	.LVL32:
 390:main.c        ****     checkWatchDogTimer_Sleep();
 342              		.loc 1 390 0
 343 001a FFF7FEFF 		bl	checkWatchDogTimer_Sleep
 344              	.LVL33:
 391:main.c        ****     CyPmSaveClocks();
 345              		.loc 1 391 0
 346 001e FFF7FEFF 		bl	CyPmSaveClocks
 347              	.LVL34:
 392:main.c        ****     Power_Toggle_Write(FALSE);
 348              		.loc 1 392 0
 349 0022 0020     		movs	r0, #0
 350 0024 FFF7FEFF 		bl	Power_Toggle_Write
 351              	.LVL35:
 352 0028 08BD     		pop	{r3, pc}
 353              		.cfi_endproc
 354              	.LFE71:
 355              		.size	sleepModules, .-sleepModules
 356 002a 00BF     		.section	.text.wakeUpModules,"ax",%progbits
 357              		.align	2
 358              		.global	wakeUpModules
 359              		.thumb
 360              		.thumb_func
 361              		.type	wakeUpModules, %function
 362              	wakeUpModules:
 363              	.LFB72:
 393:main.c        **** 
 394:main.c        **** }
 395:main.c        **** 
 396:main.c        **** void wakeUpModules(void){
 364              		.loc 1 396 0
 365              		.cfi_startproc
 366              		@ args = 0, pretend = 0, frame = 0
 367              		@ frame_needed = 0, uses_anonymous_args = 0
 368 0000 08B5     		push	{r3, lr}
 369              		.cfi_def_cfa_offset 8
 370              		.cfi_offset 3, -8
 371              		.cfi_offset 14, -4
 397:main.c        ****     CyPmRestoreClocks();
 372              		.loc 1 397 0
 373 0002 FFF7FEFF 		bl	CyPmRestoreClocks
ARM GAS  C:\Users\ipfajard\AppData\Local\Temp\ccgEIzEi.s 			page 15


 374              	.LVL36:
 398:main.c        ****     LCD_Char_Wakeup();
 375              		.loc 1 398 0
 376 0006 FFF7FEFF 		bl	LCD_Char_Wakeup
 377              	.LVL37:
 399:main.c        ****     UART_Wakeup();
 378              		.loc 1 399 0
 379 000a FFF7FEFF 		bl	UART_Wakeup
 380              	.LVL38:
 400:main.c        ****     PWM_Recon_Wakeup();
 381              		.loc 1 400 0
 382 000e FFF7FEFF 		bl	PWM_Recon_Wakeup
 383              	.LVL39:
 401:main.c        ****     Shift_Reg_Wakeup();
 384              		.loc 1 401 0
 385 0012 FFF7FEFF 		bl	Shift_Reg_Wakeup
 386              	.LVL40:
 402:main.c        ****     Out_Comp_Wakeup();
 387              		.loc 1 402 0
 388 0016 FFF7FEFF 		bl	Out_Comp_Wakeup
 389              	.LVL41:
 403:main.c        ****     // Start timer to clear watch dog
 404:main.c        ****     checkWatchDogTimer_Wakeup();
 390              		.loc 1 404 0
 391 001a FFF7FEFF 		bl	checkWatchDogTimer_Wakeup
 392              	.LVL42:
 405:main.c        ****     checkWatchDogTimer_Start();
 393              		.loc 1 405 0
 394 001e FFF7FEFF 		bl	checkWatchDogTimer_Start
 395              	.LVL43:
 396 0022 08BD     		pop	{r3, pc}
 397              		.cfi_endproc
 398              	.LFE72:
 399              		.size	wakeUpModules, .-wakeUpModules
 400              		.section	.text.startModules,"ax",%progbits
 401              		.align	2
 402              		.global	startModules
 403              		.thumb
 404              		.thumb_func
 405              		.type	startModules, %function
 406              	startModules:
 407              	.LFB73:
 406:main.c        **** }
 407:main.c        **** 
 408:main.c        **** void startModules(void){
 408              		.loc 1 408 0
 409              		.cfi_startproc
 410              		@ args = 0, pretend = 0, frame = 0
 411              		@ frame_needed = 0, uses_anonymous_args = 0
 412 0000 08B5     		push	{r3, lr}
 413              		.cfi_def_cfa_offset 8
 414              		.cfi_offset 3, -8
 415              		.cfi_offset 14, -4
 409:main.c        ****     
 410:main.c        ****     LCD_Char_Start();
 416              		.loc 1 410 0
 417 0002 FFF7FEFF 		bl	LCD_Char_Start
ARM GAS  C:\Users\ipfajard\AppData\Local\Temp\ccgEIzEi.s 			page 16


 418              	.LVL44:
 411:main.c        ****     UART_Start();
 419              		.loc 1 411 0
 420 0006 FFF7FEFF 		bl	UART_Start
 421              	.LVL45:
 412:main.c        ****     PWM_Recon_Start();
 422              		.loc 1 412 0
 423 000a FFF7FEFF 		bl	PWM_Recon_Start
 424              	.LVL46:
 413:main.c        ****     Shift_Reg_Start();
 425              		.loc 1 413 0
 426 000e FFF7FEFF 		bl	Shift_Reg_Start
 427              	.LVL47:
 414:main.c        ****     Out_Comp_Start();
 428              		.loc 1 414 0
 429 0012 FFF7FEFF 		bl	Out_Comp_Start
 430              	.LVL48:
 415:main.c        ****     // Start timer to clear watch dog
 416:main.c        ****     checkWatchDogTimer_Start();
 431              		.loc 1 416 0
 432 0016 FFF7FEFF 		bl	checkWatchDogTimer_Start
 433              	.LVL49:
 417:main.c        ****     
 418:main.c        ****     Data_ISR_StartEx(Bit_Timer);
 434              		.loc 1 418 0
 435 001a 0648     		ldr	r0, .L29
 436 001c FFF7FEFF 		bl	Data_ISR_StartEx
 437              	.LVL50:
 419:main.c        ****     Sleep_ISR_StartEx(wakeUp_ISR);
 438              		.loc 1 419 0
 439 0020 0548     		ldr	r0, .L29+4
 440 0022 FFF7FEFF 		bl	Sleep_ISR_StartEx
 441              	.LVL51:
 420:main.c        ****     watchDogCheck_StartEx(watchDogCheck); 
 442              		.loc 1 420 0
 443 0026 0548     		ldr	r0, .L29+8
 444 0028 FFF7FEFF 		bl	watchDogCheck_StartEx
 445              	.LVL52:
 421:main.c        ****     Power_Toggle_Write(TRUE);
 446              		.loc 1 421 0
 447 002c 0120     		movs	r0, #1
 448 002e FFF7FEFF 		bl	Power_Toggle_Write
 449              	.LVL53:
 450 0032 08BD     		pop	{r3, pc}
 451              	.L30:
 452              		.align	2
 453              	.L29:
 454 0034 00000000 		.word	Bit_Timer
 455 0038 00000000 		.word	wakeUp_ISR
 456 003c 00000000 		.word	watchDogCheck
 457              		.cfi_endproc
 458              	.LFE73:
 459              		.size	startModules, .-startModules
 460              		.section	.text.wakeUp_ISR,"ax",%progbits
 461              		.align	2
 462              		.global	wakeUp_ISR
 463              		.thumb
ARM GAS  C:\Users\ipfajard\AppData\Local\Temp\ccgEIzEi.s 			page 17


 464              		.thumb_func
 465              		.type	wakeUp_ISR, %function
 466              	wakeUp_ISR:
 467              	.LFB67:
 268:main.c        ****     
 468              		.loc 1 268 0
 469              		.cfi_startproc
 470              		@ args = 0, pretend = 0, frame = 0
 471              		@ frame_needed = 0, uses_anonymous_args = 0
 472 0000 08B5     		push	{r3, lr}
 473              		.cfi_def_cfa_offset 8
 474              		.cfi_offset 3, -8
 475              		.cfi_offset 14, -4
 272:main.c        ****     
 476              		.loc 1 272 0
 477 0002 FFF7FEFF 		bl	CyWdtClear
 478              	.LVL54:
 274:main.c        ****     
 479              		.loc 1 274 0
 480 0006 FFF7FEFF 		bl	SleepTimer_GetStatus
 481              	.LVL55:
 276:main.c        ****     
 482              		.loc 1 276 0
 483 000a FFF7FEFF 		bl	startModules
 484              	.LVL56:
 284:main.c        ****         SleepTimer_Stop();
 485              		.loc 1 284 0
 486 000e FFF7FEFF 		bl	Out_Comp_GetCompare
 487              	.LVL57:
 488 0012 30B1     		cbz	r0, .L32
 285:main.c        ****         Bit_Timer_Start();
 489              		.loc 1 285 0
 490 0014 FFF7FEFF 		bl	SleepTimer_Stop
 491              	.LVL58:
 286:main.c        ****         //trigger interrupt to avoid data loss 
 492              		.loc 1 286 0
 493 0018 FFF7FEFF 		bl	Bit_Timer_Start
 494              	.LVL59:
 288:main.c        ****     }else{
 495              		.loc 1 288 0
 496 001c FFF7FEFF 		bl	Data_ISR_SetPending
 497              	.LVL60:
 498 0020 08BD     		pop	{r3, pc}
 499              	.L32:
 291:main.c        ****         
 500              		.loc 1 291 0
 501 0022 0122     		movs	r2, #1
 502 0024 014B     		ldr	r3, .L35
 503 0026 DA75     		strb	r2, [r3, #23]
 504 0028 08BD     		pop	{r3, pc}
 505              	.L36:
 506 002a 00BF     		.align	2
 507              	.L35:
 508 002c 00000000 		.word	.LANCHOR0
 509              		.cfi_endproc
 510              	.LFE67:
 511              		.size	wakeUp_ISR, .-wakeUp_ISR
ARM GAS  C:\Users\ipfajard\AppData\Local\Temp\ccgEIzEi.s 			page 18


 512              		.section	.text.LCD_Display,"ax",%progbits
 513              		.align	2
 514              		.global	LCD_Display
 515              		.thumb
 516              		.thumb_func
 517              		.type	LCD_Display, %function
 518              	LCD_Display:
 519              	.LFB74:
 422:main.c        **** 
 423:main.c        **** }
 424:main.c        **** 
 425:main.c        **** void LCD_Display(void){
 520              		.loc 1 425 0
 521              		.cfi_startproc
 522              		@ args = 0, pretend = 0, frame = 0
 523              		@ frame_needed = 0, uses_anonymous_args = 0
 524 0000 08B5     		push	{r3, lr}
 525              		.cfi_def_cfa_offset 8
 526              		.cfi_offset 3, -8
 527              		.cfi_offset 14, -4
 426:main.c        ****     
 427:main.c        ****     LCD_Char_Position(0u,0u); // Resets cursor to top of LCD Screen
 528              		.loc 1 427 0
 529 0002 0021     		movs	r1, #0
 530 0004 0846     		mov	r0, r1
 531 0006 FFF7FEFF 		bl	LCD_Char_Position
 532              	.LVL61:
 428:main.c        ****     LCD_Char_PrintString(display);
 533              		.loc 1 428 0
 534 000a 0248     		ldr	r0, .L39
 535 000c FFF7FEFF 		bl	LCD_Char_PrintString
 536              	.LVL62:
 537 0010 08BD     		pop	{r3, pc}
 538              	.L40:
 539 0012 00BF     		.align	2
 540              	.L39:
 541 0014 18000000 		.word	.LANCHOR0+24
 542              		.cfi_endproc
 543              	.LFE74:
 544              		.size	LCD_Display, .-LCD_Display
 545              		.section	.text.main,"ax",%progbits
 546              		.align	2
 547              		.global	main
 548              		.thumb
 549              		.thumb_func
 550              		.type	main, %function
 551              	main:
 552              	.LFB64:
  91:main.c        ****     CyGlobalIntEnable; 
 553              		.loc 1 91 0
 554              		.cfi_startproc
 555              		@ Volatile: function does not return.
 556              		@ args = 0, pretend = 0, frame = 0
 557              		@ frame_needed = 0, uses_anonymous_args = 0
 558 0000 08B5     		push	{r3, lr}
 559              		.cfi_def_cfa_offset 8
 560              		.cfi_offset 3, -8
ARM GAS  C:\Users\ipfajard\AppData\Local\Temp\ccgEIzEi.s 			page 19


 561              		.cfi_offset 14, -4
  92:main.c        ****     startModules();
 562              		.loc 1 92 0
 563              		.syntax unified
 564              	@ 92 "main.c" 1
 565 0002 62B6     		CPSIE   i
 566              	@ 0 "" 2
  93:main.c        ****     
 567              		.loc 1 93 0
 568              		.thumb
 569              		.syntax unified
 570 0004 FFF7FEFF 		bl	startModules
 571              	.LVL63:
  96:main.c        ****     LCD_Display();
 572              		.loc 1 96 0
 573 0008 1F4E     		ldr	r6, .L45
 574 000a 3446     		mov	r4, r6
 575 000c 1F4D     		ldr	r5, .L45+4
 576 000e 0FCD     		ldmia	r5!, {r0, r1, r2, r3}
 577 0010 0FC4     		stmia	r4!, {r0, r1, r2, r3}
 578 0012 2B68     		ldr	r3, [r5]
 579 0014 2370     		strb	r3, [r4]
  97:main.c        ****     CyDelay(500);
 580              		.loc 1 97 0
 581 0016 FFF7FEFF 		bl	LCD_Display
 582              	.LVL64:
  98:main.c        ****    
 583              		.loc 1 98 0
 584 001a 4FF4FA70 		mov	r0, #500
 585 001e FFF7FEFF 		bl	CyDelay
 586              	.LVL65:
 104:main.c        ****     LCD_Char_Position(0u,0u); // Resets cursor to top of LCD Screen
 587              		.loc 1 104 0
 588 0022 3446     		mov	r4, r6
 589 0024 1A4D     		ldr	r5, .L45+8
 590 0026 0FCD     		ldmia	r5!, {r0, r1, r2, r3}
 591 0028 0FC4     		stmia	r4!, {r0, r1, r2, r3}
 592 002a 2B68     		ldr	r3, [r5]
 593 002c 2380     		strh	r3, [r4]	@ movhi
 105:main.c        ****     LCD_Char_PrintString(display);
 594              		.loc 1 105 0
 595 002e 0021     		movs	r1, #0
 596 0030 0846     		mov	r0, r1
 597 0032 FFF7FEFF 		bl	LCD_Char_Position
 598              	.LVL66:
 106:main.c        ****     
 599              		.loc 1 106 0
 600 0036 3046     		mov	r0, r6
 601 0038 FFF7FEFF 		bl	LCD_Char_PrintString
 602              	.LVL67:
 118:main.c        ****     sleepModules();
 603              		.loc 1 118 0
 604 003c FFF7FEFF 		bl	SleepTimer_Start
 605              	.LVL68:
 119:main.c        ****     CyPmSleep(PM_SLEEP_TIME_NONE, PM_SLEEP_SRC_CTW);
 606              		.loc 1 119 0
 607 0040 FFF7FEFF 		bl	sleepModules
ARM GAS  C:\Users\ipfajard\AppData\Local\Temp\ccgEIzEi.s 			page 20


 608              	.LVL69:
 120:main.c        ****    
 609              		.loc 1 120 0
 610 0044 4FF40061 		mov	r1, #2048
 611 0048 0020     		movs	r0, #0
 612 004a FFF7FEFF 		bl	CyPmSleep
 613              	.LVL70:
 614              	.L42:
 125:main.c        ****        
 615              		.loc 1 125 0
 616 004e FFF7FEFF 		bl	Display
 617              	.LVL71:
 133:main.c        ****             
 618              		.loc 1 133 0
 619 0052 104B     		ldr	r3, .L45+12
 620 0054 DB7D     		ldrb	r3, [r3, #23]	@ zero_extendqisi2
 621 0056 012B     		cmp	r3, #1
 622 0058 F9D1     		bne	.L42
 135:main.c        ****             SleepTimer_Start(); 
 623              		.loc 1 135 0
 624 005a 0024     		movs	r4, #0
 625 005c 0D4B     		ldr	r3, .L45+12
 626 005e DC75     		strb	r4, [r3, #23]
 136:main.c        ****             sleepModules(); 
 627              		.loc 1 136 0
 628 0060 FFF7FEFF 		bl	SleepTimer_Start
 629              	.LVL72:
 137:main.c        ****             CyPmSleep(PM_SLEEP_TIME_NONE, PM_SLEEP_SRC_CTW);
 630              		.loc 1 137 0
 631 0064 FFF7FEFF 		bl	sleepModules
 632              	.LVL73:
 138:main.c        ****                       sleepToggle_Write(TRUE);
 633              		.loc 1 138 0
 634 0068 4FF40061 		mov	r1, #2048
 635 006c 2046     		mov	r0, r4
 636 006e FFF7FEFF 		bl	CyPmSleep
 637              	.LVL74:
 139:main.c        ****     CyDelay(Delay);
 638              		.loc 1 139 0
 639 0072 0120     		movs	r0, #1
 640 0074 FFF7FEFF 		bl	sleepToggle_Write
 641              	.LVL75:
 140:main.c        ****     sleepToggle_Write(FALSE);
 642              		.loc 1 140 0
 643 0078 0420     		movs	r0, #4
 644 007a FFF7FEFF 		bl	CyDelay
 645              	.LVL76:
 141:main.c        ****         }
 646              		.loc 1 141 0
 647 007e 2046     		mov	r0, r4
 648 0080 FFF7FEFF 		bl	sleepToggle_Write
 649              	.LVL77:
 650 0084 E3E7     		b	.L42
 651              	.L46:
 652 0086 00BF     		.align	2
 653              	.L45:
 654 0088 18000000 		.word	.LANCHOR0+24
ARM GAS  C:\Users\ipfajard\AppData\Local\Temp\ccgEIzEi.s 			page 21


 655 008c 28000000 		.word	.LC3
 656 0090 3C000000 		.word	.LC4
 657 0094 00000000 		.word	.LANCHOR0
 658              		.cfi_endproc
 659              	.LFE64:
 660              		.size	main, .-main
 661              		.section	.text.accuracy_Check,"ax",%progbits
 662              		.align	2
 663              		.global	accuracy_Check
 664              		.thumb
 665              		.thumb_func
 666              		.type	accuracy_Check, %function
 667              	accuracy_Check:
 668              	.LFB75:
 429:main.c        **** 
 430:main.c        **** } 
 431:main.c        **** /*  Check out of 100 bits, how many are 1'a
 432:main.c        **** *   If >= PPREFIX_ACCURACY count it as a single 1 bit 
 433:main.c        **** *   Else 0 bit
 434:main.c        **** *   Debouncing
 435:main.c        **** */
 436:main.c        **** void accuracy_Check(int count, int accuracy){
 669              		.loc 1 436 0
 670              		.cfi_startproc
 671              		@ args = 0, pretend = 0, frame = 0
 672              		@ frame_needed = 0, uses_anonymous_args = 0
 673              	.LVL78:
 674 0000 08B5     		push	{r3, lr}
 675              		.cfi_def_cfa_offset 8
 676              		.cfi_offset 3, -8
 677              		.cfi_offset 14, -4
 437:main.c        ****     
 438:main.c        ****     if(count >= accuracy){ // 1 bit must be Accuracy/100 = 1 
 678              		.loc 1 438 0
 679 0002 8842     		cmp	r0, r1
 680 0004 08DB     		blt	.L48
 439:main.c        ****         currentBit = 0x01;
 681              		.loc 1 439 0
 682 0006 084B     		ldr	r3, .L51
 683 0008 0120     		movs	r0, #1
 684              	.LVL79:
 685 000a 83F82400 		strb	r0, [r3, #36]
 440:main.c        ****         oneCount = 0;
 686              		.loc 1 440 0
 687 000e 0022     		movs	r2, #0
 688 0010 DA84     		strh	r2, [r3, #38]	@ movhi
 441:main.c        ****         Count_Out_Write(1);
 689              		.loc 1 441 0
 690 0012 FFF7FEFF 		bl	Count_Out_Write
 691              	.LVL80:
 692 0016 08BD     		pop	{r3, pc}
 693              	.LVL81:
 694              	.L48:
 442:main.c        **** 
 443:main.c        ****     }else{ // if oneCount <= PREFIX_ACCURACY, bit is 0
 444:main.c        ****         currentBit = 0x00; 
 695              		.loc 1 444 0
ARM GAS  C:\Users\ipfajard\AppData\Local\Temp\ccgEIzEi.s 			page 22


 696 0018 034B     		ldr	r3, .L51
 697 001a 0020     		movs	r0, #0
 698              	.LVL82:
 699 001c 83F82400 		strb	r0, [r3, #36]
 445:main.c        ****         zeroCount = 0; 
 700              		.loc 1 445 0
 701 0020 1885     		strh	r0, [r3, #40]	@ movhi
 446:main.c        ****         Count_Out_Write(0);
 702              		.loc 1 446 0
 703 0022 FFF7FEFF 		bl	Count_Out_Write
 704              	.LVL83:
 705 0026 08BD     		pop	{r3, pc}
 706              	.L52:
 707              		.align	2
 708              	.L51:
 709 0028 00000000 		.word	.LANCHOR0
 710              		.cfi_endproc
 711              	.LFE75:
 712              		.size	accuracy_Check, .-accuracy_Check
 713              		.section	.text.Bit_Timer,"ax",%progbits
 714              		.align	2
 715              		.global	Bit_Timer
 716              		.thumb
 717              		.thumb_func
 718              		.type	Bit_Timer, %function
 719              	Bit_Timer:
 720              	.LFB65:
 157:main.c        ****     
 721              		.loc 1 157 0
 722              		.cfi_startproc
 723              		@ args = 0, pretend = 0, frame = 0
 724              		@ frame_needed = 0, uses_anonymous_args = 0
 725 0000 10B5     		push	{r4, lr}
 726              		.cfi_def_cfa_offset 8
 727              		.cfi_offset 4, -8
 728              		.cfi_offset 14, -4
 162:main.c        ****     overTimeCount++; 
 729              		.loc 1 162 0
 730 0002 494B     		ldr	r3, .L66
 731 0004 5A8D     		ldrh	r2, [r3, #42]
 732 0006 0132     		adds	r2, r2, #1
 733 0008 5A85     		strh	r2, [r3, #42]	@ movhi
 163:main.c        ****     
 734              		.loc 1 163 0
 735 000a DA6A     		ldr	r2, [r3, #44]
 736 000c 0132     		adds	r2, r2, #1
 737 000e DA62     		str	r2, [r3, #44]
 166:main.c        ****         oneCount++;
 738              		.loc 1 166 0
 739 0010 FFF7FEFF 		bl	Out_Comp_GetCompare
 740              	.LVL84:
 741 0014 20B1     		cbz	r0, .L54
 167:main.c        ****     }else{
 742              		.loc 1 167 0
 743 0016 444A     		ldr	r2, .L66
 744 0018 D38C     		ldrh	r3, [r2, #38]
 745 001a 0133     		adds	r3, r3, #1
ARM GAS  C:\Users\ipfajard\AppData\Local\Temp\ccgEIzEi.s 			page 23


 746 001c D384     		strh	r3, [r2, #38]	@ movhi
 747 001e 03E0     		b	.L55
 748              	.L54:
 169:main.c        ****     }
 749              		.loc 1 169 0
 750 0020 414A     		ldr	r2, .L66
 751 0022 138D     		ldrh	r3, [r2, #40]
 752 0024 0133     		adds	r3, r3, #1
 753 0026 1385     		strh	r3, [r2, #40]	@ movhi
 754              	.L55:
 179:main.c        ****         if((dataFlag == FALSE) && (postfixFlag == FALSE)){ //looking for prefix
 755              		.loc 1 179 0
 756 0028 3F4B     		ldr	r3, .L66
 757 002a 5B8D     		ldrh	r3, [r3, #42]
 758 002c 642B     		cmp	r3, #100
 759 002e 7AD1     		bne	.L53
 180:main.c        ****             
 760              		.loc 1 180 0
 761 0030 3D4B     		ldr	r3, .L66
 762 0032 1B7D     		ldrb	r3, [r3, #20]	@ zero_extendqisi2
 763 0034 4BB9     		cbnz	r3, .L57
 180:main.c        ****             
 764              		.loc 1 180 0 is_stmt 0 discriminator 1
 765 0036 3C4B     		ldr	r3, .L66
 766 0038 93F83030 		ldrb	r3, [r3, #48]	@ zero_extendqisi2
 767 003c 2BB9     		cbnz	r3, .L57
 182:main.c        **** 
 768              		.loc 1 182 0 is_stmt 1
 769 003e 5A21     		movs	r1, #90
 770 0040 394B     		ldr	r3, .L66
 771 0042 D88C     		ldrh	r0, [r3, #38]
 772 0044 FFF7FEFF 		bl	accuracy_Check
 773              	.LVL85:
 774 0048 04E0     		b	.L58
 775              	.L57:
 186:main.c        ****         }
 776              		.loc 1 186 0
 777 004a 4621     		movs	r1, #70
 778 004c 364B     		ldr	r3, .L66
 779 004e D88C     		ldrh	r0, [r3, #38]
 780 0050 FFF7FEFF 		bl	accuracy_Check
 781              	.LVL86:
 782              	.L58:
 189:main.c        ****         levelCounter = 0; // Reset timer bit debouncer  
 783              		.loc 1 189 0
 784 0054 344B     		ldr	r3, .L66
 785 0056 93F83120 		ldrb	r2, [r3, #49]	@ zero_extendqisi2
 786 005a 0132     		adds	r2, r2, #1
 787 005c D2B2     		uxtb	r2, r2
 788 005e 83F83120 		strb	r2, [r3, #49]
 190:main.c        ****         
 789              		.loc 1 190 0
 790 0062 0021     		movs	r1, #0
 791 0064 5985     		strh	r1, [r3, #42]	@ movhi
 195:main.c        ****         data = data | currentBit;
 792              		.loc 1 195 0
 793 0066 598E     		ldrh	r1, [r3, #50]
ARM GAS  C:\Users\ipfajard\AppData\Local\Temp\ccgEIzEi.s 			page 24


 794 0068 4900     		lsls	r1, r1, #1
 795 006a 89B2     		uxth	r1, r1
 196:main.c        ****         
 796              		.loc 1 196 0
 797 006c 93F82400 		ldrb	r0, [r3, #36]	@ zero_extendqisi2
 798 0070 0143     		orrs	r1, r1, r0
 799 0072 5986     		strh	r1, [r3, #50]	@ movhi
 200:main.c        ****             dataCount = 0;
 800              		.loc 1 200 0
 801 0074 CBB2     		uxtb	r3, r1
 802 0076 FF2B     		cmp	r3, #255
 803 0078 0FD1     		bne	.L59
 200:main.c        ****             dataCount = 0;
 804              		.loc 1 200 0 is_stmt 0 discriminator 1
 805 007a 2B4B     		ldr	r3, .L66
 806 007c 1B7D     		ldrb	r3, [r3, #20]	@ zero_extendqisi2
 807 007e 63B9     		cbnz	r3, .L59
 200:main.c        ****             dataCount = 0;
 808              		.loc 1 200 0 discriminator 2
 809 0080 294B     		ldr	r3, .L66
 810 0082 93F83030 		ldrb	r3, [r3, #48]	@ zero_extendqisi2
 811 0086 43B9     		cbnz	r3, .L59
 201:main.c        ****             data = 0;
 812              		.loc 1 201 0 is_stmt 1
 813 0088 274B     		ldr	r3, .L66
 814 008a 0022     		movs	r2, #0
 815 008c 83F83120 		strb	r2, [r3, #49]
 202:main.c        ****             dataFlag = TRUE; //Start looking for data
 816              		.loc 1 202 0
 817 0090 5A86     		strh	r2, [r3, #50]	@ movhi
 203:main.c        ****             lcdFlagEncode = TRUE; //Display pre-fix on lcd
 818              		.loc 1 203 0
 819 0092 0122     		movs	r2, #1
 820 0094 1A75     		strb	r2, [r3, #20]
 204:main.c        ****         
 821              		.loc 1 204 0
 822 0096 1A70     		strb	r2, [r3]
 823 0098 10E0     		b	.L60
 824              	.L59:
 207:main.c        ****             crabs = data;
 825              		.loc 1 207 0
 826 009a 234B     		ldr	r3, .L66
 827 009c 1B7D     		ldrb	r3, [r3, #20]	@ zero_extendqisi2
 828 009e 012B     		cmp	r3, #1
 829 00a0 0CD1     		bne	.L60
 207:main.c        ****             crabs = data;
 830              		.loc 1 207 0 is_stmt 0 discriminator 1
 831 00a2 082A     		cmp	r2, #8
 832 00a4 0AD9     		bls	.L60
 208:main.c        ****             data = 0; //Restart data for decode
 833              		.loc 1 208 0 is_stmt 1
 834 00a6 204B     		ldr	r3, .L66
 835 00a8 5980     		strh	r1, [r3, #2]	@ movhi
 209:main.c        ****             dataCount = 0; 
 836              		.loc 1 209 0
 837 00aa 0022     		movs	r2, #0
 838 00ac 5A86     		strh	r2, [r3, #50]	@ movhi
ARM GAS  C:\Users\ipfajard\AppData\Local\Temp\ccgEIzEi.s 			page 25


 210:main.c        ****             lcdFlagEncode = FALSE; //Turn off pre-fix message
 839              		.loc 1 210 0
 840 00ae 83F83120 		strb	r2, [r3, #49]
 211:main.c        ****             lcdFlagData = TRUE; //Display data
 841              		.loc 1 211 0
 842 00b2 1A70     		strb	r2, [r3]
 212:main.c        ****             postfixFlag = TRUE;
 843              		.loc 1 212 0
 844 00b4 0122     		movs	r2, #1
 845 00b6 5A70     		strb	r2, [r3, #1]
 213:main.c        ****         }
 846              		.loc 1 213 0
 847 00b8 83F83020 		strb	r2, [r3, #48]
 848              	.L60:
 217:main.c        ****             // Correct postfix is 0x01
 849              		.loc 1 217 0
 850 00bc 1A4B     		ldr	r3, .L66
 851 00be 93F83030 		ldrb	r3, [r3, #48]	@ zero_extendqisi2
 852 00c2 012B     		cmp	r3, #1
 853 00c4 19D1     		bne	.L61
 217:main.c        ****             // Correct postfix is 0x01
 854              		.loc 1 217 0 is_stmt 0 discriminator 1
 855 00c6 184B     		ldr	r3, .L66
 856 00c8 93F83130 		ldrb	r3, [r3, #49]	@ zero_extendqisi2
 857 00cc 072B     		cmp	r3, #7
 858 00ce 14D9     		bls	.L61
 219:main.c        ****              lcdFlagDecode = TRUE; // lcd flag for "good" post-fix
 859              		.loc 1 219 0 is_stmt 1
 860 00d0 154B     		ldr	r3, .L66
 861 00d2 5B8E     		ldrh	r3, [r3, #50]
 862 00d4 012B     		cmp	r3, #1
 863 00d6 03D1     		bne	.L62
 220:main.c        ****             }else{
 864              		.loc 1 220 0
 865 00d8 0122     		movs	r2, #1
 866 00da 134B     		ldr	r3, .L66
 867 00dc 5A75     		strb	r2, [r3, #21]
 868 00de 02E0     		b	.L63
 869              	.L62:
 222:main.c        ****             }
 870              		.loc 1 222 0
 871 00e0 0122     		movs	r2, #1
 872 00e2 114B     		ldr	r3, .L66
 873 00e4 9A75     		strb	r2, [r3, #22]
 874              	.L63:
 224:main.c        ****             dataFlag = FALSE; //Don't want to check for data anymore
 875              		.loc 1 224 0
 876 00e6 104B     		ldr	r3, .L66
 877 00e8 0022     		movs	r2, #0
 878 00ea 83F83020 		strb	r2, [r3, #48]
 225:main.c        ****             
 879              		.loc 1 225 0
 880 00ee 1A75     		strb	r2, [r3, #20]
 227:main.c        ****            
 881              		.loc 1 227 0
 882 00f0 93F83420 		ldrb	r2, [r3, #52]	@ zero_extendqisi2
 883 00f4 0132     		adds	r2, r2, #1
ARM GAS  C:\Users\ipfajard\AppData\Local\Temp\ccgEIzEi.s 			page 26


 884 00f6 83F83420 		strb	r2, [r3, #52]
 885              	.L61:
 234:main.c        ****             threeTransmissions = 0;
 886              		.loc 1 234 0
 887 00fa 0B4B     		ldr	r3, .L66
 888 00fc 93F83430 		ldrb	r3, [r3, #52]	@ zero_extendqisi2
 889 0100 022B     		cmp	r3, #2
 890 0102 05D8     		bhi	.L64
 234:main.c        ****             threeTransmissions = 0;
 891              		.loc 1 234 0 is_stmt 0 discriminator 1
 892 0104 084B     		ldr	r3, .L66
 893 0106 DA6A     		ldr	r2, [r3, #44]
 894 0108 41F6A973 		movw	r3, #8105
 895 010c 9A42     		cmp	r2, r3
 896 010e 0ADD     		ble	.L53
 897              	.L64:
 235:main.c        ****             sleepModules(); 
 898              		.loc 1 235 0 is_stmt 1
 899 0110 0024     		movs	r4, #0
 900 0112 054B     		ldr	r3, .L66
 901 0114 83F83440 		strb	r4, [r3, #52]
 236:main.c        ****             CyPmSleep(PM_SLEEP_TIME_NONE, PM_SLEEP_SRC_CTW);
 902              		.loc 1 236 0
 903 0118 FFF7FEFF 		bl	sleepModules
 904              	.LVL87:
 237:main.c        ****             
 905              		.loc 1 237 0
 906 011c 4FF40061 		mov	r1, #2048
 907 0120 2046     		mov	r0, r4
 908 0122 FFF7FEFF 		bl	CyPmSleep
 909              	.LVL88:
 910              	.L53:
 911 0126 10BD     		pop	{r4, pc}
 912              	.L67:
 913              		.align	2
 914              	.L66:
 915 0128 00000000 		.word	.LANCHOR0
 916              		.cfi_endproc
 917              	.LFE65:
 918              		.size	Bit_Timer, .-Bit_Timer
 919              		.section	.text.majorityVote,"ax",%progbits
 920              		.align	2
 921              		.global	majorityVote
 922              		.thumb
 923              		.thumb_func
 924              		.type	majorityVote, %function
 925              	majorityVote:
 926              	.LFB76:
 447:main.c        **** 
 448:main.c        ****     }
 449:main.c        **** 
 450:main.c        **** }
 451:main.c        **** 
 452:main.c        **** uint8 majorityVote(void){
 927              		.loc 1 452 0
 928              		.cfi_startproc
 929              		@ args = 0, pretend = 0, frame = 0
ARM GAS  C:\Users\ipfajard\AppData\Local\Temp\ccgEIzEi.s 			page 27


 930              		@ frame_needed = 0, uses_anonymous_args = 0
 931              		@ link register save eliminated.
 932 0000 F0B4     		push	{r4, r5, r6, r7}
 933              		.cfi_def_cfa_offset 16
 934              		.cfi_offset 4, -16
 935              		.cfi_offset 5, -12
 936              		.cfi_offset 6, -8
 937              		.cfi_offset 7, -4
 938              	.LVL89:
 453:main.c        ****     int i = 0;
 454:main.c        ****     int success = 0;
 455:main.c        ****     uint8 finalResult = 0;
 939              		.loc 1 455 0
 940 0002 0020     		movs	r0, #0
 456:main.c        ****     for(i = 0; i<DATA_STORED; i++){
 941              		.loc 1 456 0
 942 0004 0746     		mov	r7, r0
 943 0006 67E0     		b	.L69
 944              	.LVL90:
 945              	.L78:
 946              	.LBB4:
 457:main.c        ****         if((parityResult[i] == SUCCESS) && (postFixResult[i] == SUCCESS)){
 458:main.c        ****             success++;
 459:main.c        ****         }
 460:main.c        ****         if(success >= DATA_STORED){
 461:main.c        ****             finalResult = allData[0];
 462:main.c        ****         }else{
 463:main.c        ****             int zero1 = allData[0] & BIT_0_MASK;
 947              		.loc 1 463 0
 948 0008 3949     		ldr	r1, .L80
 949 000a 91F83820 		ldrb	r2, [r1, #56]	@ zero_extendqisi2
 950 000e 02F00104 		and	r4, r2, #1
 951              	.LVL91:
 464:main.c        ****             int zero2 = allData[1] & BIT_0_MASK;
 952              		.loc 1 464 0
 953 0012 91F83930 		ldrb	r3, [r1, #57]	@ zero_extendqisi2
 954 0016 03F00105 		and	r5, r3, #1
 955              	.LVL92:
 465:main.c        ****             int zero3 = allData[2] & BIT_0_MASK;
 956              		.loc 1 465 0
 957 001a 91F83A10 		ldrb	r1, [r1, #58]	@ zero_extendqisi2
 958 001e 01F00106 		and	r6, r1, #1
 959              	.LVL93:
 466:main.c        ****             int zeros = zero1 + zero2 + zero3;
 960              		.loc 1 466 0
 961 0022 2C44     		add	r4, r4, r5
 962              	.LVL94:
 963 0024 3444     		add	r4, r4, r6
 964              	.LVL95:
 467:main.c        ****             if(zeros > 1){
 965              		.loc 1 467 0
 966 0026 012C     		cmp	r4, #1
 967 0028 01DD     		ble	.L70
 468:main.c        ****                 finalResult = finalResult | BIT_0_MASK;
 968              		.loc 1 468 0
 969 002a 40F00100 		orr	r0, r0, #1
 970              	.LVL96:
ARM GAS  C:\Users\ipfajard\AppData\Local\Temp\ccgEIzEi.s 			page 28


 971              	.L70:
 469:main.c        ****             }
 470:main.c        ****             int one1 = allData[0] & BIT_1_MASK;
 972              		.loc 1 470 0
 973 002e 02F00206 		and	r6, r2, #2
 974              	.LVL97:
 471:main.c        ****             int one2 = allData[1] & BIT_1_MASK;
 975              		.loc 1 471 0
 976 0032 03F00205 		and	r5, r3, #2
 977              	.LVL98:
 472:main.c        ****             int one3 = allData[2] & BIT_1_MASK;
 978              		.loc 1 472 0
 979 0036 01F00204 		and	r4, r1, #2
 980              	.LVL99:
 473:main.c        ****             int ones = one1 + one2 + one3;
 981              		.loc 1 473 0
 982 003a 3544     		add	r5, r5, r6
 983 003c 2C44     		add	r4, r4, r5
 984              	.LVL100:
 474:main.c        ****             if(ones > 1){
 985              		.loc 1 474 0
 986 003e 012C     		cmp	r4, #1
 987 0040 01DD     		ble	.L71
 475:main.c        ****                 finalResult = finalResult | BIT_1_MASK;
 988              		.loc 1 475 0
 989 0042 40F00200 		orr	r0, r0, #2
 990              	.LVL101:
 991              	.L71:
 476:main.c        ****             }
 477:main.c        ****             int two1 = allData[0] & BIT_2_MASK;
 992              		.loc 1 477 0
 993 0046 02F00406 		and	r6, r2, #4
 478:main.c        ****             int two2 = allData[1] & BIT_2_MASK;
 994              		.loc 1 478 0
 995 004a 03F00405 		and	r5, r3, #4
 479:main.c        ****             int two3 = allData[2] & BIT_2_MASK;
 996              		.loc 1 479 0
 997 004e 01F00404 		and	r4, r1, #4
 998              	.LVL102:
 480:main.c        ****             int twos = two1 + two2 + two3;
 999              		.loc 1 480 0
 1000 0052 3544     		add	r5, r5, r6
 1001 0054 2C44     		add	r4, r4, r5
 1002              	.LVL103:
 481:main.c        ****             if(twos > 1){
 1003              		.loc 1 481 0
 1004 0056 012C     		cmp	r4, #1
 1005 0058 01DD     		ble	.L72
 482:main.c        ****                 finalResult = finalResult | BIT_2_MASK;
 1006              		.loc 1 482 0
 1007 005a 40F00400 		orr	r0, r0, #4
 1008              	.LVL104:
 1009              	.L72:
 483:main.c        ****             }
 484:main.c        ****             int three1 = allData[0] & BIT_3_MASK;
 1010              		.loc 1 484 0
 1011 005e 02F00806 		and	r6, r2, #8
ARM GAS  C:\Users\ipfajard\AppData\Local\Temp\ccgEIzEi.s 			page 29


 485:main.c        ****             int three2 = allData[1] & BIT_3_MASK;
 1012              		.loc 1 485 0
 1013 0062 03F00805 		and	r5, r3, #8
 486:main.c        ****             int three3 = allData[2] & BIT_3_MASK;
 1014              		.loc 1 486 0
 1015 0066 01F00804 		and	r4, r1, #8
 1016              	.LVL105:
 487:main.c        ****             int threes = three1 + three2 + three3;
 1017              		.loc 1 487 0
 1018 006a 3544     		add	r5, r5, r6
 1019 006c 2C44     		add	r4, r4, r5
 1020              	.LVL106:
 488:main.c        ****             if(threes > 1){
 1021              		.loc 1 488 0
 1022 006e 012C     		cmp	r4, #1
 1023 0070 01DD     		ble	.L73
 489:main.c        ****                 finalResult = finalResult | BIT_3_MASK;
 1024              		.loc 1 489 0
 1025 0072 40F00800 		orr	r0, r0, #8
 1026              	.LVL107:
 1027              	.L73:
 490:main.c        ****             }
 491:main.c        ****             int four1 = allData[0] & BIT_4_MASK;
 1028              		.loc 1 491 0
 1029 0076 02F01006 		and	r6, r2, #16
 492:main.c        ****             int four2 = allData[1] & BIT_4_MASK;
 1030              		.loc 1 492 0
 1031 007a 03F01005 		and	r5, r3, #16
 493:main.c        ****             int four3 = allData[2] & BIT_4_MASK;
 1032              		.loc 1 493 0
 1033 007e 01F01004 		and	r4, r1, #16
 1034              	.LVL108:
 494:main.c        ****             int fours = four1 + four2 + four3;
 1035              		.loc 1 494 0
 1036 0082 3544     		add	r5, r5, r6
 1037 0084 2C44     		add	r4, r4, r5
 1038              	.LVL109:
 495:main.c        ****             if(fours > 1){
 1039              		.loc 1 495 0
 1040 0086 012C     		cmp	r4, #1
 1041 0088 01DD     		ble	.L74
 496:main.c        ****                 finalResult = finalResult | BIT_4_MASK;
 1042              		.loc 1 496 0
 1043 008a 40F01000 		orr	r0, r0, #16
 1044              	.LVL110:
 1045              	.L74:
 497:main.c        ****             }
 498:main.c        ****             int five1 = allData[0] & BIT_5_MASK;
 1046              		.loc 1 498 0
 1047 008e 02F02006 		and	r6, r2, #32
 499:main.c        ****             int five2 = allData[1] & BIT_5_MASK;
 1048              		.loc 1 499 0
 1049 0092 03F02005 		and	r5, r3, #32
 500:main.c        ****             int five3 = allData[2] & BIT_5_MASK;
 1050              		.loc 1 500 0
 1051 0096 01F02004 		and	r4, r1, #32
 1052              	.LVL111:
ARM GAS  C:\Users\ipfajard\AppData\Local\Temp\ccgEIzEi.s 			page 30


 501:main.c        ****             int fives = five1 + five2 + five3;
 1053              		.loc 1 501 0
 1054 009a 3544     		add	r5, r5, r6
 1055 009c 2C44     		add	r4, r4, r5
 1056              	.LVL112:
 502:main.c        ****             if(fives > 1){
 1057              		.loc 1 502 0
 1058 009e 012C     		cmp	r4, #1
 1059 00a0 01DD     		ble	.L75
 503:main.c        ****                 finalResult = finalResult | BIT_5_MASK;
 1060              		.loc 1 503 0
 1061 00a2 40F02000 		orr	r0, r0, #32
 1062              	.LVL113:
 1063              	.L75:
 504:main.c        ****             }
 505:main.c        ****             int six1 = allData[0] & BIT_6_MASK;
 1064              		.loc 1 505 0
 1065 00a6 02F04006 		and	r6, r2, #64
 506:main.c        ****             int six2 = allData[1] & BIT_6_MASK;
 1066              		.loc 1 506 0
 1067 00aa 03F04005 		and	r5, r3, #64
 507:main.c        ****             int six3 = allData[2] & BIT_6_MASK;
 1068              		.loc 1 507 0
 1069 00ae 01F04004 		and	r4, r1, #64
 1070              	.LVL114:
 508:main.c        ****             int sixes = six1 + six2 + six3;
 1071              		.loc 1 508 0
 1072 00b2 3544     		add	r5, r5, r6
 1073 00b4 2C44     		add	r4, r4, r5
 1074              	.LVL115:
 509:main.c        ****             if(sixes > 1){
 1075              		.loc 1 509 0
 1076 00b6 012C     		cmp	r4, #1
 1077 00b8 01DD     		ble	.L76
 510:main.c        ****                 finalResult = finalResult | BIT_6_MASK;
 1078              		.loc 1 510 0
 1079 00ba 40F04000 		orr	r0, r0, #64
 1080              	.LVL116:
 1081              	.L76:
 511:main.c        ****             }
 512:main.c        ****             int seven1 = allData[0] & BIT_7_MASK;
 1082              		.loc 1 512 0
 1083 00be 02F08004 		and	r4, r2, #128
 1084              	.LVL117:
 513:main.c        ****             int seven2 = allData[1] & BIT_7_MASK;
 1085              		.loc 1 513 0
 1086 00c2 03F08002 		and	r2, r3, #128
 1087              	.LVL118:
 514:main.c        ****             int seven3 = allData[2] & BIT_7_MASK;
 1088              		.loc 1 514 0
 1089 00c6 01F08001 		and	r1, r1, #128
 1090              	.LVL119:
 515:main.c        ****             int sevens = seven1 + seven2 + seven3;
 1091              		.loc 1 515 0
 1092 00ca A318     		adds	r3, r4, r2
 1093              	.LVL120:
 1094 00cc 0B44     		add	r3, r3, r1
ARM GAS  C:\Users\ipfajard\AppData\Local\Temp\ccgEIzEi.s 			page 31


 1095              	.LVL121:
 516:main.c        ****             if(sevens > 1){
 1096              		.loc 1 516 0
 1097 00ce 012B     		cmp	r3, #1
 1098 00d0 01DD     		ble	.L77
 517:main.c        ****                 finalResult = finalResult | BIT_7_MASK;
 1099              		.loc 1 517 0
 1100 00d2 40F08000 		orr	r0, r0, #128
 1101              	.LVL122:
 1102              	.L77:
 1103              	.LBE4:
 456:main.c        ****         if((parityResult[i] == SUCCESS) && (postFixResult[i] == SUCCESS)){
 1104              		.loc 1 456 0 discriminator 2
 1105 00d6 0137     		adds	r7, r7, #1
 1106              	.LVL123:
 1107              	.L69:
 456:main.c        ****         if((parityResult[i] == SUCCESS) && (postFixResult[i] == SUCCESS)){
 1108              		.loc 1 456 0 is_stmt 0 discriminator 1
 1109 00d8 022F     		cmp	r7, #2
 1110 00da 95DD     		ble	.L78
 518:main.c        ****             }
 519:main.c        ****         }
 520:main.c        ****     }
 521:main.c        ****     // Reset data array
 522:main.c        ****     allData[0] = 0;
 1111              		.loc 1 522 0 is_stmt 1
 1112 00dc 044B     		ldr	r3, .L80
 1113 00de 0022     		movs	r2, #0
 1114 00e0 83F83820 		strb	r2, [r3, #56]
 523:main.c        ****     allData[1] = 0;
 1115              		.loc 1 523 0
 1116 00e4 83F83920 		strb	r2, [r3, #57]
 524:main.c        ****     allData[2] = 0;
 1117              		.loc 1 524 0
 1118 00e8 83F83A20 		strb	r2, [r3, #58]
 525:main.c        ****     return finalResult;
 526:main.c        **** }
 1119              		.loc 1 526 0
 1120 00ec F0BC     		pop	{r4, r5, r6, r7}
 1121              		.cfi_restore 7
 1122              		.cfi_restore 6
 1123              		.cfi_restore 5
 1124              		.cfi_restore 4
 1125              		.cfi_def_cfa_offset 0
 1126              	.LVL124:
 1127 00ee 7047     		bx	lr
 1128              	.L81:
 1129              		.align	2
 1130              	.L80:
 1131 00f0 00000000 		.word	.LANCHOR0
 1132              		.cfi_endproc
 1133              	.LFE76:
 1134              		.size	majorityVote, .-majorityVote
 1135              		.section	.rodata.str1.4,"aMS",%progbits,1
 1136              		.align	2
 1137              	.LC0:
 1138 0000 30784646 		.ascii	"0xFF pre-fix\000"
ARM GAS  C:\Users\ipfajard\AppData\Local\Temp\ccgEIzEi.s 			page 32


 1138      20707265 
 1138      2D666978 
 1138      00
 1139 000d 000000   		.space	3
 1140              	.LC1:
 1141 0010 43726162 		.ascii	"Crabs:%i Err:%i\000"
 1141      733A2569 
 1141      20457272 
 1141      3A256900 
 1142              	.LC2:
 1143 0020 676F6F64 		.ascii	"good\000"
 1143      00
 1144 0025 000000   		.space	3
 1145              	.LC3:
 1146 0028 53746172 		.ascii	"Starting Module!\000"
 1146      74696E67 
 1146      204D6F64 
 1146      756C6521 
 1146      00
 1147 0039 000000   		.space	3
 1148              	.LC4:
 1149 003c 636F756E 		.ascii	"counting crabs...\000"
 1149      74696E67 
 1149      20637261 
 1149      62732E2E 
 1149      2E00
 1150              		.bss
 1151              		.align	2
 1152              		.set	.LANCHOR0,. + 0
 1153              		.type	lcdFlagEncode, %object
 1154              		.size	lcdFlagEncode, 1
 1155              	lcdFlagEncode:
 1156 0000 00       		.space	1
 1157              		.type	lcdFlagData, %object
 1158              		.size	lcdFlagData, 1
 1159              	lcdFlagData:
 1160 0001 00       		.space	1
 1161              		.type	crabs, %object
 1162              		.size	crabs, 2
 1163              	crabs:
 1164 0002 0000     		.space	2
 1165              		.type	paritySuccess, %object
 1166              		.size	paritySuccess, 1
 1167              	paritySuccess:
 1168 0004 00       		.space	1
 1169 0005 000000   		.space	3
 1170              		.type	OutputString, %object
 1171              		.size	OutputString, 12
 1172              	OutputString:
 1173 0008 00000000 		.space	12
 1173      00000000 
 1173      00000000 
 1174              		.type	dataFlag, %object
 1175              		.size	dataFlag, 1
 1176              	dataFlag:
 1177 0014 00       		.space	1
 1178              		.type	lcdFlagDecode, %object
ARM GAS  C:\Users\ipfajard\AppData\Local\Temp\ccgEIzEi.s 			page 33


 1179              		.size	lcdFlagDecode, 1
 1180              	lcdFlagDecode:
 1181 0015 00       		.space	1
 1182              		.type	decodeWrong, %object
 1183              		.size	decodeWrong, 1
 1184              	decodeWrong:
 1185 0016 00       		.space	1
 1186              		.type	sleepFlag, %object
 1187              		.size	sleepFlag, 1
 1188              	sleepFlag:
 1189 0017 00       		.space	1
 1190              		.type	display, %object
 1191              		.size	display, 12
 1192              	display:
 1193 0018 00000000 		.space	12
 1193      00000000 
 1193      00000000 
 1194              		.type	currentBit, %object
 1195              		.size	currentBit, 1
 1196              	currentBit:
 1197 0024 00       		.space	1
 1198 0025 00       		.space	1
 1199              		.type	oneCount, %object
 1200              		.size	oneCount, 2
 1201              	oneCount:
 1202 0026 0000     		.space	2
 1203              		.type	zeroCount, %object
 1204              		.size	zeroCount, 2
 1205              	zeroCount:
 1206 0028 0000     		.space	2
 1207              		.type	levelCounter, %object
 1208              		.size	levelCounter, 2
 1209              	levelCounter:
 1210 002a 0000     		.space	2
 1211              		.type	overTimeCount.6962, %object
 1212              		.size	overTimeCount.6962, 4
 1213              	overTimeCount.6962:
 1214 002c 00000000 		.space	4
 1215              		.type	postfixFlag, %object
 1216              		.size	postfixFlag, 1
 1217              	postfixFlag:
 1218 0030 00       		.space	1
 1219              		.type	dataCount, %object
 1220              		.size	dataCount, 1
 1221              	dataCount:
 1222 0031 00       		.space	1
 1223              		.type	data, %object
 1224              		.size	data, 2
 1225              	data:
 1226 0032 0000     		.space	2
 1227              		.type	threeTransmissions, %object
 1228              		.size	threeTransmissions, 1
 1229              	threeTransmissions:
 1230 0034 00       		.space	1
 1231 0035 000000   		.space	3
 1232              		.type	allData, %object
 1233              		.size	allData, 3
ARM GAS  C:\Users\ipfajard\AppData\Local\Temp\ccgEIzEi.s 			page 34


 1234              	allData:
 1235 0038 000000   		.space	3
 1236              		.text
 1237              	.Letext0:
 1238              		.file 2 "c:\\program files (x86)\\cypress\\psoc creator\\4.1\\psoc creator\\import\\gnu\\arm\\5.4.
 1239              		.file 3 "c:\\program files (x86)\\cypress\\psoc creator\\4.1\\psoc creator\\import\\gnu\\arm\\5.4.
 1240              		.file 4 "Generated_Source\\PSoC5/cytypes.h"
 1241              		.file 5 "Generated_Source\\PSoC5/CyLib.h"
 1242              		.file 6 "Generated_Source\\PSoC5/LCD_Char.h"
 1243              		.file 7 "c:\\program files (x86)\\cypress\\psoc creator\\4.1\\psoc creator\\import\\gnu\\arm\\5.4.
 1244              		.file 8 "Generated_Source\\PSoC5/UART.h"
 1245              		.file 9 "Generated_Source\\PSoC5/PWM_Recon.h"
 1246              		.file 10 "Generated_Source\\PSoC5/Shift_Reg.h"
 1247              		.file 11 "Generated_Source\\PSoC5/Out_Comp.h"
 1248              		.file 12 "Generated_Source\\PSoC5/Bit_Timer.h"
 1249              		.file 13 "Generated_Source\\PSoC5/checkWatchDogTimer.h"
 1250              		.file 14 "Generated_Source\\PSoC5/cyPm.h"
 1251              		.file 15 "Generated_Source\\PSoC5/Power_Toggle.h"
 1252              		.file 16 "Generated_Source\\PSoC5/Data_ISR.h"
 1253              		.file 17 "Generated_Source\\PSoC5/Sleep_ISR.h"
 1254              		.file 18 "Generated_Source\\PSoC5/watchDogCheck.h"
 1255              		.file 19 "Generated_Source\\PSoC5/SleepTimer.h"
 1256              		.file 20 "Generated_Source\\PSoC5/sleepToggle.h"
 1257              		.file 21 "Generated_Source\\PSoC5/Count_Out.h"
 1258              		.file 22 "Generated_Source\\PSoC5/core_cm3.h"