ARM GAS  C:\Users\sdysart\AppData\Local\Temp\ccoIEGKB.s 			page 1


   1              		.syntax unified
   2              		.cpu cortex-m3
   3              		.fpu softvfp
   4              		.eabi_attribute 20, 1
   5              		.eabi_attribute 21, 1
   6              		.eabi_attribute 23, 3
   7              		.eabi_attribute 24, 1
   8              		.eabi_attribute 25, 1
   9              		.eabi_attribute 26, 1
  10              		.eabi_attribute 30, 1
  11              		.eabi_attribute 34, 1
  12              		.eabi_attribute 18, 4
  13              		.thumb
  14              		.syntax unified
  15              		.file	"main.c"
  16              		.text
  17              	.Ltext0:
  18              		.cfi_sections	.debug_frame
  19              		.section	.text.RxIsr,"ax",%progbits
  20              		.align	2
  21              		.global	RxIsr
  22              		.thumb
  23              		.thumb_func
  24              		.type	RxIsr, %function
  25              	RxIsr:
  26              	.LFB64:
  27              		.file 1 "main.c"
   1:main.c        **** /* ========================================
   2:main.c        ****  *
   3:main.c        ****  * Created by: Stephanie Salazar
   4:main.c        ****  * Created: 5/22/18
   5:main.c        ****  * Project: CrabsTransmit
   6:main.c        ****  * Description: Receives amount of crabs via UART and sends
   7:main.c        ****  * amount by 1 crab per CRAB_TIME
   8:main.c        ****  *
   9:main.c        ****  * ========================================
  10:main.c        **** */
  11:main.c        **** #include "project.h"
  12:main.c        **** #include <stdio.h>
  13:main.c        **** #include "common.h"
  14:main.c        **** #include "stdlib.h"
  15:main.c        **** 
  16:main.c        **** /* Character LCD String Length */
  17:main.c        **** #define LINE_STR_LENGTH     (20u)
  18:main.c        **** 
  19:main.c        **** /*Definitions*/
  20:main.c        **** #define CLOCK_FREQ 1000000
  21:main.c        **** #define FREQ(x) (CLOCK_FREQ/x)-1
  22:main.c        **** #define CRAB_TIME 50 //1 crab per CRAB_TIME
  23:main.c        **** #define TEST_VALUE 42
  24:main.c        **** 
  25:main.c        **** /*PWM Frequencies*/
  26:main.c        **** #define ONE_FREQ 42000
  27:main.c        **** #define ZERO_FREQ 37000
  28:main.c        **** #define AUDIBLE_FREQ 12000
  29:main.c        **** #define ONE 1
  30:main.c        **** #define ZERO 0
ARM GAS  C:\Users\sdysart\AppData\Local\Temp\ccoIEGKB.s 			page 2


  31:main.c        **** 
  32:main.c        **** /* Function Prototypes */
  33:main.c        **** CY_ISR_PROTO(isr_sec); // High F Interrupt
  34:main.c        **** CY_ISR_PROTO(sleep_interrupt);
  35:main.c        **** 
  36:main.c        **** /*Global Variables*/
  37:main.c        **** int stop = ONE;
  38:main.c        **** uint8 newDataflag = 0;
  39:main.c        **** uint8 errorStatus = 0u;
  40:main.c        **** uint8 rxData = 0;
  41:main.c        **** int crabs = 0; // How many crabs are in the trap?
  42:main.c        **** int dataCount = 0;
  43:main.c        **** 
  44:main.c        **** /*
  45:main.c        ****  * RxIsr interrupt
  46:main.c        ****  * Interrupt triggered when rx 
  47:main.c        ****  */
  48:main.c        **** CY_ISR(RxIsr)
  49:main.c        **** {
  28              		.loc 1 49 0
  29              		.cfi_startproc
  30              		@ args = 0, pretend = 0, frame = 0
  31              		@ frame_needed = 0, uses_anonymous_args = 0
  32              		@ link register save eliminated.
  33              	.L4:
  50:main.c        ****     uint8 rxStatus;  
  51:main.c        **** 
  52:main.c        ****     do
  53:main.c        ****     {
  54:main.c        ****         /* Read receiver status register */
  55:main.c        ****         rxStatus = UART_RXSTATUS_REG;
  34              		.loc 1 55 0
  35 0000 104B     		ldr	r3, .L5
  36 0002 1B78     		ldrb	r3, [r3]	@ zero_extendqisi2
  37 0004 DBB2     		uxtb	r3, r3
  38              	.LVL0:
  56:main.c        **** 
  57:main.c        ****         /* Check status for errors */
  58:main.c        ****         if((rxStatus & (UART_RX_STS_BREAK      | UART_RX_STS_PAR_ERROR |
  39              		.loc 1 58 0
  40 0006 13F01E0F 		tst	r3, #30
  41 000a 05D0     		beq	.L2
  59:main.c        ****                         UART_RX_STS_STOP_ERROR | UART_RX_STS_OVERRUN)) != 0u)
  60:main.c        ****         {
  61:main.c        ****             /* ERROR handling. */
  62:main.c        ****             errorStatus |= rxStatus & ( UART_RX_STS_BREAK      | UART_RX_STS_PAR_ERROR | 
  42              		.loc 1 62 0
  43 000c 0E48     		ldr	r0, .L5+4
  44 000e 03F01E02 		and	r2, r3, #30
  45 0012 0178     		ldrb	r1, [r0]	@ zero_extendqisi2
  46 0014 0A43     		orrs	r2, r2, r1
  47 0016 0270     		strb	r2, [r0]
  48              	.L2:
  49 0018 03F02003 		and	r3, r3, #32
  50              	.LVL1:
  63:main.c        ****                                         UART_RX_STS_STOP_ERROR | UART_RX_STS_OVERRUN);
  64:main.c        ****         }
ARM GAS  C:\Users\sdysart\AppData\Local\Temp\ccoIEGKB.s 			page 3


  65:main.c        ****         /* If receiver status is not empty */
  66:main.c        ****         if((rxStatus & UART_RX_STS_FIFO_NOTEMPTY) != 0u){
  51              		.loc 1 66 0
  52 001c 03F0FF02 		and	r2, r3, #255
  53 0020 6BB1     		cbz	r3, .L3
  67:main.c        ****             /* Read data from the RX data register */
  68:main.c        ****             rxData = UART_RXDATA_REG;
  54              		.loc 1 68 0
  55 0022 0A4B     		ldr	r3, .L5+8
  56 0024 1B78     		ldrb	r3, [r3]	@ zero_extendqisi2
  57 0026 DBB2     		uxtb	r3, r3
  58 0028 0749     		ldr	r1, .L5+4
  59 002a 4B70     		strb	r3, [r1, #1]
  69:main.c        ****             if(errorStatus == 0u){
  60              		.loc 1 69 0
  61 002c 0978     		ldrb	r1, [r1]	@ zero_extendqisi2
  62 002e 31B9     		cbnz	r1, .L3
  70:main.c        ****                 /* Send data backward */
  71:main.c        ****                 UART_TXDATA_REG = rxData;
  63              		.loc 1 71 0
  64 0030 0749     		ldr	r1, .L5+12
  65 0032 0B70     		strb	r3, [r1]
  72:main.c        ****                 crabs = rxData; // put data in variable to send
  66              		.loc 1 72 0
  67 0034 044B     		ldr	r3, .L5+4
  68 0036 5978     		ldrb	r1, [r3, #1]	@ zero_extendqisi2
  69 0038 5960     		str	r1, [r3, #4]
  73:main.c        ****                 newDataflag = 1; //Set flag true to send data
  70              		.loc 1 73 0
  71 003a 0121     		movs	r1, #1
  72 003c 1972     		strb	r1, [r3, #8]
  73              	.L3:
  74:main.c        ****             }
  75:main.c        ****         }
  76:main.c        ****         
  77:main.c        ****     }while((rxStatus & UART_RX_STS_FIFO_NOTEMPTY) != 0u); //read until empty
  74              		.loc 1 77 0
  75 003e 002A     		cmp	r2, #0
  76 0040 DED1     		bne	.L4
  78:main.c        **** }
  77              		.loc 1 78 0
  78 0042 7047     		bx	lr
  79              	.L6:
  80              		.align	2
  81              	.L5:
  82 0044 69640040 		.word	1073767529
  83 0048 00000000 		.word	.LANCHOR0
  84 004c 4A650040 		.word	1073767754
  85 0050 4B650040 		.word	1073767755
  86              		.cfi_endproc
  87              	.LFE64:
  88              		.size	RxIsr, .-RxIsr
  89              		.section	.text.isr_sec,"ax",%progbits
  90              		.align	2
  91              		.global	isr_sec
  92              		.thumb
  93              		.thumb_func
ARM GAS  C:\Users\sdysart\AppData\Local\Temp\ccoIEGKB.s 			page 4


  94              		.type	isr_sec, %function
  95              	isr_sec:
  96              	.LFB65:
  79:main.c        **** 
  80:main.c        **** /*
  81:main.c        ****  * isr_sec interrupt
  82:main.c        ****  * Interrupt triggered on a CRAB_TIME timer timeout
  83:main.c        ****  * This will turn PWM signal off
  84:main.c        ****  */
  85:main.c        **** CY_ISR(isr_sec)
  86:main.c        **** {
  97              		.loc 1 86 0
  98              		.cfi_startproc
  99              		@ args = 0, pretend = 0, frame = 0
 100              		@ frame_needed = 0, uses_anonymous_args = 0
 101              		@ link register save eliminated.
  87:main.c        **** #if(UART == ENABLED)
  88:main.c        ****     stop = ONE;
 102              		.loc 1 88 0
 103 0000 0122     		movs	r2, #1
 104 0002 014B     		ldr	r3, .L8
 105 0004 1A60     		str	r2, [r3]
 106 0006 7047     		bx	lr
 107              	.L9:
 108              		.align	2
 109              	.L8:
 110 0008 00000000 		.word	.LANCHOR1
 111              		.cfi_endproc
 112              	.LFE65:
 113              		.size	isr_sec, .-isr_sec
 114              		.section	.text.sleep_interrupt,"ax",%progbits
 115              		.align	2
 116              		.global	sleep_interrupt
 117              		.thumb
 118              		.thumb_func
 119              		.type	sleep_interrupt, %function
 120              	sleep_interrupt:
 121              	.LFB67:
  89:main.c        **** #else 
  90:main.c        ****     newDataflag = 1 ^ newDataflag;
  91:main.c        **** #endif /* UART == ENABLED */
  92:main.c        **** }//end CY_ISR(isr_sec)
  93:main.c        **** 
  94:main.c        **** /*
  95:main.c        ****  * isr_sec interrupt
  96:main.c        ****  * Interrupt triggered on a CRAB_TIME timer timeout
  97:main.c        ****  * This will turn PWM signal off
  98:main.c        ****  */
  99:main.c        **** CY_ISR(rx_test)
 100:main.c        **** {
 101:main.c        ****     HighVoltage_Write(1);
 102:main.c        **** }//end CY_ISR(rx_test)
 103:main.c        **** 
 104:main.c        **** /*
 105:main.c        ****  * WakeupIsr interrupt
 106:main.c        ****  * PSoC turns on and checks for signal
 107:main.c        ****  */
ARM GAS  C:\Users\sdysart\AppData\Local\Temp\ccoIEGKB.s 			page 5


 108:main.c        **** CY_ISR(sleep_interrupt)
 109:main.c        **** {
 122              		.loc 1 109 0
 123              		.cfi_startproc
 124              		@ args = 0, pretend = 0, frame = 0
 125              		@ frame_needed = 0, uses_anonymous_args = 0
 126 0000 08B5     		push	{r3, lr}
 127              		.cfi_def_cfa_offset 8
 128              		.cfi_offset 3, -8
 129              		.cfi_offset 14, -4
 110:main.c        ****     SleepTimer_GetStatus(); // Clears the sleep timer interrupt
 130              		.loc 1 110 0
 131 0002 FFF7FEFF 		bl	SleepTimer_GetStatus
 132              	.LVL2:
 133 0006 08BD     		pop	{r3, pc}
 134              		.cfi_endproc
 135              	.LFE67:
 136              		.size	sleep_interrupt, .-sleep_interrupt
 137              		.section	.text.rx_test,"ax",%progbits
 138              		.align	2
 139              		.global	rx_test
 140              		.thumb
 141              		.thumb_func
 142              		.type	rx_test, %function
 143              	rx_test:
 144              	.LFB66:
 100:main.c        ****     HighVoltage_Write(1);
 145              		.loc 1 100 0
 146              		.cfi_startproc
 147              		@ args = 0, pretend = 0, frame = 0
 148              		@ frame_needed = 0, uses_anonymous_args = 0
 149 0000 08B5     		push	{r3, lr}
 150              		.cfi_def_cfa_offset 8
 151              		.cfi_offset 3, -8
 152              		.cfi_offset 14, -4
 101:main.c        **** }//end CY_ISR(rx_test)
 153              		.loc 1 101 0
 154 0002 0120     		movs	r0, #1
 155 0004 FFF7FEFF 		bl	HighVoltage_Write
 156              	.LVL3:
 157 0008 08BD     		pop	{r3, pc}
 158              		.cfi_endproc
 159              	.LFE66:
 160              		.size	rx_test, .-rx_test
 161 000a 00BF     		.section	.text.main,"ax",%progbits
 162              		.align	2
 163              		.global	main
 164              		.thumb
 165              		.thumb_func
 166              		.type	main, %function
 167              	main:
 168              	.LFB68:
 111:main.c        **** } // end CY_ISR(WakeupIsr)
 112:main.c        ****     
 113:main.c        **** 
 114:main.c        **** /*
 115:main.c        ****  * function: main()
ARM GAS  C:\Users\sdysart\AppData\Local\Temp\ccoIEGKB.s 			page 6


 116:main.c        ****  * parameters: none
 117:main.c        ****  * returns: int (Should never return)
 118:main.c        ****  * description: toggles a pin off and on every four seconds and sends a 40k PWM
 119:main.c        ****  *      signal 
 120:main.c        ****  */
 121:main.c        **** int main(void)
 122:main.c        **** {
 169              		.loc 1 122 0
 170              		.cfi_startproc
 171              		@ Volatile: function does not return.
 172              		@ args = 0, pretend = 0, frame = 0
 173              		@ frame_needed = 0, uses_anonymous_args = 0
 174 0000 08B5     		push	{r3, lr}
 175              		.cfi_def_cfa_offset 8
 176              		.cfi_offset 3, -8
 177              		.cfi_offset 14, -4
 123:main.c        ****     CyGlobalIntEnable; /* Enable global interrupts. */
 178              		.loc 1 123 0
 179              		.syntax unified
 180              	@ 123 "main.c" 1
 181 0002 62B6     		CPSIE   i
 182              	@ 0 "" 2
 124:main.c        **** 
 125:main.c        **** 
 126:main.c        ****     /*Block initializations*/
 127:main.c        ****     //UART_Start();           /* Start communication component */
 128:main.c        ****     PWM_Modulator_Start();
 183              		.loc 1 128 0
 184              		.thumb
 185              		.syntax unified
 186 0004 FFF7FEFF 		bl	PWM_Modulator_Start
 187              	.LVL4:
 129:main.c        ****     PWM_Modulator_WritePeriod(FREQ(ONE_FREQ));
 188              		.loc 1 129 0
 189 0008 1620     		movs	r0, #22
 190 000a FFF7FEFF 		bl	PWM_Modulator_WritePeriod
 191              	.LVL5:
 130:main.c        ****     PWM_Modulator_WriteCompare((FREQ(ONE_FREQ))/2); // Sets pulse width
 192              		.loc 1 130 0
 193 000e 0B20     		movs	r0, #11
 194 0010 FFF7FEFF 		bl	PWM_Modulator_WriteCompare
 195              	.LVL6:
 131:main.c        ****     PWM_Switch_Timer_Start();
 196              		.loc 1 131 0
 197 0014 FFF7FEFF 		bl	PWM_Switch_Timer_Start
 198              	.LVL7:
 132:main.c        ****     PWM_Switch_Timer_WritePeriod(CRAB_TIME*42); 
 199              		.loc 1 132 0
 200 0018 40F63400 		movw	r0, #2100
 201 001c FFF7FEFF 		bl	PWM_Switch_Timer_WritePeriod
 202              	.LVL8:
 133:main.c        ****     sleep_interrupt_StartEx(sleep_interrupt);
 203              		.loc 1 133 0
 204 0020 2D48     		ldr	r0, .L20
 205 0022 FFF7FEFF 		bl	sleep_interrupt_StartEx
 206              	.LVL9:
 134:main.c        ****     SleepTimer_Start();
ARM GAS  C:\Users\sdysart\AppData\Local\Temp\ccoIEGKB.s 			page 7


 207              		.loc 1 134 0
 208 0026 FFF7FEFF 		bl	SleepTimer_Start
 209              	.LVL10:
 135:main.c        ****     // Testing PWMs
 136:main.c        ****     PWM_1_Start();
 210              		.loc 1 136 0
 211 002a FFF7FEFF 		bl	PWM_1_Start
 212              	.LVL11:
 137:main.c        ****     PWM_2_Start();
 213              		.loc 1 137 0
 214 002e FFF7FEFF 		bl	PWM_2_Start
 215              	.LVL12:
 138:main.c        ****     PWM_3_Start();
 216              		.loc 1 138 0
 217 0032 FFF7FEFF 		bl	PWM_3_Start
 218              	.LVL13:
 139:main.c        ****     
 140:main.c        ****     //Testing PWMS
 141:main.c        ****     // Set PWM to AUDIBLE_FREQ
 142:main.c        ****     PWM_1_WritePeriod(FREQ(AUDIBLE_FREQ));
 219              		.loc 1 142 0
 220 0036 5220     		movs	r0, #82
 221 0038 FFF7FEFF 		bl	PWM_1_WritePeriod
 222              	.LVL14:
 143:main.c        ****     PWM_1_WriteCompare((FREQ(AUDIBLE_FREQ))/2); // Sets pulse width to half
 223              		.loc 1 143 0
 224 003c 2920     		movs	r0, #41
 225 003e FFF7FEFF 		bl	PWM_1_WriteCompare
 226              	.LVL15:
 144:main.c        ****     
 145:main.c        ****     // Set PWM to ONE_FREQ
 146:main.c        ****     PWM_2_WritePeriod(FREQ(ONE_FREQ));
 227              		.loc 1 146 0
 228 0042 1620     		movs	r0, #22
 229 0044 FFF7FEFF 		bl	PWM_2_WritePeriod
 230              	.LVL16:
 147:main.c        ****     PWM_2_WriteCompare((FREQ(ONE_FREQ))/2); // Sets pulse width to half
 231              		.loc 1 147 0
 232 0048 0B20     		movs	r0, #11
 233 004a FFF7FEFF 		bl	PWM_2_WriteCompare
 234              	.LVL17:
 148:main.c        ****     
 149:main.c        ****     // Set PWM to ZERO_FREQ
 150:main.c        ****     PWM_3_WritePeriod(FREQ(ZERO_FREQ));
 235              		.loc 1 150 0
 236 004e 1A20     		movs	r0, #26
 237 0050 FFF7FEFF 		bl	PWM_3_WritePeriod
 238              	.LVL18:
 151:main.c        ****     PWM_3_WriteCompare((FREQ(ZERO_FREQ))/2); // Sets pulse width to half
 239              		.loc 1 151 0
 240 0054 0D20     		movs	r0, #13
 241 0056 FFF7FEFF 		bl	PWM_3_WriteCompare
 242              	.LVL19:
 152:main.c        ****     
 153:main.c        ****     /* Start interrupts */
 154:main.c        ****     isr_sec_StartEx(isr_sec);
 243              		.loc 1 154 0
ARM GAS  C:\Users\sdysart\AppData\Local\Temp\ccoIEGKB.s 			page 8


 244 005a 2048     		ldr	r0, .L20+4
 245 005c FFF7FEFF 		bl	isr_sec_StartEx
 246              	.LVL20:
 155:main.c        **** #if(INTERRUPT_CODE_ENABLED == ENABLED)
 156:main.c        ****     isr_rx_StartEx(RxIsr);
 247              		.loc 1 156 0
 248 0060 1F48     		ldr	r0, .L20+8
 249 0062 FFF7FEFF 		bl	isr_rx_StartEx
 250              	.LVL21:
 157:main.c        **** #endif /* INTERRUPT_CODE_ENABLED == ENABLED */
 158:main.c        **** 
 159:main.c        ****     // PSoC Sleep command. To adjust sleep time, change in the hardware
 160:main.c        ****     //  block. No sleep time parameters taken in PSoC5LP.
 161:main.c        ****     //  PM_SLEEP_TIME_NONE is a relic of PSoC3
 162:main.c        ****     CyPmSleep(PM_SLEEP_TIME_NONE, PM_SLEEP_SRC_CTW);
 251              		.loc 1 162 0
 252 0066 4FF40061 		mov	r1, #2048
 253 006a 0020     		movs	r0, #0
 254 006c FFF7FEFF 		bl	CyPmSleep
 255              	.LVL22:
 256              	.L15:
 163:main.c        **** 
 164:main.c        ****     for(;;)
 165:main.c        ****     {
 166:main.c        ****         if(errorStatus != 0u){
 257              		.loc 1 166 0
 258 0070 1C4B     		ldr	r3, .L20+12
 259 0072 1B78     		ldrb	r3, [r3]	@ zero_extendqisi2
 260 0074 13B1     		cbz	r3, .L16
 167:main.c        ****             /* Clear error status */
 168:main.c        ****             errorStatus = 0u;
 261              		.loc 1 168 0
 262 0076 0022     		movs	r2, #0
 263 0078 1A4B     		ldr	r3, .L20+12
 264 007a 1A70     		strb	r2, [r3]
 265              	.L16:
 169:main.c        ****         }
 170:main.c        ****         
 171:main.c        **** #if(UART == ENABLED)
 172:main.c        ****         /* If new data is received from UART */
 173:main.c        ****         if(newDataflag == 1){
 266              		.loc 1 173 0
 267 007c 194B     		ldr	r3, .L20+12
 268 007e 1B7A     		ldrb	r3, [r3, #8]	@ zero_extendqisi2
 269 0080 012B     		cmp	r3, #1
 270 0082 16D1     		bne	.L17
 174:main.c        ****             stop = ZERO;
 271              		.loc 1 174 0
 272 0084 0025     		movs	r5, #0
 273 0086 184B     		ldr	r3, .L20+16
 274 0088 1D60     		str	r5, [r3]
 175:main.c        ****             //HighVoltage_Write(1); //Turn boost converter on
 176:main.c        ****             /* Need to turn PWM and timer on again to send data */
 177:main.c        ****             PWM_Modulator_Wakeup();
 275              		.loc 1 177 0
 276 008a FFF7FEFF 		bl	PWM_Modulator_Wakeup
 277              	.LVL23:
ARM GAS  C:\Users\sdysart\AppData\Local\Temp\ccoIEGKB.s 			page 9


 178:main.c        ****             PWM_Switch_Timer_Wakeup();
 278              		.loc 1 178 0
 279 008e FFF7FEFF 		bl	PWM_Switch_Timer_Wakeup
 280              	.LVL24:
 179:main.c        ****             PWM_Modulator_Start();
 281              		.loc 1 179 0
 282 0092 FFF7FEFF 		bl	PWM_Modulator_Start
 283              	.LVL25:
 180:main.c        ****             PWM_Switch_Timer_Start();
 284              		.loc 1 180 0
 285 0096 FFF7FEFF 		bl	PWM_Switch_Timer_Start
 286              	.LVL26:
 181:main.c        ****             PWM_Switch_Timer_WritePeriod(CRAB_TIME*crabs); //send over amount of crabs (1 crab = CR
 287              		.loc 1 181 0
 288 009a 124C     		ldr	r4, .L20+12
 289 009c 6368     		ldr	r3, [r4, #4]
 290 009e 03EB8303 		add	r3, r3, r3, lsl #2
 291 00a2 03EB8303 		add	r3, r3, r3, lsl #2
 292 00a6 5800     		lsls	r0, r3, #1
 293 00a8 80B2     		uxth	r0, r0
 294 00aa FFF7FEFF 		bl	PWM_Switch_Timer_WritePeriod
 295              	.LVL27:
 182:main.c        ****             newDataflag = 0; // Reset flag to 0, no new data
 296              		.loc 1 182 0
 297 00ae 2572     		strb	r5, [r4, #8]
 298 00b0 DEE7     		b	.L15
 299              	.L17:
 183:main.c        ****         /* If timer is done sending crabs */
 184:main.c        ****         }else if(stop == ONE){
 300              		.loc 1 184 0
 301 00b2 0D4B     		ldr	r3, .L20+16
 302 00b4 1B68     		ldr	r3, [r3]
 303 00b6 012B     		cmp	r3, #1
 304 00b8 DAD1     		bne	.L15
 185:main.c        ****             PWM_Modulator_Stop(); //Turn PWM off
 305              		.loc 1 185 0
 306 00ba FFF7FEFF 		bl	PWM_Modulator_Stop
 307              	.LVL28:
 186:main.c        ****             PWM_Switch_Timer_Stop(); //Turn timer off until new data
 308              		.loc 1 186 0
 309 00be FFF7FEFF 		bl	PWM_Switch_Timer_Stop
 310              	.LVL29:
 187:main.c        ****             PWM_Modulator_Sleep(); //Turn PWM off
 311              		.loc 1 187 0
 312 00c2 FFF7FEFF 		bl	PWM_Modulator_Sleep
 313              	.LVL30:
 188:main.c        ****             PWM_Switch_Timer_Sleep(); //Turn timer off until new data
 314              		.loc 1 188 0
 315 00c6 FFF7FEFF 		bl	PWM_Switch_Timer_Sleep
 316              	.LVL31:
 189:main.c        ****             //HighVoltage_Write(0); //Turn boost converter off
 190:main.c        ****             CyPmSleep(PM_SLEEP_TIME_NONE, PM_SLEEP_SRC_CTW); //Back to sleep mode
 317              		.loc 1 190 0
 318 00ca 4FF40061 		mov	r1, #2048
 319 00ce 0020     		movs	r0, #0
 320 00d0 FFF7FEFF 		bl	CyPmSleep
 321              	.LVL32:
ARM GAS  C:\Users\sdysart\AppData\Local\Temp\ccoIEGKB.s 			page 10


 322 00d4 CCE7     		b	.L15
 323              	.L21:
 324 00d6 00BF     		.align	2
 325              	.L20:
 326 00d8 00000000 		.word	sleep_interrupt
 327 00dc 00000000 		.word	isr_sec
 328 00e0 00000000 		.word	RxIsr
 329 00e4 00000000 		.word	.LANCHOR0
 330 00e8 00000000 		.word	.LANCHOR1
 331              		.cfi_endproc
 332              	.LFE68:
 333              		.size	main, .-main
 334              		.global	dataCount
 335              		.global	crabs
 336              		.global	rxData
 337              		.global	errorStatus
 338              		.global	newDataflag
 339              		.global	stop
 340              		.data
 341              		.align	2
 342              		.set	.LANCHOR1,. + 0
 343              		.type	stop, %object
 344              		.size	stop, 4
 345              	stop:
 346 0000 01000000 		.word	1
 347              		.bss
 348              		.align	2
 349              		.set	.LANCHOR0,. + 0
 350              		.type	errorStatus, %object
 351              		.size	errorStatus, 1
 352              	errorStatus:
 353 0000 00       		.space	1
 354              		.type	rxData, %object
 355              		.size	rxData, 1
 356              	rxData:
 357 0001 00       		.space	1
 358 0002 0000     		.space	2
 359              		.type	crabs, %object
 360              		.size	crabs, 4
 361              	crabs:
 362 0004 00000000 		.space	4
 363              		.type	newDataflag, %object
 364              		.size	newDataflag, 1
 365              	newDataflag:
 366 0008 00       		.space	1
 367 0009 000000   		.space	3
 368              		.type	dataCount, %object
 369              		.size	dataCount, 4
 370              	dataCount:
 371 000c 00000000 		.space	4
 372              		.text
 373              	.Letext0:
 374              		.file 2 "c:\\program files (x86)\\cypress\\psoc creator\\4.1\\psoc creator\\import\\gnu\\arm\\5.4.
 375              		.file 3 "c:\\program files (x86)\\cypress\\psoc creator\\4.1\\psoc creator\\import\\gnu\\arm\\5.4.
 376              		.file 4 "Generated_Source\\PSoC5/cytypes.h"
 377              		.file 5 "Generated_Source\\PSoC5/core_cm3.h"
 378              		.file 6 "Generated_Source\\PSoC5/SleepTimer.h"
ARM GAS  C:\Users\sdysart\AppData\Local\Temp\ccoIEGKB.s 			page 11


 379              		.file 7 "Generated_Source\\PSoC5/HighVoltage.h"
 380              		.file 8 "Generated_Source\\PSoC5/PWM_Modulator.h"
 381              		.file 9 "Generated_Source\\PSoC5/PWM_Switch_Timer.h"
 382              		.file 10 "Generated_Source\\PSoC5/sleep_interrupt.h"
 383              		.file 11 "Generated_Source\\PSoC5/PWM_1.h"
 384              		.file 12 "Generated_Source\\PSoC5/PWM_2.h"
 385              		.file 13 "Generated_Source\\PSoC5/PWM_3.h"
 386              		.file 14 "Generated_Source\\PSoC5/isr_sec.h"
 387              		.file 15 "Generated_Source\\PSoC5/isr_rx.h"
 388              		.file 16 "Generated_Source\\PSoC5/cyPm.h"