ARM GAS  C:\Users\sdysart\AppData\Local\Temp\ccKeys3N.s 			page 1


   1              		.syntax unified
   2              		.cpu cortex-m3
   3              		.fpu softvfp
   4              		.eabi_attribute 20, 1
   5              		.eabi_attribute 21, 1
   6              		.eabi_attribute 23, 3
   7              		.eabi_attribute 24, 1
   8              		.eabi_attribute 25, 1
   9              		.eabi_attribute 26, 1
  10              		.eabi_attribute 30, 1
  11              		.eabi_attribute 34, 1
  12              		.eabi_attribute 18, 4
  13              		.thumb
  14              		.syntax unified
  15              		.file	"main.c"
  16              		.text
  17              	.Ltext0:
  18              		.cfi_sections	.debug_frame
  19              		.section	.text.Bit_Timer,"ax",%progbits
  20              		.align	2
  21              		.global	Bit_Timer
  22              		.thumb
  23              		.thumb_func
  24              		.type	Bit_Timer, %function
  25              	Bit_Timer:
  26              	.LFB65:
  27              		.file 1 "main.c"
   1:main.c        **** /* ========================================
   2:main.c        ****  * Smart Crab Trap
   3:main.c        ****  * FSK RX 
   4:main.c        ****  * Edited by: Stephanie Salazar
   5:main.c        ****  * Revision: 5/10/18
   6:main.c        ****  * Function: This project takes in a signal from an outside source
   7:main.c        ****  * and reads the data within the signal. This code counts crabs
   8:main.c        ****  * by taking the CRAB_TIME and verifying the signal throughout
   9:main.c        ****  * counting. The data is display on an LCD display.
  10:main.c        ****  * ========================================
  11:main.c        **** */
  12:main.c        **** 
  13:main.c        **** #include "project.h"
  14:main.c        **** #include <stdio.h>
  15:main.c        **** #include "LCD_Char.h"
  16:main.c        **** 
  17:main.c        **** #define ARRAY_SIZE 12
  18:main.c        **** #define CRAB_TIME 50 //1 crab per CRAB_TIME
  19:main.c        **** #define DEBOUNCE_TIME CRAB_TIME/10
  20:main.c        **** 
  21:main.c        **** // Interrupt for checking bit
  22:main.c        **** CY_ISR_PROTO(Bit_Timer);
  23:main.c        **** 
  24:main.c        **** // Global Variables
  25:main.c        **** static uint8 crabs = 0; // 4 bits of data transferred from data variable
  26:main.c        **** static uint8 oldCrabs = 0;
  27:main.c        **** static uint8 levelCounter = 0;
  28:main.c        **** static uint8 currentBit = 0x0;
  29:main.c        **** static uint8 oneCount = 0;
  30:main.c        **** static uint8 stopCount = 0;
ARM GAS  C:\Users\sdysart\AppData\Local\Temp\ccKeys3N.s 			page 2


  31:main.c        **** 
  32:main.c        **** 
  33:main.c        **** int main(void)
  34:main.c        **** {
  35:main.c        ****     /* Enable global interrupts. */
  36:main.c        ****     CyGlobalIntEnable; 
  37:main.c        **** 
  38:main.c        ****     /* initialization/startup code here */
  39:main.c        ****     PWM_Recon_Start();
  40:main.c        ****     Shift_Reg_Start();
  41:main.c        ****     Out_Comp_Start();
  42:main.c        ****     Bit_Timer_Start();
  43:main.c        ****     Timer_ISR_StartEx(Bit_Timer);
  44:main.c        ****     LCD_Char_Start();
  45:main.c        ****     
  46:main.c        ****     //Bit_Timer_WritePeriod(DEBOUNCE_TIME); 
  47:main.c        **** 
  48:main.c        ****     // Displays Loading Message before receiving pre-fix
  49:main.c        ****     char OutputString[ARRAY_SIZE];
  50:main.c        ****     char display[ARRAY_SIZE];
  51:main.c        ****     sprintf(display, "counting crabs...");
  52:main.c        ****     LCD_Char_Position(0u,0u); // Resets cursor to top of LCD Screen
  53:main.c        ****     LCD_Char_PrintString(display);
  54:main.c        **** 
  55:main.c        ****     for(;;)
  56:main.c        ****     {
  57:main.c        ****     // Debouncing
  58:main.c        ****     // If levelCounter is 10, we have checked a whole bitTime
  59:main.c        ****     if(levelCounter == 10){
  60:main.c        ****         
  61:main.c        ****         if(oneCount >= 9){ // 1 bit must be 7/10 = 1 
  62:main.c        ****             // Reset crab count if previously not counting crabs
  63:main.c        ****             currentBit = 0x01;
  64:main.c        ****             crabs = currentBit + crabs;
  65:main.c        ****             stopCount = 0; 
  66:main.c        ****         }else{ // if oneCount <= 7, bit is 0
  67:main.c        ****             currentBit = 0x00; 
  68:main.c        ****             stopCount = 1; 
  69:main.c        ****         }
  70:main.c        ****         oneCount = 0;
  71:main.c        ****         levelCounter = 0; // Reset timer bit debouncer  
  72:main.c        ****         
  73:main.c        ****     }
  74:main.c        **** 
  75:main.c        ****     if(stopCount == 1 && (crabs!= 0)){
  76:main.c        ****         oldCrabs = crabs;
  77:main.c        ****         crabs = 0;
  78:main.c        ****         stopCount = 0;
  79:main.c        ****         sprintf(OutputString, "%i", oldCrabs);
  80:main.c        ****         LCD_Char_ClearDisplay();
  81:main.c        ****         LCD_Char_Position(0u,0u);
  82:main.c        ****         LCD_Char_PrintString(OutputString);
  83:main.c        ****         LCD_Char_PrintString(" crabs");
  84:main.c        ****         oldCrabs = crabs;
  85:main.c        ****     }
  86:main.c        **** 
  87:main.c        ****     } // end of for(;;)
ARM GAS  C:\Users\sdysart\AppData\Local\Temp\ccKeys3N.s 			page 3


  88:main.c        **** } // end of main()
  89:main.c        ****     
  90:main.c        **** 
  91:main.c        **** //will check bit 10 times, to debounce
  92:main.c        **** CY_ISR(Bit_Timer){
  28              		.loc 1 92 0
  29              		.cfi_startproc
  30              		@ args = 0, pretend = 0, frame = 0
  31              		@ frame_needed = 0, uses_anonymous_args = 0
  32 0000 08B5     		push	{r3, lr}
  33              		.cfi_def_cfa_offset 8
  34              		.cfi_offset 3, -8
  35              		.cfi_offset 14, -4
  93:main.c        ****     levelCounter++;
  36              		.loc 1 93 0
  37 0002 064A     		ldr	r2, .L4
  38 0004 1378     		ldrb	r3, [r2]	@ zero_extendqisi2
  39 0006 0133     		adds	r3, r3, #1
  40 0008 1370     		strb	r3, [r2]
  94:main.c        ****     
  95:main.c        ****     // Count whether bit is currently 1 or 0
  96:main.c        ****     if(Out_Comp_GetCompare() != 0){
  41              		.loc 1 96 0
  42 000a FFF7FEFF 		bl	Out_Comp_GetCompare
  43              	.LVL0:
  44 000e 18B1     		cbz	r0, .L1
  97:main.c        ****         oneCount++;
  45              		.loc 1 97 0
  46 0010 024A     		ldr	r2, .L4
  47 0012 5378     		ldrb	r3, [r2, #1]	@ zero_extendqisi2
  48 0014 0133     		adds	r3, r3, #1
  49 0016 5370     		strb	r3, [r2, #1]
  50              	.L1:
  51 0018 08BD     		pop	{r3, pc}
  52              	.L5:
  53 001a 00BF     		.align	2
  54              	.L4:
  55 001c 00000000 		.word	.LANCHOR0
  56              		.cfi_endproc
  57              	.LFE65:
  58              		.size	Bit_Timer, .-Bit_Timer
  59              		.section	.text.main,"ax",%progbits
  60              		.align	2
  61              		.global	main
  62              		.thumb
  63              		.thumb_func
  64              		.type	main, %function
  65              	main:
  66              	.LFB64:
  34:main.c        ****     /* Enable global interrupts. */
  67              		.loc 1 34 0
  68              		.cfi_startproc
  69              		@ args = 0, pretend = 0, frame = 24
  70              		@ frame_needed = 0, uses_anonymous_args = 0
  71 0000 30B5     		push	{r4, r5, lr}
  72              		.cfi_def_cfa_offset 12
  73              		.cfi_offset 4, -12
ARM GAS  C:\Users\sdysart\AppData\Local\Temp\ccKeys3N.s 			page 4


  74              		.cfi_offset 5, -8
  75              		.cfi_offset 14, -4
  76 0002 87B0     		sub	sp, sp, #28
  77              		.cfi_def_cfa_offset 40
  36:main.c        **** 
  78              		.loc 1 36 0
  79              		.syntax unified
  80              	@ 36 "main.c" 1
  81 0004 62B6     		CPSIE   i
  82              	@ 0 "" 2
  39:main.c        ****     Shift_Reg_Start();
  83              		.loc 1 39 0
  84              		.thumb
  85              		.syntax unified
  86 0006 FFF7FEFF 		bl	PWM_Recon_Start
  87              	.LVL1:
  40:main.c        ****     Out_Comp_Start();
  88              		.loc 1 40 0
  89 000a FFF7FEFF 		bl	Shift_Reg_Start
  90              	.LVL2:
  41:main.c        ****     Bit_Timer_Start();
  91              		.loc 1 41 0
  92 000e FFF7FEFF 		bl	Out_Comp_Start
  93              	.LVL3:
  42:main.c        ****     Timer_ISR_StartEx(Bit_Timer);
  94              		.loc 1 42 0
  95 0012 FFF7FEFF 		bl	Bit_Timer_Start
  96              	.LVL4:
  43:main.c        ****     LCD_Char_Start();
  97              		.loc 1 43 0
  98 0016 2248     		ldr	r0, .L13
  99 0018 FFF7FEFF 		bl	Timer_ISR_StartEx
 100              	.LVL5:
  44:main.c        ****     
 101              		.loc 1 44 0
 102 001c FFF7FEFF 		bl	LCD_Char_Start
 103              	.LVL6:
  51:main.c        ****     LCD_Char_Position(0u,0u); // Resets cursor to top of LCD Screen
 104              		.loc 1 51 0
 105 0020 6C46     		mov	r4, sp
 106 0022 204D     		ldr	r5, .L13+4
 107 0024 0FCD     		ldmia	r5!, {r0, r1, r2, r3}
 108 0026 0FC4     		stmia	r4!, {r0, r1, r2, r3}
 109 0028 2B68     		ldr	r3, [r5]
 110 002a 2380     		strh	r3, [r4]	@ movhi
  52:main.c        ****     LCD_Char_PrintString(display);
 111              		.loc 1 52 0
 112 002c 0021     		movs	r1, #0
 113 002e 0846     		mov	r0, r1
 114 0030 FFF7FEFF 		bl	LCD_Char_Position
 115              	.LVL7:
  53:main.c        **** 
 116              		.loc 1 53 0
 117 0034 6846     		mov	r0, sp
 118 0036 FFF7FEFF 		bl	LCD_Char_PrintString
 119              	.LVL8:
 120              	.L7:
ARM GAS  C:\Users\sdysart\AppData\Local\Temp\ccKeys3N.s 			page 5


  59:main.c        ****         
 121              		.loc 1 59 0
 122 003a 1B4B     		ldr	r3, .L13+8
 123 003c 1B78     		ldrb	r3, [r3]	@ zero_extendqisi2
 124 003e 0A2B     		cmp	r3, #10
 125 0040 11D1     		bne	.L8
  61:main.c        ****             // Reset crab count if previously not counting crabs
 126              		.loc 1 61 0
 127 0042 194B     		ldr	r3, .L13+8
 128 0044 5B78     		ldrb	r3, [r3, #1]	@ zero_extendqisi2
 129 0046 082B     		cmp	r3, #8
 130 0048 06D9     		bls	.L9
  64:main.c        ****             stopCount = 0; 
 131              		.loc 1 64 0
 132 004a 174B     		ldr	r3, .L13+8
 133 004c 9A78     		ldrb	r2, [r3, #2]	@ zero_extendqisi2
 134 004e 0132     		adds	r2, r2, #1
 135 0050 9A70     		strb	r2, [r3, #2]
  65:main.c        ****         }else{ // if oneCount <= 7, bit is 0
 136              		.loc 1 65 0
 137 0052 0022     		movs	r2, #0
 138 0054 DA70     		strb	r2, [r3, #3]
 139 0056 02E0     		b	.L10
 140              	.L9:
  68:main.c        ****         }
 141              		.loc 1 68 0
 142 0058 0122     		movs	r2, #1
 143 005a 134B     		ldr	r3, .L13+8
 144 005c DA70     		strb	r2, [r3, #3]
 145              	.L10:
  70:main.c        ****         levelCounter = 0; // Reset timer bit debouncer  
 146              		.loc 1 70 0
 147 005e 124B     		ldr	r3, .L13+8
 148 0060 0022     		movs	r2, #0
 149 0062 5A70     		strb	r2, [r3, #1]
  71:main.c        ****         
 150              		.loc 1 71 0
 151 0064 1A70     		strb	r2, [r3]
 152              	.L8:
  75:main.c        ****         oldCrabs = crabs;
 153              		.loc 1 75 0
 154 0066 104B     		ldr	r3, .L13+8
 155 0068 DB78     		ldrb	r3, [r3, #3]	@ zero_extendqisi2
 156 006a 012B     		cmp	r3, #1
 157 006c E5D1     		bne	.L7
  75:main.c        ****         oldCrabs = crabs;
 158              		.loc 1 75 0 is_stmt 0 discriminator 1
 159 006e 0E4B     		ldr	r3, .L13+8
 160 0070 9A78     		ldrb	r2, [r3, #2]	@ zero_extendqisi2
 161 0072 002A     		cmp	r2, #0
 162 0074 E1D0     		beq	.L7
  77:main.c        ****         stopCount = 0;
 163              		.loc 1 77 0 is_stmt 1
 164 0076 0024     		movs	r4, #0
 165 0078 9C70     		strb	r4, [r3, #2]
  78:main.c        ****         sprintf(OutputString, "%i", oldCrabs);
 166              		.loc 1 78 0
ARM GAS  C:\Users\sdysart\AppData\Local\Temp\ccKeys3N.s 			page 6


 167 007a DC70     		strb	r4, [r3, #3]
  79:main.c        ****         LCD_Char_ClearDisplay();
 168              		.loc 1 79 0
 169 007c 0B49     		ldr	r1, .L13+12
 170 007e 03A8     		add	r0, sp, #12
 171 0080 FFF7FEFF 		bl	sprintf
 172              	.LVL9:
  80:main.c        ****         LCD_Char_Position(0u,0u);
 173              		.loc 1 80 0
 174 0084 0120     		movs	r0, #1
 175 0086 FFF7FEFF 		bl	LCD_Char_WriteControl
 176              	.LVL10:
  81:main.c        ****         LCD_Char_PrintString(OutputString);
 177              		.loc 1 81 0
 178 008a 2146     		mov	r1, r4
 179 008c 2046     		mov	r0, r4
 180 008e FFF7FEFF 		bl	LCD_Char_Position
 181              	.LVL11:
  82:main.c        ****         LCD_Char_PrintString(" crabs");
 182              		.loc 1 82 0
 183 0092 03A8     		add	r0, sp, #12
 184 0094 FFF7FEFF 		bl	LCD_Char_PrintString
 185              	.LVL12:
  83:main.c        ****         oldCrabs = crabs;
 186              		.loc 1 83 0
 187 0098 0548     		ldr	r0, .L13+16
 188 009a FFF7FEFF 		bl	LCD_Char_PrintString
 189              	.LVL13:
 190 009e CCE7     		b	.L7
 191              	.L14:
 192              		.align	2
 193              	.L13:
 194 00a0 00000000 		.word	Bit_Timer
 195 00a4 00000000 		.word	.LC0
 196 00a8 00000000 		.word	.LANCHOR0
 197 00ac 14000000 		.word	.LC1
 198 00b0 18000000 		.word	.LC2
 199              		.cfi_endproc
 200              	.LFE64:
 201              		.size	main, .-main
 202              		.section	.rodata.str1.4,"aMS",%progbits,1
 203              		.align	2
 204              	.LC0:
 205 0000 636F756E 		.ascii	"counting crabs...\000"
 205      74696E67 
 205      20637261 
 205      62732E2E 
 205      2E00
 206 0012 0000     		.space	2
 207              	.LC1:
 208 0014 256900   		.ascii	"%i\000"
 209 0017 00       		.space	1
 210              	.LC2:
 211 0018 20637261 		.ascii	" crabs\000"
 211      627300
 212              		.bss
 213              		.set	.LANCHOR0,. + 0
ARM GAS  C:\Users\sdysart\AppData\Local\Temp\ccKeys3N.s 			page 7


 214              		.type	levelCounter, %object
 215              		.size	levelCounter, 1
 216              	levelCounter:
 217 0000 00       		.space	1
 218              		.type	oneCount, %object
 219              		.size	oneCount, 1
 220              	oneCount:
 221 0001 00       		.space	1
 222              		.type	crabs, %object
 223              		.size	crabs, 1
 224              	crabs:
 225 0002 00       		.space	1
 226              		.type	stopCount, %object
 227              		.size	stopCount, 1
 228              	stopCount:
 229 0003 00       		.space	1
 230              		.text
 231              	.Letext0:
 232              		.file 2 "c:\\program files (x86)\\cypress\\psoc creator\\4.1\\psoc creator\\import\\gnu\\arm\\5.4.
 233              		.file 3 "c:\\program files (x86)\\cypress\\psoc creator\\4.1\\psoc creator\\import\\gnu\\arm\\5.4.
 234              		.file 4 "Generated_Source\\PSoC5/cytypes.h"
 235              		.file 5 "Generated_Source\\PSoC5/Out_Comp.h"
 236              		.file 6 "Generated_Source\\PSoC5/PWM_Recon.h"
 237              		.file 7 "Generated_Source\\PSoC5/Shift_Reg.h"
 238              		.file 8 "Generated_Source\\PSoC5/Bit_Timer.h"
 239              		.file 9 "Generated_Source\\PSoC5/Timer_ISR.h"
 240              		.file 10 "Generated_Source\\PSoC5/LCD_Char.h"
 241              		.file 11 "c:\\program files (x86)\\cypress\\psoc creator\\4.1\\psoc creator\\import\\gnu\\arm\\5.4
 242              		.file 12 "Generated_Source\\PSoC5/core_cm3.h"