ARM GAS  C:\Users\sdysart\AppData\Local\Temp\cc5HmH5Q.s 			page 1


   1              		.syntax unified
   2              		.cpu cortex-m3
   3              		.fpu softvfp
   4              		.eabi_attribute 20, 1
   5              		.eabi_attribute 21, 1
   6              		.eabi_attribute 23, 3
   7              		.eabi_attribute 24, 1
   8              		.eabi_attribute 25, 1
   9              		.eabi_attribute 26, 1
  10              		.eabi_attribute 30, 1
  11              		.eabi_attribute 34, 1
  12              		.eabi_attribute 18, 4
  13              		.thumb
  14              		.syntax unified
  15              		.file	"main.c"
  16              		.text
  17              	.Ltext0:
  18              		.cfi_sections	.debug_frame
  19              		.section	.text.isr_sec,"ax",%progbits
  20              		.align	2
  21              		.global	isr_sec
  22              		.thumb
  23              		.thumb_func
  24              		.type	isr_sec, %function
  25              	isr_sec:
  26              	.LFB69:
  27              		.file 1 "main.c"
   1:main.c        **** /*****************************************************************************
   2:main.c        **** * File Name: main.c
   3:main.c        **** *
   4:main.c        **** * Created: 5/16/18
   5:main.c        **** * Revised: 5/17/18
   6:main.c        **** * Revised by: Stephanie Salazar
   7:main.c        **** *
   8:main.c        **** * Description: 
   9:main.c        **** *  This project communicates via UART in Full duplex mode. The UART has
  10:main.c        **** * receiver(RX) and transmitter(TX)]. The data received by RX is used for
  11:main.c        **** * FSK transmission. 
  12:main.c        **** *
  13:main.c        **** *  This code has been modified from PSoC's UART_Full_Duplex example code.
  14:main.c        **** *  This code example project demonstrates how to communicate between 
  15:main.c        **** *  the PC and UART component in Full duplex mode. The UART has receiver(RX) and 
  16:main.c        **** *  transmitter(TX) part. The data received by RX is looped back to the TX.
  17:main.c        **** *
  18:main.c        **** *******************************************************************************
  19:main.c        **** * Copyright (2017), Cypress Semiconductor Corporation. All rights reserved.
  20:main.c        **** *******************************************************************************
  21:main.c        **** *
  22:main.c        **** * Related Document: 
  23:main.c        **** * CE210741_UART_Full_Duplex_and_printf_Support_with_PSoC_3_4_5LP.pdf
  24:main.c        **** *
  25:main.c        **** * Hardware Dependency: See 
  26:main.c        **** * CE210741_UART_Full_Duplex_and_printf_Support_with_PSoC_3_4_5LP.pdf
  27:main.c        **** *
  28:main.c        **** *******************************************************************************
  29:main.c        **** */
  30:main.c        **** 
ARM GAS  C:\Users\sdysart\AppData\Local\Temp\cc5HmH5Q.s 			page 2


  31:main.c        **** #include <project.h>
  32:main.c        **** #include <stdio.h>
  33:main.c        **** #include "stdlib.h"
  34:main.c        **** 
  35:main.c        **** /***************************************
  36:main.c        **** * Conditional Compilation Parameters
  37:main.c        **** ***************************************/
  38:main.c        **** #define UART    DISABLED
  39:main.c        **** 
  40:main.c        **** /* Character LCD String Length */
  41:main.c        **** #define LINE_STR_LENGTH     (20u)
  42:main.c        **** /* Change data size for sending longer data (n-1) */
  43:main.c        **** #define DATA_SIZE           (7u)
  44:main.c        **** /* Change max crabs to correlate with data size 2^(n) - 1 */
  45:main.c        **** #define MAX_CRABS           (15)
  46:main.c        **** /* Error used for user error */
  47:main.c        **** #define ERROR               (333u)
  48:main.c        **** 
  49:main.c        **** /*Definitions*/
  50:main.c        **** #define CLOCK_FREQ 1000000
  51:main.c        **** #define FREQ(x) (CLOCK_FREQ/x)-1
  52:main.c        **** 
  53:main.c        **** /*PWM Frequencies*/
  54:main.c        **** #define ONE_FREQ     42000
  55:main.c        **** #define ZERO_FREQ    37000
  56:main.c        **** #define AUDIBLE_FREQ 12000
  57:main.c        **** 
  58:main.c        **** #define BIT_0_MASK 0x01
  59:main.c        **** #define BIT_1_MASK 0x02
  60:main.c        **** #define BIT_2_MASK 0x04
  61:main.c        **** #define BIT_3_MASK 0x08
  62:main.c        **** #define BIT_4_MASK 0x10
  63:main.c        **** #define BIT_5_MASK 0x20
  64:main.c        **** #define BIT_6_MASK 0x40
  65:main.c        **** #define BIT_7_MASK 0x80
  66:main.c        **** 
  67:main.c        **** #define ZERO              0x0
  68:main.c        **** #define ONE               0x1
  69:main.c        **** #define TRUE              0x1
  70:main.c        **** #define FALSE             0x0
  71:main.c        **** #define ENABLED           1u
  72:main.c        **** #define DISABLED          0u
  73:main.c        **** #define DATA_LENGTH       8
  74:main.c        **** #define DECODE_VALUE      0x01
  75:main.c        **** #define PREFIX_BIT_LENGTH 6
  76:main.c        **** #define PREFIX_MESSAGE    0xFF
  77:main.c        **** #define MAX_DATA_SENDING  3
  78:main.c        **** #define FiveSecs          5000
  79:main.c        **** #define ON                1
  80:main.c        **** #define OFF               0
  81:main.c        **** 
  82:main.c        **** /*Enumerations*/
  83:main.c        **** enum state{
  84:main.c        ****     Encoding_Byte1,
  85:main.c        ****     Data,
  86:main.c        ****     Parity,
  87:main.c        ****     Decoding_Byte1,
ARM GAS  C:\Users\sdysart\AppData\Local\Temp\cc5HmH5Q.s 			page 3


  88:main.c        **** };
  89:main.c        **** 
  90:main.c        **** /*Function Prototypes*/
  91:main.c        **** int Byte(unsigned int hex_value, int bT);
  92:main.c        **** int FindParity(void);
  93:main.c        **** void goToSleep(void);
  94:main.c        **** void wakeUp(void);
  95:main.c        **** 
  96:main.c        **** CY_ISR_PROTO(isr_sec); // High F Interrupt
  97:main.c        **** CY_ISR_PROTO(watchDogCheck); //reset watchDog timer before reset
  98:main.c        **** CY_ISR_PROTO(RxIsr); // RX Interrupt
  99:main.c        **** CY_ISR_PROTO(wakeUpIsr); // sleep timer interrupt
 100:main.c        **** 
 101:main.c        **** /*Global Variables*/
 102:main.c        **** int error = 0; // flag for input error
 103:main.c        **** int i = 2; // to iterate through data array
 104:main.c        **** uint16 count;
 105:main.c        **** char8 lineStr[LINE_STR_LENGTH];
 106:main.c        **** char8 data[LINE_STR_LENGTH];
 107:main.c        **** uint8 newDataflag = FALSE;
 108:main.c        **** static int bitTime = 0;
 109:main.c        **** static int currentByte = Encoding_Byte1;
 110:main.c        **** static int prefixTime = 0;
 111:main.c        **** static int sendDataCount = 0;
 112:main.c        **** static int ParityFlag = FALSE;
 113:main.c        **** static int maxDataFlag = FALSE;
 114:main.c        **** 
 115:main.c        **** /* UART Global Variables */
 116:main.c        **** uint8 errorStatus = 0u;
 117:main.c        **** uint8 crabsToSend = 0x1;
 118:main.c        **** 
 119:main.c        **** 
 120:main.c        **** /*******************************************************************************
 121:main.c        **** * Function Name: main()
 122:main.c        **** *******************************************************************************/
 123:main.c        **** int main()
 124:main.c        **** {
 125:main.c        ****     /*Variable initializations*/
 126:main.c        ****     int bitCase = 0;
 127:main.c        ****     int data_turn = 0;
 128:main.c        **** 
 129:main.c        **** #if(UART == ENABLED)
 130:main.c        ****     isr_rx_StartEx(RxIsr);
 131:main.c        **** #endif /* UART == ENABLED */
 132:main.c        ****     
 133:main.c        ****     /* Enable global interrupts. */
 134:main.c        ****     CyGlobalIntEnable;
 135:main.c        ****     /* Start Watchdog and its check timer */
 136:main.c        ****     CyWdtStart(CYWDT_2_TICKS, CYWDT_LPMODE_NOCHANGE); 
 137:main.c        ****     checkWatchDogTimer_Start();
 138:main.c        ****     watchDogCheck_StartEx(watchDogCheck);
 139:main.c        ****     
 140:main.c        ****     /*Block initializations*/
 141:main.c        ****     UART_Start(); 
 142:main.c        ****     LCD_Start();
 143:main.c        ****     PWM_Modulator_Start();
 144:main.c        ****     PWM_1_Start();
ARM GAS  C:\Users\sdysart\AppData\Local\Temp\cc5HmH5Q.s 			page 4


 145:main.c        ****     PWM_2_Start();
 146:main.c        ****     PWM_3_Start();
 147:main.c        ****     PWM_Switch_Timer_Start();
 148:main.c        ****     /* Start Interrupt */
 149:main.c        ****     isr_sec_StartEx(isr_sec);
 150:main.c        ****     Sleep_ISR_StartEx(wakeUpIsr);
 151:main.c        ****     
 152:main.c        ****     // Set PWM to AUDIBLE_FREQ
 153:main.c        ****     PWM_1_WritePeriod(FREQ(AUDIBLE_FREQ));
 154:main.c        ****     PWM_1_WriteCompare((FREQ(AUDIBLE_FREQ))/2); // Sets pulse width to half
 155:main.c        ****     
 156:main.c        ****     // Set PWM to ONE_FREQ
 157:main.c        ****     PWM_2_WritePeriod(FREQ(ONE_FREQ));
 158:main.c        ****     PWM_2_WriteCompare((FREQ(ONE_FREQ))/2); // Sets pulse width to half
 159:main.c        ****     
 160:main.c        ****     // Set PWM to ZERO_FREQ
 161:main.c        ****     PWM_3_WritePeriod(FREQ(ZERO_FREQ));
 162:main.c        ****     PWM_3_WriteCompare((FREQ(ZERO_FREQ))/2); // Sets pulse width to half
 163:main.c        ****     
 164:main.c        ****     /* Clear LCD line. */
 165:main.c        ****     LCD_Position(0u, 0u);
 166:main.c        ****     LCD_PrintString("                    ");
 167:main.c        **** 
 168:main.c        ****     /* Output string on LCD. */
 169:main.c        ****     LCD_Position(0u, 0u);
 170:main.c        ****     LCD_PrintString("Hello");
 171:main.c        **** 
 172:main.c        ****     for(;;)
 173:main.c        ****     {
 174:main.c        ****         if(errorStatus != 0u)
 175:main.c        ****         {
 176:main.c        ****             /* Clear error status */
 177:main.c        ****             errorStatus = 0u;
 178:main.c        ****         }
 179:main.c        ****         switch(currentByte){
 180:main.c        ****             case Encoding_Byte1:
 181:main.c        ****                 bitCase = Byte(PREFIX_MESSAGE, bitTime);
 182:main.c        ****                 break;
 183:main.c        ****             case Data:
 184:main.c        ****                 bitCase = Byte(crabsToSend, bitTime);
 185:main.c        ****                 break;
 186:main.c        ****             case Parity:
 187:main.c        ****                 ParityFlag = TRUE;
 188:main.c        ****                 bitCase = FindParity();
 189:main.c        ****                 break;
 190:main.c        ****             case Decoding_Byte1:
 191:main.c        ****                 bitCase = Byte(DECODE_VALUE, bitTime);
 192:main.c        ****                 break;
 193:main.c        ****  
 194:main.c        ****             default:
 195:main.c        ****                 sendDataCount++; // count how many times we send data
 196:main.c        ****                 // Turn sending off until new data from UART
 197:main.c        ****                 newDataflag = 0;
 198:main.c        ****                 //encode used to transmit 7 1's for the prefix 
 199:main.c        ****                 //reset here to be ready for case 0 
 200:main.c        ****                 prefixTime = 0;
 201:main.c        ****                 FindParity();
ARM GAS  C:\Users\sdysart\AppData\Local\Temp\cc5HmH5Q.s 			page 5


 202:main.c        ****                 
 203:main.c        **** #if(UART == ENABLED)
 204:main.c        ****                 data_turn++;
 205:main.c        ****                 if (data_turn == DATA_LENGTH) {
 206:main.c        ****                     data_turn = 0;
 207:main.c        ****                 }
 208:main.c        **** #else 
 209:main.c        ****                 // Restart data if sent MAX_DATA_SENDING
 210:main.c        ****                 if(sendDataCount >= MAX_DATA_SENDING){
 211:main.c        ****                     sendDataCount = 0;
 212:main.c        ****                     crabsToSend <<= 1; // Move over data a bit
 213:main.c        ****                     data_turn++;
 214:main.c        ****                     maxDataFlag = TRUE; // flag for extra 2 second delay between new data
 215:main.c        ****                 }
 216:main.c        ****                 //Once data to be sent can't be contained in a byte, reset to 0x1
 217:main.c        ****                 if (data_turn >= DATA_LENGTH-1) {
 218:main.c        ****                     data_turn = 0;
 219:main.c        ****                     crabsToSend = ONE;
 220:main.c        ****                 }
 221:main.c        ****                 
 222:main.c        ****                 /* Clear LCD line. */
 223:main.c        ****                 LCD_Position(0u, 0u);
 224:main.c        ****                 sprintf(data,"Crabs: %d", crabsToSend);
 225:main.c        ****                 LCD_PrintString("             ");
 226:main.c        **** 
 227:main.c        ****                 /* Output string on LCD. */
 228:main.c        ****                 LCD_Position(0u, 0u);
 229:main.c        ****                 LCD_PrintString(data);
 230:main.c        ****  
 231:main.c        **** #endif /* UART == ENABLED */
 232:main.c        **** 
 233:main.c        ****                 // Turn off PWM and stop timer 
 234:main.c        ****                 PWM_Modulator_Stop();
 235:main.c        ****                 PWM_Switch_Timer_Stop();
 236:main.c        ****                 HighVoltage_Write(0); // Turn High Voltage off while delaying
 237:main.c        ****                 CyDelay(20);
 238:main.c        ****                 SignalBase_Write(0);
 239:main.c        ****                 if(maxDataFlag == TRUE){
 240:main.c        ****                     //CyDelay(2000);
 241:main.c        ****                 }
 242:main.c        **** 
 243:main.c        **** #if(UART == ENABLED)
 244:main.c        ****                 /* Check if data has been sent 3 time */
 245:main.c        ****                 if(sendDataCount >= MAX_DATA_SENDING){
 246:main.c        ****                     sendDataCount = 0; // reset for sending new data
 247:main.c        ****                     /* Wait for new data before sending out data */
 248:main.c        ****                     while(newDataflag == 0){
 249:main.c        ****                     }
 250:main.c        ****                 }else{
 251:main.c        ****                     /* Delay 1 s before sending out for MAX_DATA_SENDING times */
 252:main.c        ****                     CyDelay(1000);
 253:main.c        ****                 }
 254:main.c        **** #else 
 255:main.c        ****                 /* Delay in ms and send data after without waiting for UART */
 256:main.c        ****                 CyDelay(1000);
 257:main.c        **** #endif /* UART == ENABLED */
 258:main.c        **** 
ARM GAS  C:\Users\sdysart\AppData\Local\Temp\cc5HmH5Q.s 			page 6


 259:main.c        **** //                //New Transmission, wake up PSOC
 260:main.c        **** //                SleepTimer_Stop();
 261:main.c        **** //                wakeUp(); 
 262:main.c        ****                 /* New data: Turn on circuitry and begin transmission */
 263:main.c        ****                 HighVoltage_Write(1);
 264:main.c        ****                 CyDelay(20); // Give voltage booster time to charge up
 265:main.c        ****                 SignalBase_Write(1);
 266:main.c        ****                 /* Reset PWM blocks and bitTime for new transmission */
 267:main.c        ****                 bitTime = 0; 
 268:main.c        ****                 PWM_Modulator_Start();
 269:main.c        ****                 PWM_Switch_Timer_Start();
 270:main.c        ****                 currentByte = Encoding_Byte1;
 271:main.c        ****                 break;
 272:main.c        ****          } //end switch(bitTime) 
 273:main.c        ****         
 274:main.c        ****         /* Send out frequency depending on bit is 1 or 0 */
 275:main.c        ****         if(bitCase == ONE){
 276:main.c        ****             SignalBase_Write(1);
 277:main.c        ****             PWM_Modulator_Start();
 278:main.c        ****             PWM_Modulator_WritePeriod(FREQ(ONE_FREQ));
 279:main.c        ****             PWM_Modulator_WriteCompare((FREQ(ONE_FREQ))/2); // Sets pulse width
 280:main.c        ****         }else if(bitCase == ZERO){
 281:main.c        ****             PWM_Modulator_Stop();
 282:main.c        ****             SignalBase_Write(0);
 283:main.c        ****         } // end if statement
 284:main.c        ****     } // end for loop
 285:main.c        **** } // end main
 286:main.c        **** 
 287:main.c        **** /*
 288:main.c        ****  * function: int Byte(unsigned int hex_value, int bT)
 289:main.c        ****  * parameters: hex_value - a byte specifying what data you want to send
 290:main.c        ****  *             bT - the current bit time
 291:main.c        ****  * returns: bitCase - a high or low signal to be sent to an output pin
 292:main.c        ****  * description: This function takes in a hex value and sends it out a bit at a
 293:main.c        ****  *  time as a high or low signal depending on the bit time.
 294:main.c        ****  */
 295:main.c        **** int Byte(unsigned int hex_value, int bT)
 296:main.c        **** {
 297:main.c        ****     int bitCase;
 298:main.c        ****     switch(bT){
 299:main.c        ****         case 0:
 300:main.c        ****             bitCase = (hex_value & BIT_7_MASK) >> 7;
 301:main.c        ****             break;
 302:main.c        ****         case 1:
 303:main.c        ****             bitCase = (hex_value & BIT_6_MASK) >> 6;
 304:main.c        ****             break; 
 305:main.c        ****         case 2:
 306:main.c        ****             bitCase = (hex_value & BIT_5_MASK) >> 5;
 307:main.c        ****             break; 
 308:main.c        ****         case 3:
 309:main.c        ****             bitCase = (hex_value & BIT_4_MASK) >> 4;
 310:main.c        ****             break;
 311:main.c        ****         case 4:
 312:main.c        ****             bitCase = (hex_value & BIT_3_MASK) >> 3;
 313:main.c        ****             break; 
 314:main.c        ****         case 5:
 315:main.c        ****             bitCase = (hex_value & BIT_2_MASK) >> 2;
ARM GAS  C:\Users\sdysart\AppData\Local\Temp\cc5HmH5Q.s 			page 7


 316:main.c        ****             break; 
 317:main.c        ****         case 6:
 318:main.c        ****             bitCase = (hex_value & BIT_1_MASK) >> 1;
 319:main.c        ****             break; 
 320:main.c        ****         case 7:
 321:main.c        ****             bitCase = (hex_value & BIT_0_MASK);
 322:main.c        ****             break;
 323:main.c        ****         default:
 324:main.c        ****             break;
 325:main.c        ****     } //end switch(bT)
 326:main.c        ****     return bitCase;
 327:main.c        **** }//end Byte()
 328:main.c        **** 
 329:main.c        **** 
 330:main.c        **** /*
 331:main.c        ****  * function: void FindParity(void)
 332:main.c        ****  * parameters: void
 333:main.c        ****  * returns: void
 334:main.c        ****  * description: XORs each bit of data to get even or odd parity for
 335:main.c        ****  * error checking
 336:main.c        ****  */
 337:main.c        **** int FindParity()
 338:main.c        **** {
 339:main.c        ****     uint8 bitToCheck = crabsToSend; // store crabsToSend in new variable to manipulate
 340:main.c        ****     int i = 0;
 341:main.c        ****     int parity = (bitToCheck & BIT_0_MASK);
 342:main.c        ****     for(i = 0; i < DATA_LENGTH; i++){
 343:main.c        ****         bitToCheck = bitToCheck >> 1; // shift mask over
 344:main.c        ****         parity = (bitToCheck & BIT_0_MASK) ^ parity; // XOR new bit
 345:main.c        ****     }
 346:main.c        ****     return parity;
 347:main.c        **** }   
 348:main.c        **** 
 349:main.c        **** /*
 350:main.c        ****  * function: void wakeUp(void)
 351:main.c        ****  * parameters: none
 352:main.c        ****  * returns: none
 353:main.c        ****  * description: wakes up all modules and restores clocks
 354:main.c        ****  *  
 355:main.c        ****  */
 356:main.c        **** 
 357:main.c        **** void wakeUp(void){
 358:main.c        ****     
 359:main.c        ****     CyPmRestoreClocks();
 360:main.c        ****     
 361:main.c        ****     LCD_Wakeup();
 362:main.c        ****     PWM_Modulator_Wakeup();
 363:main.c        ****     PWM_Switch_Timer_Wakeup();
 364:main.c        ****     PWM_1_Wakeup();
 365:main.c        ****     PWM_2_Wakeup();
 366:main.c        ****     PWM_3_Wakeup();
 367:main.c        ****     checkWatchDogTimer_Wakeup();  
 368:main.c        ****     
 369:main.c        **** }
 370:main.c        **** 
 371:main.c        **** /*
 372:main.c        ****  * function: void goToSleep(void)
ARM GAS  C:\Users\sdysart\AppData\Local\Temp\cc5HmH5Q.s 			page 8


 373:main.c        ****  * parameters: none
 374:main.c        ****  * returns: none
 375:main.c        ****  * description: puts all modules to sleep and svae clocks
 376:main.c        ****  *  
 377:main.c        ****  */
 378:main.c        **** 
 379:main.c        **** void goToSleep(void){
 380:main.c        ****     
 381:main.c        ****     LCD_Sleep();
 382:main.c        ****     PWM_Modulator_Sleep();
 383:main.c        ****     PWM_Switch_Timer_Sleep();
 384:main.c        ****     PWM_1_Sleep();
 385:main.c        ****     PWM_2_Sleep();
 386:main.c        ****     PWM_3_Sleep();
 387:main.c        ****     checkWatchDogTimer_Sleep();
 388:main.c        ****     CyPmSaveClocks();
 389:main.c        **** 
 390:main.c        **** }
 391:main.c        **** 
 392:main.c        **** 
 393:main.c        **** /*******************************************************************************
 394:main.c        **** * Function Name: isr_sec
 395:main.c        **** ********************************************************************************
 396:main.c        **** *
 397:main.c        **** * Summary:
 398:main.c        **** * Interrupt triggered on a 0.1s timer timeout
 399:main.c        ****  * This ISR will activate every half second and keep track of what
 400:main.c        ****  *  current bit we are on within a byte. After every 8th bit, it resets and
 401:main.c        ****  *  moves on to a new byte.
 402:main.c        **** *
 403:main.c        **** * Parameters:
 404:main.c        **** *  None.
 405:main.c        **** *
 406:main.c        **** * Return:
 407:main.c        **** *  None.
 408:main.c        **** *
 409:main.c        **** *******************************************************************************/
 410:main.c        **** CY_ISR(isr_sec)
 411:main.c        **** {
  28              		.loc 1 411 0
  29              		.cfi_startproc
  30              		@ args = 0, pretend = 0, frame = 0
  31              		@ frame_needed = 0, uses_anonymous_args = 0
  32              		@ link register save eliminated.
 412:main.c        ****     bitTime++;
  33              		.loc 1 412 0
  34 0000 0C4B     		ldr	r3, .L4
  35 0002 1A68     		ldr	r2, [r3]
  36 0004 0132     		adds	r2, r2, #1
  37 0006 1A60     		str	r2, [r3]
 413:main.c        ****     if(ParityFlag == TRUE){
  38              		.loc 1 413 0
  39 0008 5B68     		ldr	r3, [r3, #4]
  40 000a 012B     		cmp	r3, #1
  41 000c 06D1     		bne	.L2
 414:main.c        ****         bitTime = 0;
  42              		.loc 1 414 0
ARM GAS  C:\Users\sdysart\AppData\Local\Temp\cc5HmH5Q.s 			page 9


  43 000e 094B     		ldr	r3, .L4
  44 0010 0021     		movs	r1, #0
  45 0012 1960     		str	r1, [r3]
 415:main.c        ****         currentByte++;
  46              		.loc 1 415 0
  47 0014 9A68     		ldr	r2, [r3, #8]
  48 0016 0132     		adds	r2, r2, #1
  49 0018 9A60     		str	r2, [r3, #8]
 416:main.c        ****         ParityFlag = FALSE;
  50              		.loc 1 416 0
  51 001a 5960     		str	r1, [r3, #4]
  52              	.L2:
 417:main.c        ****     }
 418:main.c        ****     if (bitTime == 8){
  53              		.loc 1 418 0
  54 001c 054B     		ldr	r3, .L4
  55 001e 1B68     		ldr	r3, [r3]
  56 0020 082B     		cmp	r3, #8
  57 0022 05D1     		bne	.L1
 419:main.c        ****         bitTime = 0;
  58              		.loc 1 419 0
  59 0024 034B     		ldr	r3, .L4
  60 0026 0022     		movs	r2, #0
  61 0028 1A60     		str	r2, [r3]
 420:main.c        ****         currentByte++;
  62              		.loc 1 420 0
  63 002a 9A68     		ldr	r2, [r3, #8]
  64 002c 0132     		adds	r2, r2, #1
  65 002e 9A60     		str	r2, [r3, #8]
  66              	.L1:
  67 0030 7047     		bx	lr
  68              	.L5:
  69 0032 00BF     		.align	2
  70              	.L4:
  71 0034 00000000 		.word	.LANCHOR0
  72              		.cfi_endproc
  73              	.LFE69:
  74              		.size	isr_sec, .-isr_sec
  75              		.section	.text.watchDogCheck,"ax",%progbits
  76              		.align	2
  77              		.global	watchDogCheck
  78              		.thumb
  79              		.thumb_func
  80              		.type	watchDogCheck, %function
  81              	watchDogCheck:
  82              	.LFB71:
 421:main.c        ****     }
 422:main.c        **** }//end CY_ISR(isr_sec)
 423:main.c        **** 
 424:main.c        **** /*******************************************************************************
 425:main.c        **** * Function Name: RxIsr
 426:main.c        **** ********************************************************************************
 427:main.c        **** *
 428:main.c        **** * Summary:
 429:main.c        **** *  Interrupt Service Routine for RX portion of the UART taken from
 430:main.c        **** *  example code and edited for storing data to send
 431:main.c        **** *
ARM GAS  C:\Users\sdysart\AppData\Local\Temp\cc5HmH5Q.s 			page 10


 432:main.c        **** * Parameters:
 433:main.c        **** *  None.
 434:main.c        **** *
 435:main.c        **** * Return:
 436:main.c        **** *  None.
 437:main.c        **** *
 438:main.c        **** *******************************************************************************/
 439:main.c        **** CY_ISR(RxIsr)
 440:main.c        **** {
 441:main.c        ****     uint8 rxStatus;         
 442:main.c        ****     newDataflag = TRUE;
 443:main.c        ****     do
 444:main.c        ****     {
 445:main.c        ****         /* Read receiver status register */
 446:main.c        ****         rxStatus = UART_RXSTATUS_REG;
 447:main.c        **** 
 448:main.c        ****         if((rxStatus & (UART_RX_STS_BREAK      | UART_RX_STS_PAR_ERROR |
 449:main.c        ****                         UART_RX_STS_STOP_ERROR | UART_RX_STS_OVERRUN)) != 0u)
 450:main.c        ****         {
 451:main.c        ****             /* ERROR handling. */
 452:main.c        ****             errorStatus |= rxStatus & ( UART_RX_STS_BREAK      | UART_RX_STS_PAR_ERROR | 
 453:main.c        ****                                         UART_RX_STS_STOP_ERROR | UART_RX_STS_OVERRUN);
 454:main.c        ****         }
 455:main.c        ****         
 456:main.c        ****         if((rxStatus & UART_RX_STS_FIFO_NOTEMPTY) != 0u)
 457:main.c        ****         {
 458:main.c        ****             /* Read data from the RX data register */
 459:main.c        ****             crabsToSend = UART_RXDATA_REG;
 460:main.c        ****             if(errorStatus == 0u)
 461:main.c        ****             {
 462:main.c        ****                 /* Send data backward */
 463:main.c        ****                 UART_TXDATA_REG = crabsToSend;
 464:main.c        ****                 /* Clear LCD line. */
 465:main.c        ****                 LCD_Position(0u, 0u);
 466:main.c        ****                 sprintf(data,"Crabs: %d", crabsToSend);
 467:main.c        ****                 LCD_PrintString("             ");
 468:main.c        **** 
 469:main.c        ****                 /* Output string on LCD. */
 470:main.c        ****                 LCD_Position(0u, 0u);
 471:main.c        ****                 LCD_PrintString(data);
 472:main.c        ****             }
 473:main.c        ****         }
 474:main.c        ****     }while((rxStatus & UART_RX_STS_FIFO_NOTEMPTY) != 0u);
 475:main.c        **** }
 476:main.c        **** 
 477:main.c        **** /*******************************************************************************
 478:main.c        **** * Function Name: watchDogCheck
 479:main.c        **** ********************************************************************************
 480:main.c        **** *
 481:main.c        **** * Summary:
 482:main.c        **** * Reset watchDog timer every 2.1ms
 483:main.c        **** * Watchdog should reset system between 12 - 24ms
 484:main.c        **** * Should not get triggered if system experiencing drift 
 485:main.c        **** *
 486:main.c        **** * Parameters:
 487:main.c        **** *  None.
 488:main.c        **** *
ARM GAS  C:\Users\sdysart\AppData\Local\Temp\cc5HmH5Q.s 			page 11


 489:main.c        **** * Return:
 490:main.c        **** *  None.
 491:main.c        **** *
 492:main.c        **** *******************************************************************************/
 493:main.c        **** CY_ISR(watchDogCheck){
  83              		.loc 1 493 0
  84              		.cfi_startproc
  85              		@ args = 0, pretend = 0, frame = 0
  86              		@ frame_needed = 0, uses_anonymous_args = 0
  87 0000 08B5     		push	{r3, lr}
  88              		.cfi_def_cfa_offset 8
  89              		.cfi_offset 3, -8
  90              		.cfi_offset 14, -4
 494:main.c        ****     
 495:main.c        ****     CyWdtClear(); 
  91              		.loc 1 495 0
  92 0002 FFF7FEFF 		bl	CyWdtClear
  93              	.LVL0:
  94 0006 08BD     		pop	{r3, pc}
  95              		.cfi_endproc
  96              	.LFE71:
  97              		.size	watchDogCheck, .-watchDogCheck
  98              		.section	.text.wakeUpIsr,"ax",%progbits
  99              		.align	2
 100              		.global	wakeUpIsr
 101              		.thumb
 102              		.thumb_func
 103              		.type	wakeUpIsr, %function
 104              	wakeUpIsr:
 105              	.LFB72:
 496:main.c        ****         
 497:main.c        **** }
 498:main.c        **** 
 499:main.c        **** CY_ISR(wakeUpIsr){
 106              		.loc 1 499 0
 107              		.cfi_startproc
 108              		@ args = 0, pretend = 0, frame = 0
 109              		@ frame_needed = 0, uses_anonymous_args = 0
 110 0000 08B5     		push	{r3, lr}
 111              		.cfi_def_cfa_offset 8
 112              		.cfi_offset 3, -8
 113              		.cfi_offset 14, -4
 500:main.c        ****     SleepTimer_GetStatus(); // Clears the sleep timer interrupt
 114              		.loc 1 500 0
 115 0002 FFF7FEFF 		bl	SleepTimer_GetStatus
 116              	.LVL1:
 117 0006 08BD     		pop	{r3, pc}
 118              		.cfi_endproc
 119              	.LFE72:
 120              		.size	wakeUpIsr, .-wakeUpIsr
 121              		.section	.text.Byte,"ax",%progbits
 122              		.align	2
 123              		.global	Byte
 124              		.thumb
 125              		.thumb_func
 126              		.type	Byte, %function
 127              	Byte:
ARM GAS  C:\Users\sdysart\AppData\Local\Temp\cc5HmH5Q.s 			page 12


 128              	.LFB65:
 296:main.c        ****     int bitCase;
 129              		.loc 1 296 0
 130              		.cfi_startproc
 131              		@ args = 0, pretend = 0, frame = 0
 132              		@ frame_needed = 0, uses_anonymous_args = 0
 133              		@ link register save eliminated.
 134              	.LVL2:
 298:main.c        ****         case 0:
 135              		.loc 1 298 0
 136 0000 0729     		cmp	r1, #7
 137 0002 1CD8     		bhi	.L11
 138 0004 DFE801F0 		tbb	[pc, r1]
 139              	.L13:
 140 0008 04       		.byte	(.L12-.L13)/2
 141 0009 07       		.byte	(.L14-.L13)/2
 142 000a 0A       		.byte	(.L15-.L13)/2
 143 000b 0D       		.byte	(.L16-.L13)/2
 144 000c 10       		.byte	(.L17-.L13)/2
 145 000d 13       		.byte	(.L18-.L13)/2
 146 000e 16       		.byte	(.L19-.L13)/2
 147 000f 19       		.byte	(.L20-.L13)/2
 148              		.p2align 1
 149              	.L12:
 300:main.c        ****             break;
 150              		.loc 1 300 0
 151 0010 C0F3C013 		ubfx	r3, r0, #7, #1
 152              	.LVL3:
 301:main.c        ****         case 1:
 153              		.loc 1 301 0
 154 0014 13E0     		b	.L11
 155              	.LVL4:
 156              	.L14:
 303:main.c        ****             break; 
 157              		.loc 1 303 0
 158 0016 C0F38013 		ubfx	r3, r0, #6, #1
 159              	.LVL5:
 304:main.c        ****         case 2:
 160              		.loc 1 304 0
 161 001a 10E0     		b	.L11
 162              	.LVL6:
 163              	.L15:
 306:main.c        ****             break; 
 164              		.loc 1 306 0
 165 001c C0F34013 		ubfx	r3, r0, #5, #1
 166              	.LVL7:
 307:main.c        ****         case 3:
 167              		.loc 1 307 0
 168 0020 0DE0     		b	.L11
 169              	.LVL8:
 170              	.L16:
 309:main.c        ****             break;
 171              		.loc 1 309 0
 172 0022 C0F30013 		ubfx	r3, r0, #4, #1
 173              	.LVL9:
 310:main.c        ****         case 4:
 174              		.loc 1 310 0
ARM GAS  C:\Users\sdysart\AppData\Local\Temp\cc5HmH5Q.s 			page 13


 175 0026 0AE0     		b	.L11
 176              	.LVL10:
 177              	.L17:
 312:main.c        ****             break; 
 178              		.loc 1 312 0
 179 0028 C0F3C003 		ubfx	r3, r0, #3, #1
 180              	.LVL11:
 313:main.c        ****         case 5:
 181              		.loc 1 313 0
 182 002c 07E0     		b	.L11
 183              	.LVL12:
 184              	.L18:
 315:main.c        ****             break; 
 185              		.loc 1 315 0
 186 002e C0F38003 		ubfx	r3, r0, #2, #1
 187              	.LVL13:
 316:main.c        ****         case 6:
 188              		.loc 1 316 0
 189 0032 04E0     		b	.L11
 190              	.LVL14:
 191              	.L19:
 318:main.c        ****             break; 
 192              		.loc 1 318 0
 193 0034 C0F34003 		ubfx	r3, r0, #1, #1
 194              	.LVL15:
 319:main.c        ****         case 7:
 195              		.loc 1 319 0
 196 0038 01E0     		b	.L11
 197              	.LVL16:
 198              	.L20:
 321:main.c        ****             break;
 199              		.loc 1 321 0
 200 003a 00F00103 		and	r3, r0, #1
 201              	.LVL17:
 202              	.L11:
 327:main.c        **** 
 203              		.loc 1 327 0
 204 003e 1846     		mov	r0, r3
 205              	.LVL18:
 206 0040 7047     		bx	lr
 207              		.cfi_endproc
 208              	.LFE65:
 209              		.size	Byte, .-Byte
 210 0042 00BF     		.section	.text.FindParity,"ax",%progbits
 211              		.align	2
 212              		.global	FindParity
 213              		.thumb
 214              		.thumb_func
 215              		.type	FindParity, %function
 216              	FindParity:
 217              	.LFB66:
 338:main.c        ****     uint8 bitToCheck = crabsToSend; // store crabsToSend in new variable to manipulate
 218              		.loc 1 338 0
 219              		.cfi_startproc
 220              		@ args = 0, pretend = 0, frame = 0
 221              		@ frame_needed = 0, uses_anonymous_args = 0
 222              		@ link register save eliminated.
ARM GAS  C:\Users\sdysart\AppData\Local\Temp\cc5HmH5Q.s 			page 14


 339:main.c        ****     int i = 0;
 223              		.loc 1 339 0
 224 0000 064B     		ldr	r3, .L24
 225 0002 1A78     		ldrb	r2, [r3]	@ zero_extendqisi2
 226              	.LVL19:
 341:main.c        ****     for(i = 0; i < DATA_LENGTH; i++){
 227              		.loc 1 341 0
 228 0004 02F00100 		and	r0, r2, #1
 229              	.LVL20:
 342:main.c        ****         bitToCheck = bitToCheck >> 1; // shift mask over
 230              		.loc 1 342 0
 231 0008 0023     		movs	r3, #0
 232 000a 04E0     		b	.L22
 233              	.LVL21:
 234              	.L23:
 343:main.c        ****         parity = (bitToCheck & BIT_0_MASK) ^ parity; // XOR new bit
 235              		.loc 1 343 0 discriminator 3
 236 000c 5208     		lsrs	r2, r2, #1
 237              	.LVL22:
 344:main.c        ****     }
 238              		.loc 1 344 0 discriminator 3
 239 000e 02F00101 		and	r1, r2, #1
 240 0012 4840     		eors	r0, r0, r1
 241              	.LVL23:
 342:main.c        ****         bitToCheck = bitToCheck >> 1; // shift mask over
 242              		.loc 1 342 0 discriminator 3
 243 0014 0133     		adds	r3, r3, #1
 244              	.LVL24:
 245              	.L22:
 342:main.c        ****         bitToCheck = bitToCheck >> 1; // shift mask over
 246              		.loc 1 342 0 is_stmt 0 discriminator 1
 247 0016 072B     		cmp	r3, #7
 248 0018 F8DD     		ble	.L23
 347:main.c        **** 
 249              		.loc 1 347 0 is_stmt 1
 250 001a 7047     		bx	lr
 251              	.L25:
 252              		.align	2
 253              	.L24:
 254 001c 00000000 		.word	.LANCHOR1
 255              		.cfi_endproc
 256              	.LFE66:
 257              		.size	FindParity, .-FindParity
 258              		.section	.text.main,"ax",%progbits
 259              		.align	2
 260              		.global	main
 261              		.thumb
 262              		.thumb_func
 263              		.type	main, %function
 264              	main:
 265              	.LFB64:
 124:main.c        ****     /*Variable initializations*/
 266              		.loc 1 124 0
 267              		.cfi_startproc
 268              		@ args = 0, pretend = 0, frame = 0
 269              		@ frame_needed = 0, uses_anonymous_args = 0
 270 0000 F8B5     		push	{r3, r4, r5, r6, r7, lr}
ARM GAS  C:\Users\sdysart\AppData\Local\Temp\cc5HmH5Q.s 			page 15


 271              		.cfi_def_cfa_offset 24
 272              		.cfi_offset 3, -24
 273              		.cfi_offset 4, -20
 274              		.cfi_offset 5, -16
 275              		.cfi_offset 6, -12
 276              		.cfi_offset 7, -8
 277              		.cfi_offset 14, -4
 278              	.LVL25:
 134:main.c        ****     /* Start Watchdog and its check timer */
 279              		.loc 1 134 0
 280              		.syntax unified
 281              	@ 134 "main.c" 1
 282 0002 62B6     		CPSIE   i
 283              	@ 0 "" 2
 136:main.c        ****     checkWatchDogTimer_Start();
 284              		.loc 1 136 0
 285              		.thumb
 286              		.syntax unified
 287 0004 0021     		movs	r1, #0
 288 0006 0846     		mov	r0, r1
 289 0008 FFF7FEFF 		bl	CyWdtStart
 290              	.LVL26:
 137:main.c        ****     watchDogCheck_StartEx(watchDogCheck);
 291              		.loc 1 137 0
 292 000c FFF7FEFF 		bl	checkWatchDogTimer_Start
 293              	.LVL27:
 138:main.c        ****     
 294              		.loc 1 138 0
 295 0010 6348     		ldr	r0, .L41
 296 0012 FFF7FEFF 		bl	watchDogCheck_StartEx
 297              	.LVL28:
 141:main.c        ****     LCD_Start();
 298              		.loc 1 141 0
 299 0016 FFF7FEFF 		bl	UART_Start
 300              	.LVL29:
 142:main.c        ****     PWM_Modulator_Start();
 301              		.loc 1 142 0
 302 001a FFF7FEFF 		bl	LCD_Start
 303              	.LVL30:
 143:main.c        ****     PWM_1_Start();
 304              		.loc 1 143 0
 305 001e FFF7FEFF 		bl	PWM_Modulator_Start
 306              	.LVL31:
 144:main.c        ****     PWM_2_Start();
 307              		.loc 1 144 0
 308 0022 FFF7FEFF 		bl	PWM_1_Start
 309              	.LVL32:
 145:main.c        ****     PWM_3_Start();
 310              		.loc 1 145 0
 311 0026 FFF7FEFF 		bl	PWM_2_Start
 312              	.LVL33:
 146:main.c        ****     PWM_Switch_Timer_Start();
 313              		.loc 1 146 0
 314 002a FFF7FEFF 		bl	PWM_3_Start
 315              	.LVL34:
 147:main.c        ****     /* Start Interrupt */
 316              		.loc 1 147 0
ARM GAS  C:\Users\sdysart\AppData\Local\Temp\cc5HmH5Q.s 			page 16


 317 002e FFF7FEFF 		bl	PWM_Switch_Timer_Start
 318              	.LVL35:
 149:main.c        ****     Sleep_ISR_StartEx(wakeUpIsr);
 319              		.loc 1 149 0
 320 0032 5C48     		ldr	r0, .L41+4
 321 0034 FFF7FEFF 		bl	isr_sec_StartEx
 322              	.LVL36:
 150:main.c        ****     
 323              		.loc 1 150 0
 324 0038 5B48     		ldr	r0, .L41+8
 325 003a FFF7FEFF 		bl	Sleep_ISR_StartEx
 326              	.LVL37:
 153:main.c        ****     PWM_1_WriteCompare((FREQ(AUDIBLE_FREQ))/2); // Sets pulse width to half
 327              		.loc 1 153 0
 328 003e 5220     		movs	r0, #82
 329 0040 FFF7FEFF 		bl	PWM_1_WritePeriod
 330              	.LVL38:
 154:main.c        ****     
 331              		.loc 1 154 0
 332 0044 2920     		movs	r0, #41
 333 0046 FFF7FEFF 		bl	PWM_1_WriteCompare
 334              	.LVL39:
 157:main.c        ****     PWM_2_WriteCompare((FREQ(ONE_FREQ))/2); // Sets pulse width to half
 335              		.loc 1 157 0
 336 004a 1620     		movs	r0, #22
 337 004c FFF7FEFF 		bl	PWM_2_WritePeriod
 338              	.LVL40:
 158:main.c        ****     
 339              		.loc 1 158 0
 340 0050 0B20     		movs	r0, #11
 341 0052 FFF7FEFF 		bl	PWM_2_WriteCompare
 342              	.LVL41:
 161:main.c        ****     PWM_3_WriteCompare((FREQ(ZERO_FREQ))/2); // Sets pulse width to half
 343              		.loc 1 161 0
 344 0056 1A20     		movs	r0, #26
 345 0058 FFF7FEFF 		bl	PWM_3_WritePeriod
 346              	.LVL42:
 162:main.c        ****     
 347              		.loc 1 162 0
 348 005c 0D20     		movs	r0, #13
 349 005e FFF7FEFF 		bl	PWM_3_WriteCompare
 350              	.LVL43:
 165:main.c        ****     LCD_PrintString("                    ");
 351              		.loc 1 165 0
 352 0062 0021     		movs	r1, #0
 353 0064 0846     		mov	r0, r1
 354 0066 FFF7FEFF 		bl	LCD_Position
 355              	.LVL44:
 166:main.c        **** 
 356              		.loc 1 166 0
 357 006a 5048     		ldr	r0, .L41+12
 358 006c FFF7FEFF 		bl	LCD_PrintString
 359              	.LVL45:
 169:main.c        ****     LCD_PrintString("Hello");
 360              		.loc 1 169 0
 361 0070 0021     		movs	r1, #0
 362 0072 0846     		mov	r0, r1
ARM GAS  C:\Users\sdysart\AppData\Local\Temp\cc5HmH5Q.s 			page 17


 363 0074 FFF7FEFF 		bl	LCD_Position
 364              	.LVL46:
 170:main.c        **** 
 365              		.loc 1 170 0
 366 0078 4D48     		ldr	r0, .L41+16
 367 007a FFF7FEFF 		bl	LCD_PrintString
 368              	.LVL47:
 127:main.c        **** 
 369              		.loc 1 127 0
 370 007e 0025     		movs	r5, #0
 126:main.c        ****     int data_turn = 0;
 371              		.loc 1 126 0
 372 0080 2C46     		mov	r4, r5
 373              	.LVL48:
 374              	.L27:
 174:main.c        ****         {
 375              		.loc 1 174 0
 376 0082 4C4B     		ldr	r3, .L41+20
 377 0084 1B7B     		ldrb	r3, [r3, #12]	@ zero_extendqisi2
 378 0086 13B1     		cbz	r3, .L28
 177:main.c        ****         }
 379              		.loc 1 177 0
 380 0088 0022     		movs	r2, #0
 381 008a 4A4B     		ldr	r3, .L41+20
 382 008c 1A73     		strb	r2, [r3, #12]
 383              	.L28:
 179:main.c        ****             case Encoding_Byte1:
 384              		.loc 1 179 0
 385 008e 494B     		ldr	r3, .L41+20
 386 0090 9B68     		ldr	r3, [r3, #8]
 387 0092 032B     		cmp	r3, #3
 388 0094 20D8     		bhi	.L29
 389 0096 DFE803F0 		tbb	[pc, r3]
 390              	.L31:
 391 009a 02       		.byte	(.L30-.L31)/2
 392 009b 09       		.byte	(.L32-.L31)/2
 393 009c 11       		.byte	(.L33-.L31)/2
 394 009d 18       		.byte	(.L34-.L31)/2
 395              		.p2align 1
 396              	.L30:
 181:main.c        ****                 break;
 397              		.loc 1 181 0
 398 009e 454B     		ldr	r3, .L41+20
 399 00a0 1968     		ldr	r1, [r3]
 400 00a2 FF20     		movs	r0, #255
 401 00a4 FFF7FEFF 		bl	Byte
 402              	.LVL49:
 403 00a8 0446     		mov	r4, r0
 404              	.LVL50:
 182:main.c        ****             case Data:
 405              		.loc 1 182 0
 406 00aa 61E0     		b	.L35
 407              	.LVL51:
 408              	.L32:
 184:main.c        ****                 break;
 409              		.loc 1 184 0
 410 00ac 414B     		ldr	r3, .L41+20
ARM GAS  C:\Users\sdysart\AppData\Local\Temp\cc5HmH5Q.s 			page 18


 411 00ae 1968     		ldr	r1, [r3]
 412 00b0 414B     		ldr	r3, .L41+24
 413 00b2 1878     		ldrb	r0, [r3]	@ zero_extendqisi2
 414 00b4 FFF7FEFF 		bl	Byte
 415              	.LVL52:
 416 00b8 0446     		mov	r4, r0
 417              	.LVL53:
 185:main.c        ****             case Parity:
 418              		.loc 1 185 0
 419 00ba 59E0     		b	.L35
 420              	.LVL54:
 421              	.L33:
 187:main.c        ****                 bitCase = FindParity();
 422              		.loc 1 187 0
 423 00bc 0122     		movs	r2, #1
 424 00be 3D4B     		ldr	r3, .L41+20
 425 00c0 5A60     		str	r2, [r3, #4]
 188:main.c        ****                 break;
 426              		.loc 1 188 0
 427 00c2 FFF7FEFF 		bl	FindParity
 428              	.LVL55:
 429 00c6 0446     		mov	r4, r0
 430              	.LVL56:
 189:main.c        ****             case Decoding_Byte1:
 431              		.loc 1 189 0
 432 00c8 52E0     		b	.L35
 433              	.LVL57:
 434              	.L34:
 191:main.c        ****                 break;
 435              		.loc 1 191 0
 436 00ca 3A4B     		ldr	r3, .L41+20
 437 00cc 1968     		ldr	r1, [r3]
 438 00ce 0120     		movs	r0, #1
 439 00d0 FFF7FEFF 		bl	Byte
 440              	.LVL58:
 441 00d4 0446     		mov	r4, r0
 442              	.LVL59:
 192:main.c        ****  
 443              		.loc 1 192 0
 444 00d6 4BE0     		b	.L35
 445              	.LVL60:
 446              	.L29:
 195:main.c        ****                 // Turn sending off until new data from UART
 447              		.loc 1 195 0
 448 00d8 364A     		ldr	r2, .L41+20
 449 00da 1369     		ldr	r3, [r2, #16]
 450 00dc 0133     		adds	r3, r3, #1
 451 00de 1361     		str	r3, [r2, #16]
 197:main.c        ****                 //encode used to transmit 7 1's for the prefix 
 452              		.loc 1 197 0
 453 00e0 0021     		movs	r1, #0
 454 00e2 1175     		strb	r1, [r2, #20]
 210:main.c        ****                     sendDataCount = 0;
 455              		.loc 1 210 0
 456 00e4 022B     		cmp	r3, #2
 457 00e6 06DD     		ble	.L36
 211:main.c        ****                     crabsToSend <<= 1; // Move over data a bit
ARM GAS  C:\Users\sdysart\AppData\Local\Temp\cc5HmH5Q.s 			page 19


 458              		.loc 1 211 0
 459 00e8 324B     		ldr	r3, .L41+20
 460 00ea 1961     		str	r1, [r3, #16]
 212:main.c        ****                     data_turn++;
 461              		.loc 1 212 0
 462 00ec 324A     		ldr	r2, .L41+24
 463 00ee 1378     		ldrb	r3, [r2]	@ zero_extendqisi2
 464 00f0 5B00     		lsls	r3, r3, #1
 465 00f2 1370     		strb	r3, [r2]
 213:main.c        ****                     maxDataFlag = TRUE; // flag for extra 2 second delay between new data
 466              		.loc 1 213 0
 467 00f4 0135     		adds	r5, r5, #1
 468              	.LVL61:
 469              	.L36:
 217:main.c        ****                     data_turn = 0;
 470              		.loc 1 217 0
 471 00f6 062D     		cmp	r5, #6
 472 00f8 03DD     		ble	.L37
 473              	.LVL62:
 219:main.c        ****                 }
 474              		.loc 1 219 0
 475 00fa 0122     		movs	r2, #1
 476 00fc 2E4B     		ldr	r3, .L41+24
 477 00fe 1A70     		strb	r2, [r3]
 218:main.c        ****                     crabsToSend = ONE;
 478              		.loc 1 218 0
 479 0100 0025     		movs	r5, #0
 480              	.LVL63:
 481              	.L37:
 223:main.c        ****                 sprintf(data,"Crabs: %d", crabsToSend);
 482              		.loc 1 223 0
 483 0102 0021     		movs	r1, #0
 484 0104 0846     		mov	r0, r1
 485 0106 FFF7FEFF 		bl	LCD_Position
 486              	.LVL64:
 224:main.c        ****                 LCD_PrintString("             ");
 487              		.loc 1 224 0
 488 010a 2C4E     		ldr	r6, .L41+28
 489 010c 2A4B     		ldr	r3, .L41+24
 490 010e 1A78     		ldrb	r2, [r3]	@ zero_extendqisi2
 491 0110 2B49     		ldr	r1, .L41+32
 492 0112 3046     		mov	r0, r6
 493 0114 FFF7FEFF 		bl	sprintf
 494              	.LVL65:
 225:main.c        **** 
 495              		.loc 1 225 0
 496 0118 2A48     		ldr	r0, .L41+36
 497 011a FFF7FEFF 		bl	LCD_PrintString
 498              	.LVL66:
 228:main.c        ****                 LCD_PrintString(data);
 499              		.loc 1 228 0
 500 011e 0021     		movs	r1, #0
 501 0120 0846     		mov	r0, r1
 502 0122 FFF7FEFF 		bl	LCD_Position
 503              	.LVL67:
 229:main.c        ****  
 504              		.loc 1 229 0
ARM GAS  C:\Users\sdysart\AppData\Local\Temp\cc5HmH5Q.s 			page 20


 505 0126 3046     		mov	r0, r6
 506 0128 FFF7FEFF 		bl	LCD_PrintString
 507              	.LVL68:
 234:main.c        ****                 PWM_Switch_Timer_Stop();
 508              		.loc 1 234 0
 509 012c FFF7FEFF 		bl	PWM_Modulator_Stop
 510              	.LVL69:
 235:main.c        ****                 HighVoltage_Write(0); // Turn High Voltage off while delaying
 511              		.loc 1 235 0
 512 0130 FFF7FEFF 		bl	PWM_Switch_Timer_Stop
 513              	.LVL70:
 236:main.c        ****                 CyDelay(20);
 514              		.loc 1 236 0
 515 0134 0020     		movs	r0, #0
 516 0136 FFF7FEFF 		bl	HighVoltage_Write
 517              	.LVL71:
 237:main.c        ****                 SignalBase_Write(0);
 518              		.loc 1 237 0
 519 013a 1420     		movs	r0, #20
 520 013c FFF7FEFF 		bl	CyDelay
 521              	.LVL72:
 238:main.c        ****                 if(maxDataFlag == TRUE){
 522              		.loc 1 238 0
 523 0140 0020     		movs	r0, #0
 524 0142 FFF7FEFF 		bl	SignalBase_Write
 525              	.LVL73:
 256:main.c        **** #endif /* UART == ENABLED */
 526              		.loc 1 256 0
 527 0146 4FF47A70 		mov	r0, #1000
 528 014a FFF7FEFF 		bl	CyDelay
 529              	.LVL74:
 263:main.c        ****                 CyDelay(20); // Give voltage booster time to charge up
 530              		.loc 1 263 0
 531 014e 0120     		movs	r0, #1
 532 0150 FFF7FEFF 		bl	HighVoltage_Write
 533              	.LVL75:
 264:main.c        ****                 SignalBase_Write(1);
 534              		.loc 1 264 0
 535 0154 1420     		movs	r0, #20
 536 0156 FFF7FEFF 		bl	CyDelay
 537              	.LVL76:
 265:main.c        ****                 /* Reset PWM blocks and bitTime for new transmission */
 538              		.loc 1 265 0
 539 015a 0120     		movs	r0, #1
 540 015c FFF7FEFF 		bl	SignalBase_Write
 541              	.LVL77:
 267:main.c        ****                 PWM_Modulator_Start();
 542              		.loc 1 267 0
 543 0160 144E     		ldr	r6, .L41+20
 544 0162 0027     		movs	r7, #0
 545 0164 3760     		str	r7, [r6]
 268:main.c        ****                 PWM_Switch_Timer_Start();
 546              		.loc 1 268 0
 547 0166 FFF7FEFF 		bl	PWM_Modulator_Start
 548              	.LVL78:
 269:main.c        ****                 currentByte = Encoding_Byte1;
 549              		.loc 1 269 0
ARM GAS  C:\Users\sdysart\AppData\Local\Temp\cc5HmH5Q.s 			page 21


 550 016a FFF7FEFF 		bl	PWM_Switch_Timer_Start
 551              	.LVL79:
 270:main.c        ****                 break;
 552              		.loc 1 270 0
 553 016e B760     		str	r7, [r6, #8]
 554              	.L35:
 275:main.c        ****             SignalBase_Write(1);
 555              		.loc 1 275 0
 556 0170 012C     		cmp	r4, #1
 557 0172 0BD1     		bne	.L38
 276:main.c        ****             PWM_Modulator_Start();
 558              		.loc 1 276 0
 559 0174 0120     		movs	r0, #1
 560 0176 FFF7FEFF 		bl	SignalBase_Write
 561              	.LVL80:
 277:main.c        ****             PWM_Modulator_WritePeriod(FREQ(ONE_FREQ));
 562              		.loc 1 277 0
 563 017a FFF7FEFF 		bl	PWM_Modulator_Start
 564              	.LVL81:
 278:main.c        ****             PWM_Modulator_WriteCompare((FREQ(ONE_FREQ))/2); // Sets pulse width
 565              		.loc 1 278 0
 566 017e 1620     		movs	r0, #22
 567 0180 FFF7FEFF 		bl	PWM_Modulator_WritePeriod
 568              	.LVL82:
 279:main.c        ****         }else if(bitCase == ZERO){
 569              		.loc 1 279 0
 570 0184 0B20     		movs	r0, #11
 571 0186 FFF7FEFF 		bl	PWM_Modulator_WriteCompare
 572              	.LVL83:
 573 018a 7AE7     		b	.L27
 574              	.L38:
 280:main.c        ****             PWM_Modulator_Stop();
 575              		.loc 1 280 0
 576 018c 002C     		cmp	r4, #0
 577 018e 7FF478AF 		bne	.L27
 281:main.c        ****             SignalBase_Write(0);
 578              		.loc 1 281 0
 579 0192 FFF7FEFF 		bl	PWM_Modulator_Stop
 580              	.LVL84:
 282:main.c        ****         } // end if statement
 581              		.loc 1 282 0
 582 0196 0020     		movs	r0, #0
 583 0198 FFF7FEFF 		bl	SignalBase_Write
 584              	.LVL85:
 585 019c 71E7     		b	.L27
 586              	.L42:
 587 019e 00BF     		.align	2
 588              	.L41:
 589 01a0 00000000 		.word	watchDogCheck
 590 01a4 00000000 		.word	isr_sec
 591 01a8 00000000 		.word	wakeUpIsr
 592 01ac 00000000 		.word	.LC0
 593 01b0 18000000 		.word	.LC1
 594 01b4 00000000 		.word	.LANCHOR0
 595 01b8 00000000 		.word	.LANCHOR1
 596 01bc 00000000 		.word	data
 597 01c0 20000000 		.word	.LC2
ARM GAS  C:\Users\sdysart\AppData\Local\Temp\cc5HmH5Q.s 			page 22


 598 01c4 2C000000 		.word	.LC3
 599              		.cfi_endproc
 600              	.LFE64:
 601              		.size	main, .-main
 602              		.section	.text.wakeUp,"ax",%progbits
 603              		.align	2
 604              		.global	wakeUp
 605              		.thumb
 606              		.thumb_func
 607              		.type	wakeUp, %function
 608              	wakeUp:
 609              	.LFB67:
 357:main.c        ****     
 610              		.loc 1 357 0
 611              		.cfi_startproc
 612              		@ args = 0, pretend = 0, frame = 0
 613              		@ frame_needed = 0, uses_anonymous_args = 0
 614 0000 08B5     		push	{r3, lr}
 615              		.cfi_def_cfa_offset 8
 616              		.cfi_offset 3, -8
 617              		.cfi_offset 14, -4
 359:main.c        ****     
 618              		.loc 1 359 0
 619 0002 FFF7FEFF 		bl	CyPmRestoreClocks
 620              	.LVL86:
 361:main.c        ****     PWM_Modulator_Wakeup();
 621              		.loc 1 361 0
 622 0006 FFF7FEFF 		bl	LCD_Wakeup
 623              	.LVL87:
 362:main.c        ****     PWM_Switch_Timer_Wakeup();
 624              		.loc 1 362 0
 625 000a FFF7FEFF 		bl	PWM_Modulator_Wakeup
 626              	.LVL88:
 363:main.c        ****     PWM_1_Wakeup();
 627              		.loc 1 363 0
 628 000e FFF7FEFF 		bl	PWM_Switch_Timer_Wakeup
 629              	.LVL89:
 364:main.c        ****     PWM_2_Wakeup();
 630              		.loc 1 364 0
 631 0012 FFF7FEFF 		bl	PWM_1_Wakeup
 632              	.LVL90:
 365:main.c        ****     PWM_3_Wakeup();
 633              		.loc 1 365 0
 634 0016 FFF7FEFF 		bl	PWM_2_Wakeup
 635              	.LVL91:
 366:main.c        ****     checkWatchDogTimer_Wakeup();  
 636              		.loc 1 366 0
 637 001a FFF7FEFF 		bl	PWM_3_Wakeup
 638              	.LVL92:
 367:main.c        ****     
 639              		.loc 1 367 0
 640 001e FFF7FEFF 		bl	checkWatchDogTimer_Wakeup
 641              	.LVL93:
 642 0022 08BD     		pop	{r3, pc}
 643              		.cfi_endproc
 644              	.LFE67:
 645              		.size	wakeUp, .-wakeUp
ARM GAS  C:\Users\sdysart\AppData\Local\Temp\cc5HmH5Q.s 			page 23


 646              		.section	.text.goToSleep,"ax",%progbits
 647              		.align	2
 648              		.global	goToSleep
 649              		.thumb
 650              		.thumb_func
 651              		.type	goToSleep, %function
 652              	goToSleep:
 653              	.LFB68:
 379:main.c        ****     
 654              		.loc 1 379 0
 655              		.cfi_startproc
 656              		@ args = 0, pretend = 0, frame = 0
 657              		@ frame_needed = 0, uses_anonymous_args = 0
 658 0000 08B5     		push	{r3, lr}
 659              		.cfi_def_cfa_offset 8
 660              		.cfi_offset 3, -8
 661              		.cfi_offset 14, -4
 381:main.c        ****     PWM_Modulator_Sleep();
 662              		.loc 1 381 0
 663 0002 FFF7FEFF 		bl	LCD_Sleep
 664              	.LVL94:
 382:main.c        ****     PWM_Switch_Timer_Sleep();
 665              		.loc 1 382 0
 666 0006 FFF7FEFF 		bl	PWM_Modulator_Sleep
 667              	.LVL95:
 383:main.c        ****     PWM_1_Sleep();
 668              		.loc 1 383 0
 669 000a FFF7FEFF 		bl	PWM_Switch_Timer_Sleep
 670              	.LVL96:
 384:main.c        ****     PWM_2_Sleep();
 671              		.loc 1 384 0
 672 000e FFF7FEFF 		bl	PWM_1_Sleep
 673              	.LVL97:
 385:main.c        ****     PWM_3_Sleep();
 674              		.loc 1 385 0
 675 0012 FFF7FEFF 		bl	PWM_2_Sleep
 676              	.LVL98:
 386:main.c        ****     checkWatchDogTimer_Sleep();
 677              		.loc 1 386 0
 678 0016 FFF7FEFF 		bl	PWM_3_Sleep
 679              	.LVL99:
 387:main.c        ****     CyPmSaveClocks();
 680              		.loc 1 387 0
 681 001a FFF7FEFF 		bl	checkWatchDogTimer_Sleep
 682              	.LVL100:
 388:main.c        **** 
 683              		.loc 1 388 0
 684 001e FFF7FEFF 		bl	CyPmSaveClocks
 685              	.LVL101:
 686 0022 08BD     		pop	{r3, pc}
 687              		.cfi_endproc
 688              	.LFE68:
 689              		.size	goToSleep, .-goToSleep
 690              		.section	.text.RxIsr,"ax",%progbits
 691              		.align	2
 692              		.global	RxIsr
 693              		.thumb
ARM GAS  C:\Users\sdysart\AppData\Local\Temp\cc5HmH5Q.s 			page 24


 694              		.thumb_func
 695              		.type	RxIsr, %function
 696              	RxIsr:
 697              	.LFB70:
 440:main.c        ****     uint8 rxStatus;         
 698              		.loc 1 440 0
 699              		.cfi_startproc
 700              		@ args = 0, pretend = 0, frame = 0
 701              		@ frame_needed = 0, uses_anonymous_args = 0
 702 0000 38B5     		push	{r3, r4, r5, lr}
 703              		.cfi_def_cfa_offset 16
 704              		.cfi_offset 3, -16
 705              		.cfi_offset 4, -12
 706              		.cfi_offset 5, -8
 707              		.cfi_offset 14, -4
 442:main.c        ****     do
 708              		.loc 1 442 0
 709 0002 0122     		movs	r2, #1
 710 0004 1A4B     		ldr	r3, .L52
 711 0006 1A75     		strb	r2, [r3, #20]
 712              	.L50:
 446:main.c        **** 
 713              		.loc 1 446 0
 714 0008 1A4B     		ldr	r3, .L52+4
 715 000a 1B78     		ldrb	r3, [r3]	@ zero_extendqisi2
 716 000c DBB2     		uxtb	r3, r3
 717              	.LVL102:
 448:main.c        ****                         UART_RX_STS_STOP_ERROR | UART_RX_STS_OVERRUN)) != 0u)
 718              		.loc 1 448 0
 719 000e 13F01E0F 		tst	r3, #30
 720 0012 05D0     		beq	.L48
 452:main.c        ****                                         UART_RX_STS_STOP_ERROR | UART_RX_STS_OVERRUN);
 721              		.loc 1 452 0
 722 0014 1648     		ldr	r0, .L52
 723 0016 03F01E02 		and	r2, r3, #30
 724 001a 017B     		ldrb	r1, [r0, #12]	@ zero_extendqisi2
 725 001c 0A43     		orrs	r2, r2, r1
 726 001e 0273     		strb	r2, [r0, #12]
 727              	.L48:
 728 0020 03F02003 		and	r3, r3, #32
 729              	.LVL103:
 456:main.c        ****         {
 730              		.loc 1 456 0
 731 0024 03F0FF04 		and	r4, r3, #255
 732 0028 F3B1     		cbz	r3, .L49
 459:main.c        ****             if(errorStatus == 0u)
 733              		.loc 1 459 0
 734 002a 134B     		ldr	r3, .L52+8
 735 002c 1B78     		ldrb	r3, [r3]	@ zero_extendqisi2
 736 002e DBB2     		uxtb	r3, r3
 737 0030 124A     		ldr	r2, .L52+12
 738 0032 1370     		strb	r3, [r2]
 460:main.c        ****             {
 739              		.loc 1 460 0
 740 0034 0E4A     		ldr	r2, .L52
 741 0036 127B     		ldrb	r2, [r2, #12]	@ zero_extendqisi2
 742 0038 B2B9     		cbnz	r2, .L49
ARM GAS  C:\Users\sdysart\AppData\Local\Temp\cc5HmH5Q.s 			page 25


 463:main.c        ****                 /* Clear LCD line. */
 743              		.loc 1 463 0
 744 003a 114A     		ldr	r2, .L52+16
 745 003c 1370     		strb	r3, [r2]
 465:main.c        ****                 sprintf(data,"Crabs: %d", crabsToSend);
 746              		.loc 1 465 0
 747 003e 0021     		movs	r1, #0
 748 0040 0846     		mov	r0, r1
 749 0042 FFF7FEFF 		bl	LCD_Position
 750              	.LVL104:
 466:main.c        ****                 LCD_PrintString("             ");
 751              		.loc 1 466 0
 752 0046 0F4D     		ldr	r5, .L52+20
 753 0048 0C4B     		ldr	r3, .L52+12
 754 004a 1A78     		ldrb	r2, [r3]	@ zero_extendqisi2
 755 004c 0E49     		ldr	r1, .L52+24
 756 004e 2846     		mov	r0, r5
 757 0050 FFF7FEFF 		bl	sprintf
 758              	.LVL105:
 467:main.c        **** 
 759              		.loc 1 467 0
 760 0054 0D48     		ldr	r0, .L52+28
 761 0056 FFF7FEFF 		bl	LCD_PrintString
 762              	.LVL106:
 470:main.c        ****                 LCD_PrintString(data);
 763              		.loc 1 470 0
 764 005a 0021     		movs	r1, #0
 765 005c 0846     		mov	r0, r1
 766 005e FFF7FEFF 		bl	LCD_Position
 767              	.LVL107:
 471:main.c        ****             }
 768              		.loc 1 471 0
 769 0062 2846     		mov	r0, r5
 770 0064 FFF7FEFF 		bl	LCD_PrintString
 771              	.LVL108:
 772              	.L49:
 474:main.c        **** }
 773              		.loc 1 474 0
 774 0068 002C     		cmp	r4, #0
 775 006a CDD1     		bne	.L50
 475:main.c        **** 
 776              		.loc 1 475 0
 777 006c 38BD     		pop	{r3, r4, r5, pc}
 778              	.L53:
 779 006e 00BF     		.align	2
 780              	.L52:
 781 0070 00000000 		.word	.LANCHOR0
 782 0074 68640040 		.word	1073767528
 783 0078 49650040 		.word	1073767753
 784 007c 00000000 		.word	.LANCHOR1
 785 0080 4A650040 		.word	1073767754
 786 0084 00000000 		.word	data
 787 0088 20000000 		.word	.LC2
 788 008c 2C000000 		.word	.LC3
 789              		.cfi_endproc
 790              	.LFE70:
 791              		.size	RxIsr, .-RxIsr
ARM GAS  C:\Users\sdysart\AppData\Local\Temp\cc5HmH5Q.s 			page 26


 792              		.global	crabsToSend
 793              		.global	errorStatus
 794              		.global	newDataflag
 795              		.comm	data,20,4
 796              		.comm	lineStr,20,4
 797              		.comm	count,2,2
 798              		.global	i
 799              		.global	error
 800              		.data
 801              		.align	2
 802              		.set	.LANCHOR1,. + 0
 803              		.type	crabsToSend, %object
 804              		.size	crabsToSend, 1
 805              	crabsToSend:
 806 0000 01       		.byte	1
 807 0001 000000   		.space	3
 808              		.type	i, %object
 809              		.size	i, 4
 810              	i:
 811 0004 02000000 		.word	2
 812              		.section	.rodata.str1.4,"aMS",%progbits,1
 813              		.align	2
 814              	.LC0:
 815 0000 20202020 		.ascii	"                    \000"
 815      20202020 
 815      20202020 
 815      20202020 
 815      20202020 
 816 0015 000000   		.space	3
 817              	.LC1:
 818 0018 48656C6C 		.ascii	"Hello\000"
 818      6F00
 819 001e 0000     		.space	2
 820              	.LC2:
 821 0020 43726162 		.ascii	"Crabs: %d\000"
 821      733A2025 
 821      6400
 822 002a 0000     		.space	2
 823              	.LC3:
 824 002c 20202020 		.ascii	"             \000"
 824      20202020 
 824      20202020 
 824      2000
 825              		.bss
 826              		.align	2
 827              		.set	.LANCHOR0,. + 0
 828              		.type	bitTime, %object
 829              		.size	bitTime, 4
 830              	bitTime:
 831 0000 00000000 		.space	4
 832              		.type	ParityFlag, %object
 833              		.size	ParityFlag, 4
 834              	ParityFlag:
 835 0004 00000000 		.space	4
 836              		.type	currentByte, %object
 837              		.size	currentByte, 4
 838              	currentByte:
ARM GAS  C:\Users\sdysart\AppData\Local\Temp\cc5HmH5Q.s 			page 27


 839 0008 00000000 		.space	4
 840              		.type	errorStatus, %object
 841              		.size	errorStatus, 1
 842              	errorStatus:
 843 000c 00       		.space	1
 844 000d 000000   		.space	3
 845              		.type	sendDataCount, %object
 846              		.size	sendDataCount, 4
 847              	sendDataCount:
 848 0010 00000000 		.space	4
 849              		.type	newDataflag, %object
 850              		.size	newDataflag, 1
 851              	newDataflag:
 852 0014 00       		.space	1
 853 0015 000000   		.space	3
 854              		.type	error, %object
 855              		.size	error, 4
 856              	error:
 857 0018 00000000 		.space	4
 858              		.text
 859              	.Letext0:
 860              		.file 2 "c:\\program files (x86)\\cypress\\psoc creator\\4.1\\psoc creator\\import\\gnu\\arm\\5.4.
 861              		.file 3 "c:\\program files (x86)\\cypress\\psoc creator\\4.1\\psoc creator\\import\\gnu\\arm\\5.4.
 862              		.file 4 "Generated_Source\\PSoC5/cytypes.h"
 863              		.file 5 "Generated_Source\\PSoC5/core_cm3.h"
 864              		.file 6 "Generated_Source\\PSoC5/CyLib.h"
 865              		.file 7 "Generated_Source\\PSoC5/SleepTimer.h"
 866              		.file 8 "Generated_Source\\PSoC5/checkWatchDogTimer.h"
 867              		.file 9 "Generated_Source\\PSoC5/watchDogCheck.h"
 868              		.file 10 "Generated_Source\\PSoC5/UART.h"
 869              		.file 11 "Generated_Source\\PSoC5/LCD.h"
 870              		.file 12 "Generated_Source\\PSoC5/PWM_Modulator.h"
 871              		.file 13 "Generated_Source\\PSoC5/PWM_1.h"
 872              		.file 14 "Generated_Source\\PSoC5/PWM_2.h"
 873              		.file 15 "Generated_Source\\PSoC5/PWM_3.h"
 874              		.file 16 "Generated_Source\\PSoC5/PWM_Switch_Timer.h"
 875              		.file 17 "Generated_Source\\PSoC5/isr_sec.h"
 876              		.file 18 "Generated_Source\\PSoC5/Sleep_ISR.h"
 877              		.file 19 "c:\\program files (x86)\\cypress\\psoc creator\\4.1\\psoc creator\\import\\gnu\\arm\\5.4
 878              		.file 20 "Generated_Source\\PSoC5/HighVoltage.h"
 879              		.file 21 "Generated_Source\\PSoC5/SignalBase.h"
 880              		.file 22 "Generated_Source\\PSoC5/cyPm.h"