ARM GAS  C:\Users\sdysart\AppData\Local\Temp\ccTd7P7b.s 			page 1


   1              		.syntax unified
   2              		.cpu cortex-m3
   3              		.fpu softvfp
   4              		.eabi_attribute 20, 1
   5              		.eabi_attribute 21, 1
   6              		.eabi_attribute 23, 3
   7              		.eabi_attribute 24, 1
   8              		.eabi_attribute 25, 1
   9              		.eabi_attribute 26, 1
  10              		.eabi_attribute 30, 6
  11              		.eabi_attribute 34, 1
  12              		.eabi_attribute 18, 4
  13              		.thumb
  14              		.syntax unified
  15              		.file	"cyfitter_cfg.c"
  16              		.text
  17              	.Ltext0:
  18              		.cfi_sections	.debug_frame
  19              		.section	.text.CYMEMZERO,"ax",%progbits
  20              		.align	2
  21              		.thumb
  22              		.thumb_func
  23              		.type	CYMEMZERO, %function
  24              	CYMEMZERO:
  25              	.LFB0:
  26              		.file 1 "Generated_Source\\PSoC5\\cyfitter_cfg.c"
   1:Generated_Source\PSoC5/cyfitter_cfg.c **** 
   2:Generated_Source\PSoC5/cyfitter_cfg.c **** /*******************************************************************************
   3:Generated_Source\PSoC5/cyfitter_cfg.c **** * File Name: cyfitter_cfg.c
   4:Generated_Source\PSoC5/cyfitter_cfg.c **** * 
   5:Generated_Source\PSoC5/cyfitter_cfg.c **** * PSoC Creator  4.1 Update 1
   6:Generated_Source\PSoC5/cyfitter_cfg.c **** *
   7:Generated_Source\PSoC5/cyfitter_cfg.c **** * Description:
   8:Generated_Source\PSoC5/cyfitter_cfg.c **** * This file contains device initialization code.
   9:Generated_Source\PSoC5/cyfitter_cfg.c **** * Except for the user defined sections in CyClockStartupError(), this file should not be modified.
  10:Generated_Source\PSoC5/cyfitter_cfg.c **** * This file is automatically generated by PSoC Creator.
  11:Generated_Source\PSoC5/cyfitter_cfg.c **** *
  12:Generated_Source\PSoC5/cyfitter_cfg.c **** ********************************************************************************
  13:Generated_Source\PSoC5/cyfitter_cfg.c **** * Copyright (c) 2007-2017 Cypress Semiconductor.  All rights reserved.
  14:Generated_Source\PSoC5/cyfitter_cfg.c **** * You may use this file only in accordance with the license, terms, conditions, 
  15:Generated_Source\PSoC5/cyfitter_cfg.c **** * disclaimers, and limitations in the end user license agreement accompanying 
  16:Generated_Source\PSoC5/cyfitter_cfg.c **** * the software package with which this file was provided.
  17:Generated_Source\PSoC5/cyfitter_cfg.c **** ********************************************************************************/
  18:Generated_Source\PSoC5/cyfitter_cfg.c **** 
  19:Generated_Source\PSoC5/cyfitter_cfg.c **** #include <string.h>
  20:Generated_Source\PSoC5/cyfitter_cfg.c **** #include "cytypes.h"
  21:Generated_Source\PSoC5/cyfitter_cfg.c **** #include "cydevice_trm.h"
  22:Generated_Source\PSoC5/cyfitter_cfg.c **** #include "cyfitter.h"
  23:Generated_Source\PSoC5/cyfitter_cfg.c **** #include "CyLib.h"
  24:Generated_Source\PSoC5/cyfitter_cfg.c **** #include "cyfitter_cfg.h"
  25:Generated_Source\PSoC5/cyfitter_cfg.c **** #include "cyapicallbacks.h"
  26:Generated_Source\PSoC5/cyfitter_cfg.c **** 
  27:Generated_Source\PSoC5/cyfitter_cfg.c **** #define CY_NEED_CYCLOCKSTARTUPERROR 1
  28:Generated_Source\PSoC5/cyfitter_cfg.c **** 
  29:Generated_Source\PSoC5/cyfitter_cfg.c **** 
  30:Generated_Source\PSoC5/cyfitter_cfg.c **** #if defined(__GNUC__) || defined(__ARMCC_VERSION)
  31:Generated_Source\PSoC5/cyfitter_cfg.c ****     #define CYPACKED 
ARM GAS  C:\Users\sdysart\AppData\Local\Temp\ccTd7P7b.s 			page 2


  32:Generated_Source\PSoC5/cyfitter_cfg.c ****     #define CYPACKED_ATTR __attribute__ ((packed))
  33:Generated_Source\PSoC5/cyfitter_cfg.c ****     #define CYALIGNED __attribute__ ((aligned))
  34:Generated_Source\PSoC5/cyfitter_cfg.c ****     #define CY_CFG_UNUSED __attribute__ ((unused))
  35:Generated_Source\PSoC5/cyfitter_cfg.c ****     #ifndef CY_CFG_SECTION
  36:Generated_Source\PSoC5/cyfitter_cfg.c ****         #define CY_CFG_SECTION __attribute__ ((section(".psocinit")))
  37:Generated_Source\PSoC5/cyfitter_cfg.c ****     #endif
  38:Generated_Source\PSoC5/cyfitter_cfg.c ****     
  39:Generated_Source\PSoC5/cyfitter_cfg.c ****     #if defined(__ARMCC_VERSION)
  40:Generated_Source\PSoC5/cyfitter_cfg.c ****         #define CY_CFG_MEMORY_BARRIER() __memory_changed()
  41:Generated_Source\PSoC5/cyfitter_cfg.c ****     #else
  42:Generated_Source\PSoC5/cyfitter_cfg.c ****         #define CY_CFG_MEMORY_BARRIER() __sync_synchronize()
  43:Generated_Source\PSoC5/cyfitter_cfg.c ****     #endif
  44:Generated_Source\PSoC5/cyfitter_cfg.c ****     
  45:Generated_Source\PSoC5/cyfitter_cfg.c **** #elif defined(__ICCARM__)
  46:Generated_Source\PSoC5/cyfitter_cfg.c ****     #include <intrinsics.h>
  47:Generated_Source\PSoC5/cyfitter_cfg.c **** 
  48:Generated_Source\PSoC5/cyfitter_cfg.c ****     #define CYPACKED __packed
  49:Generated_Source\PSoC5/cyfitter_cfg.c ****     #define CYPACKED_ATTR 
  50:Generated_Source\PSoC5/cyfitter_cfg.c ****     #define CYALIGNED _Pragma("data_alignment=4")
  51:Generated_Source\PSoC5/cyfitter_cfg.c ****     #define CY_CFG_UNUSED _Pragma("diag_suppress=Pe177")
  52:Generated_Source\PSoC5/cyfitter_cfg.c ****     #define CY_CFG_SECTION _Pragma("location=\".psocinit\"")
  53:Generated_Source\PSoC5/cyfitter_cfg.c ****     
  54:Generated_Source\PSoC5/cyfitter_cfg.c ****     #define CY_CFG_MEMORY_BARRIER() __DMB()
  55:Generated_Source\PSoC5/cyfitter_cfg.c ****     
  56:Generated_Source\PSoC5/cyfitter_cfg.c **** #else
  57:Generated_Source\PSoC5/cyfitter_cfg.c ****     #error Unsupported toolchain
  58:Generated_Source\PSoC5/cyfitter_cfg.c **** #endif
  59:Generated_Source\PSoC5/cyfitter_cfg.c **** 
  60:Generated_Source\PSoC5/cyfitter_cfg.c **** #ifndef CYCODE
  61:Generated_Source\PSoC5/cyfitter_cfg.c ****     #define CYCODE
  62:Generated_Source\PSoC5/cyfitter_cfg.c **** #endif
  63:Generated_Source\PSoC5/cyfitter_cfg.c **** #ifndef CYDATA
  64:Generated_Source\PSoC5/cyfitter_cfg.c ****     #define CYDATA
  65:Generated_Source\PSoC5/cyfitter_cfg.c **** #endif
  66:Generated_Source\PSoC5/cyfitter_cfg.c **** #ifndef CYFAR
  67:Generated_Source\PSoC5/cyfitter_cfg.c ****     #define CYFAR
  68:Generated_Source\PSoC5/cyfitter_cfg.c **** #endif
  69:Generated_Source\PSoC5/cyfitter_cfg.c **** #ifndef CYXDATA
  70:Generated_Source\PSoC5/cyfitter_cfg.c ****     #define CYXDATA
  71:Generated_Source\PSoC5/cyfitter_cfg.c **** #endif
  72:Generated_Source\PSoC5/cyfitter_cfg.c **** 
  73:Generated_Source\PSoC5/cyfitter_cfg.c **** 
  74:Generated_Source\PSoC5/cyfitter_cfg.c **** CY_CFG_UNUSED
  75:Generated_Source\PSoC5/cyfitter_cfg.c **** static void CYMEMZERO(void *s, size_t n);
  76:Generated_Source\PSoC5/cyfitter_cfg.c **** CY_CFG_UNUSED
  77:Generated_Source\PSoC5/cyfitter_cfg.c **** static void CYMEMZERO(void *s, size_t n)
  78:Generated_Source\PSoC5/cyfitter_cfg.c **** {
  27              		.loc 1 78 0
  28              		.cfi_startproc
  29              		@ args = 0, pretend = 0, frame = 8
  30              		@ frame_needed = 1, uses_anonymous_args = 0
  31 0000 80B5     		push	{r7, lr}
  32              		.cfi_def_cfa_offset 8
  33              		.cfi_offset 7, -8
  34              		.cfi_offset 14, -4
  35 0002 82B0     		sub	sp, sp, #8
  36              		.cfi_def_cfa_offset 16
ARM GAS  C:\Users\sdysart\AppData\Local\Temp\ccTd7P7b.s 			page 3


  37 0004 00AF     		add	r7, sp, #0
  38              		.cfi_def_cfa_register 7
  39 0006 7860     		str	r0, [r7, #4]
  40 0008 3960     		str	r1, [r7]
  79:Generated_Source\PSoC5/cyfitter_cfg.c **** 	(void)memset(s, 0, n);
  41              		.loc 1 79 0
  42 000a 3A68     		ldr	r2, [r7]
  43 000c 0021     		movs	r1, #0
  44 000e 7868     		ldr	r0, [r7, #4]
  45 0010 FFF7FEFF 		bl	memset
  80:Generated_Source\PSoC5/cyfitter_cfg.c **** }
  46              		.loc 1 80 0
  47 0014 00BF     		nop
  48 0016 0837     		adds	r7, r7, #8
  49              		.cfi_def_cfa_offset 8
  50 0018 BD46     		mov	sp, r7
  51              		.cfi_def_cfa_register 13
  52              		@ sp needed
  53 001a 80BD     		pop	{r7, pc}
  54              		.cfi_endproc
  55              	.LFE0:
  56              		.size	CYMEMZERO, .-CYMEMZERO
  57              		.section	.text.CYCONFIGCPY,"ax",%progbits
  58              		.align	2
  59              		.thumb
  60              		.thumb_func
  61              		.type	CYCONFIGCPY, %function
  62              	CYCONFIGCPY:
  63              	.LFB1:
  81:Generated_Source\PSoC5/cyfitter_cfg.c **** CY_CFG_UNUSED
  82:Generated_Source\PSoC5/cyfitter_cfg.c **** static void CYCONFIGCPY(void *dest, const void *src, size_t n);
  83:Generated_Source\PSoC5/cyfitter_cfg.c **** CY_CFG_UNUSED
  84:Generated_Source\PSoC5/cyfitter_cfg.c **** static void CYCONFIGCPY(void *dest, const void *src, size_t n)
  85:Generated_Source\PSoC5/cyfitter_cfg.c **** {
  64              		.loc 1 85 0
  65              		.cfi_startproc
  66              		@ args = 0, pretend = 0, frame = 16
  67              		@ frame_needed = 1, uses_anonymous_args = 0
  68 0000 80B5     		push	{r7, lr}
  69              		.cfi_def_cfa_offset 8
  70              		.cfi_offset 7, -8
  71              		.cfi_offset 14, -4
  72 0002 84B0     		sub	sp, sp, #16
  73              		.cfi_def_cfa_offset 24
  74 0004 00AF     		add	r7, sp, #0
  75              		.cfi_def_cfa_register 7
  76 0006 F860     		str	r0, [r7, #12]
  77 0008 B960     		str	r1, [r7, #8]
  78 000a 7A60     		str	r2, [r7, #4]
  86:Generated_Source\PSoC5/cyfitter_cfg.c **** 	(void)memcpy(dest, src, n);
  79              		.loc 1 86 0
  80 000c 7A68     		ldr	r2, [r7, #4]
  81 000e B968     		ldr	r1, [r7, #8]
  82 0010 F868     		ldr	r0, [r7, #12]
  83 0012 FFF7FEFF 		bl	memcpy
  87:Generated_Source\PSoC5/cyfitter_cfg.c **** }
  84              		.loc 1 87 0
ARM GAS  C:\Users\sdysart\AppData\Local\Temp\ccTd7P7b.s 			page 4


  85 0016 00BF     		nop
  86 0018 1037     		adds	r7, r7, #16
  87              		.cfi_def_cfa_offset 8
  88 001a BD46     		mov	sp, r7
  89              		.cfi_def_cfa_register 13
  90              		@ sp needed
  91 001c 80BD     		pop	{r7, pc}
  92              		.cfi_endproc
  93              	.LFE1:
  94              		.size	CYCONFIGCPY, .-CYCONFIGCPY
  95 001e 00BF     		.section	.text.CYCONFIGCPYCODE,"ax",%progbits
  96              		.align	2
  97              		.thumb
  98              		.thumb_func
  99              		.type	CYCONFIGCPYCODE, %function
 100              	CYCONFIGCPYCODE:
 101              	.LFB2:
  88:Generated_Source\PSoC5/cyfitter_cfg.c **** CY_CFG_UNUSED
  89:Generated_Source\PSoC5/cyfitter_cfg.c **** static void CYCONFIGCPYCODE(void *dest, const void *src, size_t n);
  90:Generated_Source\PSoC5/cyfitter_cfg.c **** CY_CFG_UNUSED
  91:Generated_Source\PSoC5/cyfitter_cfg.c **** static void CYCONFIGCPYCODE(void *dest, const void *src, size_t n)
  92:Generated_Source\PSoC5/cyfitter_cfg.c **** {
 102              		.loc 1 92 0
 103              		.cfi_startproc
 104              		@ args = 0, pretend = 0, frame = 16
 105              		@ frame_needed = 1, uses_anonymous_args = 0
 106 0000 80B5     		push	{r7, lr}
 107              		.cfi_def_cfa_offset 8
 108              		.cfi_offset 7, -8
 109              		.cfi_offset 14, -4
 110 0002 84B0     		sub	sp, sp, #16
 111              		.cfi_def_cfa_offset 24
 112 0004 00AF     		add	r7, sp, #0
 113              		.cfi_def_cfa_register 7
 114 0006 F860     		str	r0, [r7, #12]
 115 0008 B960     		str	r1, [r7, #8]
 116 000a 7A60     		str	r2, [r7, #4]
  93:Generated_Source\PSoC5/cyfitter_cfg.c **** 	(void)memcpy(dest, src, n);
 117              		.loc 1 93 0
 118 000c 7A68     		ldr	r2, [r7, #4]
 119 000e B968     		ldr	r1, [r7, #8]
 120 0010 F868     		ldr	r0, [r7, #12]
 121 0012 FFF7FEFF 		bl	memcpy
  94:Generated_Source\PSoC5/cyfitter_cfg.c **** }
 122              		.loc 1 94 0
 123 0016 00BF     		nop
 124 0018 1037     		adds	r7, r7, #16
 125              		.cfi_def_cfa_offset 8
 126 001a BD46     		mov	sp, r7
 127              		.cfi_def_cfa_register 13
 128              		@ sp needed
 129 001c 80BD     		pop	{r7, pc}
 130              		.cfi_endproc
 131              	.LFE2:
 132              		.size	CYCONFIGCPYCODE, .-CYCONFIGCPYCODE
 133 001e 00BF     		.section	.text.CyClockStartupError,"ax",%progbits
 134              		.align	2
ARM GAS  C:\Users\sdysart\AppData\Local\Temp\ccTd7P7b.s 			page 5


 135              		.thumb
 136              		.thumb_func
 137              		.type	CyClockStartupError, %function
 138              	CyClockStartupError:
 139              	.LFB3:
  95:Generated_Source\PSoC5/cyfitter_cfg.c **** 
  96:Generated_Source\PSoC5/cyfitter_cfg.c **** 
  97:Generated_Source\PSoC5/cyfitter_cfg.c **** 
  98:Generated_Source\PSoC5/cyfitter_cfg.c **** 
  99:Generated_Source\PSoC5/cyfitter_cfg.c **** /* Clock startup error codes                                                   */
 100:Generated_Source\PSoC5/cyfitter_cfg.c **** #define CYCLOCKSTART_NO_ERROR    0u
 101:Generated_Source\PSoC5/cyfitter_cfg.c **** #define CYCLOCKSTART_XTAL_ERROR  1u
 102:Generated_Source\PSoC5/cyfitter_cfg.c **** #define CYCLOCKSTART_32KHZ_ERROR 2u
 103:Generated_Source\PSoC5/cyfitter_cfg.c **** #define CYCLOCKSTART_PLL_ERROR   3u
 104:Generated_Source\PSoC5/cyfitter_cfg.c **** #define CYCLOCKSTART_FLL_ERROR   4u
 105:Generated_Source\PSoC5/cyfitter_cfg.c **** 
 106:Generated_Source\PSoC5/cyfitter_cfg.c **** 
 107:Generated_Source\PSoC5/cyfitter_cfg.c **** #ifdef CY_NEED_CYCLOCKSTARTUPERROR
 108:Generated_Source\PSoC5/cyfitter_cfg.c **** /*******************************************************************************
 109:Generated_Source\PSoC5/cyfitter_cfg.c **** * Function Name: CyClockStartupError
 110:Generated_Source\PSoC5/cyfitter_cfg.c **** ********************************************************************************
 111:Generated_Source\PSoC5/cyfitter_cfg.c **** * Summary:
 112:Generated_Source\PSoC5/cyfitter_cfg.c **** *  If an error is encountered during clock configuration (crystal startup error,
 113:Generated_Source\PSoC5/cyfitter_cfg.c **** *  PLL lock error, etc.), the system will end up here.  Unless reimplemented by
 114:Generated_Source\PSoC5/cyfitter_cfg.c **** *  the customer, this function will stop in an infinite loop.
 115:Generated_Source\PSoC5/cyfitter_cfg.c **** *
 116:Generated_Source\PSoC5/cyfitter_cfg.c **** * Parameters:
 117:Generated_Source\PSoC5/cyfitter_cfg.c **** *   void
 118:Generated_Source\PSoC5/cyfitter_cfg.c **** *
 119:Generated_Source\PSoC5/cyfitter_cfg.c **** * Return:
 120:Generated_Source\PSoC5/cyfitter_cfg.c **** *   void
 121:Generated_Source\PSoC5/cyfitter_cfg.c **** *
 122:Generated_Source\PSoC5/cyfitter_cfg.c **** *******************************************************************************/
 123:Generated_Source\PSoC5/cyfitter_cfg.c **** CY_CFG_UNUSED
 124:Generated_Source\PSoC5/cyfitter_cfg.c **** static void CyClockStartupError(uint8 errorCode);
 125:Generated_Source\PSoC5/cyfitter_cfg.c **** CY_CFG_UNUSED
 126:Generated_Source\PSoC5/cyfitter_cfg.c **** static void CyClockStartupError(uint8 errorCode)
 127:Generated_Source\PSoC5/cyfitter_cfg.c **** {
 140              		.loc 1 127 0
 141              		.cfi_startproc
 142              		@ args = 0, pretend = 0, frame = 8
 143              		@ frame_needed = 1, uses_anonymous_args = 0
 144              		@ link register save eliminated.
 145 0000 80B4     		push	{r7}
 146              		.cfi_def_cfa_offset 4
 147              		.cfi_offset 7, -4
 148 0002 83B0     		sub	sp, sp, #12
 149              		.cfi_def_cfa_offset 16
 150 0004 00AF     		add	r7, sp, #0
 151              		.cfi_def_cfa_register 7
 152 0006 0346     		mov	r3, r0
 153 0008 FB71     		strb	r3, [r7, #7]
 154              	.L5:
 128:Generated_Source\PSoC5/cyfitter_cfg.c ****     /* To remove the compiler warning if errorCode not used. */
 129:Generated_Source\PSoC5/cyfitter_cfg.c **** #if defined(CY_PSOC3) && (CY_PSOC3)
 130:Generated_Source\PSoC5/cyfitter_cfg.c ****     errorCode = errorCode;
 131:Generated_Source\PSoC5/cyfitter_cfg.c **** #else
ARM GAS  C:\Users\sdysart\AppData\Local\Temp\ccTd7P7b.s 			page 6


 132:Generated_Source\PSoC5/cyfitter_cfg.c ****     (void)errorCode;
 133:Generated_Source\PSoC5/cyfitter_cfg.c **** #endif /* CY_PSOC3 */
 134:Generated_Source\PSoC5/cyfitter_cfg.c **** 
 135:Generated_Source\PSoC5/cyfitter_cfg.c ****     /* If we have a clock startup error (bad MHz crystal, PLL lock, etc.),  */
 136:Generated_Source\PSoC5/cyfitter_cfg.c ****     /* we will end up here to allow the customer to implement something to  */
 137:Generated_Source\PSoC5/cyfitter_cfg.c ****     /* deal with the clock condition.                                       */
 138:Generated_Source\PSoC5/cyfitter_cfg.c **** 
 139:Generated_Source\PSoC5/cyfitter_cfg.c **** #ifdef CY_CFG_CLOCK_STARTUP_ERROR_CALLBACK
 140:Generated_Source\PSoC5/cyfitter_cfg.c ****     CY_CFG_Clock_Startup_ErrorCallback();
 141:Generated_Source\PSoC5/cyfitter_cfg.c **** #else
 142:Generated_Source\PSoC5/cyfitter_cfg.c ****     /*  If not using CY_CFG_CLOCK_STARTUP_ERROR_CALLBACK, place your clock startup code here. */
 143:Generated_Source\PSoC5/cyfitter_cfg.c ****     /* `#START CyClockStartupError` */
 144:Generated_Source\PSoC5/cyfitter_cfg.c **** 
 145:Generated_Source\PSoC5/cyfitter_cfg.c **** 
 146:Generated_Source\PSoC5/cyfitter_cfg.c **** 
 147:Generated_Source\PSoC5/cyfitter_cfg.c ****     /* `#END` */
 148:Generated_Source\PSoC5/cyfitter_cfg.c **** 
 149:Generated_Source\PSoC5/cyfitter_cfg.c ****     while(1) {}
 155              		.loc 1 149 0 discriminator 1
 156 000a FEE7     		b	.L5
 157              		.cfi_endproc
 158              	.LFE3:
 159              		.size	CyClockStartupError, .-CyClockStartupError
 160              		.section	.text.cfg_write_bytes32,"ax",%progbits
 161              		.align	2
 162              		.thumb
 163              		.thumb_func
 164              		.type	cfg_write_bytes32, %function
 165              	cfg_write_bytes32:
 166              	.LFB4:
 150:Generated_Source\PSoC5/cyfitter_cfg.c **** #endif /* CY_CFG_CLOCK_STARTUP_ERROR_CALLBACK */
 151:Generated_Source\PSoC5/cyfitter_cfg.c **** }
 152:Generated_Source\PSoC5/cyfitter_cfg.c **** #endif
 153:Generated_Source\PSoC5/cyfitter_cfg.c **** 
 154:Generated_Source\PSoC5/cyfitter_cfg.c **** #define CY_CFG_BASE_ADDR_COUNT 22u
 155:Generated_Source\PSoC5/cyfitter_cfg.c **** CYPACKED typedef struct
 156:Generated_Source\PSoC5/cyfitter_cfg.c **** {
 157:Generated_Source\PSoC5/cyfitter_cfg.c **** 	uint8 offset;
 158:Generated_Source\PSoC5/cyfitter_cfg.c **** 	uint8 value;
 159:Generated_Source\PSoC5/cyfitter_cfg.c **** } CYPACKED_ATTR cy_cfg_addrvalue_t;
 160:Generated_Source\PSoC5/cyfitter_cfg.c **** 
 161:Generated_Source\PSoC5/cyfitter_cfg.c **** 
 162:Generated_Source\PSoC5/cyfitter_cfg.c **** 
 163:Generated_Source\PSoC5/cyfitter_cfg.c **** /*******************************************************************************
 164:Generated_Source\PSoC5/cyfitter_cfg.c **** * Function Name: cfg_write_bytes32
 165:Generated_Source\PSoC5/cyfitter_cfg.c **** ********************************************************************************
 166:Generated_Source\PSoC5/cyfitter_cfg.c **** * Summary:
 167:Generated_Source\PSoC5/cyfitter_cfg.c **** *  This function is used for setting up the chip configuration areas that
 168:Generated_Source\PSoC5/cyfitter_cfg.c **** *  contain relatively sparse data.
 169:Generated_Source\PSoC5/cyfitter_cfg.c **** *
 170:Generated_Source\PSoC5/cyfitter_cfg.c **** * Parameters:
 171:Generated_Source\PSoC5/cyfitter_cfg.c **** *   void
 172:Generated_Source\PSoC5/cyfitter_cfg.c **** *
 173:Generated_Source\PSoC5/cyfitter_cfg.c **** * Return:
 174:Generated_Source\PSoC5/cyfitter_cfg.c **** *   void
 175:Generated_Source\PSoC5/cyfitter_cfg.c **** *
 176:Generated_Source\PSoC5/cyfitter_cfg.c **** *******************************************************************************/
ARM GAS  C:\Users\sdysart\AppData\Local\Temp\ccTd7P7b.s 			page 7


 177:Generated_Source\PSoC5/cyfitter_cfg.c **** static void cfg_write_bytes32(const uint32 addr_table[], const cy_cfg_addrvalue_t data_table[]);
 178:Generated_Source\PSoC5/cyfitter_cfg.c **** static void cfg_write_bytes32(const uint32 addr_table[], const cy_cfg_addrvalue_t data_table[])
 179:Generated_Source\PSoC5/cyfitter_cfg.c **** {
 167              		.loc 1 179 0
 168              		.cfi_startproc
 169              		@ args = 0, pretend = 0, frame = 24
 170              		@ frame_needed = 1, uses_anonymous_args = 0
 171              		@ link register save eliminated.
 172 0000 80B4     		push	{r7}
 173              		.cfi_def_cfa_offset 4
 174              		.cfi_offset 7, -4
 175 0002 87B0     		sub	sp, sp, #28
 176              		.cfi_def_cfa_offset 32
 177 0004 00AF     		add	r7, sp, #0
 178              		.cfi_def_cfa_register 7
 179 0006 7860     		str	r0, [r7, #4]
 180 0008 3960     		str	r1, [r7]
 180:Generated_Source\PSoC5/cyfitter_cfg.c **** 	/* For 32-bit little-endian architectures */
 181:Generated_Source\PSoC5/cyfitter_cfg.c **** 	uint32 i, j = 0u;
 181              		.loc 1 181 0
 182 000a 0023     		movs	r3, #0
 183 000c 3B61     		str	r3, [r7, #16]
 182:Generated_Source\PSoC5/cyfitter_cfg.c **** 	for (i = 0u; i < CY_CFG_BASE_ADDR_COUNT; i++)
 184              		.loc 1 182 0
 185 000e 0023     		movs	r3, #0
 186 0010 7B61     		str	r3, [r7, #20]
 187 0012 27E0     		b	.L7
 188              	.L10:
 189              	.LBB2:
 183:Generated_Source\PSoC5/cyfitter_cfg.c **** 	{
 184:Generated_Source\PSoC5/cyfitter_cfg.c **** 		uint32 baseAddr = addr_table[i];
 190              		.loc 1 184 0
 191 0014 7B69     		ldr	r3, [r7, #20]
 192 0016 9B00     		lsls	r3, r3, #2
 193 0018 7A68     		ldr	r2, [r7, #4]
 194 001a 1344     		add	r3, r3, r2
 195 001c 1B68     		ldr	r3, [r3]
 196 001e BB60     		str	r3, [r7, #8]
 185:Generated_Source\PSoC5/cyfitter_cfg.c **** 		uint8 count = (uint8)baseAddr;
 197              		.loc 1 185 0
 198 0020 BB68     		ldr	r3, [r7, #8]
 199 0022 FB73     		strb	r3, [r7, #15]
 186:Generated_Source\PSoC5/cyfitter_cfg.c **** 		baseAddr &= 0xFFFFFF00u;
 200              		.loc 1 186 0
 201 0024 BB68     		ldr	r3, [r7, #8]
 202 0026 23F0FF03 		bic	r3, r3, #255
 203 002a BB60     		str	r3, [r7, #8]
 187:Generated_Source\PSoC5/cyfitter_cfg.c **** 		while (count != 0u)
 204              		.loc 1 187 0
 205 002c 14E0     		b	.L8
 206              	.L9:
 188:Generated_Source\PSoC5/cyfitter_cfg.c **** 		{
 189:Generated_Source\PSoC5/cyfitter_cfg.c **** 			CY_SET_REG8((void *)(baseAddr + data_table[j].offset), data_table[j].value);
 207              		.loc 1 189 0
 208 002e 3B69     		ldr	r3, [r7, #16]
 209 0030 5B00     		lsls	r3, r3, #1
 210 0032 3A68     		ldr	r2, [r7]
ARM GAS  C:\Users\sdysart\AppData\Local\Temp\ccTd7P7b.s 			page 8


 211 0034 1344     		add	r3, r3, r2
 212 0036 1B78     		ldrb	r3, [r3]	@ zero_extendqisi2
 213 0038 1A46     		mov	r2, r3
 214 003a BB68     		ldr	r3, [r7, #8]
 215 003c 1344     		add	r3, r3, r2
 216 003e 1946     		mov	r1, r3
 217 0040 3B69     		ldr	r3, [r7, #16]
 218 0042 5B00     		lsls	r3, r3, #1
 219 0044 3A68     		ldr	r2, [r7]
 220 0046 1344     		add	r3, r3, r2
 221 0048 5B78     		ldrb	r3, [r3, #1]	@ zero_extendqisi2
 222 004a 0B70     		strb	r3, [r1]
 190:Generated_Source\PSoC5/cyfitter_cfg.c **** 			j++;
 223              		.loc 1 190 0
 224 004c 3B69     		ldr	r3, [r7, #16]
 225 004e 0133     		adds	r3, r3, #1
 226 0050 3B61     		str	r3, [r7, #16]
 191:Generated_Source\PSoC5/cyfitter_cfg.c **** 			count--;
 227              		.loc 1 191 0
 228 0052 FB7B     		ldrb	r3, [r7, #15]	@ zero_extendqisi2
 229 0054 013B     		subs	r3, r3, #1
 230 0056 FB73     		strb	r3, [r7, #15]
 231              	.L8:
 187:Generated_Source\PSoC5/cyfitter_cfg.c **** 		{
 232              		.loc 1 187 0
 233 0058 FB7B     		ldrb	r3, [r7, #15]	@ zero_extendqisi2
 234 005a 002B     		cmp	r3, #0
 235 005c E7D1     		bne	.L9
 236              	.LBE2:
 182:Generated_Source\PSoC5/cyfitter_cfg.c **** 	{
 237              		.loc 1 182 0 discriminator 2
 238 005e 7B69     		ldr	r3, [r7, #20]
 239 0060 0133     		adds	r3, r3, #1
 240 0062 7B61     		str	r3, [r7, #20]
 241              	.L7:
 182:Generated_Source\PSoC5/cyfitter_cfg.c **** 	{
 242              		.loc 1 182 0 is_stmt 0 discriminator 1
 243 0064 7B69     		ldr	r3, [r7, #20]
 244 0066 152B     		cmp	r3, #21
 245 0068 D4D9     		bls	.L10
 192:Generated_Source\PSoC5/cyfitter_cfg.c **** 		}
 193:Generated_Source\PSoC5/cyfitter_cfg.c **** 	}
 194:Generated_Source\PSoC5/cyfitter_cfg.c **** }
 246              		.loc 1 194 0 is_stmt 1
 247 006a 00BF     		nop
 248 006c 1C37     		adds	r7, r7, #28
 249              		.cfi_def_cfa_offset 4
 250 006e BD46     		mov	sp, r7
 251              		.cfi_def_cfa_register 13
 252              		@ sp needed
 253 0070 80BC     		pop	{r7}
 254              		.cfi_restore 7
 255              		.cfi_def_cfa_offset 0
 256 0072 7047     		bx	lr
 257              		.cfi_endproc
 258              	.LFE4:
 259              		.size	cfg_write_bytes32, .-cfg_write_bytes32
ARM GAS  C:\Users\sdysart\AppData\Local\Temp\ccTd7P7b.s 			page 9


 260              		.section	.text.ClockSetup,"ax",%progbits
 261              		.align	2
 262              		.thumb
 263              		.thumb_func
 264              		.type	ClockSetup, %function
 265              	ClockSetup:
 266              	.LFB5:
 195:Generated_Source\PSoC5/cyfitter_cfg.c **** 
 196:Generated_Source\PSoC5/cyfitter_cfg.c **** /*******************************************************************************
 197:Generated_Source\PSoC5/cyfitter_cfg.c **** * Function Name: ClockSetup
 198:Generated_Source\PSoC5/cyfitter_cfg.c **** ********************************************************************************
 199:Generated_Source\PSoC5/cyfitter_cfg.c **** *
 200:Generated_Source\PSoC5/cyfitter_cfg.c **** * Summary:
 201:Generated_Source\PSoC5/cyfitter_cfg.c **** *  Performs the initialization of all of the clocks in the device based on the
 202:Generated_Source\PSoC5/cyfitter_cfg.c **** *  settings in the Clock tab of the DWR.  This includes enabling the requested
 203:Generated_Source\PSoC5/cyfitter_cfg.c **** *  clocks and setting the necessary dividers to produce the desired frequency. 
 204:Generated_Source\PSoC5/cyfitter_cfg.c **** *
 205:Generated_Source\PSoC5/cyfitter_cfg.c **** * Parameters:
 206:Generated_Source\PSoC5/cyfitter_cfg.c **** *  void
 207:Generated_Source\PSoC5/cyfitter_cfg.c **** *
 208:Generated_Source\PSoC5/cyfitter_cfg.c **** * Return:
 209:Generated_Source\PSoC5/cyfitter_cfg.c **** *  void
 210:Generated_Source\PSoC5/cyfitter_cfg.c **** *
 211:Generated_Source\PSoC5/cyfitter_cfg.c **** *******************************************************************************/
 212:Generated_Source\PSoC5/cyfitter_cfg.c **** static void ClockSetup(void);
 213:Generated_Source\PSoC5/cyfitter_cfg.c **** static void ClockSetup(void)
 214:Generated_Source\PSoC5/cyfitter_cfg.c **** {
 267              		.loc 1 214 0
 268              		.cfi_startproc
 269              		@ args = 0, pretend = 0, frame = 8
 270              		@ frame_needed = 1, uses_anonymous_args = 0
 271 0000 80B5     		push	{r7, lr}
 272              		.cfi_def_cfa_offset 8
 273              		.cfi_offset 7, -8
 274              		.cfi_offset 14, -4
 275 0002 82B0     		sub	sp, sp, #8
 276              		.cfi_def_cfa_offset 16
 277 0004 00AF     		add	r7, sp, #0
 278              		.cfi_def_cfa_register 7
 215:Generated_Source\PSoC5/cyfitter_cfg.c **** 	/* CYDEV_CLKDIST_ACFG0_CFG0 Address: CYREG_CLKDIST_ACFG0_CFG0 Size (bytes): 4 */
 216:Generated_Source\PSoC5/cyfitter_cfg.c **** 	static const uint8 CYCODE BS_CYDEV_CLKDIST_ACFG0_CFG0_VAL[] = {
 217:Generated_Source\PSoC5/cyfitter_cfg.c **** 		0x05u, 0x00u, 0x14u, 0x01u};
 218:Generated_Source\PSoC5/cyfitter_cfg.c **** 
 219:Generated_Source\PSoC5/cyfitter_cfg.c **** 	uint32 timeout;
 220:Generated_Source\PSoC5/cyfitter_cfg.c **** 	uint8 pllLock;
 221:Generated_Source\PSoC5/cyfitter_cfg.c **** 
 222:Generated_Source\PSoC5/cyfitter_cfg.c **** 
 223:Generated_Source\PSoC5/cyfitter_cfg.c **** 	/* Configure Digital Clocks based on settings from Clock DWR */
 224:Generated_Source\PSoC5/cyfitter_cfg.c **** 	CY_SET_XTND_REG16((void CYFAR *)(CYREG_CLKDIST_DCFG0_CFG0), 0x0340u);
 279              		.loc 1 224 0
 280 0006 334B     		ldr	r3, .L16
 281 0008 4FF45072 		mov	r2, #832
 282 000c 1A80     		strh	r2, [r3]	@ movhi
 225:Generated_Source\PSoC5/cyfitter_cfg.c **** 	CY_SET_XTND_REG8((void CYFAR *)(CYREG_CLKDIST_DCFG0_CFG0 + 0x2u), 0x18u);
 283              		.loc 1 225 0
 284 000e 324B     		ldr	r3, .L16+4
 285 0010 1822     		movs	r2, #24
ARM GAS  C:\Users\sdysart\AppData\Local\Temp\ccTd7P7b.s 			page 10


 286 0012 1A70     		strb	r2, [r3]
 226:Generated_Source\PSoC5/cyfitter_cfg.c **** 
 227:Generated_Source\PSoC5/cyfitter_cfg.c **** 	/* Configure Analog Clocks based on settings from Clock DWR */
 228:Generated_Source\PSoC5/cyfitter_cfg.c **** 	CYCONFIGCPYCODE((void CYFAR *)(CYREG_CLKDIST_ACFG0_CFG0), (const void CYCODE *)(BS_CYDEV_CLKDIST_A
 287              		.loc 1 228 0
 288 0014 0422     		movs	r2, #4
 289 0016 3149     		ldr	r1, .L16+8
 290 0018 3148     		ldr	r0, .L16+12
 291 001a FFF7FEFF 		bl	CYCONFIGCPYCODE
 229:Generated_Source\PSoC5/cyfitter_cfg.c **** 
 230:Generated_Source\PSoC5/cyfitter_cfg.c **** 	/* Configure ILO based on settings from Clock DWR */
 231:Generated_Source\PSoC5/cyfitter_cfg.c **** 	CY_SET_XTND_REG8((void CYFAR *)(CYREG_SLOWCLK_ILO_CR0), 0x06u);
 292              		.loc 1 231 0
 293 001e 314B     		ldr	r3, .L16+16
 294 0020 0622     		movs	r2, #6
 295 0022 1A70     		strb	r2, [r3]
 232:Generated_Source\PSoC5/cyfitter_cfg.c **** 
 233:Generated_Source\PSoC5/cyfitter_cfg.c **** 	/* Configure IMO based on settings from Clock DWR */
 234:Generated_Source\PSoC5/cyfitter_cfg.c **** 	CY_SET_XTND_REG8((void CYFAR *)(CYREG_FASTCLK_IMO_CR), 0x52u);
 296              		.loc 1 234 0
 297 0024 304B     		ldr	r3, .L16+20
 298 0026 5222     		movs	r2, #82
 299 0028 1A70     		strb	r2, [r3]
 235:Generated_Source\PSoC5/cyfitter_cfg.c **** 	CY_SET_XTND_REG8((void CYFAR *)(CYREG_IMO_TR1), (CY_GET_XTND_REG8((void CYFAR *)CYREG_FLSHID_CUST_
 300              		.loc 1 235 0
 301 002a 304B     		ldr	r3, .L16+24
 302 002c 304A     		ldr	r2, .L16+28
 303 002e 1278     		ldrb	r2, [r2]
 304 0030 D2B2     		uxtb	r2, r2
 305 0032 1A70     		strb	r2, [r3]
 236:Generated_Source\PSoC5/cyfitter_cfg.c **** 
 237:Generated_Source\PSoC5/cyfitter_cfg.c **** 	/* Configure PLL based on settings from Clock DWR */
 238:Generated_Source\PSoC5/cyfitter_cfg.c **** 	CY_SET_XTND_REG16((void CYFAR *)(CYREG_FASTCLK_PLL_P), 0x0818u);
 306              		.loc 1 238 0
 307 0034 2F4B     		ldr	r3, .L16+32
 308 0036 40F61802 		movw	r2, #2072
 309 003a 1A80     		strh	r2, [r3]	@ movhi
 239:Generated_Source\PSoC5/cyfitter_cfg.c **** 	CY_SET_XTND_REG16((void CYFAR *)(CYREG_FASTCLK_PLL_CFG0), 0x1251u);
 310              		.loc 1 239 0
 311 003c 2E4B     		ldr	r3, .L16+36
 312 003e 41F25122 		movw	r2, #4689
 313 0042 1A80     		strh	r2, [r3]	@ movhi
 240:Generated_Source\PSoC5/cyfitter_cfg.c **** 	/* Wait up to 250us for the PLL to lock */
 241:Generated_Source\PSoC5/cyfitter_cfg.c **** 	pllLock = 0u;
 314              		.loc 1 241 0
 315 0044 0023     		movs	r3, #0
 316 0046 FB70     		strb	r3, [r7, #3]
 242:Generated_Source\PSoC5/cyfitter_cfg.c **** 	for (timeout = 250u / 10u; (timeout > 0u) && (pllLock != 0x03u); timeout--)
 317              		.loc 1 242 0
 318 0048 1923     		movs	r3, #25
 319 004a 7B60     		str	r3, [r7, #4]
 320 004c 14E0     		b	.L12
 321              	.L14:
 243:Generated_Source\PSoC5/cyfitter_cfg.c **** 	{ 
 244:Generated_Source\PSoC5/cyfitter_cfg.c **** 		pllLock = 0x03u & ((uint8)((uint8)pllLock << 1) | ((CY_GET_XTND_REG8((void CYFAR *)CYREG_FASTCLK_
 322              		.loc 1 244 0 discriminator 4
 323 004e FB78     		ldrb	r3, [r7, #3]
ARM GAS  C:\Users\sdysart\AppData\Local\Temp\ccTd7P7b.s 			page 11


 324 0050 5B00     		lsls	r3, r3, #1
 325 0052 DAB2     		uxtb	r2, r3
 326 0054 294B     		ldr	r3, .L16+40
 327 0056 1B78     		ldrb	r3, [r3]
 328 0058 DBB2     		uxtb	r3, r3
 329 005a 03F00103 		and	r3, r3, #1
 330 005e DBB2     		uxtb	r3, r3
 331 0060 1343     		orrs	r3, r3, r2
 332 0062 DBB2     		uxtb	r3, r3
 333 0064 03F00303 		and	r3, r3, #3
 334 0068 FB70     		strb	r3, [r7, #3]
 245:Generated_Source\PSoC5/cyfitter_cfg.c **** 		CyDelayCycles(10u * 48u); /* Delay 10us based on 48MHz clock */
 335              		.loc 1 245 0 discriminator 4
 336 006a 4FF4F070 		mov	r0, #480
 337 006e FFF7FEFF 		bl	CyDelayCycles
 242:Generated_Source\PSoC5/cyfitter_cfg.c **** 	for (timeout = 250u / 10u; (timeout > 0u) && (pllLock != 0x03u); timeout--)
 338              		.loc 1 242 0 discriminator 4
 339 0072 7B68     		ldr	r3, [r7, #4]
 340 0074 013B     		subs	r3, r3, #1
 341 0076 7B60     		str	r3, [r7, #4]
 342              	.L12:
 242:Generated_Source\PSoC5/cyfitter_cfg.c **** 	for (timeout = 250u / 10u; (timeout > 0u) && (pllLock != 0x03u); timeout--)
 343              		.loc 1 242 0 is_stmt 0 discriminator 1
 344 0078 7B68     		ldr	r3, [r7, #4]
 345 007a 002B     		cmp	r3, #0
 346 007c 02D0     		beq	.L13
 242:Generated_Source\PSoC5/cyfitter_cfg.c **** 	for (timeout = 250u / 10u; (timeout > 0u) && (pllLock != 0x03u); timeout--)
 347              		.loc 1 242 0 discriminator 3
 348 007e FB78     		ldrb	r3, [r7, #3]	@ zero_extendqisi2
 349 0080 032B     		cmp	r3, #3
 350 0082 E4D1     		bne	.L14
 351              	.L13:
 246:Generated_Source\PSoC5/cyfitter_cfg.c **** 	}
 247:Generated_Source\PSoC5/cyfitter_cfg.c **** 	/* If we ran out of time the PLL didn't lock so go to the error function */
 248:Generated_Source\PSoC5/cyfitter_cfg.c **** 	if (timeout == 0u)
 352              		.loc 1 248 0 is_stmt 1
 353 0084 7B68     		ldr	r3, [r7, #4]
 354 0086 002B     		cmp	r3, #0
 355 0088 02D1     		bne	.L15
 249:Generated_Source\PSoC5/cyfitter_cfg.c **** 	{
 250:Generated_Source\PSoC5/cyfitter_cfg.c **** 		CyClockStartupError(CYCLOCKSTART_PLL_ERROR);
 356              		.loc 1 250 0
 357 008a 0320     		movs	r0, #3
 358 008c FFF7FEFF 		bl	CyClockStartupError
 359              	.L15:
 251:Generated_Source\PSoC5/cyfitter_cfg.c **** 	}
 252:Generated_Source\PSoC5/cyfitter_cfg.c **** 
 253:Generated_Source\PSoC5/cyfitter_cfg.c **** 	/* Configure Bus/Master Clock based on settings from Clock DWR */
 254:Generated_Source\PSoC5/cyfitter_cfg.c **** 	CY_SET_XTND_REG16((void CYFAR *)(CYREG_CLKDIST_MSTR0), 0x0100u);
 360              		.loc 1 254 0
 361 0090 1B4B     		ldr	r3, .L16+44
 362 0092 4FF48072 		mov	r2, #256
 363 0096 1A80     		strh	r2, [r3]	@ movhi
 255:Generated_Source\PSoC5/cyfitter_cfg.c **** 	CY_SET_XTND_REG8((void CYFAR *)(CYREG_CLKDIST_MSTR0), 0x07u);
 364              		.loc 1 255 0
 365 0098 194B     		ldr	r3, .L16+44
 366 009a 0722     		movs	r2, #7
ARM GAS  C:\Users\sdysart\AppData\Local\Temp\ccTd7P7b.s 			page 12


 367 009c 1A70     		strb	r2, [r3]
 256:Generated_Source\PSoC5/cyfitter_cfg.c **** 	CY_SET_XTND_REG8((void CYFAR *)(CYREG_CLKDIST_BCFG0), 0x00u);
 368              		.loc 1 256 0
 369 009e 194B     		ldr	r3, .L16+48
 370 00a0 0022     		movs	r2, #0
 371 00a2 1A70     		strb	r2, [r3]
 257:Generated_Source\PSoC5/cyfitter_cfg.c **** 	CY_SET_XTND_REG8((void CYFAR *)(CYREG_CLKDIST_BCFG2), 0x48u);
 372              		.loc 1 257 0
 373 00a4 184B     		ldr	r3, .L16+52
 374 00a6 4822     		movs	r2, #72
 375 00a8 1A70     		strb	r2, [r3]
 258:Generated_Source\PSoC5/cyfitter_cfg.c **** 	CY_SET_XTND_REG8((void CYFAR *)(CYREG_CLKDIST_MSTR0), 0x00u);
 376              		.loc 1 258 0
 377 00aa 154B     		ldr	r3, .L16+44
 378 00ac 0022     		movs	r2, #0
 379 00ae 1A70     		strb	r2, [r3]
 259:Generated_Source\PSoC5/cyfitter_cfg.c **** 
 260:Generated_Source\PSoC5/cyfitter_cfg.c **** 	/* Configure USB Clock based on settings from Clock DWR */
 261:Generated_Source\PSoC5/cyfitter_cfg.c **** 	CY_SET_XTND_REG8((void CYFAR *)(CYREG_CLKDIST_UCFG), 0x00u);
 380              		.loc 1 261 0
 381 00b0 164B     		ldr	r3, .L16+56
 382 00b2 0022     		movs	r2, #0
 383 00b4 1A70     		strb	r2, [r3]
 262:Generated_Source\PSoC5/cyfitter_cfg.c **** 	CY_SET_XTND_REG8((void CYFAR *)(CYREG_CLKDIST_LD), 0x02u);
 384              		.loc 1 262 0
 385 00b6 164B     		ldr	r3, .L16+60
 386 00b8 0222     		movs	r2, #2
 387 00ba 1A70     		strb	r2, [r3]
 263:Generated_Source\PSoC5/cyfitter_cfg.c **** 
 264:Generated_Source\PSoC5/cyfitter_cfg.c **** 	CY_SET_XTND_REG8((void CYFAR *)(CYREG_PM_ACT_CFG2), ((CY_GET_XTND_REG8((void CYFAR *)CYREG_PM_ACT_
 388              		.loc 1 264 0
 389 00bc 154A     		ldr	r2, .L16+64
 390 00be 154B     		ldr	r3, .L16+64
 391 00c0 1B78     		ldrb	r3, [r3]
 392 00c2 DBB2     		uxtb	r3, r3
 393 00c4 43F00103 		orr	r3, r3, #1
 394 00c8 DBB2     		uxtb	r3, r3
 395 00ca 1370     		strb	r3, [r2]
 265:Generated_Source\PSoC5/cyfitter_cfg.c **** }
 396              		.loc 1 265 0
 397 00cc 00BF     		nop
 398 00ce 0837     		adds	r7, r7, #8
 399              		.cfi_def_cfa_offset 8
 400 00d0 BD46     		mov	sp, r7
 401              		.cfi_def_cfa_register 13
 402              		@ sp needed
 403 00d2 80BD     		pop	{r7, pc}
 404              	.L17:
 405              		.align	2
 406              	.L16:
 407 00d4 80400040 		.word	1073758336
 408 00d8 82400040 		.word	1073758338
 409 00dc 00000000 		.word	BS_CYDEV_CLKDIST_ACFG0_CFG0_VAL.5013
 410 00e0 00410040 		.word	1073758464
 411 00e4 00430040 		.word	1073758976
 412 00e8 00420040 		.word	1073758720
 413 00ec A1460040 		.word	1073759905
ARM GAS  C:\Users\sdysart\AppData\Local\Temp\ccTd7P7b.s 			page 13


 414 00f0 0F010049 		.word	1224737039
 415 00f4 22420040 		.word	1073758754
 416 00f8 20420040 		.word	1073758752
 417 00fc 25420040 		.word	1073758757
 418 0100 04400040 		.word	1073758212
 419 0104 06400040 		.word	1073758214
 420 0108 08400040 		.word	1073758216
 421 010c 09400040 		.word	1073758217
 422 0110 01400040 		.word	1073758209
 423 0114 A2430040 		.word	1073759138
 424              		.cfi_endproc
 425              	.LFE5:
 426              		.size	ClockSetup, .-ClockSetup
 427              		.section	.text.AnalogSetDefault,"ax",%progbits
 428              		.align	2
 429              		.thumb
 430              		.thumb_func
 431              		.type	AnalogSetDefault, %function
 432              	AnalogSetDefault:
 433              	.LFB6:
 266:Generated_Source\PSoC5/cyfitter_cfg.c **** 
 267:Generated_Source\PSoC5/cyfitter_cfg.c **** 
 268:Generated_Source\PSoC5/cyfitter_cfg.c **** /* Analog API Functions */
 269:Generated_Source\PSoC5/cyfitter_cfg.c **** 
 270:Generated_Source\PSoC5/cyfitter_cfg.c **** 
 271:Generated_Source\PSoC5/cyfitter_cfg.c **** /*******************************************************************************
 272:Generated_Source\PSoC5/cyfitter_cfg.c **** * Function Name: AnalogSetDefault
 273:Generated_Source\PSoC5/cyfitter_cfg.c **** ********************************************************************************
 274:Generated_Source\PSoC5/cyfitter_cfg.c **** *
 275:Generated_Source\PSoC5/cyfitter_cfg.c **** * Summary:
 276:Generated_Source\PSoC5/cyfitter_cfg.c **** *  Sets up the analog portions of the chip to default values based on chip
 277:Generated_Source\PSoC5/cyfitter_cfg.c **** *  configuration options from the project.
 278:Generated_Source\PSoC5/cyfitter_cfg.c **** *
 279:Generated_Source\PSoC5/cyfitter_cfg.c **** * Parameters:
 280:Generated_Source\PSoC5/cyfitter_cfg.c **** *  void
 281:Generated_Source\PSoC5/cyfitter_cfg.c **** *
 282:Generated_Source\PSoC5/cyfitter_cfg.c **** * Return:
 283:Generated_Source\PSoC5/cyfitter_cfg.c **** *  void
 284:Generated_Source\PSoC5/cyfitter_cfg.c **** *
 285:Generated_Source\PSoC5/cyfitter_cfg.c **** *******************************************************************************/
 286:Generated_Source\PSoC5/cyfitter_cfg.c **** static void AnalogSetDefault(void);
 287:Generated_Source\PSoC5/cyfitter_cfg.c **** static void AnalogSetDefault(void)
 288:Generated_Source\PSoC5/cyfitter_cfg.c **** {
 434              		.loc 1 288 0
 435              		.cfi_startproc
 436              		@ args = 0, pretend = 0, frame = 8
 437              		@ frame_needed = 1, uses_anonymous_args = 0
 438              		@ link register save eliminated.
 439 0000 80B4     		push	{r7}
 440              		.cfi_def_cfa_offset 4
 441              		.cfi_offset 7, -4
 442 0002 83B0     		sub	sp, sp, #12
 443              		.cfi_def_cfa_offset 16
 444 0004 00AF     		add	r7, sp, #0
 445              		.cfi_def_cfa_register 7
 289:Generated_Source\PSoC5/cyfitter_cfg.c **** 	uint8 bg_xover_inl_trim = CY_GET_XTND_REG8((void CYFAR *)(CYREG_FLSHID_MFG_CFG_BG_XOVER_INL_TRIM +
 446              		.loc 1 289 0
ARM GAS  C:\Users\sdysart\AppData\Local\Temp\ccTd7P7b.s 			page 14


 447 0006 0B4B     		ldr	r3, .L19
 448 0008 1B78     		ldrb	r3, [r3]
 449 000a FB71     		strb	r3, [r7, #7]
 290:Generated_Source\PSoC5/cyfitter_cfg.c **** 	CY_SET_XTND_REG8((void CYFAR *)(CYREG_BG_DFT0), (bg_xover_inl_trim & 0x07u));
 450              		.loc 1 290 0
 451 000c 0A4A     		ldr	r2, .L19+4
 452 000e FB79     		ldrb	r3, [r7, #7]
 453 0010 03F00703 		and	r3, r3, #7
 454 0014 DBB2     		uxtb	r3, r3
 455 0016 1370     		strb	r3, [r2]
 291:Generated_Source\PSoC5/cyfitter_cfg.c **** 	CY_SET_XTND_REG8((void CYFAR *)(CYREG_BG_DFT1), ((bg_xover_inl_trim >> 4) & 0x0Fu));
 456              		.loc 1 291 0
 457 0018 084A     		ldr	r2, .L19+8
 458 001a FB79     		ldrb	r3, [r7, #7]	@ zero_extendqisi2
 459 001c 1B09     		lsrs	r3, r3, #4
 460 001e DBB2     		uxtb	r3, r3
 461 0020 1370     		strb	r3, [r2]
 292:Generated_Source\PSoC5/cyfitter_cfg.c **** 	CY_SET_XTND_REG8((void CYFAR *)CYREG_PUMP_CR0, 0x44u);
 462              		.loc 1 292 0
 463 0022 074B     		ldr	r3, .L19+12
 464 0024 4422     		movs	r2, #68
 465 0026 1A70     		strb	r2, [r3]
 293:Generated_Source\PSoC5/cyfitter_cfg.c **** }
 466              		.loc 1 293 0
 467 0028 00BF     		nop
 468 002a 0C37     		adds	r7, r7, #12
 469              		.cfi_def_cfa_offset 4
 470 002c BD46     		mov	sp, r7
 471              		.cfi_def_cfa_register 13
 472              		@ sp needed
 473 002e 80BC     		pop	{r7}
 474              		.cfi_restore 7
 475              		.cfi_def_cfa_offset 0
 476 0030 7047     		bx	lr
 477              	.L20:
 478 0032 00BF     		.align	2
 479              	.L19:
 480 0034 CF010049 		.word	1224737231
 481 0038 6E580040 		.word	1073764462
 482 003c 6F580040 		.word	1073764463
 483 0040 76580040 		.word	1073764470
 484              		.cfi_endproc
 485              	.LFE6:
 486              		.size	AnalogSetDefault, .-AnalogSetDefault
 487              		.section	.text.SetAnalogRoutingPumps,"ax",%progbits
 488              		.align	2
 489              		.global	SetAnalogRoutingPumps
 490              		.thumb
 491              		.thumb_func
 492              		.type	SetAnalogRoutingPumps, %function
 493              	SetAnalogRoutingPumps:
 494              	.LFB7:
 294:Generated_Source\PSoC5/cyfitter_cfg.c **** 
 295:Generated_Source\PSoC5/cyfitter_cfg.c **** 
 296:Generated_Source\PSoC5/cyfitter_cfg.c **** /*******************************************************************************
 297:Generated_Source\PSoC5/cyfitter_cfg.c **** * Function Name: SetAnalogRoutingPumps
 298:Generated_Source\PSoC5/cyfitter_cfg.c **** ********************************************************************************
ARM GAS  C:\Users\sdysart\AppData\Local\Temp\ccTd7P7b.s 			page 15


 299:Generated_Source\PSoC5/cyfitter_cfg.c **** *
 300:Generated_Source\PSoC5/cyfitter_cfg.c **** * Summary:
 301:Generated_Source\PSoC5/cyfitter_cfg.c **** * Enables or disables the analog pumps feeding analog routing switches.
 302:Generated_Source\PSoC5/cyfitter_cfg.c **** * Intended to be called at startup, based on the Vdda system configuration;
 303:Generated_Source\PSoC5/cyfitter_cfg.c **** * may be called during operation when the user informs us that the Vdda voltage
 304:Generated_Source\PSoC5/cyfitter_cfg.c **** * crossed the pump threshold.
 305:Generated_Source\PSoC5/cyfitter_cfg.c **** *
 306:Generated_Source\PSoC5/cyfitter_cfg.c **** * Parameters:
 307:Generated_Source\PSoC5/cyfitter_cfg.c **** *  enabled - 1 to enable the pumps, 0 to disable the pumps
 308:Generated_Source\PSoC5/cyfitter_cfg.c **** *
 309:Generated_Source\PSoC5/cyfitter_cfg.c **** * Return:
 310:Generated_Source\PSoC5/cyfitter_cfg.c **** *  void
 311:Generated_Source\PSoC5/cyfitter_cfg.c **** *
 312:Generated_Source\PSoC5/cyfitter_cfg.c **** *******************************************************************************/
 313:Generated_Source\PSoC5/cyfitter_cfg.c **** void SetAnalogRoutingPumps(uint8 enabled)
 314:Generated_Source\PSoC5/cyfitter_cfg.c **** {
 495              		.loc 1 314 0
 496              		.cfi_startproc
 497              		@ args = 0, pretend = 0, frame = 16
 498              		@ frame_needed = 1, uses_anonymous_args = 0
 499              		@ link register save eliminated.
 500 0000 80B4     		push	{r7}
 501              		.cfi_def_cfa_offset 4
 502              		.cfi_offset 7, -4
 503 0002 85B0     		sub	sp, sp, #20
 504              		.cfi_def_cfa_offset 24
 505 0004 00AF     		add	r7, sp, #0
 506              		.cfi_def_cfa_register 7
 507 0006 0346     		mov	r3, r0
 508 0008 FB71     		strb	r3, [r7, #7]
 315:Generated_Source\PSoC5/cyfitter_cfg.c **** 	uint8 regValue = CY_GET_XTND_REG8((void CYFAR *)CYREG_PUMP_CR0);
 509              		.loc 1 315 0
 510 000a 064B     		ldr	r3, .L24
 511 000c 1B78     		ldrb	r3, [r3]
 512 000e FB73     		strb	r3, [r7, #15]
 316:Generated_Source\PSoC5/cyfitter_cfg.c **** 	if (enabled != 0u)
 513              		.loc 1 316 0
 514 0010 FB79     		ldrb	r3, [r7, #7]	@ zero_extendqisi2
 515 0012 002B     		cmp	r3, #0
 317:Generated_Source\PSoC5/cyfitter_cfg.c **** 	{
 318:Generated_Source\PSoC5/cyfitter_cfg.c **** 		regValue |= 0x00u;
 319:Generated_Source\PSoC5/cyfitter_cfg.c **** 	}
 320:Generated_Source\PSoC5/cyfitter_cfg.c **** 	else
 321:Generated_Source\PSoC5/cyfitter_cfg.c **** 	{
 322:Generated_Source\PSoC5/cyfitter_cfg.c **** 		regValue &= (uint8)~0x00u;
 323:Generated_Source\PSoC5/cyfitter_cfg.c **** 	}
 324:Generated_Source\PSoC5/cyfitter_cfg.c **** 	CY_SET_XTND_REG8((void CYFAR *)CYREG_PUMP_CR0, regValue);
 516              		.loc 1 324 0
 517 0014 034A     		ldr	r2, .L24
 518 0016 FB7B     		ldrb	r3, [r7, #15]
 519 0018 1370     		strb	r3, [r2]
 325:Generated_Source\PSoC5/cyfitter_cfg.c **** }
 520              		.loc 1 325 0
 521 001a 00BF     		nop
 522 001c 1437     		adds	r7, r7, #20
 523              		.cfi_def_cfa_offset 4
 524 001e BD46     		mov	sp, r7
ARM GAS  C:\Users\sdysart\AppData\Local\Temp\ccTd7P7b.s 			page 16


 525              		.cfi_def_cfa_register 13
 526              		@ sp needed
 527 0020 80BC     		pop	{r7}
 528              		.cfi_restore 7
 529              		.cfi_def_cfa_offset 0
 530 0022 7047     		bx	lr
 531              	.L25:
 532              		.align	2
 533              	.L24:
 534 0024 76580040 		.word	1073764470
 535              		.cfi_endproc
 536              	.LFE7:
 537              		.size	SetAnalogRoutingPumps, .-SetAnalogRoutingPumps
 538              		.section	.text.cyfitter_cfg,"ax",%progbits
 539              		.align	2
 540              		.global	cyfitter_cfg
 541              		.thumb
 542              		.thumb_func
 543              		.type	cyfitter_cfg, %function
 544              	cyfitter_cfg:
 545              	.LFB8:
 326:Generated_Source\PSoC5/cyfitter_cfg.c **** 
 327:Generated_Source\PSoC5/cyfitter_cfg.c **** 
 328:Generated_Source\PSoC5/cyfitter_cfg.c **** 
 329:Generated_Source\PSoC5/cyfitter_cfg.c **** 
 330:Generated_Source\PSoC5/cyfitter_cfg.c **** /*******************************************************************************
 331:Generated_Source\PSoC5/cyfitter_cfg.c **** * Function Name: cyfitter_cfg
 332:Generated_Source\PSoC5/cyfitter_cfg.c **** ********************************************************************************
 333:Generated_Source\PSoC5/cyfitter_cfg.c **** * Summary:
 334:Generated_Source\PSoC5/cyfitter_cfg.c **** *  This function is called by the start-up code for the selected device. It
 335:Generated_Source\PSoC5/cyfitter_cfg.c **** *  performs all of the necessary device configuration based on the design
 336:Generated_Source\PSoC5/cyfitter_cfg.c **** *  settings.  This includes settings from the Design Wide Resources (DWR) such
 337:Generated_Source\PSoC5/cyfitter_cfg.c **** *  as Clocks and Pins as well as any component configuration that is necessary.
 338:Generated_Source\PSoC5/cyfitter_cfg.c **** *
 339:Generated_Source\PSoC5/cyfitter_cfg.c **** * Parameters:
 340:Generated_Source\PSoC5/cyfitter_cfg.c **** *   void
 341:Generated_Source\PSoC5/cyfitter_cfg.c **** *
 342:Generated_Source\PSoC5/cyfitter_cfg.c **** * Return:
 343:Generated_Source\PSoC5/cyfitter_cfg.c **** *   void
 344:Generated_Source\PSoC5/cyfitter_cfg.c **** *
 345:Generated_Source\PSoC5/cyfitter_cfg.c **** *******************************************************************************/
 346:Generated_Source\PSoC5/cyfitter_cfg.c **** 
 347:Generated_Source\PSoC5/cyfitter_cfg.c **** void cyfitter_cfg(void)
 348:Generated_Source\PSoC5/cyfitter_cfg.c **** {
 546              		.loc 1 348 0
 547              		.cfi_startproc
 548              		@ args = 0, pretend = 0, frame = 24
 549              		@ frame_needed = 1, uses_anonymous_args = 0
 550 0000 80B5     		push	{r7, lr}
 551              		.cfi_def_cfa_offset 8
 552              		.cfi_offset 7, -8
 553              		.cfi_offset 14, -4
 554 0002 86B0     		sub	sp, sp, #24
 555              		.cfi_def_cfa_offset 32
 556 0004 00AF     		add	r7, sp, #0
 557              		.cfi_def_cfa_register 7
 349:Generated_Source\PSoC5/cyfitter_cfg.c **** 	/* IOPINS0_7 Address: CYREG_PRT12_DR Size (bytes): 10 */
ARM GAS  C:\Users\sdysart\AppData\Local\Temp\ccTd7P7b.s 			page 17


 350:Generated_Source\PSoC5/cyfitter_cfg.c **** 	static const uint8 CYCODE BS_IOPINS0_7_VAL[] = {
 351:Generated_Source\PSoC5/cyfitter_cfg.c **** 		0x80u, 0x00u, 0x40u, 0x80u, 0x80u, 0x00u, 0x80u, 0x00u, 0x00u, 0x00u};
 352:Generated_Source\PSoC5/cyfitter_cfg.c **** 
 353:Generated_Source\PSoC5/cyfitter_cfg.c **** 	/* IOPINS0_8 Address: CYREG_PRT15_DR Size (bytes): 10 */
 354:Generated_Source\PSoC5/cyfitter_cfg.c **** 	static const uint8 CYCODE BS_IOPINS0_8_VAL[] = {
 355:Generated_Source\PSoC5/cyfitter_cfg.c **** 		0x40u, 0x00u, 0x00u, 0x00u, 0x00u, 0x00u, 0x00u, 0x00u, 0xC0u, 0x00u};
 356:Generated_Source\PSoC5/cyfitter_cfg.c **** 
 357:Generated_Source\PSoC5/cyfitter_cfg.c **** 	/* IOPINS0_1 Address: CYREG_PRT1_DR Size (bytes): 10 */
 358:Generated_Source\PSoC5/cyfitter_cfg.c **** 	static const uint8 CYCODE BS_IOPINS0_1_VAL[] = {
 359:Generated_Source\PSoC5/cyfitter_cfg.c **** 		0x00u, 0x00u, 0x20u, 0x1Fu, 0x1Bu, 0x00u, 0x10u, 0x00u, 0x00u, 0x00u};
 360:Generated_Source\PSoC5/cyfitter_cfg.c **** 
 361:Generated_Source\PSoC5/cyfitter_cfg.c **** 	/* IOPINS0_2 Address: CYREG_PRT2_DM0 Size (bytes): 8 */
 362:Generated_Source\PSoC5/cyfitter_cfg.c **** 	static const uint8 CYCODE BS_IOPINS0_2_VAL[] = {
 363:Generated_Source\PSoC5/cyfitter_cfg.c **** 		0x00u, 0x7Fu, 0x7Fu, 0x00u, 0x00u, 0x00u, 0x00u, 0x00u};
 364:Generated_Source\PSoC5/cyfitter_cfg.c **** 
 365:Generated_Source\PSoC5/cyfitter_cfg.c **** #ifdef CYGlobalIntDisable
 366:Generated_Source\PSoC5/cyfitter_cfg.c **** 	/* Disable interrupts by default. Let user enable if/when they want. */
 367:Generated_Source\PSoC5/cyfitter_cfg.c **** 	CYGlobalIntDisable
 558              		.loc 1 367 0
 559              		.syntax unified
 560              	@ 367 "Generated_Source\PSoC5\cyfitter_cfg.c" 1
 561 0006 72B6     		CPSID   i
 562              	@ 0 "" 2
 368:Generated_Source\PSoC5/cyfitter_cfg.c **** #endif
 369:Generated_Source\PSoC5/cyfitter_cfg.c **** 
 370:Generated_Source\PSoC5/cyfitter_cfg.c **** 
 371:Generated_Source\PSoC5/cyfitter_cfg.c **** 	/* Set Flash Cycles based on max possible frequency in case a glitch occurs during ClockSetup(). *
 372:Generated_Source\PSoC5/cyfitter_cfg.c **** 	CY_SET_XTND_REG8((void CYFAR *)(CYREG_CACHE_CC_CTL), (((CYDEV_INSTRUCT_CACHE_ENABLED) != 0) ? 0x61
 563              		.loc 1 372 0
 564              		.thumb
 565              		.syntax unified
 566 0008 4B4B     		ldr	r3, .L31
 567 000a 6022     		movs	r2, #96
 568 000c 1A70     		strb	r2, [r3]
 373:Generated_Source\PSoC5/cyfitter_cfg.c **** 	/* Setup clocks based on selections from Clock DWR */
 374:Generated_Source\PSoC5/cyfitter_cfg.c **** 	ClockSetup();
 569              		.loc 1 374 0
 570 000e FFF7FEFF 		bl	ClockSetup
 375:Generated_Source\PSoC5/cyfitter_cfg.c **** 	/* Set Flash Cycles based on newly configured 64.00MHz Bus Clock. */
 376:Generated_Source\PSoC5/cyfitter_cfg.c **** 	CY_SET_XTND_REG8((void CYFAR *)(CYREG_CACHE_CC_CTL), (((CYDEV_INSTRUCT_CACHE_ENABLED) != 0) ? 0x01
 571              		.loc 1 376 0
 572 0012 494B     		ldr	r3, .L31
 573 0014 0022     		movs	r2, #0
 574 0016 1A70     		strb	r2, [r3]
 377:Generated_Source\PSoC5/cyfitter_cfg.c **** 	/* Enable/Disable Debug functionality based on settings from System DWR */
 378:Generated_Source\PSoC5/cyfitter_cfg.c **** 	CY_SET_XTND_REG8((void CYFAR *)CYREG_MLOGIC_DEBUG, (CY_GET_XTND_REG8((void CYFAR *)CYREG_MLOGIC_DE
 575              		.loc 1 378 0
 576 0018 484A     		ldr	r2, .L31+4
 577 001a 484B     		ldr	r3, .L31+4
 578 001c 1B78     		ldrb	r3, [r3]
 579 001e DBB2     		uxtb	r3, r3
 580 0020 43F00403 		orr	r3, r3, #4
 581 0024 DBB2     		uxtb	r3, r3
 582 0026 1370     		strb	r3, [r2]
 583              	.LBB3:
 379:Generated_Source\PSoC5/cyfitter_cfg.c **** 
 380:Generated_Source\PSoC5/cyfitter_cfg.c **** 	{
ARM GAS  C:\Users\sdysart\AppData\Local\Temp\ccTd7P7b.s 			page 18


 381:Generated_Source\PSoC5/cyfitter_cfg.c **** 		static const uint32 CYCODE cy_cfg_addr_table[] = {
 382:Generated_Source\PSoC5/cyfitter_cfg.c **** 			0x40004501u, /* Base address: 0x40004500 Count: 1 */
 383:Generated_Source\PSoC5/cyfitter_cfg.c **** 			0x40005203u, /* Base address: 0x40005200 Count: 3 */
 384:Generated_Source\PSoC5/cyfitter_cfg.c **** 			0x40006504u, /* Base address: 0x40006500 Count: 4 */
 385:Generated_Source\PSoC5/cyfitter_cfg.c **** 			0x40011428u, /* Base address: 0x40011400 Count: 40 */
 386:Generated_Source\PSoC5/cyfitter_cfg.c **** 			0x4001150Du, /* Base address: 0x40011500 Count: 13 */
 387:Generated_Source\PSoC5/cyfitter_cfg.c **** 			0x40011634u, /* Base address: 0x40011600 Count: 52 */
 388:Generated_Source\PSoC5/cyfitter_cfg.c **** 			0x40011712u, /* Base address: 0x40011700 Count: 18 */
 389:Generated_Source\PSoC5/cyfitter_cfg.c **** 			0x40011870u, /* Base address: 0x40011800 Count: 112 */
 390:Generated_Source\PSoC5/cyfitter_cfg.c **** 			0x40011945u, /* Base address: 0x40011900 Count: 69 */
 391:Generated_Source\PSoC5/cyfitter_cfg.c **** 			0x40011A10u, /* Base address: 0x40011A00 Count: 16 */
 392:Generated_Source\PSoC5/cyfitter_cfg.c **** 			0x40011B4Fu, /* Base address: 0x40011B00 Count: 79 */
 393:Generated_Source\PSoC5/cyfitter_cfg.c **** 			0x40014006u, /* Base address: 0x40014000 Count: 6 */
 394:Generated_Source\PSoC5/cyfitter_cfg.c **** 			0x40014105u, /* Base address: 0x40014100 Count: 5 */
 395:Generated_Source\PSoC5/cyfitter_cfg.c **** 			0x40014205u, /* Base address: 0x40014200 Count: 5 */
 396:Generated_Source\PSoC5/cyfitter_cfg.c **** 			0x40014305u, /* Base address: 0x40014300 Count: 5 */
 397:Generated_Source\PSoC5/cyfitter_cfg.c **** 			0x40014704u, /* Base address: 0x40014700 Count: 4 */
 398:Generated_Source\PSoC5/cyfitter_cfg.c **** 			0x40014806u, /* Base address: 0x40014800 Count: 6 */
 399:Generated_Source\PSoC5/cyfitter_cfg.c **** 			0x40014904u, /* Base address: 0x40014900 Count: 4 */
 400:Generated_Source\PSoC5/cyfitter_cfg.c **** 			0x40014C06u, /* Base address: 0x40014C00 Count: 6 */
 401:Generated_Source\PSoC5/cyfitter_cfg.c **** 			0x40014D0Cu, /* Base address: 0x40014D00 Count: 12 */
 402:Generated_Source\PSoC5/cyfitter_cfg.c **** 			0x40015005u, /* Base address: 0x40015000 Count: 5 */
 403:Generated_Source\PSoC5/cyfitter_cfg.c **** 			0x40015102u, /* Base address: 0x40015100 Count: 2 */
 404:Generated_Source\PSoC5/cyfitter_cfg.c **** 		};
 405:Generated_Source\PSoC5/cyfitter_cfg.c **** 
 406:Generated_Source\PSoC5/cyfitter_cfg.c **** 		static const cy_cfg_addrvalue_t CYCODE cy_cfg_data_table[] = {
 407:Generated_Source\PSoC5/cyfitter_cfg.c **** 			{0x7Eu, 0x02u},
 408:Generated_Source\PSoC5/cyfitter_cfg.c **** 			{0x08u, 0x10u},
 409:Generated_Source\PSoC5/cyfitter_cfg.c **** 			{0x61u, 0x80u},
 410:Generated_Source\PSoC5/cyfitter_cfg.c **** 			{0x7Cu, 0x40u},
 411:Generated_Source\PSoC5/cyfitter_cfg.c **** 			{0x87u, 0x0Du},
 412:Generated_Source\PSoC5/cyfitter_cfg.c **** 			{0x88u, 0x0Fu},
 413:Generated_Source\PSoC5/cyfitter_cfg.c **** 			{0x8Au, 0x72u},
 414:Generated_Source\PSoC5/cyfitter_cfg.c **** 			{0x8Bu, 0x38u},
 415:Generated_Source\PSoC5/cyfitter_cfg.c **** 			{0x40u, 0x45u},
 416:Generated_Source\PSoC5/cyfitter_cfg.c **** 			{0x49u, 0xFFu},
 417:Generated_Source\PSoC5/cyfitter_cfg.c **** 			{0x4Au, 0xFFu},
 418:Generated_Source\PSoC5/cyfitter_cfg.c **** 			{0x4Bu, 0xFFu},
 419:Generated_Source\PSoC5/cyfitter_cfg.c **** 			{0x4Fu, 0x01u},
 420:Generated_Source\PSoC5/cyfitter_cfg.c **** 			{0x50u, 0x18u},
 421:Generated_Source\PSoC5/cyfitter_cfg.c **** 			{0x5Au, 0x04u},
 422:Generated_Source\PSoC5/cyfitter_cfg.c **** 			{0x5Du, 0x09u},
 423:Generated_Source\PSoC5/cyfitter_cfg.c **** 			{0x5Fu, 0x01u},
 424:Generated_Source\PSoC5/cyfitter_cfg.c **** 			{0x60u, 0x40u},
 425:Generated_Source\PSoC5/cyfitter_cfg.c **** 			{0x62u, 0x40u},
 426:Generated_Source\PSoC5/cyfitter_cfg.c **** 			{0x64u, 0x40u},
 427:Generated_Source\PSoC5/cyfitter_cfg.c **** 			{0x65u, 0x40u},
 428:Generated_Source\PSoC5/cyfitter_cfg.c **** 			{0x66u, 0x80u},
 429:Generated_Source\PSoC5/cyfitter_cfg.c **** 			{0x68u, 0x80u},
 430:Generated_Source\PSoC5/cyfitter_cfg.c **** 			{0x6Au, 0x80u},
 431:Generated_Source\PSoC5/cyfitter_cfg.c **** 			{0x6Cu, 0x80u},
 432:Generated_Source\PSoC5/cyfitter_cfg.c **** 			{0x6Eu, 0x80u},
 433:Generated_Source\PSoC5/cyfitter_cfg.c **** 			{0xC0u, 0x45u},
 434:Generated_Source\PSoC5/cyfitter_cfg.c **** 			{0xC9u, 0xFFu},
 435:Generated_Source\PSoC5/cyfitter_cfg.c **** 			{0xCAu, 0xFFu},
 436:Generated_Source\PSoC5/cyfitter_cfg.c **** 			{0xCBu, 0xFFu},
 437:Generated_Source\PSoC5/cyfitter_cfg.c **** 			{0xCDu, 0x83u},
ARM GAS  C:\Users\sdysart\AppData\Local\Temp\ccTd7P7b.s 			page 19


 438:Generated_Source\PSoC5/cyfitter_cfg.c **** 			{0xCEu, 0x03u},
 439:Generated_Source\PSoC5/cyfitter_cfg.c **** 			{0xCFu, 0x01u},
 440:Generated_Source\PSoC5/cyfitter_cfg.c **** 			{0xD0u, 0x18u},
 441:Generated_Source\PSoC5/cyfitter_cfg.c **** 			{0xD2u, 0x80u},
 442:Generated_Source\PSoC5/cyfitter_cfg.c **** 			{0xDAu, 0x04u},
 443:Generated_Source\PSoC5/cyfitter_cfg.c **** 			{0xDBu, 0x04u},
 444:Generated_Source\PSoC5/cyfitter_cfg.c **** 			{0xDDu, 0x99u},
 445:Generated_Source\PSoC5/cyfitter_cfg.c **** 			{0xDFu, 0x01u},
 446:Generated_Source\PSoC5/cyfitter_cfg.c **** 			{0xE0u, 0x40u},
 447:Generated_Source\PSoC5/cyfitter_cfg.c **** 			{0xE2u, 0x40u},
 448:Generated_Source\PSoC5/cyfitter_cfg.c **** 			{0xE4u, 0x40u},
 449:Generated_Source\PSoC5/cyfitter_cfg.c **** 			{0xE5u, 0x40u},
 450:Generated_Source\PSoC5/cyfitter_cfg.c **** 			{0xE6u, 0x80u},
 451:Generated_Source\PSoC5/cyfitter_cfg.c **** 			{0xE8u, 0x80u},
 452:Generated_Source\PSoC5/cyfitter_cfg.c **** 			{0xEAu, 0x80u},
 453:Generated_Source\PSoC5/cyfitter_cfg.c **** 			{0xECu, 0x80u},
 454:Generated_Source\PSoC5/cyfitter_cfg.c **** 			{0xEEu, 0x80u},
 455:Generated_Source\PSoC5/cyfitter_cfg.c **** 			{0x42u, 0x80u},
 456:Generated_Source\PSoC5/cyfitter_cfg.c **** 			{0x46u, 0x80u},
 457:Generated_Source\PSoC5/cyfitter_cfg.c **** 			{0x48u, 0x02u},
 458:Generated_Source\PSoC5/cyfitter_cfg.c **** 			{0x4Cu, 0x02u},
 459:Generated_Source\PSoC5/cyfitter_cfg.c **** 			{0x74u, 0x01u},
 460:Generated_Source\PSoC5/cyfitter_cfg.c **** 			{0x76u, 0x80u},
 461:Generated_Source\PSoC5/cyfitter_cfg.c **** 			{0x9Eu, 0x80u},
 462:Generated_Source\PSoC5/cyfitter_cfg.c **** 			{0xA0u, 0x02u},
 463:Generated_Source\PSoC5/cyfitter_cfg.c **** 			{0xA4u, 0x01u},
 464:Generated_Source\PSoC5/cyfitter_cfg.c **** 			{0xADu, 0x20u},
 465:Generated_Source\PSoC5/cyfitter_cfg.c **** 			{0xD0u, 0x81u},
 466:Generated_Source\PSoC5/cyfitter_cfg.c **** 			{0xD2u, 0x18u},
 467:Generated_Source\PSoC5/cyfitter_cfg.c **** 			{0xE2u, 0x40u},
 468:Generated_Source\PSoC5/cyfitter_cfg.c **** 			{0x40u, 0x45u},
 469:Generated_Source\PSoC5/cyfitter_cfg.c **** 			{0x49u, 0xFFu},
 470:Generated_Source\PSoC5/cyfitter_cfg.c **** 			{0x4Au, 0xFFu},
 471:Generated_Source\PSoC5/cyfitter_cfg.c **** 			{0x4Bu, 0xFFu},
 472:Generated_Source\PSoC5/cyfitter_cfg.c **** 			{0x4Du, 0x83u},
 473:Generated_Source\PSoC5/cyfitter_cfg.c **** 			{0x4Eu, 0x03u},
 474:Generated_Source\PSoC5/cyfitter_cfg.c **** 			{0x4Fu, 0x01u},
 475:Generated_Source\PSoC5/cyfitter_cfg.c **** 			{0x50u, 0x18u},
 476:Generated_Source\PSoC5/cyfitter_cfg.c **** 			{0x5Au, 0x04u},
 477:Generated_Source\PSoC5/cyfitter_cfg.c **** 			{0x5Du, 0x09u},
 478:Generated_Source\PSoC5/cyfitter_cfg.c **** 			{0x5Fu, 0x01u},
 479:Generated_Source\PSoC5/cyfitter_cfg.c **** 			{0x60u, 0x40u},
 480:Generated_Source\PSoC5/cyfitter_cfg.c **** 			{0x62u, 0x40u},
 481:Generated_Source\PSoC5/cyfitter_cfg.c **** 			{0x64u, 0x40u},
 482:Generated_Source\PSoC5/cyfitter_cfg.c **** 			{0x65u, 0x40u},
 483:Generated_Source\PSoC5/cyfitter_cfg.c **** 			{0x66u, 0x80u},
 484:Generated_Source\PSoC5/cyfitter_cfg.c **** 			{0x68u, 0x80u},
 485:Generated_Source\PSoC5/cyfitter_cfg.c **** 			{0x6Au, 0x80u},
 486:Generated_Source\PSoC5/cyfitter_cfg.c **** 			{0x6Cu, 0x80u},
 487:Generated_Source\PSoC5/cyfitter_cfg.c **** 			{0x6Eu, 0x80u},
 488:Generated_Source\PSoC5/cyfitter_cfg.c **** 			{0x82u, 0x01u},
 489:Generated_Source\PSoC5/cyfitter_cfg.c **** 			{0xAEu, 0x01u},
 490:Generated_Source\PSoC5/cyfitter_cfg.c **** 			{0xB4u, 0x01u},
 491:Generated_Source\PSoC5/cyfitter_cfg.c **** 			{0xB6u, 0x01u},
 492:Generated_Source\PSoC5/cyfitter_cfg.c **** 			{0xBEu, 0x40u},
 493:Generated_Source\PSoC5/cyfitter_cfg.c **** 			{0xC0u, 0x54u},
 494:Generated_Source\PSoC5/cyfitter_cfg.c **** 			{0xC5u, 0xECu},
ARM GAS  C:\Users\sdysart\AppData\Local\Temp\ccTd7P7b.s 			page 20


 495:Generated_Source\PSoC5/cyfitter_cfg.c **** 			{0xC7u, 0x20u},
 496:Generated_Source\PSoC5/cyfitter_cfg.c **** 			{0xC8u, 0x23u},
 497:Generated_Source\PSoC5/cyfitter_cfg.c **** 			{0xC9u, 0xFFu},
 498:Generated_Source\PSoC5/cyfitter_cfg.c **** 			{0xCAu, 0xFFu},
 499:Generated_Source\PSoC5/cyfitter_cfg.c **** 			{0xCBu, 0xFFu},
 500:Generated_Source\PSoC5/cyfitter_cfg.c **** 			{0xCDu, 0x83u},
 501:Generated_Source\PSoC5/cyfitter_cfg.c **** 			{0xCEu, 0x03u},
 502:Generated_Source\PSoC5/cyfitter_cfg.c **** 			{0xCFu, 0x01u},
 503:Generated_Source\PSoC5/cyfitter_cfg.c **** 			{0xD0u, 0x18u},
 504:Generated_Source\PSoC5/cyfitter_cfg.c **** 			{0xD4u, 0x01u},
 505:Generated_Source\PSoC5/cyfitter_cfg.c **** 			{0xD8u, 0x04u},
 506:Generated_Source\PSoC5/cyfitter_cfg.c **** 			{0xDAu, 0x04u},
 507:Generated_Source\PSoC5/cyfitter_cfg.c **** 			{0xDBu, 0x04u},
 508:Generated_Source\PSoC5/cyfitter_cfg.c **** 			{0xDCu, 0x09u},
 509:Generated_Source\PSoC5/cyfitter_cfg.c **** 			{0xDDu, 0x99u},
 510:Generated_Source\PSoC5/cyfitter_cfg.c **** 			{0xDFu, 0x01u},
 511:Generated_Source\PSoC5/cyfitter_cfg.c **** 			{0xE0u, 0x40u},
 512:Generated_Source\PSoC5/cyfitter_cfg.c **** 			{0xE2u, 0x40u},
 513:Generated_Source\PSoC5/cyfitter_cfg.c **** 			{0xE4u, 0x40u},
 514:Generated_Source\PSoC5/cyfitter_cfg.c **** 			{0xE5u, 0x40u},
 515:Generated_Source\PSoC5/cyfitter_cfg.c **** 			{0xE6u, 0x80u},
 516:Generated_Source\PSoC5/cyfitter_cfg.c **** 			{0xE8u, 0x80u},
 517:Generated_Source\PSoC5/cyfitter_cfg.c **** 			{0xEAu, 0x80u},
 518:Generated_Source\PSoC5/cyfitter_cfg.c **** 			{0xECu, 0x80u},
 519:Generated_Source\PSoC5/cyfitter_cfg.c **** 			{0xEEu, 0x80u},
 520:Generated_Source\PSoC5/cyfitter_cfg.c **** 			{0x00u, 0x02u},
 521:Generated_Source\PSoC5/cyfitter_cfg.c **** 			{0x10u, 0x02u},
 522:Generated_Source\PSoC5/cyfitter_cfg.c **** 			{0x19u, 0x60u},
 523:Generated_Source\PSoC5/cyfitter_cfg.c **** 			{0x41u, 0x01u},
 524:Generated_Source\PSoC5/cyfitter_cfg.c **** 			{0x46u, 0x80u},
 525:Generated_Source\PSoC5/cyfitter_cfg.c **** 			{0x48u, 0x01u},
 526:Generated_Source\PSoC5/cyfitter_cfg.c **** 			{0x49u, 0x05u},
 527:Generated_Source\PSoC5/cyfitter_cfg.c **** 			{0x4Cu, 0x02u},
 528:Generated_Source\PSoC5/cyfitter_cfg.c **** 			{0x50u, 0x02u},
 529:Generated_Source\PSoC5/cyfitter_cfg.c **** 			{0x51u, 0x01u},
 530:Generated_Source\PSoC5/cyfitter_cfg.c **** 			{0x59u, 0x45u},
 531:Generated_Source\PSoC5/cyfitter_cfg.c **** 			{0xC0u, 0x08u},
 532:Generated_Source\PSoC5/cyfitter_cfg.c **** 			{0xC4u, 0x01u},
 533:Generated_Source\PSoC5/cyfitter_cfg.c **** 			{0xD0u, 0x81u},
 534:Generated_Source\PSoC5/cyfitter_cfg.c **** 			{0xD2u, 0x18u},
 535:Generated_Source\PSoC5/cyfitter_cfg.c **** 			{0xD6u, 0x0Bu},
 536:Generated_Source\PSoC5/cyfitter_cfg.c **** 			{0xEAu, 0x02u},
 537:Generated_Source\PSoC5/cyfitter_cfg.c **** 			{0xEEu, 0x0Au},
 538:Generated_Source\PSoC5/cyfitter_cfg.c **** 			{0x00u, 0x0Cu},
 539:Generated_Source\PSoC5/cyfitter_cfg.c **** 			{0x02u, 0x71u},
 540:Generated_Source\PSoC5/cyfitter_cfg.c **** 			{0x03u, 0x10u},
 541:Generated_Source\PSoC5/cyfitter_cfg.c **** 			{0x04u, 0xDCu},
 542:Generated_Source\PSoC5/cyfitter_cfg.c **** 			{0x05u, 0x12u},
 543:Generated_Source\PSoC5/cyfitter_cfg.c **** 			{0x06u, 0x22u},
 544:Generated_Source\PSoC5/cyfitter_cfg.c **** 			{0x07u, 0xACu},
 545:Generated_Source\PSoC5/cyfitter_cfg.c **** 			{0x08u, 0x10u},
 546:Generated_Source\PSoC5/cyfitter_cfg.c **** 			{0x0Au, 0x40u},
 547:Generated_Source\PSoC5/cyfitter_cfg.c **** 			{0x0Cu, 0x09u},
 548:Generated_Source\PSoC5/cyfitter_cfg.c **** 			{0x0Du, 0x03u},
 549:Generated_Source\PSoC5/cyfitter_cfg.c **** 			{0x0Eu, 0xD0u},
 550:Generated_Source\PSoC5/cyfitter_cfg.c **** 			{0x0Fu, 0x84u},
 551:Generated_Source\PSoC5/cyfitter_cfg.c **** 			{0x11u, 0x40u},
ARM GAS  C:\Users\sdysart\AppData\Local\Temp\ccTd7P7b.s 			page 21


 552:Generated_Source\PSoC5/cyfitter_cfg.c **** 			{0x13u, 0x8Du},
 553:Generated_Source\PSoC5/cyfitter_cfg.c **** 			{0x16u, 0x03u},
 554:Generated_Source\PSoC5/cyfitter_cfg.c **** 			{0x18u, 0x14u},
 555:Generated_Source\PSoC5/cyfitter_cfg.c **** 			{0x19u, 0xA3u},
 556:Generated_Source\PSoC5/cyfitter_cfg.c **** 			{0x1Bu, 0x1Cu},
 557:Generated_Source\PSoC5/cyfitter_cfg.c **** 			{0x1Eu, 0x20u},
 558:Generated_Source\PSoC5/cyfitter_cfg.c **** 			{0x21u, 0xA3u},
 559:Generated_Source\PSoC5/cyfitter_cfg.c **** 			{0x23u, 0x0Cu},
 560:Generated_Source\PSoC5/cyfitter_cfg.c **** 			{0x24u, 0x10u},
 561:Generated_Source\PSoC5/cyfitter_cfg.c **** 			{0x26u, 0xACu},
 562:Generated_Source\PSoC5/cyfitter_cfg.c **** 			{0x29u, 0x03u},
 563:Generated_Source\PSoC5/cyfitter_cfg.c **** 			{0x2Bu, 0x08u},
 564:Generated_Source\PSoC5/cyfitter_cfg.c **** 			{0x31u, 0x80u},
 565:Generated_Source\PSoC5/cyfitter_cfg.c **** 			{0x32u, 0x1Fu},
 566:Generated_Source\PSoC5/cyfitter_cfg.c **** 			{0x35u, 0x1Fu},
 567:Generated_Source\PSoC5/cyfitter_cfg.c **** 			{0x36u, 0xE0u},
 568:Generated_Source\PSoC5/cyfitter_cfg.c **** 			{0x37u, 0x60u},
 569:Generated_Source\PSoC5/cyfitter_cfg.c **** 			{0x39u, 0x80u},
 570:Generated_Source\PSoC5/cyfitter_cfg.c **** 			{0x3Au, 0x80u},
 571:Generated_Source\PSoC5/cyfitter_cfg.c **** 			{0x3Bu, 0x20u},
 572:Generated_Source\PSoC5/cyfitter_cfg.c **** 			{0x3Fu, 0x01u},
 573:Generated_Source\PSoC5/cyfitter_cfg.c **** 			{0x40u, 0x35u},
 574:Generated_Source\PSoC5/cyfitter_cfg.c **** 			{0x41u, 0x04u},
 575:Generated_Source\PSoC5/cyfitter_cfg.c **** 			{0x45u, 0x0Bu},
 576:Generated_Source\PSoC5/cyfitter_cfg.c **** 			{0x46u, 0x0Cu},
 577:Generated_Source\PSoC5/cyfitter_cfg.c **** 			{0x47u, 0xE0u},
 578:Generated_Source\PSoC5/cyfitter_cfg.c **** 			{0x48u, 0x25u},
 579:Generated_Source\PSoC5/cyfitter_cfg.c **** 			{0x49u, 0xFFu},
 580:Generated_Source\PSoC5/cyfitter_cfg.c **** 			{0x4Au, 0xFFu},
 581:Generated_Source\PSoC5/cyfitter_cfg.c **** 			{0x4Bu, 0xFFu},
 582:Generated_Source\PSoC5/cyfitter_cfg.c **** 			{0x4Eu, 0xF0u},
 583:Generated_Source\PSoC5/cyfitter_cfg.c **** 			{0x4Fu, 0x44u},
 584:Generated_Source\PSoC5/cyfitter_cfg.c **** 			{0x50u, 0x0Cu},
 585:Generated_Source\PSoC5/cyfitter_cfg.c **** 			{0x54u, 0x01u},
 586:Generated_Source\PSoC5/cyfitter_cfg.c **** 			{0x58u, 0x04u},
 587:Generated_Source\PSoC5/cyfitter_cfg.c **** 			{0x59u, 0x04u},
 588:Generated_Source\PSoC5/cyfitter_cfg.c **** 			{0x5Au, 0x04u},
 589:Generated_Source\PSoC5/cyfitter_cfg.c **** 			{0x5Bu, 0x04u},
 590:Generated_Source\PSoC5/cyfitter_cfg.c **** 			{0x5Fu, 0x01u},
 591:Generated_Source\PSoC5/cyfitter_cfg.c **** 			{0x66u, 0xC0u},
 592:Generated_Source\PSoC5/cyfitter_cfg.c **** 			{0x6Au, 0x40u},
 593:Generated_Source\PSoC5/cyfitter_cfg.c **** 			{0x6Bu, 0x02u},
 594:Generated_Source\PSoC5/cyfitter_cfg.c **** 			{0x80u, 0x31u},
 595:Generated_Source\PSoC5/cyfitter_cfg.c **** 			{0x82u, 0x0Eu},
 596:Generated_Source\PSoC5/cyfitter_cfg.c **** 			{0x85u, 0x27u},
 597:Generated_Source\PSoC5/cyfitter_cfg.c **** 			{0x86u, 0x08u},
 598:Generated_Source\PSoC5/cyfitter_cfg.c **** 			{0x88u, 0x40u},
 599:Generated_Source\PSoC5/cyfitter_cfg.c **** 			{0x8Au, 0x80u},
 600:Generated_Source\PSoC5/cyfitter_cfg.c **** 			{0x8Du, 0x01u},
 601:Generated_Source\PSoC5/cyfitter_cfg.c **** 			{0x8Eu, 0x13u},
 602:Generated_Source\PSoC5/cyfitter_cfg.c **** 			{0x8Fu, 0x0Eu},
 603:Generated_Source\PSoC5/cyfitter_cfg.c **** 			{0x90u, 0x80u},
 604:Generated_Source\PSoC5/cyfitter_cfg.c **** 			{0x92u, 0x40u},
 605:Generated_Source\PSoC5/cyfitter_cfg.c **** 			{0x94u, 0xC0u},
 606:Generated_Source\PSoC5/cyfitter_cfg.c **** 			{0x95u, 0x27u},
 607:Generated_Source\PSoC5/cyfitter_cfg.c **** 			{0x98u, 0x2Cu},
 608:Generated_Source\PSoC5/cyfitter_cfg.c **** 			{0x9Au, 0x03u},
ARM GAS  C:\Users\sdysart\AppData\Local\Temp\ccTd7P7b.s 			page 22


 609:Generated_Source\PSoC5/cyfitter_cfg.c **** 			{0x9Du, 0x20u},
 610:Generated_Source\PSoC5/cyfitter_cfg.c **** 			{0xA2u, 0x0Cu},
 611:Generated_Source\PSoC5/cyfitter_cfg.c **** 			{0xA4u, 0x31u},
 612:Generated_Source\PSoC5/cyfitter_cfg.c **** 			{0xA6u, 0x06u},
 613:Generated_Source\PSoC5/cyfitter_cfg.c **** 			{0xA8u, 0xC0u},
 614:Generated_Source\PSoC5/cyfitter_cfg.c **** 			{0xA9u, 0x02u},
 615:Generated_Source\PSoC5/cyfitter_cfg.c **** 			{0xABu, 0x11u},
 616:Generated_Source\PSoC5/cyfitter_cfg.c **** 			{0xADu, 0x04u},
 617:Generated_Source\PSoC5/cyfitter_cfg.c **** 			{0xAFu, 0x51u},
 618:Generated_Source\PSoC5/cyfitter_cfg.c **** 			{0xB0u, 0x30u},
 619:Generated_Source\PSoC5/cyfitter_cfg.c **** 			{0xB1u, 0x07u},
 620:Generated_Source\PSoC5/cyfitter_cfg.c **** 			{0xB2u, 0xC0u},
 621:Generated_Source\PSoC5/cyfitter_cfg.c **** 			{0xB3u, 0x18u},
 622:Generated_Source\PSoC5/cyfitter_cfg.c **** 			{0xB4u, 0x0Fu},
 623:Generated_Source\PSoC5/cyfitter_cfg.c **** 			{0xB5u, 0x40u},
 624:Generated_Source\PSoC5/cyfitter_cfg.c **** 			{0xB7u, 0x20u},
 625:Generated_Source\PSoC5/cyfitter_cfg.c **** 			{0xB8u, 0x02u},
 626:Generated_Source\PSoC5/cyfitter_cfg.c **** 			{0xBAu, 0x20u},
 627:Generated_Source\PSoC5/cyfitter_cfg.c **** 			{0xBEu, 0x01u},
 628:Generated_Source\PSoC5/cyfitter_cfg.c **** 			{0xBFu, 0x04u},
 629:Generated_Source\PSoC5/cyfitter_cfg.c **** 			{0xC0u, 0x04u},
 630:Generated_Source\PSoC5/cyfitter_cfg.c **** 			{0xC6u, 0x40u},
 631:Generated_Source\PSoC5/cyfitter_cfg.c **** 			{0xC9u, 0xFFu},
 632:Generated_Source\PSoC5/cyfitter_cfg.c **** 			{0xCAu, 0x07u},
 633:Generated_Source\PSoC5/cyfitter_cfg.c **** 			{0xCBu, 0xFFu},
 634:Generated_Source\PSoC5/cyfitter_cfg.c **** 			{0xCCu, 0x40u},
 635:Generated_Source\PSoC5/cyfitter_cfg.c **** 			{0xCDu, 0x20u},
 636:Generated_Source\PSoC5/cyfitter_cfg.c **** 			{0xCEu, 0xF0u},
 637:Generated_Source\PSoC5/cyfitter_cfg.c **** 			{0xCFu, 0x05u},
 638:Generated_Source\PSoC5/cyfitter_cfg.c **** 			{0xD0u, 0x08u},
 639:Generated_Source\PSoC5/cyfitter_cfg.c **** 			{0xD6u, 0x08u},
 640:Generated_Source\PSoC5/cyfitter_cfg.c **** 			{0xD8u, 0x04u},
 641:Generated_Source\PSoC5/cyfitter_cfg.c **** 			{0xD9u, 0x04u},
 642:Generated_Source\PSoC5/cyfitter_cfg.c **** 			{0xDAu, 0x04u},
 643:Generated_Source\PSoC5/cyfitter_cfg.c **** 			{0xDBu, 0x04u},
 644:Generated_Source\PSoC5/cyfitter_cfg.c **** 			{0xDDu, 0x90u},
 645:Generated_Source\PSoC5/cyfitter_cfg.c **** 			{0xDFu, 0x01u},
 646:Generated_Source\PSoC5/cyfitter_cfg.c **** 			{0xE0u, 0x40u},
 647:Generated_Source\PSoC5/cyfitter_cfg.c **** 			{0xE1u, 0xA8u},
 648:Generated_Source\PSoC5/cyfitter_cfg.c **** 			{0xE2u, 0x40u},
 649:Generated_Source\PSoC5/cyfitter_cfg.c **** 			{0xE3u, 0x20u},
 650:Generated_Source\PSoC5/cyfitter_cfg.c **** 			{0x00u, 0x80u},
 651:Generated_Source\PSoC5/cyfitter_cfg.c **** 			{0x02u, 0x42u},
 652:Generated_Source\PSoC5/cyfitter_cfg.c **** 			{0x03u, 0xA8u},
 653:Generated_Source\PSoC5/cyfitter_cfg.c **** 			{0x04u, 0x24u},
 654:Generated_Source\PSoC5/cyfitter_cfg.c **** 			{0x06u, 0x42u},
 655:Generated_Source\PSoC5/cyfitter_cfg.c **** 			{0x07u, 0x02u},
 656:Generated_Source\PSoC5/cyfitter_cfg.c **** 			{0x08u, 0x02u},
 657:Generated_Source\PSoC5/cyfitter_cfg.c **** 			{0x09u, 0x08u},
 658:Generated_Source\PSoC5/cyfitter_cfg.c **** 			{0x0Au, 0x04u},
 659:Generated_Source\PSoC5/cyfitter_cfg.c **** 			{0x0Cu, 0x84u},
 660:Generated_Source\PSoC5/cyfitter_cfg.c **** 			{0x0Eu, 0x10u},
 661:Generated_Source\PSoC5/cyfitter_cfg.c **** 			{0x0Fu, 0x08u},
 662:Generated_Source\PSoC5/cyfitter_cfg.c **** 			{0x12u, 0x24u},
 663:Generated_Source\PSoC5/cyfitter_cfg.c **** 			{0x13u, 0x02u},
 664:Generated_Source\PSoC5/cyfitter_cfg.c **** 			{0x17u, 0x08u},
 665:Generated_Source\PSoC5/cyfitter_cfg.c **** 			{0x18u, 0x04u},
ARM GAS  C:\Users\sdysart\AppData\Local\Temp\ccTd7P7b.s 			page 23


 666:Generated_Source\PSoC5/cyfitter_cfg.c **** 			{0x1Au, 0x44u},
 667:Generated_Source\PSoC5/cyfitter_cfg.c **** 			{0x1Bu, 0x08u},
 668:Generated_Source\PSoC5/cyfitter_cfg.c **** 			{0x1Eu, 0x10u},
 669:Generated_Source\PSoC5/cyfitter_cfg.c **** 			{0x1Fu, 0x80u},
 670:Generated_Source\PSoC5/cyfitter_cfg.c **** 			{0x20u, 0x02u},
 671:Generated_Source\PSoC5/cyfitter_cfg.c **** 			{0x21u, 0x02u},
 672:Generated_Source\PSoC5/cyfitter_cfg.c **** 			{0x22u, 0x88u},
 673:Generated_Source\PSoC5/cyfitter_cfg.c **** 			{0x23u, 0x44u},
 674:Generated_Source\PSoC5/cyfitter_cfg.c **** 			{0x24u, 0x40u},
 675:Generated_Source\PSoC5/cyfitter_cfg.c **** 			{0x26u, 0x20u},
 676:Generated_Source\PSoC5/cyfitter_cfg.c **** 			{0x27u, 0x0Au},
 677:Generated_Source\PSoC5/cyfitter_cfg.c **** 			{0x28u, 0x02u},
 678:Generated_Source\PSoC5/cyfitter_cfg.c **** 			{0x2Bu, 0x08u},
 679:Generated_Source\PSoC5/cyfitter_cfg.c **** 			{0x2Du, 0x20u},
 680:Generated_Source\PSoC5/cyfitter_cfg.c **** 			{0x2Fu, 0x80u},
 681:Generated_Source\PSoC5/cyfitter_cfg.c **** 			{0x31u, 0x08u},
 682:Generated_Source\PSoC5/cyfitter_cfg.c **** 			{0x32u, 0x40u},
 683:Generated_Source\PSoC5/cyfitter_cfg.c **** 			{0x33u, 0x04u},
 684:Generated_Source\PSoC5/cyfitter_cfg.c **** 			{0x36u, 0x22u},
 685:Generated_Source\PSoC5/cyfitter_cfg.c **** 			{0x39u, 0x04u},
 686:Generated_Source\PSoC5/cyfitter_cfg.c **** 			{0x3Au, 0x04u},
 687:Generated_Source\PSoC5/cyfitter_cfg.c **** 			{0x3Bu, 0x40u},
 688:Generated_Source\PSoC5/cyfitter_cfg.c **** 			{0x3Eu, 0x06u},
 689:Generated_Source\PSoC5/cyfitter_cfg.c **** 			{0x3Fu, 0x80u},
 690:Generated_Source\PSoC5/cyfitter_cfg.c **** 			{0x42u, 0x40u},
 691:Generated_Source\PSoC5/cyfitter_cfg.c **** 			{0x46u, 0x40u},
 692:Generated_Source\PSoC5/cyfitter_cfg.c **** 			{0x47u, 0x08u},
 693:Generated_Source\PSoC5/cyfitter_cfg.c **** 			{0x48u, 0xC0u},
 694:Generated_Source\PSoC5/cyfitter_cfg.c **** 			{0x4Eu, 0x02u},
 695:Generated_Source\PSoC5/cyfitter_cfg.c **** 			{0x4Fu, 0x08u},
 696:Generated_Source\PSoC5/cyfitter_cfg.c **** 			{0x50u, 0x10u},
 697:Generated_Source\PSoC5/cyfitter_cfg.c **** 			{0x53u, 0x20u},
 698:Generated_Source\PSoC5/cyfitter_cfg.c **** 			{0x56u, 0x80u},
 699:Generated_Source\PSoC5/cyfitter_cfg.c **** 			{0x57u, 0x41u},
 700:Generated_Source\PSoC5/cyfitter_cfg.c **** 			{0x58u, 0x80u},
 701:Generated_Source\PSoC5/cyfitter_cfg.c **** 			{0x5Cu, 0x40u},
 702:Generated_Source\PSoC5/cyfitter_cfg.c **** 			{0x5Eu, 0x0Au},
 703:Generated_Source\PSoC5/cyfitter_cfg.c **** 			{0x5Fu, 0x20u},
 704:Generated_Source\PSoC5/cyfitter_cfg.c **** 			{0x60u, 0x02u},
 705:Generated_Source\PSoC5/cyfitter_cfg.c **** 			{0x7Au, 0x01u},
 706:Generated_Source\PSoC5/cyfitter_cfg.c **** 			{0x7Bu, 0x01u},
 707:Generated_Source\PSoC5/cyfitter_cfg.c **** 			{0xC0u, 0xFFu},
 708:Generated_Source\PSoC5/cyfitter_cfg.c **** 			{0xC2u, 0xEEu},
 709:Generated_Source\PSoC5/cyfitter_cfg.c **** 			{0xC4u, 0x2Eu},
 710:Generated_Source\PSoC5/cyfitter_cfg.c **** 			{0xCAu, 0xACu},
 711:Generated_Source\PSoC5/cyfitter_cfg.c **** 			{0xCCu, 0xAAu},
 712:Generated_Source\PSoC5/cyfitter_cfg.c **** 			{0xCEu, 0xDAu},
 713:Generated_Source\PSoC5/cyfitter_cfg.c **** 			{0xD0u, 0xC1u},
 714:Generated_Source\PSoC5/cyfitter_cfg.c **** 			{0xD2u, 0x10u},
 715:Generated_Source\PSoC5/cyfitter_cfg.c **** 			{0xD6u, 0xF8u},
 716:Generated_Source\PSoC5/cyfitter_cfg.c **** 			{0xD8u, 0x08u},
 717:Generated_Source\PSoC5/cyfitter_cfg.c **** 			{0xEAu, 0x02u},
 718:Generated_Source\PSoC5/cyfitter_cfg.c **** 			{0xEEu, 0x0Au},
 719:Generated_Source\PSoC5/cyfitter_cfg.c **** 			{0x86u, 0x02u},
 720:Generated_Source\PSoC5/cyfitter_cfg.c **** 			{0x8Eu, 0x01u},
 721:Generated_Source\PSoC5/cyfitter_cfg.c **** 			{0x9Au, 0x02u},
 722:Generated_Source\PSoC5/cyfitter_cfg.c **** 			{0x9Cu, 0x04u},
ARM GAS  C:\Users\sdysart\AppData\Local\Temp\ccTd7P7b.s 			page 24


 723:Generated_Source\PSoC5/cyfitter_cfg.c **** 			{0xA8u, 0x08u},
 724:Generated_Source\PSoC5/cyfitter_cfg.c **** 			{0xAEu, 0x01u},
 725:Generated_Source\PSoC5/cyfitter_cfg.c **** 			{0xB0u, 0x02u},
 726:Generated_Source\PSoC5/cyfitter_cfg.c **** 			{0xB2u, 0x01u},
 727:Generated_Source\PSoC5/cyfitter_cfg.c **** 			{0xB4u, 0x04u},
 728:Generated_Source\PSoC5/cyfitter_cfg.c **** 			{0xB6u, 0x08u},
 729:Generated_Source\PSoC5/cyfitter_cfg.c **** 			{0xBEu, 0x55u},
 730:Generated_Source\PSoC5/cyfitter_cfg.c **** 			{0xD4u, 0x18u},
 731:Generated_Source\PSoC5/cyfitter_cfg.c **** 			{0xD6u, 0x04u},
 732:Generated_Source\PSoC5/cyfitter_cfg.c **** 			{0xD8u, 0x04u},
 733:Generated_Source\PSoC5/cyfitter_cfg.c **** 			{0xDBu, 0x04u},
 734:Generated_Source\PSoC5/cyfitter_cfg.c **** 			{0xDFu, 0x01u},
 735:Generated_Source\PSoC5/cyfitter_cfg.c **** 			{0x00u, 0x40u},
 736:Generated_Source\PSoC5/cyfitter_cfg.c **** 			{0x02u, 0x80u},
 737:Generated_Source\PSoC5/cyfitter_cfg.c **** 			{0x03u, 0x28u},
 738:Generated_Source\PSoC5/cyfitter_cfg.c **** 			{0x04u, 0x80u},
 739:Generated_Source\PSoC5/cyfitter_cfg.c **** 			{0x05u, 0x04u},
 740:Generated_Source\PSoC5/cyfitter_cfg.c **** 			{0x08u, 0x42u},
 741:Generated_Source\PSoC5/cyfitter_cfg.c **** 			{0x0Au, 0x10u},
 742:Generated_Source\PSoC5/cyfitter_cfg.c **** 			{0x0Bu, 0x04u},
 743:Generated_Source\PSoC5/cyfitter_cfg.c **** 			{0x0Du, 0x10u},
 744:Generated_Source\PSoC5/cyfitter_cfg.c **** 			{0x0Fu, 0x02u},
 745:Generated_Source\PSoC5/cyfitter_cfg.c **** 			{0x10u, 0x02u},
 746:Generated_Source\PSoC5/cyfitter_cfg.c **** 			{0x13u, 0x29u},
 747:Generated_Source\PSoC5/cyfitter_cfg.c **** 			{0x14u, 0x04u},
 748:Generated_Source\PSoC5/cyfitter_cfg.c **** 			{0x15u, 0x80u},
 749:Generated_Source\PSoC5/cyfitter_cfg.c **** 			{0x18u, 0x40u},
 750:Generated_Source\PSoC5/cyfitter_cfg.c **** 			{0x1Au, 0x10u},
 751:Generated_Source\PSoC5/cyfitter_cfg.c **** 			{0x1Bu, 0xA4u},
 752:Generated_Source\PSoC5/cyfitter_cfg.c **** 			{0x1Du, 0x40u},
 753:Generated_Source\PSoC5/cyfitter_cfg.c **** 			{0x1Eu, 0x08u},
 754:Generated_Source\PSoC5/cyfitter_cfg.c **** 			{0x1Fu, 0x05u},
 755:Generated_Source\PSoC5/cyfitter_cfg.c **** 			{0x20u, 0x20u},
 756:Generated_Source\PSoC5/cyfitter_cfg.c **** 			{0x21u, 0x50u},
 757:Generated_Source\PSoC5/cyfitter_cfg.c **** 			{0x22u, 0x01u},
 758:Generated_Source\PSoC5/cyfitter_cfg.c **** 			{0x28u, 0x42u},
 759:Generated_Source\PSoC5/cyfitter_cfg.c **** 			{0x2Bu, 0x84u},
 760:Generated_Source\PSoC5/cyfitter_cfg.c **** 			{0x30u, 0x02u},
 761:Generated_Source\PSoC5/cyfitter_cfg.c **** 			{0x31u, 0x02u},
 762:Generated_Source\PSoC5/cyfitter_cfg.c **** 			{0x32u, 0x80u},
 763:Generated_Source\PSoC5/cyfitter_cfg.c **** 			{0x33u, 0x28u},
 764:Generated_Source\PSoC5/cyfitter_cfg.c **** 			{0x38u, 0x68u},
 765:Generated_Source\PSoC5/cyfitter_cfg.c **** 			{0x3Bu, 0x01u},
 766:Generated_Source\PSoC5/cyfitter_cfg.c **** 			{0x40u, 0x40u},
 767:Generated_Source\PSoC5/cyfitter_cfg.c **** 			{0x41u, 0x14u},
 768:Generated_Source\PSoC5/cyfitter_cfg.c **** 			{0x48u, 0x01u},
 769:Generated_Source\PSoC5/cyfitter_cfg.c **** 			{0x49u, 0x04u},
 770:Generated_Source\PSoC5/cyfitter_cfg.c **** 			{0x4Au, 0x08u},
 771:Generated_Source\PSoC5/cyfitter_cfg.c **** 			{0x50u, 0x40u},
 772:Generated_Source\PSoC5/cyfitter_cfg.c **** 			{0x5Au, 0x02u},
 773:Generated_Source\PSoC5/cyfitter_cfg.c **** 			{0x5Eu, 0x01u},
 774:Generated_Source\PSoC5/cyfitter_cfg.c **** 			{0x66u, 0x02u},
 775:Generated_Source\PSoC5/cyfitter_cfg.c **** 			{0x67u, 0x0Au},
 776:Generated_Source\PSoC5/cyfitter_cfg.c **** 			{0x69u, 0x04u},
 777:Generated_Source\PSoC5/cyfitter_cfg.c **** 			{0x6Au, 0x80u},
 778:Generated_Source\PSoC5/cyfitter_cfg.c **** 			{0x6Bu, 0x04u},
 779:Generated_Source\PSoC5/cyfitter_cfg.c **** 			{0x70u, 0x14u},
ARM GAS  C:\Users\sdysart\AppData\Local\Temp\ccTd7P7b.s 			page 25


 780:Generated_Source\PSoC5/cyfitter_cfg.c **** 			{0x73u, 0x29u},
 781:Generated_Source\PSoC5/cyfitter_cfg.c **** 			{0x79u, 0x08u},
 782:Generated_Source\PSoC5/cyfitter_cfg.c **** 			{0x7Bu, 0x20u},
 783:Generated_Source\PSoC5/cyfitter_cfg.c **** 			{0x81u, 0x04u},
 784:Generated_Source\PSoC5/cyfitter_cfg.c **** 			{0x88u, 0x90u},
 785:Generated_Source\PSoC5/cyfitter_cfg.c **** 			{0x89u, 0x40u},
 786:Generated_Source\PSoC5/cyfitter_cfg.c **** 			{0x8Au, 0x01u},
 787:Generated_Source\PSoC5/cyfitter_cfg.c **** 			{0x8Eu, 0x02u},
 788:Generated_Source\PSoC5/cyfitter_cfg.c **** 			{0x93u, 0x04u},
 789:Generated_Source\PSoC5/cyfitter_cfg.c **** 			{0x95u, 0x04u},
 790:Generated_Source\PSoC5/cyfitter_cfg.c **** 			{0x96u, 0x80u},
 791:Generated_Source\PSoC5/cyfitter_cfg.c **** 			{0x98u, 0x06u},
 792:Generated_Source\PSoC5/cyfitter_cfg.c **** 			{0x9Cu, 0x80u},
 793:Generated_Source\PSoC5/cyfitter_cfg.c **** 			{0x9Fu, 0x04u},
 794:Generated_Source\PSoC5/cyfitter_cfg.c **** 			{0xA0u, 0x01u},
 795:Generated_Source\PSoC5/cyfitter_cfg.c **** 			{0xA1u, 0x02u},
 796:Generated_Source\PSoC5/cyfitter_cfg.c **** 			{0xA2u, 0x88u},
 797:Generated_Source\PSoC5/cyfitter_cfg.c **** 			{0xA3u, 0x09u},
 798:Generated_Source\PSoC5/cyfitter_cfg.c **** 			{0xA6u, 0x04u},
 799:Generated_Source\PSoC5/cyfitter_cfg.c **** 			{0xB1u, 0x20u},
 800:Generated_Source\PSoC5/cyfitter_cfg.c **** 			{0xB2u, 0x80u},
 801:Generated_Source\PSoC5/cyfitter_cfg.c **** 			{0xB3u, 0x20u},
 802:Generated_Source\PSoC5/cyfitter_cfg.c **** 			{0xC0u, 0xAFu},
 803:Generated_Source\PSoC5/cyfitter_cfg.c **** 			{0xC2u, 0xCFu},
 804:Generated_Source\PSoC5/cyfitter_cfg.c **** 			{0xC4u, 0xCFu},
 805:Generated_Source\PSoC5/cyfitter_cfg.c **** 			{0xCAu, 0x0Du},
 806:Generated_Source\PSoC5/cyfitter_cfg.c **** 			{0xCCu, 0x0Fu},
 807:Generated_Source\PSoC5/cyfitter_cfg.c **** 			{0xCEu, 0x0Fu},
 808:Generated_Source\PSoC5/cyfitter_cfg.c **** 			{0xD0u, 0x07u},
 809:Generated_Source\PSoC5/cyfitter_cfg.c **** 			{0xD2u, 0x0Cu},
 810:Generated_Source\PSoC5/cyfitter_cfg.c **** 			{0xD6u, 0x81u},
 811:Generated_Source\PSoC5/cyfitter_cfg.c **** 			{0xD8u, 0xB0u},
 812:Generated_Source\PSoC5/cyfitter_cfg.c **** 			{0xE2u, 0x40u},
 813:Generated_Source\PSoC5/cyfitter_cfg.c **** 			{0xE4u, 0x01u},
 814:Generated_Source\PSoC5/cyfitter_cfg.c **** 			{0x33u, 0x81u},
 815:Generated_Source\PSoC5/cyfitter_cfg.c **** 			{0x35u, 0x08u},
 816:Generated_Source\PSoC5/cyfitter_cfg.c **** 			{0x36u, 0x40u},
 817:Generated_Source\PSoC5/cyfitter_cfg.c **** 			{0x3Bu, 0x40u},
 818:Generated_Source\PSoC5/cyfitter_cfg.c **** 			{0xCCu, 0xF0u},
 819:Generated_Source\PSoC5/cyfitter_cfg.c **** 			{0xCEu, 0x10u},
 820:Generated_Source\PSoC5/cyfitter_cfg.c **** 			{0x97u, 0x40u},
 821:Generated_Source\PSoC5/cyfitter_cfg.c **** 			{0x9Du, 0x08u},
 822:Generated_Source\PSoC5/cyfitter_cfg.c **** 			{0x9Fu, 0x01u},
 823:Generated_Source\PSoC5/cyfitter_cfg.c **** 			{0xA6u, 0x40u},
 824:Generated_Source\PSoC5/cyfitter_cfg.c **** 			{0xA7u, 0x80u},
 825:Generated_Source\PSoC5/cyfitter_cfg.c **** 			{0x97u, 0x40u},
 826:Generated_Source\PSoC5/cyfitter_cfg.c **** 			{0x9Du, 0x08u},
 827:Generated_Source\PSoC5/cyfitter_cfg.c **** 			{0x9Fu, 0x01u},
 828:Generated_Source\PSoC5/cyfitter_cfg.c **** 			{0xA6u, 0x40u},
 829:Generated_Source\PSoC5/cyfitter_cfg.c **** 			{0xA7u, 0x80u},
 830:Generated_Source\PSoC5/cyfitter_cfg.c **** 			{0x97u, 0x40u},
 831:Generated_Source\PSoC5/cyfitter_cfg.c **** 			{0x9Du, 0x08u},
 832:Generated_Source\PSoC5/cyfitter_cfg.c **** 			{0x9Fu, 0x01u},
 833:Generated_Source\PSoC5/cyfitter_cfg.c **** 			{0xA6u, 0x40u},
 834:Generated_Source\PSoC5/cyfitter_cfg.c **** 			{0xA7u, 0x80u},
 835:Generated_Source\PSoC5/cyfitter_cfg.c **** 			{0x08u, 0x08u},
 836:Generated_Source\PSoC5/cyfitter_cfg.c **** 			{0x0Bu, 0x04u},
ARM GAS  C:\Users\sdysart\AppData\Local\Temp\ccTd7P7b.s 			page 26


 837:Generated_Source\PSoC5/cyfitter_cfg.c **** 			{0x0Fu, 0x40u},
 838:Generated_Source\PSoC5/cyfitter_cfg.c **** 			{0xC2u, 0x0Eu},
 839:Generated_Source\PSoC5/cyfitter_cfg.c **** 			{0x97u, 0x40u},
 840:Generated_Source\PSoC5/cyfitter_cfg.c **** 			{0x9Du, 0x08u},
 841:Generated_Source\PSoC5/cyfitter_cfg.c **** 			{0xAEu, 0x40u},
 842:Generated_Source\PSoC5/cyfitter_cfg.c **** 			{0xAFu, 0x81u},
 843:Generated_Source\PSoC5/cyfitter_cfg.c **** 			{0xEAu, 0x40u},
 844:Generated_Source\PSoC5/cyfitter_cfg.c **** 			{0xEEu, 0x50u},
 845:Generated_Source\PSoC5/cyfitter_cfg.c **** 			{0x8Du, 0x08u},
 846:Generated_Source\PSoC5/cyfitter_cfg.c **** 			{0x9Du, 0x08u},
 847:Generated_Source\PSoC5/cyfitter_cfg.c **** 			{0xAFu, 0x40u},
 848:Generated_Source\PSoC5/cyfitter_cfg.c **** 			{0xEEu, 0x40u},
 849:Generated_Source\PSoC5/cyfitter_cfg.c **** 			{0x0Fu, 0x40u},
 850:Generated_Source\PSoC5/cyfitter_cfg.c **** 			{0x5Fu, 0x02u},
 851:Generated_Source\PSoC5/cyfitter_cfg.c **** 			{0xACu, 0x08u},
 852:Generated_Source\PSoC5/cyfitter_cfg.c **** 			{0xAFu, 0x44u},
 853:Generated_Source\PSoC5/cyfitter_cfg.c **** 			{0xC2u, 0x04u},
 854:Generated_Source\PSoC5/cyfitter_cfg.c **** 			{0xD6u, 0x01u},
 855:Generated_Source\PSoC5/cyfitter_cfg.c **** 			{0x10u, 0x10u},
 856:Generated_Source\PSoC5/cyfitter_cfg.c **** 			{0x7Bu, 0x01u},
 857:Generated_Source\PSoC5/cyfitter_cfg.c **** 			{0x83u, 0x02u},
 858:Generated_Source\PSoC5/cyfitter_cfg.c **** 			{0x88u, 0x10u},
 859:Generated_Source\PSoC5/cyfitter_cfg.c **** 			{0x8Bu, 0x01u},
 860:Generated_Source\PSoC5/cyfitter_cfg.c **** 			{0x9Fu, 0x02u},
 861:Generated_Source\PSoC5/cyfitter_cfg.c **** 			{0xB3u, 0x40u},
 862:Generated_Source\PSoC5/cyfitter_cfg.c **** 			{0xC4u, 0x08u},
 863:Generated_Source\PSoC5/cyfitter_cfg.c **** 			{0xDCu, 0x01u},
 864:Generated_Source\PSoC5/cyfitter_cfg.c **** 			{0xE0u, 0x01u},
 865:Generated_Source\PSoC5/cyfitter_cfg.c **** 			{0xE2u, 0x04u},
 866:Generated_Source\PSoC5/cyfitter_cfg.c **** 			{0xEAu, 0x04u},
 867:Generated_Source\PSoC5/cyfitter_cfg.c **** 			{0x10u, 0x01u},
 868:Generated_Source\PSoC5/cyfitter_cfg.c **** 			{0x11u, 0x01u},
 869:Generated_Source\PSoC5/cyfitter_cfg.c **** 			{0x1Bu, 0x01u},
 870:Generated_Source\PSoC5/cyfitter_cfg.c **** 			{0x1Cu, 0x01u},
 871:Generated_Source\PSoC5/cyfitter_cfg.c **** 			{0x1Du, 0x01u},
 872:Generated_Source\PSoC5/cyfitter_cfg.c **** 			{0x00u, 0xEAu},
 873:Generated_Source\PSoC5/cyfitter_cfg.c **** 			{0x01u, 0x03u},
 874:Generated_Source\PSoC5/cyfitter_cfg.c **** 		};
 875:Generated_Source\PSoC5/cyfitter_cfg.c **** 
 876:Generated_Source\PSoC5/cyfitter_cfg.c **** 
 877:Generated_Source\PSoC5/cyfitter_cfg.c **** 
 878:Generated_Source\PSoC5/cyfitter_cfg.c **** 		CYPACKED typedef struct {
 879:Generated_Source\PSoC5/cyfitter_cfg.c **** 			void CYFAR *address;
 880:Generated_Source\PSoC5/cyfitter_cfg.c **** 			uint16 size;
 881:Generated_Source\PSoC5/cyfitter_cfg.c **** 		} CYPACKED_ATTR cfg_memset_t;
 882:Generated_Source\PSoC5/cyfitter_cfg.c **** 
 883:Generated_Source\PSoC5/cyfitter_cfg.c **** 
 884:Generated_Source\PSoC5/cyfitter_cfg.c **** 		CYPACKED typedef struct {
 885:Generated_Source\PSoC5/cyfitter_cfg.c **** 			void CYFAR *dest;
 886:Generated_Source\PSoC5/cyfitter_cfg.c **** 			const void CYCODE *src;
 887:Generated_Source\PSoC5/cyfitter_cfg.c **** 			uint16 size;
 888:Generated_Source\PSoC5/cyfitter_cfg.c **** 		} CYPACKED_ATTR cfg_memcpy_t;
 889:Generated_Source\PSoC5/cyfitter_cfg.c **** 
 890:Generated_Source\PSoC5/cyfitter_cfg.c **** 		static const cfg_memset_t CYCODE cfg_memset_list[] = {
 891:Generated_Source\PSoC5/cyfitter_cfg.c **** 			/* address, size */
 892:Generated_Source\PSoC5/cyfitter_cfg.c **** 			{(void CYFAR *)(CYREG_PRT0_DR), 16u},
 893:Generated_Source\PSoC5/cyfitter_cfg.c **** 			{(void CYFAR *)(CYREG_PRT3_DR), 64u},
ARM GAS  C:\Users\sdysart\AppData\Local\Temp\ccTd7P7b.s 			page 27


 894:Generated_Source\PSoC5/cyfitter_cfg.c **** 			{(void CYFAR *)(CYDEV_UCFG_B0_P0_U0_BASE), 4096u},
 895:Generated_Source\PSoC5/cyfitter_cfg.c **** 			{(void CYFAR *)(CYDEV_UCFG_B1_P2_U0_BASE), 1536u},
 896:Generated_Source\PSoC5/cyfitter_cfg.c **** 			{(void CYFAR *)(CYDEV_UCFG_B1_P5_U1_BASE), 384u},
 897:Generated_Source\PSoC5/cyfitter_cfg.c **** 			{(void CYFAR *)(CYDEV_UCFG_DSI0_BASE), 2560u},
 898:Generated_Source\PSoC5/cyfitter_cfg.c **** 			{(void CYFAR *)(CYDEV_UCFG_DSI12_BASE), 512u},
 899:Generated_Source\PSoC5/cyfitter_cfg.c **** 			{(void CYFAR *)(CYREG_BCTL0_MDCLK_EN), 32u},
 900:Generated_Source\PSoC5/cyfitter_cfg.c **** 		};
 901:Generated_Source\PSoC5/cyfitter_cfg.c **** 
 902:Generated_Source\PSoC5/cyfitter_cfg.c **** 		/* UDB_0_0_0_CONFIG Address: CYDEV_UCFG_B1_P5_U0_BASE Size (bytes): 128 */
 903:Generated_Source\PSoC5/cyfitter_cfg.c **** 		static const uint8 CYCODE BS_UDB_0_0_0_CONFIG_VAL[] = {
 904:Generated_Source\PSoC5/cyfitter_cfg.c **** 			0x00u, 0x20u, 0xB3u, 0x00u, 0xFFu, 0x30u, 0x00u, 0x00u, 0x01u, 0x10u, 0x00u, 0x00u, 0xF3u, 0x4Fu
 905:Generated_Source\PSoC5/cyfitter_cfg.c **** 			0x42u, 0x03u, 0x00u, 0x00u, 0x4Fu, 0x01u, 0x90u, 0x00u, 0x00u, 0x7Fu, 0x40u, 0x00u, 0x4Cu, 0x00u
 906:Generated_Source\PSoC5/cyfitter_cfg.c **** 			0x08u, 0x78u, 0x00u, 0x07u, 0x04u, 0x00u, 0x00u, 0x00u, 0x0Cu, 0x70u, 0x00u, 0x0Fu, 0x03u, 0x02u
 907:Generated_Source\PSoC5/cyfitter_cfg.c **** 			0x0Fu, 0x40u, 0x8Cu, 0x03u, 0x00u, 0x38u, 0x7Cu, 0x04u, 0x00u, 0x80u, 0xAAu, 0x00u, 0x00u, 0x00u
 908:Generated_Source\PSoC5/cyfitter_cfg.c **** 			0x45u, 0x03u, 0x02u, 0x00u, 0x06u, 0x0Cu, 0x0Eu, 0x00u, 0x05u, 0xFFu, 0xFFu, 0xFFu, 0x62u, 0xA0u
 909:Generated_Source\PSoC5/cyfitter_cfg.c **** 			0x0Cu, 0x00u, 0x00u, 0x00u, 0x00u, 0x00u, 0x02u, 0x13u, 0x04u, 0x04u, 0x04u, 0x04u, 0x00u, 0x00u
 910:Generated_Source\PSoC5/cyfitter_cfg.c **** 			0x00u, 0x00u, 0x00u, 0x00u, 0x00u, 0x00u, 0x40u, 0x02u, 0x00u, 0x10u, 0x30u, 0x10u, 0x00u, 0x10u
 911:Generated_Source\PSoC5/cyfitter_cfg.c **** 			0x00u, 0x00u, 0x00u, 0x00u, 0x00u, 0x00u, 0x00u, 0x00u, 0x00u, 0x00u, 0x00u, 0x00u, 0x00u, 0x00u
 912:Generated_Source\PSoC5/cyfitter_cfg.c **** 
 913:Generated_Source\PSoC5/cyfitter_cfg.c **** 		static const cfg_memcpy_t CYCODE cfg_memcpy_list [] = {
 914:Generated_Source\PSoC5/cyfitter_cfg.c **** 			/* dest, src, size */
 915:Generated_Source\PSoC5/cyfitter_cfg.c **** 			{(void CYFAR *)(CYDEV_UCFG_B1_P5_U0_BASE), BS_UDB_0_0_0_CONFIG_VAL, 128u},
 916:Generated_Source\PSoC5/cyfitter_cfg.c **** 		};
 917:Generated_Source\PSoC5/cyfitter_cfg.c **** 
 918:Generated_Source\PSoC5/cyfitter_cfg.c **** 		uint8 CYDATA i;
 919:Generated_Source\PSoC5/cyfitter_cfg.c **** 
 920:Generated_Source\PSoC5/cyfitter_cfg.c **** 		/* Zero out critical memory blocks before beginning configuration */
 921:Generated_Source\PSoC5/cyfitter_cfg.c **** 		for (i = 0u; i < (sizeof(cfg_memset_list)/sizeof(cfg_memset_list[0])); i++)
 584              		.loc 1 921 0
 585 0028 0023     		movs	r3, #0
 586 002a FB75     		strb	r3, [r7, #23]
 587 002c 13E0     		b	.L27
 588              	.L28:
 589              	.LBB4:
 922:Generated_Source\PSoC5/cyfitter_cfg.c **** 		{
 923:Generated_Source\PSoC5/cyfitter_cfg.c **** 			const cfg_memset_t CYCODE * CYDATA ms = &cfg_memset_list[i];
 590              		.loc 1 923 0 discriminator 3
 591 002e FA7D     		ldrb	r2, [r7, #23]	@ zero_extendqisi2
 592 0030 1346     		mov	r3, r2
 593 0032 5B00     		lsls	r3, r3, #1
 594 0034 1344     		add	r3, r3, r2
 595 0036 5B00     		lsls	r3, r3, #1
 596 0038 414A     		ldr	r2, .L31+8
 597 003a 1344     		add	r3, r3, r2
 598 003c 3B61     		str	r3, [r7, #16]
 924:Generated_Source\PSoC5/cyfitter_cfg.c **** 			CYMEMZERO(ms->address, (size_t)(uint32)(ms->size));
 599              		.loc 1 924 0 discriminator 3
 600 003e 3B69     		ldr	r3, [r7, #16]
 601 0040 1A68     		ldr	r2, [r3]	@ unaligned
 602 0042 3B69     		ldr	r3, [r7, #16]
 603 0044 9B88     		ldrh	r3, [r3, #4]	@ unaligned
 604 0046 9BB2     		uxth	r3, r3
 605 0048 1946     		mov	r1, r3
 606 004a 1046     		mov	r0, r2
 607 004c FFF7FEFF 		bl	CYMEMZERO
 608              	.LBE4:
 921:Generated_Source\PSoC5/cyfitter_cfg.c **** 		{
ARM GAS  C:\Users\sdysart\AppData\Local\Temp\ccTd7P7b.s 			page 28


 609              		.loc 1 921 0 discriminator 3
 610 0050 FB7D     		ldrb	r3, [r7, #23]	@ zero_extendqisi2
 611 0052 0133     		adds	r3, r3, #1
 612 0054 FB75     		strb	r3, [r7, #23]
 613              	.L27:
 921:Generated_Source\PSoC5/cyfitter_cfg.c **** 		{
 614              		.loc 1 921 0 is_stmt 0 discriminator 1
 615 0056 FB7D     		ldrb	r3, [r7, #23]	@ zero_extendqisi2
 616 0058 072B     		cmp	r3, #7
 617 005a E8D9     		bls	.L28
 925:Generated_Source\PSoC5/cyfitter_cfg.c **** 		}
 926:Generated_Source\PSoC5/cyfitter_cfg.c **** 
 927:Generated_Source\PSoC5/cyfitter_cfg.c **** 		/* Copy device configuration data into registers */
 928:Generated_Source\PSoC5/cyfitter_cfg.c **** 		for (i = 0u; i < (sizeof(cfg_memcpy_list)/sizeof(cfg_memcpy_list[0])); i++)
 618              		.loc 1 928 0 is_stmt 1
 619 005c 0023     		movs	r3, #0
 620 005e FB75     		strb	r3, [r7, #23]
 621 0060 1CE0     		b	.L29
 622              	.L30:
 623              	.LBB5:
 929:Generated_Source\PSoC5/cyfitter_cfg.c **** 		{
 930:Generated_Source\PSoC5/cyfitter_cfg.c **** 			const cfg_memcpy_t CYCODE * CYDATA mc = &cfg_memcpy_list[i];
 624              		.loc 1 930 0 discriminator 3
 625 0062 FA7D     		ldrb	r2, [r7, #23]	@ zero_extendqisi2
 626 0064 1346     		mov	r3, r2
 627 0066 9B00     		lsls	r3, r3, #2
 628 0068 1344     		add	r3, r3, r2
 629 006a 5B00     		lsls	r3, r3, #1
 630 006c 354A     		ldr	r2, .L31+12
 631 006e 1344     		add	r3, r3, r2
 632 0070 FB60     		str	r3, [r7, #12]
 931:Generated_Source\PSoC5/cyfitter_cfg.c **** 			void * CYDATA destPtr = mc->dest;
 633              		.loc 1 931 0 discriminator 3
 634 0072 FB68     		ldr	r3, [r7, #12]
 635 0074 1B68     		ldr	r3, [r3]	@ unaligned
 636 0076 BB60     		str	r3, [r7, #8]
 932:Generated_Source\PSoC5/cyfitter_cfg.c **** 			const void CYCODE * CYDATA srcPtr = mc->src;
 637              		.loc 1 932 0 discriminator 3
 638 0078 FB68     		ldr	r3, [r7, #12]
 639 007a 5B68     		ldr	r3, [r3, #4]	@ unaligned
 640 007c 7B60     		str	r3, [r7, #4]
 933:Generated_Source\PSoC5/cyfitter_cfg.c **** 			uint16 CYDATA numBytes = mc->size;
 641              		.loc 1 933 0 discriminator 3
 642 007e FB68     		ldr	r3, [r7, #12]
 643 0080 1A7A     		ldrb	r2, [r3, #8]	@ zero_extendqisi2
 644 0082 5B7A     		ldrb	r3, [r3, #9]	@ zero_extendqisi2
 645 0084 1B02     		lsls	r3, r3, #8
 646 0086 1343     		orrs	r3, r3, r2
 647 0088 7B80     		strh	r3, [r7, #2]	@ movhi
 934:Generated_Source\PSoC5/cyfitter_cfg.c **** 			CYCONFIGCPYCODE(destPtr, srcPtr, numBytes);
 648              		.loc 1 934 0 discriminator 3
 649 008a 7B88     		ldrh	r3, [r7, #2]
 650 008c 1A46     		mov	r2, r3
 651 008e 7968     		ldr	r1, [r7, #4]
 652 0090 B868     		ldr	r0, [r7, #8]
 653 0092 FFF7FEFF 		bl	CYCONFIGCPYCODE
 654              	.LBE5:
ARM GAS  C:\Users\sdysart\AppData\Local\Temp\ccTd7P7b.s 			page 29


 928:Generated_Source\PSoC5/cyfitter_cfg.c **** 		{
 655              		.loc 1 928 0 discriminator 3
 656 0096 FB7D     		ldrb	r3, [r7, #23]	@ zero_extendqisi2
 657 0098 0133     		adds	r3, r3, #1
 658 009a FB75     		strb	r3, [r7, #23]
 659              	.L29:
 928:Generated_Source\PSoC5/cyfitter_cfg.c **** 		{
 660              		.loc 1 928 0 is_stmt 0 discriminator 1
 661 009c FB7D     		ldrb	r3, [r7, #23]	@ zero_extendqisi2
 662 009e 002B     		cmp	r3, #0
 663 00a0 DFD0     		beq	.L30
 935:Generated_Source\PSoC5/cyfitter_cfg.c **** 		}
 936:Generated_Source\PSoC5/cyfitter_cfg.c **** 
 937:Generated_Source\PSoC5/cyfitter_cfg.c **** 		cfg_write_bytes32(cy_cfg_addr_table, cy_cfg_data_table);
 664              		.loc 1 937 0 is_stmt 1
 665 00a2 2949     		ldr	r1, .L31+16
 666 00a4 2948     		ldr	r0, .L31+20
 667 00a6 FFF7FEFF 		bl	cfg_write_bytes32
 938:Generated_Source\PSoC5/cyfitter_cfg.c **** 
 939:Generated_Source\PSoC5/cyfitter_cfg.c **** 		/* Enable digital routing */
 940:Generated_Source\PSoC5/cyfitter_cfg.c **** 		CY_SET_XTND_REG8((void CYFAR *)CYREG_BCTL0_BANK_CTL, CY_GET_XTND_REG8((void CYFAR *)CYREG_BCTL0_B
 668              		.loc 1 940 0
 669 00aa 294A     		ldr	r2, .L31+24
 670 00ac 284B     		ldr	r3, .L31+24
 671 00ae 1B78     		ldrb	r3, [r3]
 672 00b0 DBB2     		uxtb	r3, r3
 673 00b2 43F00203 		orr	r3, r3, #2
 674 00b6 DBB2     		uxtb	r3, r3
 675 00b8 1370     		strb	r3, [r2]
 941:Generated_Source\PSoC5/cyfitter_cfg.c **** 		CY_SET_XTND_REG8((void CYFAR *)CYREG_BCTL1_BANK_CTL, CY_GET_XTND_REG8((void CYFAR *)CYREG_BCTL1_B
 676              		.loc 1 941 0
 677 00ba 264A     		ldr	r2, .L31+28
 678 00bc 254B     		ldr	r3, .L31+28
 679 00be 1B78     		ldrb	r3, [r3]
 680 00c0 DBB2     		uxtb	r3, r3
 681 00c2 43F00203 		orr	r3, r3, #2
 682 00c6 DBB2     		uxtb	r3, r3
 683 00c8 1370     		strb	r3, [r2]
 942:Generated_Source\PSoC5/cyfitter_cfg.c **** 
 943:Generated_Source\PSoC5/cyfitter_cfg.c **** 		/* Enable UDB array */
 944:Generated_Source\PSoC5/cyfitter_cfg.c **** 		CY_SET_XTND_REG8((void CYFAR *)CYREG_PM_ACT_CFG0, CY_GET_XTND_REG8((void CYFAR *)CYREG_PM_ACT_CFG
 684              		.loc 1 944 0
 685 00ca 234A     		ldr	r2, .L31+32
 686 00cc 224B     		ldr	r3, .L31+32
 687 00ce 1B78     		ldrb	r3, [r3]
 688 00d0 DBB2     		uxtb	r3, r3
 689 00d2 43F04003 		orr	r3, r3, #64
 690 00d6 DBB2     		uxtb	r3, r3
 691 00d8 1370     		strb	r3, [r2]
 945:Generated_Source\PSoC5/cyfitter_cfg.c **** 		CY_SET_XTND_REG8((void CYFAR *)CYREG_PM_AVAIL_CR2, CY_GET_XTND_REG8((void CYFAR *)CYREG_PM_AVAIL_
 692              		.loc 1 945 0
 693 00da 204A     		ldr	r2, .L31+36
 694 00dc 1F4B     		ldr	r3, .L31+36
 695 00de 1B78     		ldrb	r3, [r3]
 696 00e0 DBB2     		uxtb	r3, r3
 697 00e2 43F01003 		orr	r3, r3, #16
 698 00e6 DBB2     		uxtb	r3, r3
ARM GAS  C:\Users\sdysart\AppData\Local\Temp\ccTd7P7b.s 			page 30


 699 00e8 1370     		strb	r3, [r2]
 700              	.LBE3:
 946:Generated_Source\PSoC5/cyfitter_cfg.c **** 	}
 947:Generated_Source\PSoC5/cyfitter_cfg.c **** 
 948:Generated_Source\PSoC5/cyfitter_cfg.c **** 
 949:Generated_Source\PSoC5/cyfitter_cfg.c **** 	/* Perform second pass device configuration. These items must be configured in specific order afte
 950:Generated_Source\PSoC5/cyfitter_cfg.c **** 	CYCONFIGCPYCODE((void CYFAR *)(CYREG_PRT12_DR), (const void CYCODE *)(BS_IOPINS0_7_VAL), 10u);
 701              		.loc 1 950 0
 702 00ea 0A22     		movs	r2, #10
 703 00ec 1C49     		ldr	r1, .L31+40
 704 00ee 1D48     		ldr	r0, .L31+44
 705 00f0 FFF7FEFF 		bl	CYCONFIGCPYCODE
 951:Generated_Source\PSoC5/cyfitter_cfg.c **** 	CYCONFIGCPYCODE((void CYFAR *)(CYREG_PRT15_DR), (const void CYCODE *)(BS_IOPINS0_8_VAL), 10u);
 706              		.loc 1 951 0
 707 00f4 0A22     		movs	r2, #10
 708 00f6 1C49     		ldr	r1, .L31+48
 709 00f8 1C48     		ldr	r0, .L31+52
 710 00fa FFF7FEFF 		bl	CYCONFIGCPYCODE
 952:Generated_Source\PSoC5/cyfitter_cfg.c **** 	CYCONFIGCPYCODE((void CYFAR *)(CYREG_PRT1_DR), (const void CYCODE *)(BS_IOPINS0_1_VAL), 10u);
 711              		.loc 1 952 0
 712 00fe 0A22     		movs	r2, #10
 713 0100 1B49     		ldr	r1, .L31+56
 714 0102 1C48     		ldr	r0, .L31+60
 715 0104 FFF7FEFF 		bl	CYCONFIGCPYCODE
 953:Generated_Source\PSoC5/cyfitter_cfg.c **** 	CYCONFIGCPYCODE((void CYFAR *)(CYREG_PRT2_DM0), (const void CYCODE *)(BS_IOPINS0_2_VAL), 8u);
 716              		.loc 1 953 0
 717 0108 0822     		movs	r2, #8
 718 010a 1B49     		ldr	r1, .L31+64
 719 010c 1B48     		ldr	r0, .L31+68
 720 010e FFF7FEFF 		bl	CYCONFIGCPYCODE
 954:Generated_Source\PSoC5/cyfitter_cfg.c **** 	/* Switch Boost to the precision bandgap reference from its internal reference */
 955:Generated_Source\PSoC5/cyfitter_cfg.c **** 	CY_SET_REG8((void CYXDATA *)CYREG_BOOST_CR2, (CY_GET_REG8((void CYXDATA *)CYREG_BOOST_CR2) | 0x08u
 721              		.loc 1 955 0
 722 0112 1B4A     		ldr	r2, .L31+72
 723 0114 1A4B     		ldr	r3, .L31+72
 724 0116 1B78     		ldrb	r3, [r3]
 725 0118 DBB2     		uxtb	r3, r3
 726 011a 43F00803 		orr	r3, r3, #8
 727 011e DBB2     		uxtb	r3, r3
 728 0120 1370     		strb	r3, [r2]
 956:Generated_Source\PSoC5/cyfitter_cfg.c **** 
 957:Generated_Source\PSoC5/cyfitter_cfg.c **** 	/* Perform basic analog initialization to defaults */
 958:Generated_Source\PSoC5/cyfitter_cfg.c **** 	AnalogSetDefault();
 729              		.loc 1 958 0
 730 0122 FFF7FEFF 		bl	AnalogSetDefault
 959:Generated_Source\PSoC5/cyfitter_cfg.c **** 
 960:Generated_Source\PSoC5/cyfitter_cfg.c **** 	/* Configure alternate active mode */
 961:Generated_Source\PSoC5/cyfitter_cfg.c **** 	CYCONFIGCPY((void CYFAR *)CYDEV_PM_STBY_BASE, (const void CYFAR *)CYDEV_PM_ACT_BASE, 14u);
 731              		.loc 1 961 0
 732 0126 0E22     		movs	r2, #14
 733 0128 0B49     		ldr	r1, .L31+32
 734 012a 1648     		ldr	r0, .L31+76
 735 012c FFF7FEFF 		bl	CYCONFIGCPY
 962:Generated_Source\PSoC5/cyfitter_cfg.c **** }
 736              		.loc 1 962 0
 737 0130 00BF     		nop
 738 0132 1837     		adds	r7, r7, #24
ARM GAS  C:\Users\sdysart\AppData\Local\Temp\ccTd7P7b.s 			page 31


 739              		.cfi_def_cfa_offset 8
 740 0134 BD46     		mov	sp, r7
 741              		.cfi_def_cfa_register 13
 742              		@ sp needed
 743 0136 80BD     		pop	{r7, pc}
 744              	.L32:
 745              		.align	2
 746              	.L31:
 747 0138 00480040 		.word	1073760256
 748 013c E8460040 		.word	1073759976
 749 0140 04000000 		.word	cfg_memset_list.5047
 750 0144 34000000 		.word	cfg_memcpy_list.5049
 751 0148 98000000 		.word	cy_cfg_data_table.5037
 752 014c 40000000 		.word	cy_cfg_addr_table.5036
 753 0150 03500140 		.word	1073827843
 754 0154 13500140 		.word	1073827859
 755 0158 A0430040 		.word	1073759136
 756 015c C2430040 		.word	1073759170
 757 0160 40040000 		.word	BS_IOPINS0_7_VAL.5032
 758 0164 C0510040 		.word	1073762752
 759 0168 4C040000 		.word	BS_IOPINS0_8_VAL.5033
 760 016c F0510040 		.word	1073762800
 761 0170 58040000 		.word	BS_IOPINS0_1_VAL.5034
 762 0174 10510040 		.word	1073762576
 763 0178 64040000 		.word	BS_IOPINS0_2_VAL.5035
 764 017c 22510040 		.word	1073762594
 765 0180 22430040 		.word	1073759010
 766 0184 B0430040 		.word	1073759152
 767              		.cfi_endproc
 768              	.LFE8:
 769              		.size	cyfitter_cfg, .-cyfitter_cfg
 770              		.section	.rodata
 771              		.align	2
 772              		.type	BS_CYDEV_CLKDIST_ACFG0_CFG0_VAL.5013, %object
 773              		.size	BS_CYDEV_CLKDIST_ACFG0_CFG0_VAL.5013, 4
 774              	BS_CYDEV_CLKDIST_ACFG0_CFG0_VAL.5013:
 775 0000 05       		.byte	5
 776 0001 00       		.byte	0
 777 0002 14       		.byte	20
 778 0003 01       		.byte	1
 779              		.align	2
 780              		.type	cfg_memset_list.5047, %object
 781              		.size	cfg_memset_list.5047, 48
 782              	cfg_memset_list.5047:
 783 0004 00510040 		.word	1073762560
 784 0008 1000     		.short	16
 785 000a 30510040 		.4byte	1073762608
 786 000e 4000     		.short	64
 787 0010 00000140 		.word	1073807360
 788 0014 0010     		.short	4096
 789 0016 00140140 		.4byte	1073812480
 790 001a 0006     		.short	1536
 791 001c 801A0140 		.word	1073814144
 792 0020 8001     		.short	384
 793 0022 00400140 		.4byte	1073823744
 794 0026 000A     		.short	2560
 795 0028 004C0140 		.word	1073826816
ARM GAS  C:\Users\sdysart\AppData\Local\Temp\ccTd7P7b.s 			page 32


 796 002c 0002     		.short	512
 797 002e 00500140 		.4byte	1073827840
 798 0032 2000     		.short	32
 799              		.align	2
 800              		.type	cfg_memcpy_list.5049, %object
 801              		.size	cfg_memcpy_list.5049, 10
 802              	cfg_memcpy_list.5049:
 803 0034 001A0140 		.word	1073814016
 804 0038 6C040000 		.word	BS_UDB_0_0_0_CONFIG_VAL.5048
 805 003c 8000     		.short	128
 806 003e 0000     		.align	2
 807              		.type	cy_cfg_addr_table.5036, %object
 808              		.size	cy_cfg_addr_table.5036, 88
 809              	cy_cfg_addr_table.5036:
 810 0040 01450040 		.word	1073759489
 811 0044 03520040 		.word	1073762819
 812 0048 04650040 		.word	1073767684
 813 004c 28140140 		.word	1073812520
 814 0050 0D150140 		.word	1073812749
 815 0054 34160140 		.word	1073813044
 816 0058 12170140 		.word	1073813266
 817 005c 70180140 		.word	1073813616
 818 0060 45190140 		.word	1073813829
 819 0064 101A0140 		.word	1073814032
 820 0068 4F1B0140 		.word	1073814351
 821 006c 06400140 		.word	1073823750
 822 0070 05410140 		.word	1073824005
 823 0074 05420140 		.word	1073824261
 824 0078 05430140 		.word	1073824517
 825 007c 04470140 		.word	1073825540
 826 0080 06480140 		.word	1073825798
 827 0084 04490140 		.word	1073826052
 828 0088 064C0140 		.word	1073826822
 829 008c 0C4D0140 		.word	1073827084
 830 0090 05500140 		.word	1073827845
 831 0094 02510140 		.word	1073828098
 832              		.align	2
 833              		.type	cy_cfg_data_table.5037, %object
 834              		.size	cy_cfg_data_table.5037, 934
 835              	cy_cfg_data_table.5037:
 836 0098 7E       		.byte	126
 837 0099 02       		.byte	2
 838 009a 08       		.byte	8
 839 009b 10       		.byte	16
 840 009c 61       		.byte	97
 841 009d 80       		.byte	-128
 842 009e 7C       		.byte	124
 843 009f 40       		.byte	64
 844 00a0 87       		.byte	-121
 845 00a1 0D       		.byte	13
 846 00a2 88       		.byte	-120
 847 00a3 0F       		.byte	15
 848 00a4 8A       		.byte	-118
 849 00a5 72       		.byte	114
 850 00a6 8B       		.byte	-117
 851 00a7 38       		.byte	56
 852 00a8 40       		.byte	64
ARM GAS  C:\Users\sdysart\AppData\Local\Temp\ccTd7P7b.s 			page 33


 853 00a9 45       		.byte	69
 854 00aa 49       		.byte	73
 855 00ab FF       		.byte	-1
 856 00ac 4A       		.byte	74
 857 00ad FF       		.byte	-1
 858 00ae 4B       		.byte	75
 859 00af FF       		.byte	-1
 860 00b0 4F       		.byte	79
 861 00b1 01       		.byte	1
 862 00b2 50       		.byte	80
 863 00b3 18       		.byte	24
 864 00b4 5A       		.byte	90
 865 00b5 04       		.byte	4
 866 00b6 5D       		.byte	93
 867 00b7 09       		.byte	9
 868 00b8 5F       		.byte	95
 869 00b9 01       		.byte	1
 870 00ba 60       		.byte	96
 871 00bb 40       		.byte	64
 872 00bc 62       		.byte	98
 873 00bd 40       		.byte	64
 874 00be 64       		.byte	100
 875 00bf 40       		.byte	64
 876 00c0 65       		.byte	101
 877 00c1 40       		.byte	64
 878 00c2 66       		.byte	102
 879 00c3 80       		.byte	-128
 880 00c4 68       		.byte	104
 881 00c5 80       		.byte	-128
 882 00c6 6A       		.byte	106
 883 00c7 80       		.byte	-128
 884 00c8 6C       		.byte	108
 885 00c9 80       		.byte	-128
 886 00ca 6E       		.byte	110
 887 00cb 80       		.byte	-128
 888 00cc C0       		.byte	-64
 889 00cd 45       		.byte	69
 890 00ce C9       		.byte	-55
 891 00cf FF       		.byte	-1
 892 00d0 CA       		.byte	-54
 893 00d1 FF       		.byte	-1
 894 00d2 CB       		.byte	-53
 895 00d3 FF       		.byte	-1
 896 00d4 CD       		.byte	-51
 897 00d5 83       		.byte	-125
 898 00d6 CE       		.byte	-50
 899 00d7 03       		.byte	3
 900 00d8 CF       		.byte	-49
 901 00d9 01       		.byte	1
 902 00da D0       		.byte	-48
 903 00db 18       		.byte	24
 904 00dc D2       		.byte	-46
 905 00dd 80       		.byte	-128
 906 00de DA       		.byte	-38
 907 00df 04       		.byte	4
 908 00e0 DB       		.byte	-37
 909 00e1 04       		.byte	4
ARM GAS  C:\Users\sdysart\AppData\Local\Temp\ccTd7P7b.s 			page 34


 910 00e2 DD       		.byte	-35
 911 00e3 99       		.byte	-103
 912 00e4 DF       		.byte	-33
 913 00e5 01       		.byte	1
 914 00e6 E0       		.byte	-32
 915 00e7 40       		.byte	64
 916 00e8 E2       		.byte	-30
 917 00e9 40       		.byte	64
 918 00ea E4       		.byte	-28
 919 00eb 40       		.byte	64
 920 00ec E5       		.byte	-27
 921 00ed 40       		.byte	64
 922 00ee E6       		.byte	-26
 923 00ef 80       		.byte	-128
 924 00f0 E8       		.byte	-24
 925 00f1 80       		.byte	-128
 926 00f2 EA       		.byte	-22
 927 00f3 80       		.byte	-128
 928 00f4 EC       		.byte	-20
 929 00f5 80       		.byte	-128
 930 00f6 EE       		.byte	-18
 931 00f7 80       		.byte	-128
 932 00f8 42       		.byte	66
 933 00f9 80       		.byte	-128
 934 00fa 46       		.byte	70
 935 00fb 80       		.byte	-128
 936 00fc 48       		.byte	72
 937 00fd 02       		.byte	2
 938 00fe 4C       		.byte	76
 939 00ff 02       		.byte	2
 940 0100 74       		.byte	116
 941 0101 01       		.byte	1
 942 0102 76       		.byte	118
 943 0103 80       		.byte	-128
 944 0104 9E       		.byte	-98
 945 0105 80       		.byte	-128
 946 0106 A0       		.byte	-96
 947 0107 02       		.byte	2
 948 0108 A4       		.byte	-92
 949 0109 01       		.byte	1
 950 010a AD       		.byte	-83
 951 010b 20       		.byte	32
 952 010c D0       		.byte	-48
 953 010d 81       		.byte	-127
 954 010e D2       		.byte	-46
 955 010f 18       		.byte	24
 956 0110 E2       		.byte	-30
 957 0111 40       		.byte	64
 958 0112 40       		.byte	64
 959 0113 45       		.byte	69
 960 0114 49       		.byte	73
 961 0115 FF       		.byte	-1
 962 0116 4A       		.byte	74
 963 0117 FF       		.byte	-1
 964 0118 4B       		.byte	75
 965 0119 FF       		.byte	-1
 966 011a 4D       		.byte	77
ARM GAS  C:\Users\sdysart\AppData\Local\Temp\ccTd7P7b.s 			page 35


 967 011b 83       		.byte	-125
 968 011c 4E       		.byte	78
 969 011d 03       		.byte	3
 970 011e 4F       		.byte	79
 971 011f 01       		.byte	1
 972 0120 50       		.byte	80
 973 0121 18       		.byte	24
 974 0122 5A       		.byte	90
 975 0123 04       		.byte	4
 976 0124 5D       		.byte	93
 977 0125 09       		.byte	9
 978 0126 5F       		.byte	95
 979 0127 01       		.byte	1
 980 0128 60       		.byte	96
 981 0129 40       		.byte	64
 982 012a 62       		.byte	98
 983 012b 40       		.byte	64
 984 012c 64       		.byte	100
 985 012d 40       		.byte	64
 986 012e 65       		.byte	101
 987 012f 40       		.byte	64
 988 0130 66       		.byte	102
 989 0131 80       		.byte	-128
 990 0132 68       		.byte	104
 991 0133 80       		.byte	-128
 992 0134 6A       		.byte	106
 993 0135 80       		.byte	-128
 994 0136 6C       		.byte	108
 995 0137 80       		.byte	-128
 996 0138 6E       		.byte	110
 997 0139 80       		.byte	-128
 998 013a 82       		.byte	-126
 999 013b 01       		.byte	1
 1000 013c AE       		.byte	-82
 1001 013d 01       		.byte	1
 1002 013e B4       		.byte	-76
 1003 013f 01       		.byte	1
 1004 0140 B6       		.byte	-74
 1005 0141 01       		.byte	1
 1006 0142 BE       		.byte	-66
 1007 0143 40       		.byte	64
 1008 0144 C0       		.byte	-64
 1009 0145 54       		.byte	84
 1010 0146 C5       		.byte	-59
 1011 0147 EC       		.byte	-20
 1012 0148 C7       		.byte	-57
 1013 0149 20       		.byte	32
 1014 014a C8       		.byte	-56
 1015 014b 23       		.byte	35
 1016 014c C9       		.byte	-55
 1017 014d FF       		.byte	-1
 1018 014e CA       		.byte	-54
 1019 014f FF       		.byte	-1
 1020 0150 CB       		.byte	-53
 1021 0151 FF       		.byte	-1
 1022 0152 CD       		.byte	-51
 1023 0153 83       		.byte	-125
ARM GAS  C:\Users\sdysart\AppData\Local\Temp\ccTd7P7b.s 			page 36


 1024 0154 CE       		.byte	-50
 1025 0155 03       		.byte	3
 1026 0156 CF       		.byte	-49
 1027 0157 01       		.byte	1
 1028 0158 D0       		.byte	-48
 1029 0159 18       		.byte	24
 1030 015a D4       		.byte	-44
 1031 015b 01       		.byte	1
 1032 015c D8       		.byte	-40
 1033 015d 04       		.byte	4
 1034 015e DA       		.byte	-38
 1035 015f 04       		.byte	4
 1036 0160 DB       		.byte	-37
 1037 0161 04       		.byte	4
 1038 0162 DC       		.byte	-36
 1039 0163 09       		.byte	9
 1040 0164 DD       		.byte	-35
 1041 0165 99       		.byte	-103
 1042 0166 DF       		.byte	-33
 1043 0167 01       		.byte	1
 1044 0168 E0       		.byte	-32
 1045 0169 40       		.byte	64
 1046 016a E2       		.byte	-30
 1047 016b 40       		.byte	64
 1048 016c E4       		.byte	-28
 1049 016d 40       		.byte	64
 1050 016e E5       		.byte	-27
 1051 016f 40       		.byte	64
 1052 0170 E6       		.byte	-26
 1053 0171 80       		.byte	-128
 1054 0172 E8       		.byte	-24
 1055 0173 80       		.byte	-128
 1056 0174 EA       		.byte	-22
 1057 0175 80       		.byte	-128
 1058 0176 EC       		.byte	-20
 1059 0177 80       		.byte	-128
 1060 0178 EE       		.byte	-18
 1061 0179 80       		.byte	-128
 1062 017a 00       		.byte	0
 1063 017b 02       		.byte	2
 1064 017c 10       		.byte	16
 1065 017d 02       		.byte	2
 1066 017e 19       		.byte	25
 1067 017f 60       		.byte	96
 1068 0180 41       		.byte	65
 1069 0181 01       		.byte	1
 1070 0182 46       		.byte	70
 1071 0183 80       		.byte	-128
 1072 0184 48       		.byte	72
 1073 0185 01       		.byte	1
 1074 0186 49       		.byte	73
 1075 0187 05       		.byte	5
 1076 0188 4C       		.byte	76
 1077 0189 02       		.byte	2
 1078 018a 50       		.byte	80
 1079 018b 02       		.byte	2
 1080 018c 51       		.byte	81
ARM GAS  C:\Users\sdysart\AppData\Local\Temp\ccTd7P7b.s 			page 37


 1081 018d 01       		.byte	1
 1082 018e 59       		.byte	89
 1083 018f 45       		.byte	69
 1084 0190 C0       		.byte	-64
 1085 0191 08       		.byte	8
 1086 0192 C4       		.byte	-60
 1087 0193 01       		.byte	1
 1088 0194 D0       		.byte	-48
 1089 0195 81       		.byte	-127
 1090 0196 D2       		.byte	-46
 1091 0197 18       		.byte	24
 1092 0198 D6       		.byte	-42
 1093 0199 0B       		.byte	11
 1094 019a EA       		.byte	-22
 1095 019b 02       		.byte	2
 1096 019c EE       		.byte	-18
 1097 019d 0A       		.byte	10
 1098 019e 00       		.byte	0
 1099 019f 0C       		.byte	12
 1100 01a0 02       		.byte	2
 1101 01a1 71       		.byte	113
 1102 01a2 03       		.byte	3
 1103 01a3 10       		.byte	16
 1104 01a4 04       		.byte	4
 1105 01a5 DC       		.byte	-36
 1106 01a6 05       		.byte	5
 1107 01a7 12       		.byte	18
 1108 01a8 06       		.byte	6
 1109 01a9 22       		.byte	34
 1110 01aa 07       		.byte	7
 1111 01ab AC       		.byte	-84
 1112 01ac 08       		.byte	8
 1113 01ad 10       		.byte	16
 1114 01ae 0A       		.byte	10
 1115 01af 40       		.byte	64
 1116 01b0 0C       		.byte	12
 1117 01b1 09       		.byte	9
 1118 01b2 0D       		.byte	13
 1119 01b3 03       		.byte	3
 1120 01b4 0E       		.byte	14
 1121 01b5 D0       		.byte	-48
 1122 01b6 0F       		.byte	15
 1123 01b7 84       		.byte	-124
 1124 01b8 11       		.byte	17
 1125 01b9 40       		.byte	64
 1126 01ba 13       		.byte	19
 1127 01bb 8D       		.byte	-115
 1128 01bc 16       		.byte	22
 1129 01bd 03       		.byte	3
 1130 01be 18       		.byte	24
 1131 01bf 14       		.byte	20
 1132 01c0 19       		.byte	25
 1133 01c1 A3       		.byte	-93
 1134 01c2 1B       		.byte	27
 1135 01c3 1C       		.byte	28
 1136 01c4 1E       		.byte	30
 1137 01c5 20       		.byte	32
ARM GAS  C:\Users\sdysart\AppData\Local\Temp\ccTd7P7b.s 			page 38


 1138 01c6 21       		.byte	33
 1139 01c7 A3       		.byte	-93
 1140 01c8 23       		.byte	35
 1141 01c9 0C       		.byte	12
 1142 01ca 24       		.byte	36
 1143 01cb 10       		.byte	16
 1144 01cc 26       		.byte	38
 1145 01cd AC       		.byte	-84
 1146 01ce 29       		.byte	41
 1147 01cf 03       		.byte	3
 1148 01d0 2B       		.byte	43
 1149 01d1 08       		.byte	8
 1150 01d2 31       		.byte	49
 1151 01d3 80       		.byte	-128
 1152 01d4 32       		.byte	50
 1153 01d5 1F       		.byte	31
 1154 01d6 35       		.byte	53
 1155 01d7 1F       		.byte	31
 1156 01d8 36       		.byte	54
 1157 01d9 E0       		.byte	-32
 1158 01da 37       		.byte	55
 1159 01db 60       		.byte	96
 1160 01dc 39       		.byte	57
 1161 01dd 80       		.byte	-128
 1162 01de 3A       		.byte	58
 1163 01df 80       		.byte	-128
 1164 01e0 3B       		.byte	59
 1165 01e1 20       		.byte	32
 1166 01e2 3F       		.byte	63
 1167 01e3 01       		.byte	1
 1168 01e4 40       		.byte	64
 1169 01e5 35       		.byte	53
 1170 01e6 41       		.byte	65
 1171 01e7 04       		.byte	4
 1172 01e8 45       		.byte	69
 1173 01e9 0B       		.byte	11
 1174 01ea 46       		.byte	70
 1175 01eb 0C       		.byte	12
 1176 01ec 47       		.byte	71
 1177 01ed E0       		.byte	-32
 1178 01ee 48       		.byte	72
 1179 01ef 25       		.byte	37
 1180 01f0 49       		.byte	73
 1181 01f1 FF       		.byte	-1
 1182 01f2 4A       		.byte	74
 1183 01f3 FF       		.byte	-1
 1184 01f4 4B       		.byte	75
 1185 01f5 FF       		.byte	-1
 1186 01f6 4E       		.byte	78
 1187 01f7 F0       		.byte	-16
 1188 01f8 4F       		.byte	79
 1189 01f9 44       		.byte	68
 1190 01fa 50       		.byte	80
 1191 01fb 0C       		.byte	12
 1192 01fc 54       		.byte	84
 1193 01fd 01       		.byte	1
 1194 01fe 58       		.byte	88
ARM GAS  C:\Users\sdysart\AppData\Local\Temp\ccTd7P7b.s 			page 39


 1195 01ff 04       		.byte	4
 1196 0200 59       		.byte	89
 1197 0201 04       		.byte	4
 1198 0202 5A       		.byte	90
 1199 0203 04       		.byte	4
 1200 0204 5B       		.byte	91
 1201 0205 04       		.byte	4
 1202 0206 5F       		.byte	95
 1203 0207 01       		.byte	1
 1204 0208 66       		.byte	102
 1205 0209 C0       		.byte	-64
 1206 020a 6A       		.byte	106
 1207 020b 40       		.byte	64
 1208 020c 6B       		.byte	107
 1209 020d 02       		.byte	2
 1210 020e 80       		.byte	-128
 1211 020f 31       		.byte	49
 1212 0210 82       		.byte	-126
 1213 0211 0E       		.byte	14
 1214 0212 85       		.byte	-123
 1215 0213 27       		.byte	39
 1216 0214 86       		.byte	-122
 1217 0215 08       		.byte	8
 1218 0216 88       		.byte	-120
 1219 0217 40       		.byte	64
 1220 0218 8A       		.byte	-118
 1221 0219 80       		.byte	-128
 1222 021a 8D       		.byte	-115
 1223 021b 01       		.byte	1
 1224 021c 8E       		.byte	-114
 1225 021d 13       		.byte	19
 1226 021e 8F       		.byte	-113
 1227 021f 0E       		.byte	14
 1228 0220 90       		.byte	-112
 1229 0221 80       		.byte	-128
 1230 0222 92       		.byte	-110
 1231 0223 40       		.byte	64
 1232 0224 94       		.byte	-108
 1233 0225 C0       		.byte	-64
 1234 0226 95       		.byte	-107
 1235 0227 27       		.byte	39
 1236 0228 98       		.byte	-104
 1237 0229 2C       		.byte	44
 1238 022a 9A       		.byte	-102
 1239 022b 03       		.byte	3
 1240 022c 9D       		.byte	-99
 1241 022d 20       		.byte	32
 1242 022e A2       		.byte	-94
 1243 022f 0C       		.byte	12
 1244 0230 A4       		.byte	-92
 1245 0231 31       		.byte	49
 1246 0232 A6       		.byte	-90
 1247 0233 06       		.byte	6
 1248 0234 A8       		.byte	-88
 1249 0235 C0       		.byte	-64
 1250 0236 A9       		.byte	-87
 1251 0237 02       		.byte	2
ARM GAS  C:\Users\sdysart\AppData\Local\Temp\ccTd7P7b.s 			page 40


 1252 0238 AB       		.byte	-85
 1253 0239 11       		.byte	17
 1254 023a AD       		.byte	-83
 1255 023b 04       		.byte	4
 1256 023c AF       		.byte	-81
 1257 023d 51       		.byte	81
 1258 023e B0       		.byte	-80
 1259 023f 30       		.byte	48
 1260 0240 B1       		.byte	-79
 1261 0241 07       		.byte	7
 1262 0242 B2       		.byte	-78
 1263 0243 C0       		.byte	-64
 1264 0244 B3       		.byte	-77
 1265 0245 18       		.byte	24
 1266 0246 B4       		.byte	-76
 1267 0247 0F       		.byte	15
 1268 0248 B5       		.byte	-75
 1269 0249 40       		.byte	64
 1270 024a B7       		.byte	-73
 1271 024b 20       		.byte	32
 1272 024c B8       		.byte	-72
 1273 024d 02       		.byte	2
 1274 024e BA       		.byte	-70
 1275 024f 20       		.byte	32
 1276 0250 BE       		.byte	-66
 1277 0251 01       		.byte	1
 1278 0252 BF       		.byte	-65
 1279 0253 04       		.byte	4
 1280 0254 C0       		.byte	-64
 1281 0255 04       		.byte	4
 1282 0256 C6       		.byte	-58
 1283 0257 40       		.byte	64
 1284 0258 C9       		.byte	-55
 1285 0259 FF       		.byte	-1
 1286 025a CA       		.byte	-54
 1287 025b 07       		.byte	7
 1288 025c CB       		.byte	-53
 1289 025d FF       		.byte	-1
 1290 025e CC       		.byte	-52
 1291 025f 40       		.byte	64
 1292 0260 CD       		.byte	-51
 1293 0261 20       		.byte	32
 1294 0262 CE       		.byte	-50
 1295 0263 F0       		.byte	-16
 1296 0264 CF       		.byte	-49
 1297 0265 05       		.byte	5
 1298 0266 D0       		.byte	-48
 1299 0267 08       		.byte	8
 1300 0268 D6       		.byte	-42
 1301 0269 08       		.byte	8
 1302 026a D8       		.byte	-40
 1303 026b 04       		.byte	4
 1304 026c D9       		.byte	-39
 1305 026d 04       		.byte	4
 1306 026e DA       		.byte	-38
 1307 026f 04       		.byte	4
 1308 0270 DB       		.byte	-37
ARM GAS  C:\Users\sdysart\AppData\Local\Temp\ccTd7P7b.s 			page 41


 1309 0271 04       		.byte	4
 1310 0272 DD       		.byte	-35
 1311 0273 90       		.byte	-112
 1312 0274 DF       		.byte	-33
 1313 0275 01       		.byte	1
 1314 0276 E0       		.byte	-32
 1315 0277 40       		.byte	64
 1316 0278 E1       		.byte	-31
 1317 0279 A8       		.byte	-88
 1318 027a E2       		.byte	-30
 1319 027b 40       		.byte	64
 1320 027c E3       		.byte	-29
 1321 027d 20       		.byte	32
 1322 027e 00       		.byte	0
 1323 027f 80       		.byte	-128
 1324 0280 02       		.byte	2
 1325 0281 42       		.byte	66
 1326 0282 03       		.byte	3
 1327 0283 A8       		.byte	-88
 1328 0284 04       		.byte	4
 1329 0285 24       		.byte	36
 1330 0286 06       		.byte	6
 1331 0287 42       		.byte	66
 1332 0288 07       		.byte	7
 1333 0289 02       		.byte	2
 1334 028a 08       		.byte	8
 1335 028b 02       		.byte	2
 1336 028c 09       		.byte	9
 1337 028d 08       		.byte	8
 1338 028e 0A       		.byte	10
 1339 028f 04       		.byte	4
 1340 0290 0C       		.byte	12
 1341 0291 84       		.byte	-124
 1342 0292 0E       		.byte	14
 1343 0293 10       		.byte	16
 1344 0294 0F       		.byte	15
 1345 0295 08       		.byte	8
 1346 0296 12       		.byte	18
 1347 0297 24       		.byte	36
 1348 0298 13       		.byte	19
 1349 0299 02       		.byte	2
 1350 029a 17       		.byte	23
 1351 029b 08       		.byte	8
 1352 029c 18       		.byte	24
 1353 029d 04       		.byte	4
 1354 029e 1A       		.byte	26
 1355 029f 44       		.byte	68
 1356 02a0 1B       		.byte	27
 1357 02a1 08       		.byte	8
 1358 02a2 1E       		.byte	30
 1359 02a3 10       		.byte	16
 1360 02a4 1F       		.byte	31
 1361 02a5 80       		.byte	-128
 1362 02a6 20       		.byte	32
 1363 02a7 02       		.byte	2
 1364 02a8 21       		.byte	33
 1365 02a9 02       		.byte	2
ARM GAS  C:\Users\sdysart\AppData\Local\Temp\ccTd7P7b.s 			page 42


 1366 02aa 22       		.byte	34
 1367 02ab 88       		.byte	-120
 1368 02ac 23       		.byte	35
 1369 02ad 44       		.byte	68
 1370 02ae 24       		.byte	36
 1371 02af 40       		.byte	64
 1372 02b0 26       		.byte	38
 1373 02b1 20       		.byte	32
 1374 02b2 27       		.byte	39
 1375 02b3 0A       		.byte	10
 1376 02b4 28       		.byte	40
 1377 02b5 02       		.byte	2
 1378 02b6 2B       		.byte	43
 1379 02b7 08       		.byte	8
 1380 02b8 2D       		.byte	45
 1381 02b9 20       		.byte	32
 1382 02ba 2F       		.byte	47
 1383 02bb 80       		.byte	-128
 1384 02bc 31       		.byte	49
 1385 02bd 08       		.byte	8
 1386 02be 32       		.byte	50
 1387 02bf 40       		.byte	64
 1388 02c0 33       		.byte	51
 1389 02c1 04       		.byte	4
 1390 02c2 36       		.byte	54
 1391 02c3 22       		.byte	34
 1392 02c4 39       		.byte	57
 1393 02c5 04       		.byte	4
 1394 02c6 3A       		.byte	58
 1395 02c7 04       		.byte	4
 1396 02c8 3B       		.byte	59
 1397 02c9 40       		.byte	64
 1398 02ca 3E       		.byte	62
 1399 02cb 06       		.byte	6
 1400 02cc 3F       		.byte	63
 1401 02cd 80       		.byte	-128
 1402 02ce 42       		.byte	66
 1403 02cf 40       		.byte	64
 1404 02d0 46       		.byte	70
 1405 02d1 40       		.byte	64
 1406 02d2 47       		.byte	71
 1407 02d3 08       		.byte	8
 1408 02d4 48       		.byte	72
 1409 02d5 C0       		.byte	-64
 1410 02d6 4E       		.byte	78
 1411 02d7 02       		.byte	2
 1412 02d8 4F       		.byte	79
 1413 02d9 08       		.byte	8
 1414 02da 50       		.byte	80
 1415 02db 10       		.byte	16
 1416 02dc 53       		.byte	83
 1417 02dd 20       		.byte	32
 1418 02de 56       		.byte	86
 1419 02df 80       		.byte	-128
 1420 02e0 57       		.byte	87
 1421 02e1 41       		.byte	65
 1422 02e2 58       		.byte	88
ARM GAS  C:\Users\sdysart\AppData\Local\Temp\ccTd7P7b.s 			page 43


 1423 02e3 80       		.byte	-128
 1424 02e4 5C       		.byte	92
 1425 02e5 40       		.byte	64
 1426 02e6 5E       		.byte	94
 1427 02e7 0A       		.byte	10
 1428 02e8 5F       		.byte	95
 1429 02e9 20       		.byte	32
 1430 02ea 60       		.byte	96
 1431 02eb 02       		.byte	2
 1432 02ec 7A       		.byte	122
 1433 02ed 01       		.byte	1
 1434 02ee 7B       		.byte	123
 1435 02ef 01       		.byte	1
 1436 02f0 C0       		.byte	-64
 1437 02f1 FF       		.byte	-1
 1438 02f2 C2       		.byte	-62
 1439 02f3 EE       		.byte	-18
 1440 02f4 C4       		.byte	-60
 1441 02f5 2E       		.byte	46
 1442 02f6 CA       		.byte	-54
 1443 02f7 AC       		.byte	-84
 1444 02f8 CC       		.byte	-52
 1445 02f9 AA       		.byte	-86
 1446 02fa CE       		.byte	-50
 1447 02fb DA       		.byte	-38
 1448 02fc D0       		.byte	-48
 1449 02fd C1       		.byte	-63
 1450 02fe D2       		.byte	-46
 1451 02ff 10       		.byte	16
 1452 0300 D6       		.byte	-42
 1453 0301 F8       		.byte	-8
 1454 0302 D8       		.byte	-40
 1455 0303 08       		.byte	8
 1456 0304 EA       		.byte	-22
 1457 0305 02       		.byte	2
 1458 0306 EE       		.byte	-18
 1459 0307 0A       		.byte	10
 1460 0308 86       		.byte	-122
 1461 0309 02       		.byte	2
 1462 030a 8E       		.byte	-114
 1463 030b 01       		.byte	1
 1464 030c 9A       		.byte	-102
 1465 030d 02       		.byte	2
 1466 030e 9C       		.byte	-100
 1467 030f 04       		.byte	4
 1468 0310 A8       		.byte	-88
 1469 0311 08       		.byte	8
 1470 0312 AE       		.byte	-82
 1471 0313 01       		.byte	1
 1472 0314 B0       		.byte	-80
 1473 0315 02       		.byte	2
 1474 0316 B2       		.byte	-78
 1475 0317 01       		.byte	1
 1476 0318 B4       		.byte	-76
 1477 0319 04       		.byte	4
 1478 031a B6       		.byte	-74
 1479 031b 08       		.byte	8
ARM GAS  C:\Users\sdysart\AppData\Local\Temp\ccTd7P7b.s 			page 44


 1480 031c BE       		.byte	-66
 1481 031d 55       		.byte	85
 1482 031e D4       		.byte	-44
 1483 031f 18       		.byte	24
 1484 0320 D6       		.byte	-42
 1485 0321 04       		.byte	4
 1486 0322 D8       		.byte	-40
 1487 0323 04       		.byte	4
 1488 0324 DB       		.byte	-37
 1489 0325 04       		.byte	4
 1490 0326 DF       		.byte	-33
 1491 0327 01       		.byte	1
 1492 0328 00       		.byte	0
 1493 0329 40       		.byte	64
 1494 032a 02       		.byte	2
 1495 032b 80       		.byte	-128
 1496 032c 03       		.byte	3
 1497 032d 28       		.byte	40
 1498 032e 04       		.byte	4
 1499 032f 80       		.byte	-128
 1500 0330 05       		.byte	5
 1501 0331 04       		.byte	4
 1502 0332 08       		.byte	8
 1503 0333 42       		.byte	66
 1504 0334 0A       		.byte	10
 1505 0335 10       		.byte	16
 1506 0336 0B       		.byte	11
 1507 0337 04       		.byte	4
 1508 0338 0D       		.byte	13
 1509 0339 10       		.byte	16
 1510 033a 0F       		.byte	15
 1511 033b 02       		.byte	2
 1512 033c 10       		.byte	16
 1513 033d 02       		.byte	2
 1514 033e 13       		.byte	19
 1515 033f 29       		.byte	41
 1516 0340 14       		.byte	20
 1517 0341 04       		.byte	4
 1518 0342 15       		.byte	21
 1519 0343 80       		.byte	-128
 1520 0344 18       		.byte	24
 1521 0345 40       		.byte	64
 1522 0346 1A       		.byte	26
 1523 0347 10       		.byte	16
 1524 0348 1B       		.byte	27
 1525 0349 A4       		.byte	-92
 1526 034a 1D       		.byte	29
 1527 034b 40       		.byte	64
 1528 034c 1E       		.byte	30
 1529 034d 08       		.byte	8
 1530 034e 1F       		.byte	31
 1531 034f 05       		.byte	5
 1532 0350 20       		.byte	32
 1533 0351 20       		.byte	32
 1534 0352 21       		.byte	33
 1535 0353 50       		.byte	80
 1536 0354 22       		.byte	34
ARM GAS  C:\Users\sdysart\AppData\Local\Temp\ccTd7P7b.s 			page 45


 1537 0355 01       		.byte	1
 1538 0356 28       		.byte	40
 1539 0357 42       		.byte	66
 1540 0358 2B       		.byte	43
 1541 0359 84       		.byte	-124
 1542 035a 30       		.byte	48
 1543 035b 02       		.byte	2
 1544 035c 31       		.byte	49
 1545 035d 02       		.byte	2
 1546 035e 32       		.byte	50
 1547 035f 80       		.byte	-128
 1548 0360 33       		.byte	51
 1549 0361 28       		.byte	40
 1550 0362 38       		.byte	56
 1551 0363 68       		.byte	104
 1552 0364 3B       		.byte	59
 1553 0365 01       		.byte	1
 1554 0366 40       		.byte	64
 1555 0367 40       		.byte	64
 1556 0368 41       		.byte	65
 1557 0369 14       		.byte	20
 1558 036a 48       		.byte	72
 1559 036b 01       		.byte	1
 1560 036c 49       		.byte	73
 1561 036d 04       		.byte	4
 1562 036e 4A       		.byte	74
 1563 036f 08       		.byte	8
 1564 0370 50       		.byte	80
 1565 0371 40       		.byte	64
 1566 0372 5A       		.byte	90
 1567 0373 02       		.byte	2
 1568 0374 5E       		.byte	94
 1569 0375 01       		.byte	1
 1570 0376 66       		.byte	102
 1571 0377 02       		.byte	2
 1572 0378 67       		.byte	103
 1573 0379 0A       		.byte	10
 1574 037a 69       		.byte	105
 1575 037b 04       		.byte	4
 1576 037c 6A       		.byte	106
 1577 037d 80       		.byte	-128
 1578 037e 6B       		.byte	107
 1579 037f 04       		.byte	4
 1580 0380 70       		.byte	112
 1581 0381 14       		.byte	20
 1582 0382 73       		.byte	115
 1583 0383 29       		.byte	41
 1584 0384 79       		.byte	121
 1585 0385 08       		.byte	8
 1586 0386 7B       		.byte	123
 1587 0387 20       		.byte	32
 1588 0388 81       		.byte	-127
 1589 0389 04       		.byte	4
 1590 038a 88       		.byte	-120
 1591 038b 90       		.byte	-112
 1592 038c 89       		.byte	-119
 1593 038d 40       		.byte	64
ARM GAS  C:\Users\sdysart\AppData\Local\Temp\ccTd7P7b.s 			page 46


 1594 038e 8A       		.byte	-118
 1595 038f 01       		.byte	1
 1596 0390 8E       		.byte	-114
 1597 0391 02       		.byte	2
 1598 0392 93       		.byte	-109
 1599 0393 04       		.byte	4
 1600 0394 95       		.byte	-107
 1601 0395 04       		.byte	4
 1602 0396 96       		.byte	-106
 1603 0397 80       		.byte	-128
 1604 0398 98       		.byte	-104
 1605 0399 06       		.byte	6
 1606 039a 9C       		.byte	-100
 1607 039b 80       		.byte	-128
 1608 039c 9F       		.byte	-97
 1609 039d 04       		.byte	4
 1610 039e A0       		.byte	-96
 1611 039f 01       		.byte	1
 1612 03a0 A1       		.byte	-95
 1613 03a1 02       		.byte	2
 1614 03a2 A2       		.byte	-94
 1615 03a3 88       		.byte	-120
 1616 03a4 A3       		.byte	-93
 1617 03a5 09       		.byte	9
 1618 03a6 A6       		.byte	-90
 1619 03a7 04       		.byte	4
 1620 03a8 B1       		.byte	-79
 1621 03a9 20       		.byte	32
 1622 03aa B2       		.byte	-78
 1623 03ab 80       		.byte	-128
 1624 03ac B3       		.byte	-77
 1625 03ad 20       		.byte	32
 1626 03ae C0       		.byte	-64
 1627 03af AF       		.byte	-81
 1628 03b0 C2       		.byte	-62
 1629 03b1 CF       		.byte	-49
 1630 03b2 C4       		.byte	-60
 1631 03b3 CF       		.byte	-49
 1632 03b4 CA       		.byte	-54
 1633 03b5 0D       		.byte	13
 1634 03b6 CC       		.byte	-52
 1635 03b7 0F       		.byte	15
 1636 03b8 CE       		.byte	-50
 1637 03b9 0F       		.byte	15
 1638 03ba D0       		.byte	-48
 1639 03bb 07       		.byte	7
 1640 03bc D2       		.byte	-46
 1641 03bd 0C       		.byte	12
 1642 03be D6       		.byte	-42
 1643 03bf 81       		.byte	-127
 1644 03c0 D8       		.byte	-40
 1645 03c1 B0       		.byte	-80
 1646 03c2 E2       		.byte	-30
 1647 03c3 40       		.byte	64
 1648 03c4 E4       		.byte	-28
 1649 03c5 01       		.byte	1
 1650 03c6 33       		.byte	51
ARM GAS  C:\Users\sdysart\AppData\Local\Temp\ccTd7P7b.s 			page 47


 1651 03c7 81       		.byte	-127
 1652 03c8 35       		.byte	53
 1653 03c9 08       		.byte	8
 1654 03ca 36       		.byte	54
 1655 03cb 40       		.byte	64
 1656 03cc 3B       		.byte	59
 1657 03cd 40       		.byte	64
 1658 03ce CC       		.byte	-52
 1659 03cf F0       		.byte	-16
 1660 03d0 CE       		.byte	-50
 1661 03d1 10       		.byte	16
 1662 03d2 97       		.byte	-105
 1663 03d3 40       		.byte	64
 1664 03d4 9D       		.byte	-99
 1665 03d5 08       		.byte	8
 1666 03d6 9F       		.byte	-97
 1667 03d7 01       		.byte	1
 1668 03d8 A6       		.byte	-90
 1669 03d9 40       		.byte	64
 1670 03da A7       		.byte	-89
 1671 03db 80       		.byte	-128
 1672 03dc 97       		.byte	-105
 1673 03dd 40       		.byte	64
 1674 03de 9D       		.byte	-99
 1675 03df 08       		.byte	8
 1676 03e0 9F       		.byte	-97
 1677 03e1 01       		.byte	1
 1678 03e2 A6       		.byte	-90
 1679 03e3 40       		.byte	64
 1680 03e4 A7       		.byte	-89
 1681 03e5 80       		.byte	-128
 1682 03e6 97       		.byte	-105
 1683 03e7 40       		.byte	64
 1684 03e8 9D       		.byte	-99
 1685 03e9 08       		.byte	8
 1686 03ea 9F       		.byte	-97
 1687 03eb 01       		.byte	1
 1688 03ec A6       		.byte	-90
 1689 03ed 40       		.byte	64
 1690 03ee A7       		.byte	-89
 1691 03ef 80       		.byte	-128
 1692 03f0 08       		.byte	8
 1693 03f1 08       		.byte	8
 1694 03f2 0B       		.byte	11
 1695 03f3 04       		.byte	4
 1696 03f4 0F       		.byte	15
 1697 03f5 40       		.byte	64
 1698 03f6 C2       		.byte	-62
 1699 03f7 0E       		.byte	14
 1700 03f8 97       		.byte	-105
 1701 03f9 40       		.byte	64
 1702 03fa 9D       		.byte	-99
 1703 03fb 08       		.byte	8
 1704 03fc AE       		.byte	-82
 1705 03fd 40       		.byte	64
 1706 03fe AF       		.byte	-81
 1707 03ff 81       		.byte	-127
ARM GAS  C:\Users\sdysart\AppData\Local\Temp\ccTd7P7b.s 			page 48


 1708 0400 EA       		.byte	-22
 1709 0401 40       		.byte	64
 1710 0402 EE       		.byte	-18
 1711 0403 50       		.byte	80
 1712 0404 8D       		.byte	-115
 1713 0405 08       		.byte	8
 1714 0406 9D       		.byte	-99
 1715 0407 08       		.byte	8
 1716 0408 AF       		.byte	-81
 1717 0409 40       		.byte	64
 1718 040a EE       		.byte	-18
 1719 040b 40       		.byte	64
 1720 040c 0F       		.byte	15
 1721 040d 40       		.byte	64
 1722 040e 5F       		.byte	95
 1723 040f 02       		.byte	2
 1724 0410 AC       		.byte	-84
 1725 0411 08       		.byte	8
 1726 0412 AF       		.byte	-81
 1727 0413 44       		.byte	68
 1728 0414 C2       		.byte	-62
 1729 0415 04       		.byte	4
 1730 0416 D6       		.byte	-42
 1731 0417 01       		.byte	1
 1732 0418 10       		.byte	16
 1733 0419 10       		.byte	16
 1734 041a 7B       		.byte	123
 1735 041b 01       		.byte	1
 1736 041c 83       		.byte	-125
 1737 041d 02       		.byte	2
 1738 041e 88       		.byte	-120
 1739 041f 10       		.byte	16
 1740 0420 8B       		.byte	-117
 1741 0421 01       		.byte	1
 1742 0422 9F       		.byte	-97
 1743 0423 02       		.byte	2
 1744 0424 B3       		.byte	-77
 1745 0425 40       		.byte	64
 1746 0426 C4       		.byte	-60
 1747 0427 08       		.byte	8
 1748 0428 DC       		.byte	-36
 1749 0429 01       		.byte	1
 1750 042a E0       		.byte	-32
 1751 042b 01       		.byte	1
 1752 042c E2       		.byte	-30
 1753 042d 04       		.byte	4
 1754 042e EA       		.byte	-22
 1755 042f 04       		.byte	4
 1756 0430 10       		.byte	16
 1757 0431 01       		.byte	1
 1758 0432 11       		.byte	17
 1759 0433 01       		.byte	1
 1760 0434 1B       		.byte	27
 1761 0435 01       		.byte	1
 1762 0436 1C       		.byte	28
 1763 0437 01       		.byte	1
 1764 0438 1D       		.byte	29
ARM GAS  C:\Users\sdysart\AppData\Local\Temp\ccTd7P7b.s 			page 49


 1765 0439 01       		.byte	1
 1766 043a 00       		.byte	0
 1767 043b EA       		.byte	-22
 1768 043c 01       		.byte	1
 1769 043d 03       		.byte	3
 1770 043e 0000     		.align	2
 1771              		.type	BS_IOPINS0_7_VAL.5032, %object
 1772              		.size	BS_IOPINS0_7_VAL.5032, 10
 1773              	BS_IOPINS0_7_VAL.5032:
 1774 0440 80       		.byte	-128
 1775 0441 00       		.byte	0
 1776 0442 40       		.byte	64
 1777 0443 80       		.byte	-128
 1778 0444 80       		.byte	-128
 1779 0445 00       		.byte	0
 1780 0446 80       		.byte	-128
 1781 0447 00       		.byte	0
 1782 0448 00       		.byte	0
 1783 0449 00       		.byte	0
 1784 044a 0000     		.align	2
 1785              		.type	BS_IOPINS0_8_VAL.5033, %object
 1786              		.size	BS_IOPINS0_8_VAL.5033, 10
 1787              	BS_IOPINS0_8_VAL.5033:
 1788 044c 40       		.byte	64
 1789 044d 00       		.byte	0
 1790 044e 00       		.byte	0
 1791 044f 00       		.byte	0
 1792 0450 00       		.byte	0
 1793 0451 00       		.byte	0
 1794 0452 00       		.byte	0
 1795 0453 00       		.byte	0
 1796 0454 C0       		.byte	-64
 1797 0455 00       		.byte	0
 1798 0456 0000     		.align	2
 1799              		.type	BS_IOPINS0_1_VAL.5034, %object
 1800              		.size	BS_IOPINS0_1_VAL.5034, 10
 1801              	BS_IOPINS0_1_VAL.5034:
 1802 0458 00       		.byte	0
 1803 0459 00       		.byte	0
 1804 045a 20       		.byte	32
 1805 045b 1F       		.byte	31
 1806 045c 1B       		.byte	27
 1807 045d 00       		.byte	0
 1808 045e 10       		.byte	16
 1809 045f 00       		.byte	0
 1810 0460 00       		.byte	0
 1811 0461 00       		.byte	0
 1812 0462 0000     		.align	2
 1813              		.type	BS_IOPINS0_2_VAL.5035, %object
 1814              		.size	BS_IOPINS0_2_VAL.5035, 8
 1815              	BS_IOPINS0_2_VAL.5035:
 1816 0464 00       		.byte	0
 1817 0465 7F       		.byte	127
 1818 0466 7F       		.byte	127
 1819 0467 00       		.byte	0
 1820 0468 00       		.byte	0
 1821 0469 00       		.byte	0
ARM GAS  C:\Users\sdysart\AppData\Local\Temp\ccTd7P7b.s 			page 50


 1822 046a 00       		.byte	0
 1823 046b 00       		.byte	0
 1824              		.align	2
 1825              		.type	BS_UDB_0_0_0_CONFIG_VAL.5048, %object
 1826              		.size	BS_UDB_0_0_0_CONFIG_VAL.5048, 128
 1827              	BS_UDB_0_0_0_CONFIG_VAL.5048:
 1828 046c 00       		.byte	0
 1829 046d 20       		.byte	32
 1830 046e B3       		.byte	-77
 1831 046f 00       		.byte	0
 1832 0470 FF       		.byte	-1
 1833 0471 30       		.byte	48
 1834 0472 00       		.byte	0
 1835 0473 00       		.byte	0
 1836 0474 01       		.byte	1
 1837 0475 10       		.byte	16
 1838 0476 00       		.byte	0
 1839 0477 00       		.byte	0
 1840 0478 F3       		.byte	-13
 1841 0479 4F       		.byte	79
 1842 047a 0C       		.byte	12
 1843 047b 30       		.byte	48
 1844 047c 42       		.byte	66
 1845 047d 03       		.byte	3
 1846 047e 00       		.byte	0
 1847 047f 00       		.byte	0
 1848 0480 4F       		.byte	79
 1849 0481 01       		.byte	1
 1850 0482 90       		.byte	-112
 1851 0483 00       		.byte	0
 1852 0484 00       		.byte	0
 1853 0485 7F       		.byte	127
 1854 0486 40       		.byte	64
 1855 0487 00       		.byte	0
 1856 0488 4C       		.byte	76
 1857 0489 00       		.byte	0
 1858 048a A3       		.byte	-93
 1859 048b 0B       		.byte	11
 1860 048c 08       		.byte	8
 1861 048d 78       		.byte	120
 1862 048e 00       		.byte	0
 1863 048f 07       		.byte	7
 1864 0490 04       		.byte	4
 1865 0491 00       		.byte	0
 1866 0492 00       		.byte	0
 1867 0493 00       		.byte	0
 1868 0494 0C       		.byte	12
 1869 0495 70       		.byte	112
 1870 0496 00       		.byte	0
 1871 0497 0F       		.byte	15
 1872 0498 03       		.byte	3
 1873 0499 02       		.byte	2
 1874 049a 00       		.byte	0
 1875 049b 00       		.byte	0
 1876 049c 0F       		.byte	15
 1877 049d 40       		.byte	64
 1878 049e 8C       		.byte	-116
ARM GAS  C:\Users\sdysart\AppData\Local\Temp\ccTd7P7b.s 			page 51


 1879 049f 03       		.byte	3
 1880 04a0 00       		.byte	0
 1881 04a1 38       		.byte	56
 1882 04a2 7C       		.byte	124
 1883 04a3 04       		.byte	4
 1884 04a4 00       		.byte	0
 1885 04a5 80       		.byte	-128
 1886 04a6 AA       		.byte	-86
 1887 04a7 00       		.byte	0
 1888 04a8 00       		.byte	0
 1889 04a9 00       		.byte	0
 1890 04aa 00       		.byte	0
 1891 04ab 01       		.byte	1
 1892 04ac 45       		.byte	69
 1893 04ad 03       		.byte	3
 1894 04ae 02       		.byte	2
 1895 04af 00       		.byte	0
 1896 04b0 06       		.byte	6
 1897 04b1 0C       		.byte	12
 1898 04b2 0E       		.byte	14
 1899 04b3 00       		.byte	0
 1900 04b4 05       		.byte	5
 1901 04b5 FF       		.byte	-1
 1902 04b6 FF       		.byte	-1
 1903 04b7 FF       		.byte	-1
 1904 04b8 62       		.byte	98
 1905 04b9 A0       		.byte	-96
 1906 04ba F0       		.byte	-16
 1907 04bb 41       		.byte	65
 1908 04bc 0C       		.byte	12
 1909 04bd 00       		.byte	0
 1910 04be 00       		.byte	0
 1911 04bf 00       		.byte	0
 1912 04c0 00       		.byte	0
 1913 04c1 00       		.byte	0
 1914 04c2 02       		.byte	2
 1915 04c3 13       		.byte	19
 1916 04c4 04       		.byte	4
 1917 04c5 04       		.byte	4
 1918 04c6 04       		.byte	4
 1919 04c7 04       		.byte	4
 1920 04c8 00       		.byte	0
 1921 04c9 00       		.byte	0
 1922 04ca 00       		.byte	0
 1923 04cb 01       		.byte	1
 1924 04cc 00       		.byte	0
 1925 04cd 00       		.byte	0
 1926 04ce 00       		.byte	0
 1927 04cf 00       		.byte	0
 1928 04d0 00       		.byte	0
 1929 04d1 00       		.byte	0
 1930 04d2 40       		.byte	64
 1931 04d3 02       		.byte	2
 1932 04d4 00       		.byte	0
 1933 04d5 10       		.byte	16
 1934 04d6 30       		.byte	48
 1935 04d7 10       		.byte	16
ARM GAS  C:\Users\sdysart\AppData\Local\Temp\ccTd7P7b.s 			page 52


 1936 04d8 00       		.byte	0
 1937 04d9 10       		.byte	16
 1938 04da 10       		.byte	16
 1939 04db 12       		.byte	18
 1940 04dc 00       		.byte	0
 1941 04dd 00       		.byte	0
 1942 04de 00       		.byte	0
 1943 04df 00       		.byte	0
 1944 04e0 00       		.byte	0
 1945 04e1 00       		.byte	0
 1946 04e2 00       		.byte	0
 1947 04e3 00       		.byte	0
 1948 04e4 00       		.byte	0
 1949 04e5 00       		.byte	0
 1950 04e6 00       		.byte	0
 1951 04e7 00       		.byte	0
 1952 04e8 00       		.byte	0
 1953 04e9 00       		.byte	0
 1954 04ea 00       		.byte	0
 1955 04eb 00       		.byte	0
 1956              		.text
 1957              	.Letext0:
 1958              		.file 2 "c:\\program files (x86)\\cypress\\psoc creator\\4.1\\psoc creator\\import\\gnu\\arm\\5.4.
 1959              		.file 3 "Generated_Source\\PSoC5\\cytypes.h"