ARM GAS  C:\Users\sdysart\AppData\Local\Temp\ccXfJ371.s 			page 1


   1              		.syntax unified
   2              		.cpu cortex-m3
   3              		.fpu softvfp
   4              		.eabi_attribute 20, 1
   5              		.eabi_attribute 21, 1
   6              		.eabi_attribute 23, 3
   7              		.eabi_attribute 24, 1
   8              		.eabi_attribute 25, 1
   9              		.eabi_attribute 26, 1
  10              		.eabi_attribute 30, 1
  11              		.eabi_attribute 34, 1
  12              		.eabi_attribute 18, 4
  13              		.thumb
  14              		.syntax unified
  15              		.file	"main.c"
  16              		.text
  17              	.Ltext0:
  18              		.cfi_sections	.debug_frame
  19              		.section	.text.HighF_LevelCount,"ax",%progbits
  20              		.align	2
  21              		.global	HighF_LevelCount
  22              		.thumb
  23              		.thumb_func
  24              		.type	HighF_LevelCount, %function
  25              	HighF_LevelCount:
  26              	.LFB65:
  27              		.file 1 "main.c"
   1:main.c        **** /* ========================================
   2:main.c        ****  *
   3:main.c        ****  * Copyright YOUR COMPANY, THE YEAR
   4:main.c        ****  * All Rights Reserved
   5:main.c        ****  * UNPUBLISHED, LICENSED SOFTWARE.
   6:main.c        ****  *
   7:main.c        ****  * CONFIDENTIAL AND PROPRIETARY INFORMATION
   8:main.c        ****  * WHICH IS THE PROPERTY OF your company.
   9:main.c        ****  *
  10:main.c        ****  * ========================================
  11:main.c        **** */
  12:main.c        **** #include "project.h"
  13:main.c        **** #include <stdio.h>
  14:main.c        **** #include "LCD_Char.h"
  15:main.c        **** 
  16:main.c        **** //isr prototype
  17:main.c        **** CY_ISR_PROTO(HighF_LevelCount);
  18:main.c        **** 
  19:main.c        **** static uint16 levelCounter = 0;
  20:main.c        **** static uint8 zeroCount = 0; 
  21:main.c        **** static uint8 oneCount = 0; 
  22:main.c        **** static uint8 currentBit = 0;
  23:main.c        **** static uint8 dataCount = 0;
  24:main.c        **** static uint8 data = 0;
  25:main.c        **** static uint8 crabs = 0;
  26:main.c        **** 
  27:main.c        **** 
  28:main.c        **** //FLAGS
  29:main.c        **** static uint8 lcdFlagEncode = 0;
  30:main.c        **** static uint8 lcdFlagData = 0;
ARM GAS  C:\Users\sdysart\AppData\Local\Temp\ccXfJ371.s 			page 2


  31:main.c        **** static uint8 lcdFlagDecode = 0;
  32:main.c        **** static uint8 dataFlag = 0;
  33:main.c        **** static uint8 decodeFlag = 0;
  34:main.c        **** static uint8 decodeWrong = 0;
  35:main.c        **** 
  36:main.c        **** int main(void)
  37:main.c        **** {
  38:main.c        ****     CyGlobalIntEnable; /* Enable global interrupts. */
  39:main.c        **** 
  40:main.c        ****     /* Place your initialization/startup code here (e.g. MyInst_Start()) */
  41:main.c        ****     HighF_BPF_Comp_Start();
  42:main.c        ****     HighF_ShiftReg_Start();
  43:main.c        ****     HighF_Ref_OpAmp_Start();
  44:main.c        ****     HighF_PGA_Start() ; 
  45:main.c        ****     HighF_OutComp_Start();
  46:main.c        ****     HighF_LevelCount_Start();
  47:main.c        ****     HighF_LevelCountISR_StartEx(HighF_LevelCount);
  48:main.c        ****     LCD_Char_Start();
  49:main.c        ****     
  50:main.c        ****     /* Place your initialization/startup code here (e.g. MyInst_Start()) */
  51:main.c        ****     char OutputString[12];
  52:main.c        ****     char display[12];
  53:main.c        ****     sprintf(display, "counting crabs...");
  54:main.c        ****     LCD_Char_Position(0u,0u);
  55:main.c        ****     LCD_Char_PrintString(display);
  56:main.c        ****     
  57:main.c        ****     for(;;)
  58:main.c        ****     {
  59:main.c        ****         /* Place your application code here. */
  60:main.c        ****     }
  61:main.c        **** }
  62:main.c        **** 
  63:main.c        **** 
  64:main.c        **** //Bit length = 0.5s
  65:main.c        **** //timer period = 0.05s
  66:main.c        **** //will check bit 10 times, to debounce
  67:main.c        **** //will set bit after 0.4s (8 checks) 
  68:main.c        **** CY_ISR(HighF_LevelCount){
  28              		.loc 1 68 0
  29              		.cfi_startproc
  30              		@ args = 0, pretend = 0, frame = 0
  31              		@ frame_needed = 0, uses_anonymous_args = 0
  32 0000 08B5     		push	{r3, lr}
  33              		.cfi_def_cfa_offset 8
  34              		.cfi_offset 3, -8
  35              		.cfi_offset 14, -4
  69:main.c        ****     levelCounter++;
  36              		.loc 1 69 0
  37 0002 2C4A     		ldr	r2, .L10
  38 0004 1388     		ldrh	r3, [r2]
  39 0006 0133     		adds	r3, r3, #1
  40 0008 1380     		strh	r3, [r2]	@ movhi
  70:main.c        ****     
  71:main.c        ****     if(HighF_OutComp_GetCompare() != 0){
  41              		.loc 1 71 0
  42 000a FFF7FEFF 		bl	HighF_OutComp_GetCompare
  43              	.LVL0:
ARM GAS  C:\Users\sdysart\AppData\Local\Temp\ccXfJ371.s 			page 3


  44 000e 20B1     		cbz	r0, .L2
  72:main.c        ****         oneCount++;
  45              		.loc 1 72 0
  46 0010 284A     		ldr	r2, .L10
  47 0012 9378     		ldrb	r3, [r2, #2]	@ zero_extendqisi2
  48 0014 0133     		adds	r3, r3, #1
  49 0016 9370     		strb	r3, [r2, #2]
  50 0018 03E0     		b	.L3
  51              	.L2:
  73:main.c        ****     }else{
  74:main.c        ****         zeroCount++;
  52              		.loc 1 74 0
  53 001a 264A     		ldr	r2, .L10
  54 001c D378     		ldrb	r3, [r2, #3]	@ zero_extendqisi2
  55 001e 0133     		adds	r3, r3, #1
  56 0020 D370     		strb	r3, [r2, #3]
  57              	.L3:
  75:main.c        ****     }
  76:main.c        ****     
  77:main.c        ****     //debouncing every 0.4s, with a check of 7/8 hits 
  78:main.c        ****     if(levelCounter == 10){
  58              		.loc 1 78 0
  59 0022 244B     		ldr	r3, .L10
  60 0024 1B88     		ldrh	r3, [r3]
  61 0026 0A2B     		cmp	r3, #10
  62 0028 43D1     		bne	.L1
  79:main.c        ****         if(oneCount >= 7){
  63              		.loc 1 79 0
  64 002a 224B     		ldr	r3, .L10
  65 002c 9B78     		ldrb	r3, [r3, #2]	@ zero_extendqisi2
  66 002e 062B     		cmp	r3, #6
  67 0030 05D9     		bls	.L5
  80:main.c        ****             currentBit = 0x01;
  68              		.loc 1 80 0
  69 0032 204B     		ldr	r3, .L10
  70 0034 0122     		movs	r2, #1
  71 0036 1A71     		strb	r2, [r3, #4]
  81:main.c        ****             oneCount = 0;
  72              		.loc 1 81 0
  73 0038 0022     		movs	r2, #0
  74 003a 9A70     		strb	r2, [r3, #2]
  75 003c 03E0     		b	.L6
  76              	.L5:
  82:main.c        ****         
  83:main.c        ****         }else{
  84:main.c        ****             currentBit = 0x00; 
  77              		.loc 1 84 0
  78 003e 1D4B     		ldr	r3, .L10
  79 0040 0022     		movs	r2, #0
  80 0042 1A71     		strb	r2, [r3, #4]
  85:main.c        ****             zeroCount = 0; 
  81              		.loc 1 85 0
  82 0044 DA70     		strb	r2, [r3, #3]
  83              	.L6:
  86:main.c        ****         }
  87:main.c        ****         dataCount++;
  84              		.loc 1 87 0
ARM GAS  C:\Users\sdysart\AppData\Local\Temp\ccXfJ371.s 			page 4


  85 0046 1B4B     		ldr	r3, .L10
  86 0048 5A79     		ldrb	r2, [r3, #5]	@ zero_extendqisi2
  87 004a 0132     		adds	r2, r2, #1
  88 004c D2B2     		uxtb	r2, r2
  89 004e 5A71     		strb	r2, [r3, #5]
  88:main.c        ****         levelCounter = 0;
  90              		.loc 1 88 0
  91 0050 0021     		movs	r1, #0
  92 0052 1980     		strh	r1, [r3]	@ movhi
  89:main.c        ****         //CountOut_Write(currentBit);
  90:main.c        ****         
  91:main.c        ****         //Look for pre-fix
  92:main.c        ****         data = data << 1;
  93              		.loc 1 92 0
  94 0054 9979     		ldrb	r1, [r3, #6]	@ zero_extendqisi2
  95 0056 4900     		lsls	r1, r1, #1
  96 0058 C9B2     		uxtb	r1, r1
  93:main.c        ****         data = data | currentBit;
  97              		.loc 1 93 0
  98 005a 1879     		ldrb	r0, [r3, #4]	@ zero_extendqisi2
  99 005c 0143     		orrs	r1, r1, r0
 100 005e 9971     		strb	r1, [r3, #6]
  94:main.c        ****         if((data == 0xff) && (dataFlag == 0) && (decodeFlag == 0)){
 101              		.loc 1 94 0
 102 0060 FF29     		cmp	r1, #255
 103 0062 0ED1     		bne	.L7
 104              		.loc 1 94 0 is_stmt 0 discriminator 1
 105 0064 DB79     		ldrb	r3, [r3, #7]	@ zero_extendqisi2
 106 0066 63B9     		cbnz	r3, .L7
 107              		.loc 1 94 0 discriminator 2
 108 0068 124B     		ldr	r3, .L10
 109 006a 1B7A     		ldrb	r3, [r3, #8]	@ zero_extendqisi2
 110 006c 4BB9     		cbnz	r3, .L7
  95:main.c        ****             CountOut_Write(1);
 111              		.loc 1 95 0 is_stmt 1
 112 006e 0120     		movs	r0, #1
 113 0070 FFF7FEFF 		bl	CountOut_Write
 114              	.LVL1:
  96:main.c        ****             dataCount = 0;
 115              		.loc 1 96 0
 116 0074 0F4B     		ldr	r3, .L10
 117 0076 0022     		movs	r2, #0
 118 0078 5A71     		strb	r2, [r3, #5]
  97:main.c        ****             data = 0x00;
 119              		.loc 1 97 0
 120 007a 9A71     		strb	r2, [r3, #6]
  98:main.c        ****             dataFlag = 1; //Start looking for data
 121              		.loc 1 98 0
 122 007c 0122     		movs	r2, #1
 123 007e DA71     		strb	r2, [r3, #7]
  99:main.c        ****             lcdFlagEncode = 1; //Display pre-fix on lcd
 124              		.loc 1 99 0
 125 0080 0BE0     		b	.L8
 126              	.L7:
 100:main.c        **** 
 101:main.c        ****         
 102:main.c        ****         // Look for data
ARM GAS  C:\Users\sdysart\AppData\Local\Temp\ccXfJ371.s 			page 5


 103:main.c        ****         }else if((dataFlag == 1) && (dataCount > 3)){
 127              		.loc 1 103 0
 128 0082 0C4B     		ldr	r3, .L10
 129 0084 DB79     		ldrb	r3, [r3, #7]	@ zero_extendqisi2
 130 0086 012B     		cmp	r3, #1
 131 0088 07D1     		bne	.L8
 132              		.loc 1 103 0 is_stmt 0 discriminator 1
 133 008a 032A     		cmp	r2, #3
 134 008c 05D9     		bls	.L8
 104:main.c        ****             crabs = data;
 105:main.c        ****             data = 0; //Restart data for decode
 135              		.loc 1 105 0 is_stmt 1
 136 008e 094B     		ldr	r3, .L10
 137 0090 0022     		movs	r2, #0
 138 0092 9A71     		strb	r2, [r3, #6]
 106:main.c        ****             dataCount = 0; 
 139              		.loc 1 106 0
 140 0094 5A71     		strb	r2, [r3, #5]
 107:main.c        ****             lcdFlagEncode = 0; //Turn off encode message
 108:main.c        ****             lcdFlagData = 1; //Display data
 109:main.c        ****             decodeFlag = 1; //Now go to decode stage
 141              		.loc 1 109 0
 142 0096 0122     		movs	r2, #1
 143 0098 1A72     		strb	r2, [r3, #8]
 144              	.L8:
 110:main.c        ****         }
 111:main.c        ****         
 112:main.c        ****         if(decodeFlag == 1 && (dataCount > 7)){
 145              		.loc 1 112 0
 146 009a 064B     		ldr	r3, .L10
 147 009c 1B7A     		ldrb	r3, [r3, #8]	@ zero_extendqisi2
 148 009e 012B     		cmp	r3, #1
 149 00a0 07D1     		bne	.L1
 150              		.loc 1 112 0 is_stmt 0 discriminator 1
 151 00a2 044B     		ldr	r3, .L10
 152 00a4 5B79     		ldrb	r3, [r3, #5]	@ zero_extendqisi2
 153 00a6 072B     		cmp	r3, #7
 154 00a8 03D9     		bls	.L1
 113:main.c        ****             if(data == 0x01){
 114:main.c        ****              lcdFlagDecode = 1;
 115:main.c        ****             }else{
 116:main.c        ****                 decodeWrong = 1;
 117:main.c        ****             }
 118:main.c        ****             decodeFlag = 0;
 155              		.loc 1 118 0 is_stmt 1
 156 00aa 024B     		ldr	r3, .L10
 157 00ac 0022     		movs	r2, #0
 158 00ae 1A72     		strb	r2, [r3, #8]
 119:main.c        ****             dataFlag = 0; //Don't want to check for data anymore
 159              		.loc 1 119 0
 160 00b0 DA71     		strb	r2, [r3, #7]
 161              	.L1:
 162 00b2 08BD     		pop	{r3, pc}
 163              	.L11:
 164              		.align	2
 165              	.L10:
 166 00b4 00000000 		.word	.LANCHOR0
ARM GAS  C:\Users\sdysart\AppData\Local\Temp\ccXfJ371.s 			page 6


 167              		.cfi_endproc
 168              	.LFE65:
 169              		.size	HighF_LevelCount, .-HighF_LevelCount
 170              		.section	.text.main,"ax",%progbits
 171              		.align	2
 172              		.global	main
 173              		.thumb
 174              		.thumb_func
 175              		.type	main, %function
 176              	main:
 177              	.LFB64:
  37:main.c        ****     CyGlobalIntEnable; /* Enable global interrupts. */
 178              		.loc 1 37 0
 179              		.cfi_startproc
 180              		@ args = 0, pretend = 0, frame = 16
 181              		@ frame_needed = 0, uses_anonymous_args = 0
 182 0000 30B5     		push	{r4, r5, lr}
 183              		.cfi_def_cfa_offset 12
 184              		.cfi_offset 4, -12
 185              		.cfi_offset 5, -8
 186              		.cfi_offset 14, -4
 187 0002 85B0     		sub	sp, sp, #20
 188              		.cfi_def_cfa_offset 32
  38:main.c        **** 
 189              		.loc 1 38 0
 190              		.syntax unified
 191              	@ 38 "main.c" 1
 192 0004 62B6     		CPSIE   i
 193              	@ 0 "" 2
  41:main.c        ****     HighF_ShiftReg_Start();
 194              		.loc 1 41 0
 195              		.thumb
 196              		.syntax unified
 197 0006 FFF7FEFF 		bl	HighF_BPF_Comp_Start
 198              	.LVL2:
  42:main.c        ****     HighF_Ref_OpAmp_Start();
 199              		.loc 1 42 0
 200 000a FFF7FEFF 		bl	HighF_ShiftReg_Start
 201              	.LVL3:
  43:main.c        ****     HighF_PGA_Start() ; 
 202              		.loc 1 43 0
 203 000e FFF7FEFF 		bl	HighF_Ref_OpAmp_Start
 204              	.LVL4:
  44:main.c        ****     HighF_OutComp_Start();
 205              		.loc 1 44 0
 206 0012 FFF7FEFF 		bl	HighF_PGA_Start
 207              	.LVL5:
  45:main.c        ****     HighF_LevelCount_Start();
 208              		.loc 1 45 0
 209 0016 FFF7FEFF 		bl	HighF_OutComp_Start
 210              	.LVL6:
  46:main.c        ****     HighF_LevelCountISR_StartEx(HighF_LevelCount);
 211              		.loc 1 46 0
 212 001a FFF7FEFF 		bl	HighF_LevelCount_Start
 213              	.LVL7:
  47:main.c        ****     LCD_Char_Start();
 214              		.loc 1 47 0
ARM GAS  C:\Users\sdysart\AppData\Local\Temp\ccXfJ371.s 			page 7


 215 001e 0948     		ldr	r0, .L15
 216 0020 FFF7FEFF 		bl	HighF_LevelCountISR_StartEx
 217              	.LVL8:
  48:main.c        ****     
 218              		.loc 1 48 0
 219 0024 FFF7FEFF 		bl	LCD_Char_Start
 220              	.LVL9:
  53:main.c        ****     LCD_Char_Position(0u,0u);
 221              		.loc 1 53 0
 222 0028 01AC     		add	r4, sp, #4
 223 002a 074D     		ldr	r5, .L15+4
 224 002c 0FCD     		ldmia	r5!, {r0, r1, r2, r3}
 225 002e 0FC4     		stmia	r4!, {r0, r1, r2, r3}
 226 0030 2B68     		ldr	r3, [r5]
 227 0032 2380     		strh	r3, [r4]	@ movhi
  54:main.c        ****     LCD_Char_PrintString(display);
 228              		.loc 1 54 0
 229 0034 0021     		movs	r1, #0
 230 0036 0846     		mov	r0, r1
 231 0038 FFF7FEFF 		bl	LCD_Char_Position
 232              	.LVL10:
  55:main.c        ****     
 233              		.loc 1 55 0
 234 003c 01A8     		add	r0, sp, #4
 235 003e FFF7FEFF 		bl	LCD_Char_PrintString
 236              	.LVL11:
 237              	.L13:
 238 0042 FEE7     		b	.L13
 239              	.L16:
 240              		.align	2
 241              	.L15:
 242 0044 00000000 		.word	HighF_LevelCount
 243 0048 00000000 		.word	.LC0
 244              		.cfi_endproc
 245              	.LFE64:
 246              		.size	main, .-main
 247              		.section	.rodata.str1.4,"aMS",%progbits,1
 248              		.align	2
 249              	.LC0:
 250 0000 636F756E 		.ascii	"counting crabs...\000"
 250      74696E67 
 250      20637261 
 250      62732E2E 
 250      2E00
 251              		.bss
 252              		.align	1
 253              		.set	.LANCHOR0,. + 0
 254              		.type	levelCounter, %object
 255              		.size	levelCounter, 2
 256              	levelCounter:
 257 0000 0000     		.space	2
 258              		.type	oneCount, %object
 259              		.size	oneCount, 1
 260              	oneCount:
 261 0002 00       		.space	1
 262              		.type	zeroCount, %object
 263              		.size	zeroCount, 1
ARM GAS  C:\Users\sdysart\AppData\Local\Temp\ccXfJ371.s 			page 8


 264              	zeroCount:
 265 0003 00       		.space	1
 266              		.type	currentBit, %object
 267              		.size	currentBit, 1
 268              	currentBit:
 269 0004 00       		.space	1
 270              		.type	dataCount, %object
 271              		.size	dataCount, 1
 272              	dataCount:
 273 0005 00       		.space	1
 274              		.type	data, %object
 275              		.size	data, 1
 276              	data:
 277 0006 00       		.space	1
 278              		.type	dataFlag, %object
 279              		.size	dataFlag, 1
 280              	dataFlag:
 281 0007 00       		.space	1
 282              		.type	decodeFlag, %object
 283              		.size	decodeFlag, 1
 284              	decodeFlag:
 285 0008 00       		.space	1
 286              		.text
 287              	.Letext0:
 288              		.file 2 "c:\\program files (x86)\\cypress\\psoc creator\\4.1\\psoc creator\\import\\gnu\\arm\\5.4.
 289              		.file 3 "c:\\program files (x86)\\cypress\\psoc creator\\4.1\\psoc creator\\import\\gnu\\arm\\5.4.
 290              		.file 4 "Generated_Source\\PSoC5/cytypes.h"
 291              		.file 5 "Generated_Source\\PSoC5/HighF_OutComp.h"
 292              		.file 6 "Generated_Source\\PSoC5/CountOut.h"
 293              		.file 7 "Generated_Source\\PSoC5/HighF_BPF_Comp.h"
 294              		.file 8 "Generated_Source\\PSoC5/HighF_ShiftReg.h"
 295              		.file 9 "Generated_Source\\PSoC5/HighF_Ref_OpAmp.h"
 296              		.file 10 "Generated_Source\\PSoC5/HighF_PGA.h"
 297              		.file 11 "Generated_Source\\PSoC5/HighF_LevelCount.h"
 298              		.file 12 "Generated_Source\\PSoC5/HighF_LevelCountISR.h"
 299              		.file 13 "Generated_Source\\PSoC5/LCD_Char.h"
 300              		.file 14 "Generated_Source\\PSoC5/core_cm3.h"