ARM GAS  C:\Users\ipfajard\AppData\Local\Temp\ccQEwFRh.s 			page 1


   1              		.syntax unified
   2              		.cpu cortex-m3
   3              		.fpu softvfp
   4              		.eabi_attribute 20, 1
   5              		.eabi_attribute 21, 1
   6              		.eabi_attribute 23, 3
   7              		.eabi_attribute 24, 1
   8              		.eabi_attribute 25, 1
   9              		.eabi_attribute 26, 1
  10              		.eabi_attribute 30, 1
  11              		.eabi_attribute 34, 1
  12              		.eabi_attribute 18, 4
  13              		.thumb
  14              		.syntax unified
  15              		.file	"main.c"
  16              		.text
  17              	.Ltext0:
  18              		.cfi_sections	.debug_frame
  19              		.section	.text.Prefix_Int,"ax",%progbits
  20              		.align	2
  21              		.global	Prefix_Int
  22              		.thumb
  23              		.thumb_func
  24              		.type	Prefix_Int, %function
  25              	Prefix_Int:
  26              	.LFB64:
  27              		.file 1 "main.c"
   1:main.c        **** /* ========================================
   2:main.c        ****  *
   3:main.c        ****  * Copyright YOUR COMPANY, THE YEAR
   4:main.c        ****  * All Rights Reserved
   5:main.c        ****  * UNPUBLISHED, LICENSED SOFTWARE.
   6:main.c        ****  *
   7:main.c        ****  * CONFIDENTIAL AND PROPRIETARY INFORMATION
   8:main.c        ****  * WHICH IS THE PROPERTY OF your company.
   9:main.c        ****  *
  10:main.c        ****  * ========================================
  11:main.c        **** */
  12:main.c        **** #include "project.h"
  13:main.c        **** 
  14:main.c        **** #define Count4_Seconds 1 
  15:main.c        **** #define CountHalf_Second 55
  16:main.c        **** //count = 0.5s / T
  17:main.c        **** #define ZeroHalf_Second 45
  18:main.c        **** #define LED_ON  0xFF
  19:main.c        **** #define LED_OFF 0 
  20:main.c        **** #define oneByte 4 
  21:main.c        **** #define twoByte 8
  22:main.c        **** #define ZERO 0
  23:main.c        **** #define ONE 0xFF
  24:main.c        **** 
  25:main.c        **** CY_ISR_PROTO(Prefix_Int);
  26:main.c        **** CY_ISR_PROTO(Zero_Int);
  27:main.c        **** 
  28:main.c        **** //static int zeroCounter = 0; 
  29:main.c        **** static uint8 testLEDStatus = LED_ON;
  30:main.c        **** static int pwmCounter = 1;
ARM GAS  C:\Users\ipfajard\AppData\Local\Temp\ccQEwFRh.s 			page 2


  31:main.c        **** static int zeroCounter = 1;
  32:main.c        **** static uint8 bitCase = ZERO;
  33:main.c        **** static uint8 messageBit = 0; 
  34:main.c        **** int main(void)
  35:main.c        **** {
  36:main.c        ****     CyGlobalIntEnable; /* Enable global interrupts. */
  37:main.c        ****     //LowFLow_Start();
  38:main.c        ****     //FSK_Start();
  39:main.c        ****     LowFHigh_Start() ;
  40:main.c        ****     //FSKOutput_Start();
  41:main.c        ****     LowFPwm_Start(); 
  42:main.c        ****     ZeroPwm_Start();
  43:main.c        ****     ZeroPwm_Sleep();
  44:main.c        ****     /* Place your initialization/startup code here (e.g. MyInst_Start()) */
  45:main.c        ****     OneInt_StartEx(Prefix_Int);
  46:main.c        ****     ZeroInt_StartEx(Zero_Int);
  47:main.c        ****     //SleepTimer_Start() ;
  48:main.c        ****     LEDTest_Write(testLEDStatus);
  49:main.c        ****     //LowFPwm_WriteCompare(127);
  50:main.c        ****     for(;;)
  51:main.c        ****     {
  52:main.c        ****         /* Place your application code here. */
  53:main.c        ****         
  54:main.c        ****         if((pwmCounter % CountHalf_Second) == 0){
  55:main.c        ****             testLEDStatus = testLEDStatus ^ 0xFF; 
  56:main.c        ****             LEDTest_Write(testLEDStatus); 
  57:main.c        ****             //CyDelay(100);
  58:main.c        ****             messageBit++;
  59:main.c        ****             pwmCounter = 1;
  60:main.c        ****             //can't reset to 0 due to mod operator, so reset to 1
  61:main.c        ****         }
  62:main.c        ****         
  63:main.c        ****         if((zeroCounter % ZeroHalf_Second) == 0){
  64:main.c        ****             testLEDStatus = testLEDStatus ^ 0xFF; 
  65:main.c        ****             LEDTest_Write(testLEDStatus); 
  66:main.c        ****             //CyDelay(100);
  67:main.c        ****             messageBit++;
  68:main.c        ****             zeroCounter = 1;
  69:main.c        ****             //can't reset to 0 due to mod operator, so reset to 1
  70:main.c        ****         }
  71:main.c        ****         
  72:main.c        ****         
  73:main.c        ****         switch(messageBit){
  74:main.c        ****         
  75:main.c        ****             case 0:
  76:main.c        ****                 bitCase = ONE;
  77:main.c        ****             
  78:main.c        ****             break; 
  79:main.c        ****             case 1:
  80:main.c        ****                 bitCase = ONE; 
  81:main.c        ****             break;
  82:main.c        ****             case 2:
  83:main.c        ****                 bitCase = ONE; 
  84:main.c        ****             break;
  85:main.c        ****             case 3:
  86:main.c        ****                 bitCase = ONE; 
  87:main.c        ****             break;
ARM GAS  C:\Users\ipfajard\AppData\Local\Temp\ccQEwFRh.s 			page 3


  88:main.c        ****             case 4:
  89:main.c        ****                 bitCase = ZERO; 
  90:main.c        ****                 LowFPwm_Sleep();
  91:main.c        ****                 ZeroPwm_Start();
  92:main.c        ****                 
  93:main.c        ****             break; 
  94:main.c        ****             case 5:
  95:main.c        ****                 bitCase = ZERO; 
  96:main.c        ****                 //CyDelay(50);
  97:main.c        ****                 //messageBit++;
  98:main.c        ****                 
  99:main.c        ****             break; 
 100:main.c        ****             case 6:
 101:main.c        ****                 bitCase = ONE; 
 102:main.c        ****                 //LowFPwm_Wakeup();
 103:main.c        ****                 //LowFPwm_Start();
 104:main.c        ****                 LowFPwm_Start();
 105:main.c        ****                 ZeroPwm_Sleep();
 106:main.c        ****             break; 
 107:main.c        ****             case 7:
 108:main.c        ****                 bitCase = ZERO; 
 109:main.c        ****                 //LowFPwm_Sleep();
 110:main.c        ****                 LowFPwm_Sleep();
 111:main.c        ****                 ZeroPwm_Start();
 112:main.c        ****             break; 
 113:main.c        ****             case 8:
 114:main.c        ****                 bitCase = ONE; 
 115:main.c        ****                 //LowFPwm_Wakeup();
 116:main.c        ****                 //LowFPwm_Start();
 117:main.c        ****                 LowFPwm_Start();
 118:main.c        ****                 ZeroPwm_Sleep();
 119:main.c        ****             break;     
 120:main.c        ****             case 9:
 121:main.c        ****                 bitCase = ONE; 
 122:main.c        ****                 //LowFPwm_Sleep();
 123:main.c        ****             break;
 124:main.c        ****             case 10:
 125:main.c        ****                 bitCase = ONE; 
 126:main.c        ****                 
 127:main.c        ****             break;
 128:main.c        ****             case 11:
 129:main.c        ****                 bitCase = ONE; 
 130:main.c        ****                 
 131:main.c        ****             break;    
 132:main.c        ****             
 133:main.c        ****         default:
 134:main.c        ****         break; 
 135:main.c        ****   
 136:main.c        ****         }
 137:main.c        ****         
 138:main.c        ****         //MuxSelect_Write(bitCase);
 139:main.c        ****         MuxSelOut_Write(bitCase);
 140:main.c        ****       
 141:main.c        ****     }
 142:main.c        **** }
 143:main.c        **** 
 144:main.c        **** 
ARM GAS  C:\Users\ipfajard\AppData\Local\Temp\ccQEwFRh.s 			page 4


 145:main.c        **** CY_ISR(Prefix_Int){
  28              		.loc 1 145 0
  29              		.cfi_startproc
  30              		@ args = 0, pretend = 0, frame = 0
  31              		@ frame_needed = 0, uses_anonymous_args = 0
  32              		@ link register save eliminated.
 146:main.c        ****     
 147:main.c        ****     pwmCounter++;
  33              		.loc 1 147 0
  34 0000 024A     		ldr	r2, .L2
  35 0002 1368     		ldr	r3, [r2]
  36 0004 0133     		adds	r3, r3, #1
  37 0006 1360     		str	r3, [r2]
  38 0008 7047     		bx	lr
  39              	.L3:
  40 000a 00BF     		.align	2
  41              	.L2:
  42 000c 00000000 		.word	.LANCHOR0
  43              		.cfi_endproc
  44              	.LFE64:
  45              		.size	Prefix_Int, .-Prefix_Int
  46              		.section	.text.Zero_Int,"ax",%progbits
  47              		.align	2
  48              		.global	Zero_Int
  49              		.thumb
  50              		.thumb_func
  51              		.type	Zero_Int, %function
  52              	Zero_Int:
  53              	.LFB65:
 148:main.c        **** 
 149:main.c        ****     
 150:main.c        ****     //SleepTimer_GetStatus() ;
 151:main.c        **** 
 152:main.c        **** }
 153:main.c        **** 
 154:main.c        **** CY_ISR(Zero_Int){
  54              		.loc 1 154 0
  55              		.cfi_startproc
  56              		@ args = 0, pretend = 0, frame = 0
  57              		@ frame_needed = 0, uses_anonymous_args = 0
  58              		@ link register save eliminated.
 155:main.c        ****     
 156:main.c        ****     zeroCounter++;
  59              		.loc 1 156 0
  60 0000 024A     		ldr	r2, .L5
  61 0002 5368     		ldr	r3, [r2, #4]
  62 0004 0133     		adds	r3, r3, #1
  63 0006 5360     		str	r3, [r2, #4]
  64 0008 7047     		bx	lr
  65              	.L6:
  66 000a 00BF     		.align	2
  67              	.L5:
  68 000c 00000000 		.word	.LANCHOR0
  69              		.cfi_endproc
  70              	.LFE65:
  71              		.size	Zero_Int, .-Zero_Int
  72              		.section	.text.main,"ax",%progbits
ARM GAS  C:\Users\ipfajard\AppData\Local\Temp\ccQEwFRh.s 			page 5


  73              		.align	2
  74              		.global	main
  75              		.thumb
  76              		.thumb_func
  77              		.type	main, %function
  78              	main:
  79              	.LFB63:
  35:main.c        ****     CyGlobalIntEnable; /* Enable global interrupts. */
  80              		.loc 1 35 0
  81              		.cfi_startproc
  82              		@ Volatile: function does not return.
  83              		@ args = 0, pretend = 0, frame = 0
  84              		@ frame_needed = 0, uses_anonymous_args = 0
  85 0000 08B5     		push	{r3, lr}
  86              		.cfi_def_cfa_offset 8
  87              		.cfi_offset 3, -8
  88              		.cfi_offset 14, -4
  36:main.c        ****     //LowFLow_Start();
  89              		.loc 1 36 0
  90              		.syntax unified
  91              	@ 36 "main.c" 1
  92 0002 62B6     		CPSIE   i
  93              	@ 0 "" 2
  39:main.c        ****     //FSKOutput_Start();
  94              		.loc 1 39 0
  95              		.thumb
  96              		.syntax unified
  97 0004 FFF7FEFF 		bl	LowFHigh_Start
  98              	.LVL0:
  41:main.c        ****     ZeroPwm_Start();
  99              		.loc 1 41 0
 100 0008 FFF7FEFF 		bl	LowFPwm_Start
 101              	.LVL1:
  42:main.c        ****     ZeroPwm_Sleep();
 102              		.loc 1 42 0
 103 000c FFF7FEFF 		bl	ZeroPwm_Start
 104              	.LVL2:
  43:main.c        ****     /* Place your initialization/startup code here (e.g. MyInst_Start()) */
 105              		.loc 1 43 0
 106 0010 FFF7FEFF 		bl	ZeroPwm_Sleep
 107              	.LVL3:
  45:main.c        ****     ZeroInt_StartEx(Zero_Int);
 108              		.loc 1 45 0
 109 0014 4848     		ldr	r0, .L26
 110 0016 FFF7FEFF 		bl	OneInt_StartEx
 111              	.LVL4:
  46:main.c        ****     //SleepTimer_Start() ;
 112              		.loc 1 46 0
 113 001a 4848     		ldr	r0, .L26+4
 114 001c FFF7FEFF 		bl	ZeroInt_StartEx
 115              	.LVL5:
  48:main.c        ****     //LowFPwm_WriteCompare(127);
 116              		.loc 1 48 0
 117 0020 474B     		ldr	r3, .L26+8
 118 0022 187A     		ldrb	r0, [r3, #8]	@ zero_extendqisi2
 119 0024 FFF7FEFF 		bl	LEDTest_Write
 120              	.LVL6:
ARM GAS  C:\Users\ipfajard\AppData\Local\Temp\ccQEwFRh.s 			page 6


 121              	.L24:
  54:main.c        ****             testLEDStatus = testLEDStatus ^ 0xFF; 
 122              		.loc 1 54 0
 123 0028 454B     		ldr	r3, .L26+8
 124 002a 1A68     		ldr	r2, [r3]
 125 002c 454B     		ldr	r3, .L26+12
 126 002e 83FB0231 		smull	r3, r1, r3, r2
 127 0032 D317     		asrs	r3, r2, #31
 128 0034 C3EB6103 		rsb	r3, r3, r1, asr #1
 129 0038 C3EBC301 		rsb	r1, r3, r3, lsl #3
 130 003c C3EBC103 		rsb	r3, r3, r1, lsl #3
 131 0040 9A42     		cmp	r2, r3
 132 0042 0CD1     		bne	.L8
  55:main.c        ****             LEDTest_Write(testLEDStatus); 
 133              		.loc 1 55 0
 134 0044 3E4C     		ldr	r4, .L26+8
 135 0046 207A     		ldrb	r0, [r4, #8]	@ zero_extendqisi2
 136 0048 C043     		mvns	r0, r0
 137 004a C0B2     		uxtb	r0, r0
 138 004c 2072     		strb	r0, [r4, #8]
  56:main.c        ****             //CyDelay(100);
 139              		.loc 1 56 0
 140 004e FFF7FEFF 		bl	LEDTest_Write
 141              	.LVL7:
  58:main.c        ****             pwmCounter = 1;
 142              		.loc 1 58 0
 143 0052 3D4A     		ldr	r2, .L26+16
 144 0054 1378     		ldrb	r3, [r2]	@ zero_extendqisi2
 145 0056 0133     		adds	r3, r3, #1
 146 0058 1370     		strb	r3, [r2]
  59:main.c        ****             //can't reset to 0 due to mod operator, so reset to 1
 147              		.loc 1 59 0
 148 005a 0123     		movs	r3, #1
 149 005c 2360     		str	r3, [r4]
 150              	.L8:
  63:main.c        ****             testLEDStatus = testLEDStatus ^ 0xFF; 
 151              		.loc 1 63 0
 152 005e 384B     		ldr	r3, .L26+8
 153 0060 5A68     		ldr	r2, [r3, #4]
 154 0062 3A48     		ldr	r0, .L26+20
 155 0064 82FB0001 		smull	r0, r1, r2, r0
 156 0068 1144     		add	r1, r1, r2
 157 006a D317     		asrs	r3, r2, #31
 158 006c C3EB6113 		rsb	r3, r3, r1, asr #5
 159 0070 03EB4303 		add	r3, r3, r3, lsl #1
 160 0074 C3EB0313 		rsb	r3, r3, r3, lsl #4
 161 0078 9A42     		cmp	r2, r3
 162 007a 0CD1     		bne	.L9
  64:main.c        ****             LEDTest_Write(testLEDStatus); 
 163              		.loc 1 64 0
 164 007c 304C     		ldr	r4, .L26+8
 165 007e 207A     		ldrb	r0, [r4, #8]	@ zero_extendqisi2
 166 0080 C043     		mvns	r0, r0
 167 0082 C0B2     		uxtb	r0, r0
 168 0084 2072     		strb	r0, [r4, #8]
  65:main.c        ****             //CyDelay(100);
 169              		.loc 1 65 0
ARM GAS  C:\Users\ipfajard\AppData\Local\Temp\ccQEwFRh.s 			page 7


 170 0086 FFF7FEFF 		bl	LEDTest_Write
 171              	.LVL8:
  67:main.c        ****             zeroCounter = 1;
 172              		.loc 1 67 0
 173 008a 2F4A     		ldr	r2, .L26+16
 174 008c 1378     		ldrb	r3, [r2]	@ zero_extendqisi2
 175 008e 0133     		adds	r3, r3, #1
 176 0090 1370     		strb	r3, [r2]
  68:main.c        ****             //can't reset to 0 due to mod operator, so reset to 1
 177              		.loc 1 68 0
 178 0092 0123     		movs	r3, #1
 179 0094 6360     		str	r3, [r4, #4]
 180              	.L9:
  73:main.c        ****         
 181              		.loc 1 73 0
 182 0096 2C4B     		ldr	r3, .L26+16
 183 0098 1B78     		ldrb	r3, [r3]	@ zero_extendqisi2
 184 009a 0B2B     		cmp	r3, #11
 185 009c 46D8     		bhi	.L10
 186 009e DFE803F0 		tbb	[pc, r3]
 187              	.L12:
 188 00a2 06       		.byte	(.L11-.L12)/2
 189 00a3 0A       		.byte	(.L13-.L12)/2
 190 00a4 0E       		.byte	(.L14-.L12)/2
 191 00a5 12       		.byte	(.L15-.L12)/2
 192 00a6 16       		.byte	(.L16-.L12)/2
 193 00a7 1E       		.byte	(.L17-.L12)/2
 194 00a8 22       		.byte	(.L18-.L12)/2
 195 00a9 2A       		.byte	(.L19-.L12)/2
 196 00aa 32       		.byte	(.L20-.L12)/2
 197 00ab 3A       		.byte	(.L21-.L12)/2
 198 00ac 3E       		.byte	(.L22-.L12)/2
 199 00ad 42       		.byte	(.L23-.L12)/2
 200              		.p2align 1
 201              	.L11:
  76:main.c        ****             
 202              		.loc 1 76 0
 203 00ae FF22     		movs	r2, #255
 204 00b0 254B     		ldr	r3, .L26+16
 205 00b2 5A70     		strb	r2, [r3, #1]
  78:main.c        ****             case 1:
 206              		.loc 1 78 0
 207 00b4 3AE0     		b	.L10
 208              	.L13:
  80:main.c        ****             break;
 209              		.loc 1 80 0
 210 00b6 FF22     		movs	r2, #255
 211 00b8 234B     		ldr	r3, .L26+16
 212 00ba 5A70     		strb	r2, [r3, #1]
  81:main.c        ****             case 2:
 213              		.loc 1 81 0
 214 00bc 36E0     		b	.L10
 215              	.L14:
  83:main.c        ****             break;
 216              		.loc 1 83 0
 217 00be FF22     		movs	r2, #255
 218 00c0 214B     		ldr	r3, .L26+16
ARM GAS  C:\Users\ipfajard\AppData\Local\Temp\ccQEwFRh.s 			page 8


 219 00c2 5A70     		strb	r2, [r3, #1]
  84:main.c        ****             case 3:
 220              		.loc 1 84 0
 221 00c4 32E0     		b	.L10
 222              	.L15:
  86:main.c        ****             break;
 223              		.loc 1 86 0
 224 00c6 FF22     		movs	r2, #255
 225 00c8 1F4B     		ldr	r3, .L26+16
 226 00ca 5A70     		strb	r2, [r3, #1]
  87:main.c        ****             case 4:
 227              		.loc 1 87 0
 228 00cc 2EE0     		b	.L10
 229              	.L16:
  89:main.c        ****                 LowFPwm_Sleep();
 230              		.loc 1 89 0
 231 00ce 0022     		movs	r2, #0
 232 00d0 1D4B     		ldr	r3, .L26+16
 233 00d2 5A70     		strb	r2, [r3, #1]
  90:main.c        ****                 ZeroPwm_Start();
 234              		.loc 1 90 0
 235 00d4 FFF7FEFF 		bl	LowFPwm_Sleep
 236              	.LVL9:
  91:main.c        ****                 
 237              		.loc 1 91 0
 238 00d8 FFF7FEFF 		bl	ZeroPwm_Start
 239              	.LVL10:
  93:main.c        ****             case 5:
 240              		.loc 1 93 0
 241 00dc 26E0     		b	.L10
 242              	.L17:
  95:main.c        ****                 //CyDelay(50);
 243              		.loc 1 95 0
 244 00de 0022     		movs	r2, #0
 245 00e0 194B     		ldr	r3, .L26+16
 246 00e2 5A70     		strb	r2, [r3, #1]
  99:main.c        ****             case 6:
 247              		.loc 1 99 0
 248 00e4 22E0     		b	.L10
 249              	.L18:
 101:main.c        ****                 //LowFPwm_Wakeup();
 250              		.loc 1 101 0
 251 00e6 FF22     		movs	r2, #255
 252 00e8 174B     		ldr	r3, .L26+16
 253 00ea 5A70     		strb	r2, [r3, #1]
 104:main.c        ****                 ZeroPwm_Sleep();
 254              		.loc 1 104 0
 255 00ec FFF7FEFF 		bl	LowFPwm_Start
 256              	.LVL11:
 105:main.c        ****             break; 
 257              		.loc 1 105 0
 258 00f0 FFF7FEFF 		bl	ZeroPwm_Sleep
 259              	.LVL12:
 106:main.c        ****             case 7:
 260              		.loc 1 106 0
 261 00f4 1AE0     		b	.L10
 262              	.L19:
ARM GAS  C:\Users\ipfajard\AppData\Local\Temp\ccQEwFRh.s 			page 9


 108:main.c        ****                 //LowFPwm_Sleep();
 263              		.loc 1 108 0
 264 00f6 0022     		movs	r2, #0
 265 00f8 134B     		ldr	r3, .L26+16
 266 00fa 5A70     		strb	r2, [r3, #1]
 110:main.c        ****                 ZeroPwm_Start();
 267              		.loc 1 110 0
 268 00fc FFF7FEFF 		bl	LowFPwm_Sleep
 269              	.LVL13:
 111:main.c        ****             break; 
 270              		.loc 1 111 0
 271 0100 FFF7FEFF 		bl	ZeroPwm_Start
 272              	.LVL14:
 112:main.c        ****             case 8:
 273              		.loc 1 112 0
 274 0104 12E0     		b	.L10
 275              	.L20:
 114:main.c        ****                 //LowFPwm_Wakeup();
 276              		.loc 1 114 0
 277 0106 FF22     		movs	r2, #255
 278 0108 0F4B     		ldr	r3, .L26+16
 279 010a 5A70     		strb	r2, [r3, #1]
 117:main.c        ****                 ZeroPwm_Sleep();
 280              		.loc 1 117 0
 281 010c FFF7FEFF 		bl	LowFPwm_Start
 282              	.LVL15:
 118:main.c        ****             break;     
 283              		.loc 1 118 0
 284 0110 FFF7FEFF 		bl	ZeroPwm_Sleep
 285              	.LVL16:
 119:main.c        ****             case 9:
 286              		.loc 1 119 0
 287 0114 0AE0     		b	.L10
 288              	.L21:
 121:main.c        ****                 //LowFPwm_Sleep();
 289              		.loc 1 121 0
 290 0116 FF22     		movs	r2, #255
 291 0118 0B4B     		ldr	r3, .L26+16
 292 011a 5A70     		strb	r2, [r3, #1]
 123:main.c        ****             case 10:
 293              		.loc 1 123 0
 294 011c 06E0     		b	.L10
 295              	.L22:
 125:main.c        ****                 
 296              		.loc 1 125 0
 297 011e FF22     		movs	r2, #255
 298 0120 094B     		ldr	r3, .L26+16
 299 0122 5A70     		strb	r2, [r3, #1]
 127:main.c        ****             case 11:
 300              		.loc 1 127 0
 301 0124 02E0     		b	.L10
 302              	.L23:
 129:main.c        ****                 
 303              		.loc 1 129 0
 304 0126 FF22     		movs	r2, #255
 305 0128 074B     		ldr	r3, .L26+16
 306 012a 5A70     		strb	r2, [r3, #1]
ARM GAS  C:\Users\ipfajard\AppData\Local\Temp\ccQEwFRh.s 			page 10


 307              	.L10:
 139:main.c        ****       
 308              		.loc 1 139 0
 309 012c 064B     		ldr	r3, .L26+16
 310 012e 5878     		ldrb	r0, [r3, #1]	@ zero_extendqisi2
 311 0130 FFF7FEFF 		bl	MuxSelOut_Write
 312              	.LVL17:
 141:main.c        **** }
 313              		.loc 1 141 0
 314 0134 78E7     		b	.L24
 315              	.L27:
 316 0136 00BF     		.align	2
 317              	.L26:
 318 0138 00000000 		.word	Prefix_Int
 319 013c 00000000 		.word	Zero_Int
 320 0140 00000000 		.word	.LANCHOR0
 321 0144 95204F09 		.word	156180629
 322 0148 00000000 		.word	.LANCHOR1
 323 014c B7600BB6 		.word	-1240768329
 324              		.cfi_endproc
 325              	.LFE63:
 326              		.size	main, .-main
 327              		.data
 328              		.align	2
 329              		.set	.LANCHOR0,. + 0
 330              		.type	pwmCounter, %object
 331              		.size	pwmCounter, 4
 332              	pwmCounter:
 333 0000 01000000 		.word	1
 334              		.type	zeroCounter, %object
 335              		.size	zeroCounter, 4
 336              	zeroCounter:
 337 0004 01000000 		.word	1
 338              		.type	testLEDStatus, %object
 339              		.size	testLEDStatus, 1
 340              	testLEDStatus:
 341 0008 FF       		.byte	-1
 342              		.bss
 343              		.set	.LANCHOR1,. + 0
 344              		.type	messageBit, %object
 345              		.size	messageBit, 1
 346              	messageBit:
 347 0000 00       		.space	1
 348              		.type	bitCase, %object
 349              		.size	bitCase, 1
 350              	bitCase:
 351 0001 00       		.space	1
 352              		.text
 353              	.Letext0:
 354              		.file 2 "c:\\program files (x86)\\cypress\\psoc creator\\4.1\\psoc creator\\import\\gnu\\arm\\5.4.
 355              		.file 3 "c:\\program files (x86)\\cypress\\psoc creator\\4.1\\psoc creator\\import\\gnu\\arm\\5.4.
 356              		.file 4 "Generated_Source\\PSoC5/cytypes.h"
 357              		.file 5 "Generated_Source\\PSoC5/LowFHigh.h"
 358              		.file 6 "Generated_Source\\PSoC5/LowFPwm.h"
 359              		.file 7 "Generated_Source\\PSoC5/ZeroPwm.h"
 360              		.file 8 "Generated_Source\\PSoC5/OneInt.h"
 361              		.file 9 "Generated_Source\\PSoC5/ZeroInt.h"
ARM GAS  C:\Users\ipfajard\AppData\Local\Temp\ccQEwFRh.s 			page 11


 362              		.file 10 "Generated_Source\\PSoC5/LEDTest.h"
 363              		.file 11 "Generated_Source\\PSoC5/MuxSelOut.h"
 364              		.file 12 "Generated_Source\\PSoC5/core_cm3.h"