ARM GAS  C:\Users\User\AppData\Local\Temp\ccQ45nMh.s 			page 1


   1              		.cpu cortex-m0
   2              		.fpu softvfp
   3              		.eabi_attribute 20, 1
   4              		.eabi_attribute 21, 1
   5              		.eabi_attribute 23, 3
   6              		.eabi_attribute 24, 1
   7              		.eabi_attribute 25, 1
   8              		.eabi_attribute 26, 1
   9              		.eabi_attribute 30, 1
  10              		.eabi_attribute 34, 0
  11              		.eabi_attribute 18, 4
  12              		.code	16
  13              		.file	"ssd1306.c"
  14              		.text
  15              	.Ltext0:
  16              		.cfi_sections	.debug_frame
  17              		.section	.text.display_setPixel,"ax",%progbits
  18              		.align	2
  19              		.code	16
  20              		.thumb_func
  21              		.type	display_setPixel, %function
  22              	display_setPixel:
  23              	.LFB36:
  24              		.file 1 ".\\ssd1306.c"
   1:.\ssd1306.c   **** /*
   2:.\ssd1306.c   **** 
   3:.\ssd1306.c   **** SSD1306 OLED - I2C driver
   4:.\ssd1306.c   **** 
   5:.\ssd1306.c   **** Derk Steggewentz, 3/2015 
   6:.\ssd1306.c   **** 
   7:.\ssd1306.c   **** This is a I2C driver for SSD1306 OLED displays including graphics library.
   8:.\ssd1306.c   **** 
   9:.\ssd1306.c   **** 
  10:.\ssd1306.c   **** The graphics library part (gfx_ functions) is based on the Adafruit graphics library.
  11:.\ssd1306.c   **** 
  12:.\ssd1306.c   **** 
  13:.\ssd1306.c   **** No license restrictions on my part, do whatever you want as long as you follow the inherited
  14:.\ssd1306.c   **** license requirements (applying to the Adafruit graphics library part).
  15:.\ssd1306.c   **** 
  16:.\ssd1306.c   **** 
  17:.\ssd1306.c   **** ===== derived license (for graphics library) ======
  18:.\ssd1306.c   **** 
  19:.\ssd1306.c   **** Copyright (c) 2013 Adafruit Industries. All rights reserved.
  20:.\ssd1306.c   **** 
  21:.\ssd1306.c   **** Redistribution and use in source and binary forms, with or without
  22:.\ssd1306.c   **** modification, are permitted provided that the following conditions are met:
  23:.\ssd1306.c   **** - Redistributions of source code must retain the above copyright notice,
  24:.\ssd1306.c   **** this list of conditions and the following disclaimer.
  25:.\ssd1306.c   **** - Redistributions in binary form must reproduce the above copyright notice,
  26:.\ssd1306.c   **** this list of conditions and the following disclaimer in the documentation
  27:.\ssd1306.c   **** and/or other materials provided with the distribution.
  28:.\ssd1306.c   **** THIS SOFTWARE IS PROVIDED BY THE COPYRIGHT HOLDERS AND CONTRIBUTORS "AS IS"
  29:.\ssd1306.c   **** AND ANY EXPRESS OR IMPLIED WARRANTIES, INCLUDING, BUT NOT LIMITED TO, THE
  30:.\ssd1306.c   **** IMPLIED WARRANTIES OF MERCHANTABILITY AND FITNESS FOR A PARTICULAR PURPOSE
  31:.\ssd1306.c   **** ARE DISCLAIMED. IN NO EVENT SHALL THE COPYRIGHT HOLDER OR CONTRIBUTORS BE
  32:.\ssd1306.c   **** LIABLE FOR ANY DIRECT, INDIRECT, INCIDENTAL, SPECIAL, EXEMPLARY, OR
  33:.\ssd1306.c   **** CONSEQUENTIAL DAMAGES (INCLUDING, BUT NOT LIMITED TO, PROCUREMENT OF
ARM GAS  C:\Users\User\AppData\Local\Temp\ccQ45nMh.s 			page 2


  34:.\ssd1306.c   **** SUBSTITUTE GOODS OR SERVICES; LOSS OF USE, DATA, OR PROFITS; OR BUSINESS
  35:.\ssd1306.c   **** INTERRUPTION) HOWEVER CAUSED AND ON ANY THEORY OF LIABILITY, WHETHER IN
  36:.\ssd1306.c   **** CONTRACT, STRICT LIABILITY, OR TORT (INCLUDING NEGLIGENCE OR OTHERWISE)
  37:.\ssd1306.c   **** ARISING IN ANY WAY OUT OF THE USE OF THIS SOFTWARE, EVEN IF ADVISED OF THE
  38:.\ssd1306.c   **** POSSIBILITY OF SUCH DAMAGE.
  39:.\ssd1306.c   **** 
  40:.\ssd1306.c   **** */
  41:.\ssd1306.c   **** 
  42:.\ssd1306.c   **** 
  43:.\ssd1306.c   **** #include <project.h>
  44:.\ssd1306.c   **** #include <stdlib.h>
  45:.\ssd1306.c   **** 
  46:.\ssd1306.c   **** #include "font.h"
  47:.\ssd1306.c   **** #include "ssd1306.h"
  48:.\ssd1306.c   **** 
  49:.\ssd1306.c   **** 
  50:.\ssd1306.c   **** #define DISPLAYWIDTH 128
  51:.\ssd1306.c   **** #define DISPLAYHEIGHT 64
  52:.\ssd1306.c   ****     
  53:.\ssd1306.c   **** #define SSD1306_SETCONTRAST 0x81
  54:.\ssd1306.c   **** #define SSD1306_DISPLAYALLON_RESUME 0xA4
  55:.\ssd1306.c   **** #define SSD1306_DISPLAYALLON 0xA5
  56:.\ssd1306.c   **** #define SSD1306_NORMALDISPLAY 0xA6
  57:.\ssd1306.c   **** #define SSD1306_INVERTDISPLAY 0xA7
  58:.\ssd1306.c   **** #define SSD1306_DISPLAYOFF 0xAE
  59:.\ssd1306.c   **** #define SSD1306_DISPLAYON 0xAF
  60:.\ssd1306.c   **** #define SSD1306_SETDISPLAYOFFSET 0xD3
  61:.\ssd1306.c   **** #define SSD1306_SETCOMPINS 0xDA
  62:.\ssd1306.c   **** #define SSD1306_SETVCOMDETECT 0xDB
  63:.\ssd1306.c   **** #define SSD1306_SETDISPLAYCLOCKDIV 0xD5
  64:.\ssd1306.c   **** #define SSD1306_SETPRECHARGE 0xD9
  65:.\ssd1306.c   **** #define SSD1306_SETMULTIPLEX 0xA8
  66:.\ssd1306.c   **** #define SSD1306_SETLOWCOLUMN 0x00
  67:.\ssd1306.c   **** #define SSD1306_SETHIGHCOLUMN 0x10
  68:.\ssd1306.c   **** #define SSD1306_SETSTARTLINE 0x40
  69:.\ssd1306.c   **** #define SSD1306_MEMORYMODE 0x20
  70:.\ssd1306.c   **** #define SSD1306_COLUMNADDR 0x21
  71:.\ssd1306.c   **** #define SSD1306_PAGEADDR 0x22
  72:.\ssd1306.c   **** #define SSD1306_COMSCANINC 0xC0
  73:.\ssd1306.c   **** #define SSD1306_COMSCANDEC 0xC8
  74:.\ssd1306.c   **** #define SSD1306_SEGREMAP 0xA0
  75:.\ssd1306.c   **** #define SSD1306_CHARGEPUMP 0x8D
  76:.\ssd1306.c   **** #define SSD1306_EXTERNALVCC 0x1
  77:.\ssd1306.c   **** #define SSD1306_SWITCHCAPVCC 0x2
  78:.\ssd1306.c   **** #define SSD1306_ACTIVATE_SCROLL 0x2F
  79:.\ssd1306.c   **** #define SSD1306_DEACTIVATE_SCROLL 0x2E
  80:.\ssd1306.c   **** 
  81:.\ssd1306.c   **** 
  82:.\ssd1306.c   **** // I2C result status
  83:.\ssd1306.c   **** #define TRANSFER_CMPLT    (0x00u)
  84:.\ssd1306.c   **** #define TRANSFER_ERROR    (0xFFu)
  85:.\ssd1306.c   **** 
  86:.\ssd1306.c   **** 
  87:.\ssd1306.c   **** static uint32 display_write_buf( uint8* buf, uint16_t size );
  88:.\ssd1306.c   **** 
  89:.\ssd1306.c   **** void gfx_init( int16_t width, int16_t height );
  90:.\ssd1306.c   **** 
ARM GAS  C:\Users\User\AppData\Local\Temp\ccQ45nMh.s 			page 3


  91:.\ssd1306.c   **** static uint8 _i2caddr;
  92:.\ssd1306.c   **** 
  93:.\ssd1306.c   **** // display memory buffer ( === MUST INCLUDE === the preceding I2C 0x40 control byte for the display
  94:.\ssd1306.c   **** static uint8_t SSD1306_buffer[DISPLAYHEIGHT * DISPLAYWIDTH / 8 + 1] = { 0x40 };
  95:.\ssd1306.c   **** // pointer to actual display memory buffer
  96:.\ssd1306.c   **** static uint8_t* _displaybuf = SSD1306_buffer+1;
  97:.\ssd1306.c   **** static uint16_t _displaybuf_size = sizeof(SSD1306_buffer) - 1;
  98:.\ssd1306.c   **** 
  99:.\ssd1306.c   **** // see data sheet page 25 for Graphic Display Data RAM organization
 100:.\ssd1306.c   **** // 8 pages, each page a row of DISPLAYWIDTH bytes
 101:.\ssd1306.c   **** // start address of of row: y/8*DISPLAYWIDTH
 102:.\ssd1306.c   **** // x pos in row: == x 
 103:.\ssd1306.c   **** #define GDDRAM_ADDRESS(X,Y) ((_displaybuf)+((Y)/8)*(DISPLAYWIDTH)+(X))
 104:.\ssd1306.c   **** 
 105:.\ssd1306.c   **** // lower 3 bit of y determine vertical pixel position (pos 0...7) in GDDRAM byte
 106:.\ssd1306.c   **** // (y&0x07) == position of pixel on row (page). LSB is top, MSB bottom
 107:.\ssd1306.c   **** #define GDDRAM_PIXMASK(Y) (1 << ((Y)&0x07))
 108:.\ssd1306.c   **** 
 109:.\ssd1306.c   **** #define PIXEL_ON(X,Y) (*GDDRAM_ADDRESS(x,y) |= GDDRAM_PIXMASK(y))
 110:.\ssd1306.c   **** #define PIXEL_OFF(X,Y) (*GDDRAM_ADDRESS(x,y) &= ~GDDRAM_PIXMASK(y))
 111:.\ssd1306.c   **** #define PIXEL_TOGGLE(X,Y) (*GDDRAM_ADDRESS(x,y) ^= GDDRAM_PIXMASK(y)) 
 112:.\ssd1306.c   **** 
 113:.\ssd1306.c   **** 
 114:.\ssd1306.c   **** 
 115:.\ssd1306.c   **** // call before first use of other functions
 116:.\ssd1306.c   **** void display_init( uint8 i2caddr ){
 117:.\ssd1306.c   ****     
 118:.\ssd1306.c   ****     _i2caddr = i2caddr;
 119:.\ssd1306.c   ****     gfx_init( DISPLAYWIDTH, DISPLAYHEIGHT );
 120:.\ssd1306.c   ****     
 121:.\ssd1306.c   ****     uint8 cmdbuf[] = {
 122:.\ssd1306.c   ****         0x00,
 123:.\ssd1306.c   ****         SSD1306_DISPLAYOFF,
 124:.\ssd1306.c   ****         SSD1306_SETDISPLAYCLOCKDIV,
 125:.\ssd1306.c   ****         0x80,
 126:.\ssd1306.c   ****         SSD1306_SETMULTIPLEX,
 127:.\ssd1306.c   ****         0x3f,
 128:.\ssd1306.c   ****         SSD1306_SETDISPLAYOFFSET,
 129:.\ssd1306.c   ****         0x00,
 130:.\ssd1306.c   ****         SSD1306_SETSTARTLINE | 0x0,
 131:.\ssd1306.c   ****         SSD1306_CHARGEPUMP,
 132:.\ssd1306.c   ****         0x14,
 133:.\ssd1306.c   ****         SSD1306_MEMORYMODE,
 134:.\ssd1306.c   ****         0x00,
 135:.\ssd1306.c   ****         SSD1306_SEGREMAP | 0x1,
 136:.\ssd1306.c   ****         SSD1306_COMSCANDEC,
 137:.\ssd1306.c   ****         SSD1306_SETCOMPINS,
 138:.\ssd1306.c   ****         0x12,
 139:.\ssd1306.c   ****         SSD1306_SETCONTRAST,
 140:.\ssd1306.c   ****         0xcf,
 141:.\ssd1306.c   ****         SSD1306_SETPRECHARGE,
 142:.\ssd1306.c   ****         0xf1,
 143:.\ssd1306.c   ****         SSD1306_SETVCOMDETECT,
 144:.\ssd1306.c   ****         0x40,
 145:.\ssd1306.c   ****         SSD1306_DISPLAYALLON_RESUME,
 146:.\ssd1306.c   ****         SSD1306_NORMALDISPLAY,
 147:.\ssd1306.c   ****         SSD1306_DISPLAYON
ARM GAS  C:\Users\User\AppData\Local\Temp\ccQ45nMh.s 			page 4


 148:.\ssd1306.c   ****     };
 149:.\ssd1306.c   ****     
 150:.\ssd1306.c   ****     display_write_buf( cmdbuf, sizeof(cmdbuf) ); 
 151:.\ssd1306.c   **** }
 152:.\ssd1306.c   **** 
 153:.\ssd1306.c   **** 
 154:.\ssd1306.c   **** // for submitting command sequences:
 155:.\ssd1306.c   **** //  buf[0] must be 0x00
 156:.\ssd1306.c   **** // for submitting bulk data (writing to display RAM):
 157:.\ssd1306.c   **** //  buf[0] must be 0x40
 158:.\ssd1306.c   **** static uint32 display_write_buf( uint8* buf, uint16_t size ){
 159:.\ssd1306.c   **** 
 160:.\ssd1306.c   ****     uint32 status = TRANSFER_ERROR;
 161:.\ssd1306.c   **** 
 162:.\ssd1306.c   ****     I2COLED_I2CMasterWriteBuf(_i2caddr, buf, size, I2COLED_I2C_MODE_COMPLETE_XFER);
 163:.\ssd1306.c   ****     while( 0u == (I2COLED_I2CMasterStatus() & I2COLED_I2C_MSTAT_WR_CMPLT) );
 164:.\ssd1306.c   **** 
 165:.\ssd1306.c   ****     if( 0u == (I2COLED_I2C_MSTAT_ERR_XFER & I2COLED_I2CMasterStatus()) ){
 166:.\ssd1306.c   ****         // Check if all bytes was written 
 167:.\ssd1306.c   ****         if( I2COLED_I2CMasterGetWriteBufSize() == size ){
 168:.\ssd1306.c   ****             status = TRANSFER_CMPLT;
 169:.\ssd1306.c   ****         }
 170:.\ssd1306.c   ****     }
 171:.\ssd1306.c   ****     I2COLED_I2CMasterClearStatus();
 172:.\ssd1306.c   **** 
 173:.\ssd1306.c   ****     return status;
 174:.\ssd1306.c   **** }
 175:.\ssd1306.c   **** 
 176:.\ssd1306.c   **** 
 177:.\ssd1306.c   **** // used by gfx_ functions. Needs to be implemented by display_
 178:.\ssd1306.c   **** static void display_setPixel( int16_t x, int16_t y, uint16_t color ){
  25              		.loc 1 178 0
  26              		.cfi_startproc
  27              	.LVL0:
 179:.\ssd1306.c   ****     
 180:.\ssd1306.c   ****     if( (x < 0) || (x >= DISPLAYWIDTH) || (y < 0) || (y >= DISPLAYHEIGHT) )
  28              		.loc 1 180 0
  29 0000 83B2     		uxth	r3, r0
  30 0002 7F2B     		cmp	r3, #127
  31 0004 3FD8     		bhi	.L1
  32              		.loc 1 180 0 is_stmt 0 discriminator 1
  33 0006 0029     		cmp	r1, #0
  34 0008 3DDB     		blt	.L1
  35              		.loc 1 180 0 discriminator 2
  36 000a 3F29     		cmp	r1, #63
  37 000c 3BDC     		bgt	.L1
 181:.\ssd1306.c   ****         return;
 182:.\ssd1306.c   **** 
 183:.\ssd1306.c   ****     switch( color ){
  38              		.loc 1 183 0 is_stmt 1
  39 000e 012A     		cmp	r2, #1
  40 0010 04D0     		beq	.L3
  41 0012 002A     		cmp	r2, #0
  42 0014 14D0     		beq	.L4
  43 0016 022A     		cmp	r2, #2
  44 0018 24D0     		beq	.L5
  45 001a 34E0     		b	.L1
ARM GAS  C:\Users\User\AppData\Local\Temp\ccQ45nMh.s 			page 5


  46              	.L3:
 184:.\ssd1306.c   ****         case WHITE: 
 185:.\ssd1306.c   ****             PIXEL_ON(x,y);
  47              		.loc 1 185 0
  48 001c CB17     		asr	r3, r1, #31
  49 001e 5B0F     		lsr	r3, r3, #29
  50 0020 5B18     		add	r3, r3, r1
  51 0022 DB10     		asr	r3, r3, #3
  52 0024 DB01     		lsl	r3, r3, #7
  53 0026 1B18     		add	r3, r3, r0
  54 0028 1748     		ldr	r0, .L6
  55              	.LVL1:
  56 002a 0130     		add	r0, r0, #1
  57 002c C018     		add	r0, r0, r3
  58 002e 0723     		mov	r3, #7
  59 0030 1940     		and	r1, r3
  60              	.LVL2:
  61 0032 063B     		sub	r3, r3, #6
  62 0034 8B40     		lsl	r3, r3, r1
  63 0036 191C     		mov	r1, r3
  64 0038 0378     		ldrb	r3, [r0]
  65 003a 1943     		orr	r1, r3
  66 003c 0170     		strb	r1, [r0]
 186:.\ssd1306.c   ****             break;
  67              		.loc 1 186 0
  68 003e 22E0     		b	.L1
  69              	.LVL3:
  70              	.L4:
 187:.\ssd1306.c   ****         case BLACK:
 188:.\ssd1306.c   ****             PIXEL_OFF(x,y);
  71              		.loc 1 188 0
  72 0040 CB17     		asr	r3, r1, #31
  73 0042 5B0F     		lsr	r3, r3, #29
  74 0044 5B18     		add	r3, r3, r1
  75 0046 DB10     		asr	r3, r3, #3
  76 0048 DB01     		lsl	r3, r3, #7
  77 004a 1B18     		add	r3, r3, r0
  78 004c 0E48     		ldr	r0, .L6
  79              	.LVL4:
  80 004e 0130     		add	r0, r0, #1
  81 0050 C018     		add	r0, r0, r3
  82 0052 0723     		mov	r3, #7
  83 0054 1940     		and	r1, r3
  84              	.LVL5:
  85 0056 063B     		sub	r3, r3, #6
  86 0058 8B40     		lsl	r3, r3, r1
  87 005a 191C     		mov	r1, r3
  88 005c 0378     		ldrb	r3, [r0]
  89 005e 8B43     		bic	r3, r1
  90 0060 0370     		strb	r3, [r0]
 189:.\ssd1306.c   ****             break;
  91              		.loc 1 189 0
  92 0062 10E0     		b	.L1
  93              	.LVL6:
  94              	.L5:
 190:.\ssd1306.c   ****         case INVERSE: 
 191:.\ssd1306.c   ****             PIXEL_TOGGLE(x,y);
ARM GAS  C:\Users\User\AppData\Local\Temp\ccQ45nMh.s 			page 6


  95              		.loc 1 191 0
  96 0064 CB17     		asr	r3, r1, #31
  97 0066 5B0F     		lsr	r3, r3, #29
  98 0068 5B18     		add	r3, r3, r1
  99 006a DB10     		asr	r3, r3, #3
 100 006c DB01     		lsl	r3, r3, #7
 101 006e 1B18     		add	r3, r3, r0
 102 0070 0548     		ldr	r0, .L6
 103              	.LVL7:
 104 0072 0130     		add	r0, r0, #1
 105 0074 C018     		add	r0, r0, r3
 106 0076 0723     		mov	r3, #7
 107 0078 1940     		and	r1, r3
 108              	.LVL8:
 109 007a 063B     		sub	r3, r3, #6
 110 007c 8B40     		lsl	r3, r3, r1
 111 007e 191C     		mov	r1, r3
 112 0080 0378     		ldrb	r3, [r0]
 113 0082 5940     		eor	r1, r3
 114 0084 0170     		strb	r1, [r0]
 115              	.L1:
 192:.\ssd1306.c   ****             break;
 193:.\ssd1306.c   ****     }
 194:.\ssd1306.c   **** }
 116              		.loc 1 194 0
 117              		@ sp needed
 118 0086 7047     		bx	lr
 119              	.L7:
 120              		.align	2
 121              	.L6:
 122 0088 00000000 		.word	.LANCHOR0
 123              		.cfi_endproc
 124              	.LFE36:
 125              		.size	display_setPixel, .-display_setPixel
 126              		.section	.text.display_line,"ax",%progbits
 127              		.align	2
 128              		.code	16
 129              		.thumb_func
 130              		.type	display_line, %function
 131              	display_line:
 132              	.LFB41:
 195:.\ssd1306.c   **** 
 196:.\ssd1306.c   **** 
 197:.\ssd1306.c   **** void display_clear(void){
 198:.\ssd1306.c   ****     memset( _displaybuf, 0, _displaybuf_size );
 199:.\ssd1306.c   ****     SSD1306_buffer[0] = 0x40; // to be sure its there
 200:.\ssd1306.c   **** }
 201:.\ssd1306.c   **** 
 202:.\ssd1306.c   **** 
 203:.\ssd1306.c   **** // contrast: 0 ...255
 204:.\ssd1306.c   **** void display_contrast( uint8_t contrast ){
 205:.\ssd1306.c   ****         
 206:.\ssd1306.c   ****     uint8 cmdbuf[] = {
 207:.\ssd1306.c   ****         0x00,  
 208:.\ssd1306.c   ****         SSD1306_SETCONTRAST,
 209:.\ssd1306.c   ****         contrast
 210:.\ssd1306.c   ****     };
ARM GAS  C:\Users\User\AppData\Local\Temp\ccQ45nMh.s 			page 7


 211:.\ssd1306.c   ****     display_write_buf( cmdbuf, sizeof(cmdbuf) ); 
 212:.\ssd1306.c   **** }
 213:.\ssd1306.c   **** 
 214:.\ssd1306.c   **** 
 215:.\ssd1306.c   **** // invert <> 0 for inverse display, invert == 0 for normal display
 216:.\ssd1306.c   **** void display_invert( uint8_t invert ){
 217:.\ssd1306.c   **** 
 218:.\ssd1306.c   ****     uint8 cmdbuf[] = {
 219:.\ssd1306.c   ****         0x00,  
 220:.\ssd1306.c   ****         0
 221:.\ssd1306.c   ****     };
 222:.\ssd1306.c   ****     cmdbuf[1] = invert ? SSD1306_INVERTDISPLAY : SSD1306_NORMALDISPLAY;
 223:.\ssd1306.c   ****     display_write_buf( cmdbuf, sizeof(cmdbuf) ); 
 224:.\ssd1306.c   **** }
 225:.\ssd1306.c   **** 
 226:.\ssd1306.c   **** 
 227:.\ssd1306.c   **** void display_update(void) {
 228:.\ssd1306.c   ****       
 229:.\ssd1306.c   ****     uint8 cmdbuf[] = {
 230:.\ssd1306.c   ****         0x00,
 231:.\ssd1306.c   ****         SSD1306_COLUMNADDR,
 232:.\ssd1306.c   ****         0,                      // start
 233:.\ssd1306.c   ****         DISPLAYWIDTH-1, // end
 234:.\ssd1306.c   ****         SSD1306_PAGEADDR,
 235:.\ssd1306.c   ****         0,                      // start
 236:.\ssd1306.c   ****         7                       // end
 237:.\ssd1306.c   ****     };
 238:.\ssd1306.c   ****     display_write_buf( cmdbuf, sizeof(cmdbuf) ); 
 239:.\ssd1306.c   ****     display_write_buf( SSD1306_buffer, sizeof(SSD1306_buffer) );
 240:.\ssd1306.c   **** }
 241:.\ssd1306.c   **** 
 242:.\ssd1306.c   **** 
 243:.\ssd1306.c   **** // draws horizontal or vertical line
 244:.\ssd1306.c   **** // Note: no check for valid coords, this needs to be done by caller
 245:.\ssd1306.c   **** // should only be called from gfx_hvline which is doing all validity checking
 246:.\ssd1306.c   **** static void display_line( int16_t x1, int16_t y1, int16_t x2, int16_t y2, uint16_t color ){
 133              		.loc 1 246 0
 134              		.cfi_startproc
 135              	.LVL9:
 136 0000 F0B5     		push	{r4, r5, r6, r7, lr}
 137              		.cfi_def_cfa_offset 20
 138              		.cfi_offset 4, -20
 139              		.cfi_offset 5, -16
 140              		.cfi_offset 6, -12
 141              		.cfi_offset 7, -8
 142              		.cfi_offset 14, -4
 143 0002 4746     		mov	r7, r8
 144 0004 80B4     		push	{r7}
 145              		.cfi_def_cfa_offset 24
 146              		.cfi_offset 8, -24
 147 0006 06AC     		add	r4, sp, #24
 148              	.LVL10:
 149 0008 2588     		ldrh	r5, [r4]
 247:.\ssd1306.c   **** 
 248:.\ssd1306.c   ****     if( x1 == x2 ){
 150              		.loc 1 248 0
 151 000a 9042     		cmp	r0, r2
ARM GAS  C:\Users\User\AppData\Local\Temp\ccQ45nMh.s 			page 8


 152 000c 6AD1     		bne	.L9
 153              	.LBB2:
 249:.\ssd1306.c   ****         // vertical
 250:.\ssd1306.c   ****         uint8_t* pstart = GDDRAM_ADDRESS(x1,y1);
 154              		.loc 1 250 0
 155 000e CC17     		asr	r4, r1, #31
 156              	.LVL11:
 157 0010 640F     		lsr	r4, r4, #29
 158 0012 6418     		add	r4, r4, r1
 159 0014 E410     		asr	r4, r4, #3
 160 0016 E401     		lsl	r4, r4, #7
 161 0018 2018     		add	r0, r4, r0
 162              	.LVL12:
 163 001a 474F     		ldr	r7, .L34
 164 001c 0137     		add	r7, r7, #1
 165 001e 3818     		add	r0, r7, r0
 166              	.LVL13:
 251:.\ssd1306.c   ****         uint8_t* pend = GDDRAM_ADDRESS(x2,y2);       
 167              		.loc 1 251 0
 168 0020 DC17     		asr	r4, r3, #31
 169 0022 640F     		lsr	r4, r4, #29
 170 0024 E418     		add	r4, r4, r3
 171 0026 E410     		asr	r4, r4, #3
 172 0028 E401     		lsl	r4, r4, #7
 173 002a A218     		add	r2, r4, r2
 174              	.LVL14:
 175 002c BA18     		add	r2, r7, r2
 176              	.LVL15:
 252:.\ssd1306.c   ****         uint8_t* ptr = pstart;             
 177              		.loc 1 252 0
 178 002e 041C     		mov	r4, r0
 253:.\ssd1306.c   ****         
 254:.\ssd1306.c   ****         while( ptr <= pend ){
 179              		.loc 1 254 0
 180 0030 55E0     		b	.L10
 181              	.LVL16:
 182              	.L25:
 183              	.LBB3:
 255:.\ssd1306.c   ****             
 256:.\ssd1306.c   ****             uint8_t mask;
 257:.\ssd1306.c   ****             if( ptr == pstart ){
 184              		.loc 1 257 0
 185 0032 8442     		cmp	r4, r0
 186 0034 1BD1     		bne	.L11
 187              	.LBB4:
 258:.\ssd1306.c   ****                 // top
 259:.\ssd1306.c   ****                 uint8_t lbit = y1 % 8;
 188              		.loc 1 259 0
 189 0036 414E     		ldr	r6, .L34+4
 190              	.LVL17:
 191 0038 0E40     		and	r6, r1
 192 003a 04D5     		bpl	.L12
 193 003c 013E     		sub	r6, r6, #1
 194 003e 0827     		mov	r7, #8
 195 0040 7F42     		neg	r7, r7
 196 0042 3E43     		orr	r6, r7
 197 0044 0136     		add	r6, r6, #1
ARM GAS  C:\Users\User\AppData\Local\Temp\ccQ45nMh.s 			page 9


 198              	.L12:
 199 0046 F6B2     		uxtb	r6, r6
 200 0048 B046     		mov	r8, r6
 201              	.LVL18:
 260:.\ssd1306.c   ****                 // bottom (line can be very short, all inside this one byte)
 261:.\ssd1306.c   ****                 uint8_t ubit = lbit + y2 - y1;
 202              		.loc 1 261 0
 203 004a F718     		add	r7, r6, r3
 204 004c 7F1A     		sub	r7, r7, r1
 205 004e FFB2     		uxtb	r7, r7
 206              	.LVL19:
 262:.\ssd1306.c   ****                 if( ubit >= 7 )
 207              		.loc 1 262 0
 208 0050 062F     		cmp	r7, #6
 209 0052 00D9     		bls	.L13
 263:.\ssd1306.c   ****                     ubit = 7;
 210              		.loc 1 263 0
 211 0054 0727     		mov	r7, #7
 212              	.LVL20:
 213              	.L13:
 264:.\ssd1306.c   ****                 mask = ((1 << (ubit-lbit+1)) - 1) << lbit;    
 214              		.loc 1 264 0
 215 0056 4646     		mov	r6, r8
 216              	.LVL21:
 217 0058 BF1B     		sub	r7, r7, r6
 218              	.LVL22:
 219 005a 0137     		add	r7, r7, #1
 220 005c 0126     		mov	r6, #1
 221 005e BE40     		lsl	r6, r6, r7
 222 0060 371C     		mov	r7, r6
 223 0062 013F     		sub	r7, r7, #1
 224 0064 3E1C     		mov	r6, r7
 225 0066 4746     		mov	r7, r8
 226 0068 BE40     		lsl	r6, r6, r7
 227 006a F6B2     		uxtb	r6, r6
 228              	.LVL23:
 229              	.LBE4:
 230 006c 0FE0     		b	.L14
 231              	.LVL24:
 232              	.L11:
 265:.\ssd1306.c   ****             }else if( ptr == pend ){
 233              		.loc 1 265 0
 234 006e 9442     		cmp	r4, r2
 235 0070 0DD1     		bne	.L14
 266:.\ssd1306.c   ****                 // top is always bit 0, that makes it easy
 267:.\ssd1306.c   ****                 // bottom
 268:.\ssd1306.c   ****                 mask = (1 << (y2 % 8)) - 1;    
 236              		.loc 1 268 0
 237 0072 324E     		ldr	r6, .L34+4
 238              	.LVL25:
 239 0074 1E40     		and	r6, r3
 240 0076 04D5     		bpl	.L15
 241 0078 013E     		sub	r6, r6, #1
 242 007a 0827     		mov	r7, #8
 243 007c 7F42     		neg	r7, r7
 244 007e 3E43     		orr	r6, r7
 245 0080 0136     		add	r6, r6, #1
ARM GAS  C:\Users\User\AppData\Local\Temp\ccQ45nMh.s 			page 10


 246              	.L15:
 247 0082 36B2     		sxth	r6, r6
 248 0084 0127     		mov	r7, #1
 249 0086 B740     		lsl	r7, r7, r6
 250 0088 3E1C     		mov	r6, r7
 251 008a 013E     		sub	r6, r6, #1
 252 008c F6B2     		uxtb	r6, r6
 253              	.LVL26:
 254              	.L14:
 269:.\ssd1306.c   ****             }
 270:.\ssd1306.c   **** 
 271:.\ssd1306.c   ****             if( ptr == pstart || ptr == pend ){
 255              		.loc 1 271 0
 256 008e 8442     		cmp	r4, r0
 257 0090 01D0     		beq	.L16
 258              		.loc 1 271 0 is_stmt 0 discriminator 1
 259 0092 9442     		cmp	r4, r2
 260 0094 12D1     		bne	.L17
 261              	.L16:
 272:.\ssd1306.c   ****                 switch( color ){
 262              		.loc 1 272 0 is_stmt 1
 263 0096 012D     		cmp	r5, #1
 264 0098 04D0     		beq	.L19
 265 009a 002D     		cmp	r5, #0
 266 009c 06D0     		beq	.L20
 267 009e 022D     		cmp	r5, #2
 268 00a0 08D0     		beq	.L21
 269 00a2 1BE0     		b	.L18
 270              	.L19:
 273:.\ssd1306.c   ****                     case WHITE:     *ptr |= mask; break;
 271              		.loc 1 273 0
 272 00a4 2778     		ldrb	r7, [r4]
 273 00a6 3743     		orr	r7, r6
 274 00a8 2770     		strb	r7, [r4]
 275 00aa 17E0     		b	.L18
 276              	.L20:
 274:.\ssd1306.c   ****                     case BLACK:     *ptr &= ~mask; break;
 277              		.loc 1 274 0
 278 00ac 2778     		ldrb	r7, [r4]
 279 00ae B743     		bic	r7, r6
 280 00b0 2770     		strb	r7, [r4]
 281 00b2 13E0     		b	.L18
 282              	.L21:
 275:.\ssd1306.c   ****                     case INVERSE:   *ptr ^= mask; break;
 283              		.loc 1 275 0
 284 00b4 2778     		ldrb	r7, [r4]
 285 00b6 7740     		eor	r7, r6
 286 00b8 2770     		strb	r7, [r4]
 287 00ba 0FE0     		b	.L18
 288              	.L17:
 276:.\ssd1306.c   ****                 };  
 277:.\ssd1306.c   ****             }else{
 278:.\ssd1306.c   ****                 switch( color ){
 289              		.loc 1 278 0
 290 00bc 012D     		cmp	r5, #1
 291 00be 04D0     		beq	.L22
 292 00c0 002D     		cmp	r5, #0
ARM GAS  C:\Users\User\AppData\Local\Temp\ccQ45nMh.s 			page 11


 293 00c2 05D0     		beq	.L23
 294 00c4 022D     		cmp	r5, #2
 295 00c6 06D0     		beq	.L24
 296 00c8 08E0     		b	.L18
 297              	.L22:
 279:.\ssd1306.c   ****                     case WHITE:     *ptr = 0xff; break;
 298              		.loc 1 279 0
 299 00ca FF27     		mov	r7, #255
 300 00cc 2770     		strb	r7, [r4]
 301 00ce 05E0     		b	.L18
 302              	.L23:
 280:.\ssd1306.c   ****                     case BLACK:     *ptr = 0x00; break;
 303              		.loc 1 280 0
 304 00d0 0027     		mov	r7, #0
 305 00d2 2770     		strb	r7, [r4]
 306 00d4 02E0     		b	.L18
 307              	.L24:
 281:.\ssd1306.c   ****                     case INVERSE:   *ptr ^= 0xff; break;
 308              		.loc 1 281 0
 309 00d6 2778     		ldrb	r7, [r4]
 310 00d8 FF43     		mvn	r7, r7
 311 00da 2770     		strb	r7, [r4]
 312              	.L18:
 282:.\ssd1306.c   ****                 };  
 283:.\ssd1306.c   ****             }
 284:.\ssd1306.c   ****             
 285:.\ssd1306.c   ****             ptr += DISPLAYWIDTH;
 313              		.loc 1 285 0
 314 00dc 8034     		add	r4, r4, #128
 315              	.LVL27:
 316              	.L10:
 317              	.LBE3:
 254:.\ssd1306.c   ****             
 318              		.loc 1 254 0
 319 00de 9442     		cmp	r4, r2
 320 00e0 A7D9     		bls	.L25
 321 00e2 26E0     		b	.L8
 322              	.LVL28:
 323              	.L9:
 324              	.LBE2:
 325              	.LBB5:
 286:.\ssd1306.c   ****         }
 287:.\ssd1306.c   ****     }else{
 288:.\ssd1306.c   ****         // horizontal
 289:.\ssd1306.c   ****         uint8_t* pstart = GDDRAM_ADDRESS(x1,y1);
 326              		.loc 1 289 0
 327 00e4 CB17     		asr	r3, r1, #31
 328              	.LVL29:
 329 00e6 5B0F     		lsr	r3, r3, #29
 330 00e8 5B18     		add	r3, r3, r1
 331 00ea DB10     		asr	r3, r3, #3
 332 00ec DB01     		lsl	r3, r3, #7
 333 00ee 1C18     		add	r4, r3, r0
 334              	.LVL30:
 335 00f0 114B     		ldr	r3, .L34
 336 00f2 0133     		add	r3, r3, #1
 337 00f4 1B19     		add	r3, r3, r4
ARM GAS  C:\Users\User\AppData\Local\Temp\ccQ45nMh.s 			page 12


 338              	.LVL31:
 290:.\ssd1306.c   ****         uint8_t* pend = pstart + x2 - x1;
 339              		.loc 1 290 0
 340 00f6 121A     		sub	r2, r2, r0
 341              	.LVL32:
 342 00f8 9A18     		add	r2, r3, r2
 343              	.LVL33:
 291:.\ssd1306.c   ****         uint8_t pixmask = GDDRAM_PIXMASK(y1);    
 344              		.loc 1 291 0
 345 00fa 0720     		mov	r0, #7
 346              	.LVL34:
 347 00fc 0140     		and	r1, r0
 348              	.LVL35:
 349 00fe 0638     		sub	r0, r0, #6
 350 0100 8840     		lsl	r0, r0, r1
 351 0102 011C     		mov	r1, r0
 352 0104 C4B2     		uxtb	r4, r0
 353              	.LVL36:
 292:.\ssd1306.c   **** 
 293:.\ssd1306.c   ****         uint8_t* ptr = pstart;
 294:.\ssd1306.c   ****         while( ptr <= pend ){
 354              		.loc 1 294 0
 355 0106 12E0     		b	.L27
 356              	.LVL37:
 357              	.L32:
 295:.\ssd1306.c   ****             switch( color ){
 358              		.loc 1 295 0
 359 0108 012D     		cmp	r5, #1
 360 010a 04D0     		beq	.L29
 361 010c 002D     		cmp	r5, #0
 362 010e 06D0     		beq	.L30
 363 0110 022D     		cmp	r5, #2
 364 0112 08D0     		beq	.L31
 365 0114 0AE0     		b	.L28
 366              	.L29:
 296:.\ssd1306.c   ****                 case WHITE:     *ptr |= pixmask; break;
 367              		.loc 1 296 0
 368 0116 1878     		ldrb	r0, [r3]
 369 0118 2043     		orr	r0, r4
 370 011a 1870     		strb	r0, [r3]
 371 011c 06E0     		b	.L28
 372              	.L30:
 297:.\ssd1306.c   ****                 case BLACK:     *ptr &= ~pixmask; break;
 373              		.loc 1 297 0
 374 011e 1878     		ldrb	r0, [r3]
 375 0120 8843     		bic	r0, r1
 376 0122 1870     		strb	r0, [r3]
 377 0124 02E0     		b	.L28
 378              	.L31:
 298:.\ssd1306.c   ****                 case INVERSE:   *ptr ^= pixmask; break;
 379              		.loc 1 298 0
 380 0126 1878     		ldrb	r0, [r3]
 381 0128 6040     		eor	r0, r4
 382 012a 1870     		strb	r0, [r3]
 383              	.L28:
 299:.\ssd1306.c   ****             };
 300:.\ssd1306.c   ****             ptr++;
ARM GAS  C:\Users\User\AppData\Local\Temp\ccQ45nMh.s 			page 13


 384              		.loc 1 300 0
 385 012c 0133     		add	r3, r3, #1
 386              	.LVL38:
 387              	.L27:
 294:.\ssd1306.c   ****             switch( color ){
 388              		.loc 1 294 0
 389 012e 9342     		cmp	r3, r2
 390 0130 EAD9     		bls	.L32
 391              	.LVL39:
 392              	.L8:
 393              	.LBE5:
 301:.\ssd1306.c   ****         }
 302:.\ssd1306.c   ****     }
 303:.\ssd1306.c   **** }
 394              		.loc 1 303 0
 395              		@ sp needed
 396 0132 04BC     		pop	{r2}
 397 0134 9046     		mov	r8, r2
 398 0136 F0BD     		pop	{r4, r5, r6, r7, pc}
 399              	.L35:
 400              		.align	2
 401              	.L34:
 402 0138 00000000 		.word	.LANCHOR0
 403 013c 07000080 		.word	-2147483641
 404              		.cfi_endproc
 405              	.LFE41:
 406              		.size	display_line, .-display_line
 407              		.section	.text.gfx_rotation_adjust,"ax",%progbits
 408              		.align	2
 409              		.code	16
 410              		.thumb_func
 411              		.type	gfx_rotation_adjust, %function
 412              	gfx_rotation_adjust:
 413              	.LFB54:
 304:.\ssd1306.c   **** 
 305:.\ssd1306.c   **** 
 306:.\ssd1306.c   **** 
 307:.\ssd1306.c   **** void display_stopscroll(void){
 308:.\ssd1306.c   **** 
 309:.\ssd1306.c   ****     uint8 cmdbuf[] = {
 310:.\ssd1306.c   ****         0x00,
 311:.\ssd1306.c   ****         SSD1306_DEACTIVATE_SCROLL
 312:.\ssd1306.c   ****     };
 313:.\ssd1306.c   ****     display_write_buf( cmdbuf, sizeof(cmdbuf) ); 
 314:.\ssd1306.c   **** }
 315:.\ssd1306.c   **** 
 316:.\ssd1306.c   **** void display_scroll( SCROLL_AREA start, SCROLL_AREA end, SCROLL_DIR dir, SCROLL_SPEED speed ){
 317:.\ssd1306.c   ****    
 318:.\ssd1306.c   ****     uint8 cmdbuf[] = {
 319:.\ssd1306.c   ****         0x00,
 320:.\ssd1306.c   ****         dir,                    // 0x26 or 0x2a
 321:.\ssd1306.c   ****         0x00,                   // dummy byte
 322:.\ssd1306.c   ****         start,                  // start page
 323:.\ssd1306.c   ****         speed,                  // scroll step interval in terms of frame frequency 
 324:.\ssd1306.c   ****         end,                    // end page
 325:.\ssd1306.c   ****         0x00,                   // dummy byte
 326:.\ssd1306.c   ****         0xFF,                   // dummy byte
ARM GAS  C:\Users\User\AppData\Local\Temp\ccQ45nMh.s 			page 14


 327:.\ssd1306.c   ****         SSD1306_ACTIVATE_SCROLL // 0x2F
 328:.\ssd1306.c   ****     };
 329:.\ssd1306.c   ****     display_write_buf( cmdbuf, sizeof(cmdbuf) ); 
 330:.\ssd1306.c   **** }
 331:.\ssd1306.c   **** 
 332:.\ssd1306.c   **** 
 333:.\ssd1306.c   **** 
 334:.\ssd1306.c   **** // ============================================================
 335:.\ssd1306.c   **** // graphics library stuff
 336:.\ssd1306.c   **** 
 337:.\ssd1306.c   **** int16_t WIDTH, HEIGHT; // This is the 'raw' display w/h - never changes
 338:.\ssd1306.c   **** static int16_t _width, _height; // Display w/h as modified by current rotation
 339:.\ssd1306.c   **** static int16_t cursor_x, cursor_y;
 340:.\ssd1306.c   **** static uint16_t textcolor, textbgcolor;
 341:.\ssd1306.c   **** static uint8_t textsize;
 342:.\ssd1306.c   **** uint8_t rotation;
 343:.\ssd1306.c   **** uint8_t wrap; // If set, 'wrap' text at right edge of display
 344:.\ssd1306.c   **** 
 345:.\ssd1306.c   **** 
 346:.\ssd1306.c   **** 
 347:.\ssd1306.c   **** void gfx_init( int16_t width, int16_t height ){
 348:.\ssd1306.c   ****     WIDTH = width;
 349:.\ssd1306.c   ****     HEIGHT = height;
 350:.\ssd1306.c   ****     _width = WIDTH;
 351:.\ssd1306.c   ****     _height = HEIGHT;
 352:.\ssd1306.c   ****     
 353:.\ssd1306.c   ****     rotation = 0;
 354:.\ssd1306.c   ****     cursor_y = cursor_x = 0;
 355:.\ssd1306.c   ****     textsize = 1;
 356:.\ssd1306.c   ****     textcolor = textbgcolor = 0xFFFF;
 357:.\ssd1306.c   ****     wrap = 1;
 358:.\ssd1306.c   **** }
 359:.\ssd1306.c   **** 
 360:.\ssd1306.c   **** // Return the size of the display (per current rotation)
 361:.\ssd1306.c   **** int16_t gfx_width(void){
 362:.\ssd1306.c   ****     return _width;
 363:.\ssd1306.c   **** }
 364:.\ssd1306.c   **** 
 365:.\ssd1306.c   **** int16_t gfx_height(void){
 366:.\ssd1306.c   ****     return _height;
 367:.\ssd1306.c   **** }
 368:.\ssd1306.c   **** 
 369:.\ssd1306.c   **** uint8_t gfx_rotation(void){
 370:.\ssd1306.c   ****     return rotation;
 371:.\ssd1306.c   **** }
 372:.\ssd1306.c   **** 
 373:.\ssd1306.c   **** void gfx_setCursor( int16_t x, int16_t y ){
 374:.\ssd1306.c   ****     cursor_x = x;
 375:.\ssd1306.c   ****     cursor_y = y;
 376:.\ssd1306.c   **** }
 377:.\ssd1306.c   **** 
 378:.\ssd1306.c   **** void gfx_setTextSize( uint8_t size ){
 379:.\ssd1306.c   ****     textsize = (size > 0) ? size : 1;
 380:.\ssd1306.c   **** }
 381:.\ssd1306.c   **** 
 382:.\ssd1306.c   **** void gfx_setTextColor( uint16_t color ){
 383:.\ssd1306.c   ****     // For 'transparent' background, we'll set the bg
ARM GAS  C:\Users\User\AppData\Local\Temp\ccQ45nMh.s 			page 15


 384:.\ssd1306.c   ****     // to the same as fg instead of using a flag
 385:.\ssd1306.c   ****     textcolor = textbgcolor = color;
 386:.\ssd1306.c   **** }
 387:.\ssd1306.c   **** 
 388:.\ssd1306.c   **** void gfx_setTextBg( uint16_t color ){
 389:.\ssd1306.c   ****     textbgcolor = color;
 390:.\ssd1306.c   **** }
 391:.\ssd1306.c   **** 
 392:.\ssd1306.c   **** void gfx_setTextWrap( uint8 w ){
 393:.\ssd1306.c   ****     wrap = w;
 394:.\ssd1306.c   **** }
 395:.\ssd1306.c   **** 
 396:.\ssd1306.c   **** void gfx_setRotation( uint8_t x ){
 397:.\ssd1306.c   ****     
 398:.\ssd1306.c   ****     rotation = (x & 3);
 399:.\ssd1306.c   ****     switch( rotation ){
 400:.\ssd1306.c   ****         case 0:
 401:.\ssd1306.c   ****         case 2:
 402:.\ssd1306.c   ****             _width = WIDTH;
 403:.\ssd1306.c   ****             _height = HEIGHT;
 404:.\ssd1306.c   ****             break;
 405:.\ssd1306.c   ****         case 1:
 406:.\ssd1306.c   ****         case 3:
 407:.\ssd1306.c   ****             _width = HEIGHT;
 408:.\ssd1306.c   ****             _height = WIDTH;
 409:.\ssd1306.c   ****         break;
 410:.\ssd1306.c   ****     }
 411:.\ssd1306.c   **** }
 412:.\ssd1306.c   **** 
 413:.\ssd1306.c   **** static void gfx_rotation_adjust( int16_t* px, int16_t* py ){
 414              		.loc 1 413 0
 415              		.cfi_startproc
 416              	.LVL40:
 417 0000 10B5     		push	{r4, lr}
 418              		.cfi_def_cfa_offset 8
 419              		.cfi_offset 4, -8
 420              		.cfi_offset 14, -4
 414:.\ssd1306.c   **** 
 415:.\ssd1306.c   ****     int16_t y0 = *py;
 421              		.loc 1 415 0
 422 0002 0A88     		ldrh	r2, [r1]
 423              	.LVL41:
 416:.\ssd1306.c   ****     
 417:.\ssd1306.c   ****     switch( rotation ){
 424              		.loc 1 417 0
 425 0004 124B     		ldr	r3, .L41
 426 0006 1B78     		ldrb	r3, [r3]
 427 0008 022B     		cmp	r3, #2
 428 000a 0BD0     		beq	.L38
 429 000c 032B     		cmp	r3, #3
 430 000e 16D0     		beq	.L39
 431 0010 012B     		cmp	r3, #1
 432 0012 1BD1     		bne	.L36
 418:.\ssd1306.c   ****         case 1:
 419:.\ssd1306.c   ****             *py = *px;
 433              		.loc 1 419 0
 434 0014 0388     		ldrh	r3, [r0]
ARM GAS  C:\Users\User\AppData\Local\Temp\ccQ45nMh.s 			page 16


 435 0016 0B80     		strh	r3, [r1]
 420:.\ssd1306.c   ****             *px = WIDTH - y0 - 1;
 436              		.loc 1 420 0
 437 0018 0E4B     		ldr	r3, .L41+4
 438 001a 1B88     		ldrh	r3, [r3]
 439 001c 9A1A     		sub	r2, r3, r2
 440              	.LVL42:
 441 001e 013A     		sub	r2, r2, #1
 442 0020 0280     		strh	r2, [r0]
 421:.\ssd1306.c   ****             break;
 443              		.loc 1 421 0
 444 0022 13E0     		b	.L36
 445              	.LVL43:
 446              	.L38:
 422:.\ssd1306.c   ****         case 2:
 423:.\ssd1306.c   ****             *px = WIDTH - *px - 1;
 447              		.loc 1 423 0
 448 0024 0288     		ldrh	r2, [r0]
 449              	.LVL44:
 450 0026 0B4B     		ldr	r3, .L41+4
 451 0028 1B88     		ldrh	r3, [r3]
 452 002a 9B1A     		sub	r3, r3, r2
 453 002c 013B     		sub	r3, r3, #1
 454 002e 0380     		strh	r3, [r0]
 455              	.LVL45:
 424:.\ssd1306.c   ****             *py = HEIGHT - *py - 1;
 456              		.loc 1 424 0
 457 0030 0A88     		ldrh	r2, [r1]
 458 0032 094B     		ldr	r3, .L41+8
 459 0034 1B88     		ldrh	r3, [r3]
 460 0036 9B1A     		sub	r3, r3, r2
 461 0038 013B     		sub	r3, r3, #1
 462 003a 0B80     		strh	r3, [r1]
 425:.\ssd1306.c   ****             break;
 463              		.loc 1 425 0
 464 003c 06E0     		b	.L36
 465              	.LVL46:
 466              	.L39:
 426:.\ssd1306.c   ****         case 3:
 427:.\ssd1306.c   ****             *py = HEIGHT - *px - 1;
 467              		.loc 1 427 0
 468 003e 0488     		ldrh	r4, [r0]
 469 0040 054B     		ldr	r3, .L41+8
 470 0042 1B88     		ldrh	r3, [r3]
 471 0044 1B1B     		sub	r3, r3, r4
 472 0046 013B     		sub	r3, r3, #1
 473 0048 0B80     		strh	r3, [r1]
 428:.\ssd1306.c   ****             *px = y0;
 474              		.loc 1 428 0
 475 004a 0280     		strh	r2, [r0]
 476              	.LVL47:
 477              	.L36:
 429:.\ssd1306.c   ****             break;
 430:.\ssd1306.c   ****     }
 431:.\ssd1306.c   **** }
 478              		.loc 1 431 0
 479              		@ sp needed
ARM GAS  C:\Users\User\AppData\Local\Temp\ccQ45nMh.s 			page 17


 480 004c 10BD     		pop	{r4, pc}
 481              	.L42:
 482 004e C046     		.align	2
 483              	.L41:
 484 0050 00000000 		.word	rotation
 485 0054 00000000 		.word	WIDTH
 486 0058 00000000 		.word	HEIGHT
 487              		.cfi_endproc
 488              	.LFE54:
 489              		.size	gfx_rotation_adjust, .-gfx_rotation_adjust
 490              		.section	.text.gfx_hvLine,"ax",%progbits
 491              		.align	2
 492              		.code	16
 493              		.thumb_func
 494              		.type	gfx_hvLine, %function
 495              	gfx_hvLine:
 496              	.LFB56:
 432:.\ssd1306.c   **** 
 433:.\ssd1306.c   **** void gfx_drawPixel( int16_t x, int16_t y, uint16_t color ){
 434:.\ssd1306.c   ****     
 435:.\ssd1306.c   ****     if( (x < 0) || (x >= _width) || (y < 0) || (y >= _height) )
 436:.\ssd1306.c   ****         return;
 437:.\ssd1306.c   ****     
 438:.\ssd1306.c   ****     gfx_rotation_adjust( &x, &y );
 439:.\ssd1306.c   **** 
 440:.\ssd1306.c   ****     display_setPixel(x,y,color);
 441:.\ssd1306.c   **** }
 442:.\ssd1306.c   **** 
 443:.\ssd1306.c   **** // helper function for gfx_drawLine, handles special cases of horizontal and vertical lines
 444:.\ssd1306.c   **** static void gfx_hvLine( int16_t x1, int16_t y1, int16_t x2, int16_t y2, uint16_t color ){
 497              		.loc 1 444 0
 498              		.cfi_startproc
 499              	.LVL48:
 500 0000 70B5     		push	{r4, r5, r6, lr}
 501              		.cfi_def_cfa_offset 16
 502              		.cfi_offset 4, -16
 503              		.cfi_offset 5, -12
 504              		.cfi_offset 6, -8
 505              		.cfi_offset 14, -4
 506 0002 84B0     		sub	sp, sp, #16
 507              		.cfi_def_cfa_offset 32
 508 0004 08AC     		add	r4, sp, #32
 509              	.LVL49:
 510 0006 2588     		ldrh	r5, [r4]
 511 0008 0E24     		mov	r4, #14
 512              	.LVL50:
 513 000a 6C44     		add	r4, r4, sp
 514 000c 2080     		strh	r0, [r4]
 515 000e 03AC     		add	r4, sp, #12
 516 0010 2180     		strh	r1, [r4]
 517 0012 0A21     		mov	r1, #10
 518              	.LVL51:
 519 0014 6944     		add	r1, r1, sp
 520 0016 0A80     		strh	r2, [r1]
 521 0018 02A9     		add	r1, sp, #8
 522 001a 0B80     		strh	r3, [r1]
 445:.\ssd1306.c   ****     
ARM GAS  C:\Users\User\AppData\Local\Temp\ccQ45nMh.s 			page 18


 446:.\ssd1306.c   ****     if( x1 != x2 && y1 != y2 ){
 523              		.loc 1 446 0
 524 001c 83B2     		uxth	r3, r0
 525              	.LVL52:
 526 001e 91B2     		uxth	r1, r2
 527              	.LVL53:
 528 0020 8242     		cmp	r2, r0
 529 0022 08D0     		beq	.L44
 530              		.loc 1 446 0 is_stmt 0 discriminator 1
 531 0024 221C     		mov	r2, r4
 532              	.LVL54:
 533 0026 0020     		mov	r0, #0
 534 0028 105E     		ldrsh	r0, [r2, r0]
 535              	.LVL55:
 536 002a 02AA     		add	r2, sp, #8
 537              	.LVL56:
 538 002c 0024     		mov	r4, #0
 539 002e 125F     		ldrsh	r2, [r2, r4]
 540              	.LVL57:
 541 0030 9042     		cmp	r0, r2
 542 0032 00D0     		beq	.LCB584
 543 0034 8FE0     		b	.L43	@long jump
 544              	.LCB584:
 545              	.L44:
 447:.\ssd1306.c   ****         // neither vertical nor horizontal
 448:.\ssd1306.c   ****         return;
 449:.\ssd1306.c   ****     }    
 450:.\ssd1306.c   ****     
 451:.\ssd1306.c   ****     // bounds check
 452:.\ssd1306.c   ****     if( rotation == 1 || rotation == 3 ){
 546              		.loc 1 452 0 is_stmt 1
 547 0036 494A     		ldr	r2, .L52
 548 0038 1278     		ldrb	r2, [r2]
 549 003a 012A     		cmp	r2, #1
 550 003c 01D0     		beq	.L46
 551              		.loc 1 452 0 is_stmt 0 discriminator 1
 552 003e 032A     		cmp	r2, #3
 553 0040 25D1     		bne	.L47
 554              	.L46:
 453:.\ssd1306.c   ****         if( x1 < 0 || x1 >= HEIGHT || x2 < 0 || x2 >= HEIGHT )
 555              		.loc 1 453 0 is_stmt 1
 556 0042 1AB2     		sxth	r2, r3
 557 0044 002A     		cmp	r2, #0
 558 0046 00DA     		bge	.LCB595
 559 0048 85E0     		b	.L43	@long jump
 560              	.LCB595:
 561              		.loc 1 453 0 is_stmt 0 discriminator 1
 562 004a 454A     		ldr	r2, .L52+4
 563 004c 1288     		ldrh	r2, [r2]
 564 004e 1BB2     		sxth	r3, r3
 565 0050 10B2     		sxth	r0, r2
 566 0052 8342     		cmp	r3, r0
 567 0054 00DB     		blt	.LCB601
 568 0056 7EE0     		b	.L43	@long jump
 569              	.LCB601:
 570              		.loc 1 453 0 discriminator 2
 571 0058 0BB2     		sxth	r3, r1
ARM GAS  C:\Users\User\AppData\Local\Temp\ccQ45nMh.s 			page 19


 572 005a 002B     		cmp	r3, #0
 573 005c 00DA     		bge	.LCB604
 574 005e 7AE0     		b	.L43	@long jump
 575              	.LCB604:
 576              		.loc 1 453 0 discriminator 3
 577 0060 8342     		cmp	r3, r0
 578 0062 00DB     		blt	.LCB606
 579 0064 77E0     		b	.L43	@long jump
 580              	.LCB606:
 454:.\ssd1306.c   ****             return;
 455:.\ssd1306.c   ****         if( y1 < 0 || y1 >= WIDTH || y2 < 0 || y2 >= WIDTH )
 581              		.loc 1 455 0 is_stmt 1
 582 0066 03AB     		add	r3, sp, #12
 583              	.LVL58:
 584 0068 1B88     		ldrh	r3, [r3]
 585              	.LVL59:
 586 006a 1AB2     		sxth	r2, r3
 587 006c 002A     		cmp	r2, #0
 588 006e 72DB     		blt	.L43
 589              		.loc 1 455 0 is_stmt 0 discriminator 1
 590 0070 3C4A     		ldr	r2, .L52+8
 591 0072 1288     		ldrh	r2, [r2]
 592 0074 1BB2     		sxth	r3, r3
 593 0076 11B2     		sxth	r1, r2
 594 0078 8B42     		cmp	r3, r1
 595 007a 6CDA     		bge	.L43
 596              		.loc 1 455 0 discriminator 2
 597 007c 02AB     		add	r3, sp, #8
 598              	.LVL60:
 599 007e 1B88     		ldrh	r3, [r3]
 600              	.LVL61:
 601 0080 19B2     		sxth	r1, r3
 602 0082 0029     		cmp	r1, #0
 603 0084 67DB     		blt	.L43
 604              		.loc 1 455 0 discriminator 3
 605 0086 12B2     		sxth	r2, r2
 606 0088 8A42     		cmp	r2, r1
 607 008a 21DC     		bgt	.L48
 608 008c 63E0     		b	.L43
 609              	.L47:
 456:.\ssd1306.c   ****             return;
 457:.\ssd1306.c   ****     }else{
 458:.\ssd1306.c   ****         if( y1 < 0 || y1 >= HEIGHT || y2 < 0 || y2 >= HEIGHT )
 610              		.loc 1 458 0 is_stmt 1
 611 008e 03AA     		add	r2, sp, #12
 612              	.LVL62:
 613 0090 1288     		ldrh	r2, [r2]
 614              	.LVL63:
 615 0092 10B2     		sxth	r0, r2
 616 0094 0028     		cmp	r0, #0
 617 0096 5EDB     		blt	.L43
 618              		.loc 1 458 0 is_stmt 0 discriminator 1
 619 0098 3148     		ldr	r0, .L52+4
 620 009a 0088     		ldrh	r0, [r0]
 621 009c 12B2     		sxth	r2, r2
 622 009e 04B2     		sxth	r4, r0
 623 00a0 A242     		cmp	r2, r4
ARM GAS  C:\Users\User\AppData\Local\Temp\ccQ45nMh.s 			page 20


 624 00a2 58DA     		bge	.L43
 625              		.loc 1 458 0 discriminator 2
 626 00a4 02AA     		add	r2, sp, #8
 627              	.LVL64:
 628 00a6 1288     		ldrh	r2, [r2]
 629              	.LVL65:
 630 00a8 14B2     		sxth	r4, r2
 631 00aa 002C     		cmp	r4, #0
 632 00ac 53DB     		blt	.L43
 633              		.loc 1 458 0 discriminator 3
 634 00ae 00B2     		sxth	r0, r0
 635 00b0 A042     		cmp	r0, r4
 636 00b2 50DD     		ble	.L43
 459:.\ssd1306.c   ****             return;
 460:.\ssd1306.c   ****         if( x1 < 0 || x1 >= WIDTH || x2 < 0 || x2 >= WIDTH )
 637              		.loc 1 460 0 is_stmt 1
 638 00b4 1AB2     		sxth	r2, r3
 639 00b6 002A     		cmp	r2, #0
 640 00b8 4DDB     		blt	.L43
 641              		.loc 1 460 0 is_stmt 0 discriminator 1
 642 00ba 2A4A     		ldr	r2, .L52+8
 643 00bc 1288     		ldrh	r2, [r2]
 644 00be 1BB2     		sxth	r3, r3
 645 00c0 10B2     		sxth	r0, r2
 646 00c2 8342     		cmp	r3, r0
 647 00c4 47DA     		bge	.L43
 648              		.loc 1 460 0 discriminator 2
 649 00c6 0BB2     		sxth	r3, r1
 650 00c8 002B     		cmp	r3, #0
 651 00ca 44DB     		blt	.L43
 652              		.loc 1 460 0 discriminator 3
 653 00cc 8342     		cmp	r3, r0
 654 00ce 42DA     		bge	.L43
 655              	.L48:
 461:.\ssd1306.c   ****             return;
 462:.\ssd1306.c   ****     }
 463:.\ssd1306.c   ****     
 464:.\ssd1306.c   ****     gfx_rotation_adjust( &x1, &y1 );
 656              		.loc 1 464 0 is_stmt 1
 657 00d0 0E26     		mov	r6, #14
 658              	.LVL66:
 659 00d2 6E44     		add	r6, r6, sp
 660              	.LVL67:
 661 00d4 301C     		mov	r0, r6
 662 00d6 03A9     		add	r1, sp, #12
 663              	.LVL68:
 664 00d8 FFF7FEFF 		bl	gfx_rotation_adjust
 665              	.LVL69:
 465:.\ssd1306.c   ****     gfx_rotation_adjust( &x2, &y2 );
 666              		.loc 1 465 0
 667 00dc 0A24     		mov	r4, #10
 668              	.LVL70:
 669 00de 6C44     		add	r4, r4, sp
 670              	.LVL71:
 671 00e0 201C     		mov	r0, r4
 672 00e2 02A9     		add	r1, sp, #8
 673              	.LVL72:
ARM GAS  C:\Users\User\AppData\Local\Temp\ccQ45nMh.s 			page 21


 674 00e4 FFF7FEFF 		bl	gfx_rotation_adjust
 675              	.LVL73:
 466:.\ssd1306.c   ****     
 467:.\ssd1306.c   ****     // ensure coords are from left to right and top to bottom
 468:.\ssd1306.c   ****     if( (x1 == x2 && y2 < y1) || (y1 == y2 && x2 < x1) ){
 676              		.loc 1 468 0
 677 00e8 3388     		ldrh	r3, [r6]
 678 00ea 2288     		ldrh	r2, [r4]
 679 00ec 18B2     		sxth	r0, r3
 680 00ee 11B2     		sxth	r1, r2
 681 00f0 8842     		cmp	r0, r1
 682 00f2 07D1     		bne	.L49
 683              		.loc 1 468 0 is_stmt 0 discriminator 1
 684 00f4 02A9     		add	r1, sp, #8
 685              	.LVL74:
 686 00f6 0020     		mov	r0, #0
 687 00f8 085E     		ldrsh	r0, [r1, r0]
 688              	.LVL75:
 689 00fa 03A9     		add	r1, sp, #12
 690              	.LVL76:
 691 00fc 0024     		mov	r4, #0
 692 00fe 095F     		ldrsh	r1, [r1, r4]
 693              	.LVL77:
 694 0100 8842     		cmp	r0, r1
 695 0102 0BDB     		blt	.L50
 696              	.L49:
 697              		.loc 1 468 0 discriminator 3
 698 0104 03A9     		add	r1, sp, #12
 699              	.LVL78:
 700 0106 0020     		mov	r0, #0
 701 0108 085E     		ldrsh	r0, [r1, r0]
 702              	.LVL79:
 703 010a 02A9     		add	r1, sp, #8
 704              	.LVL80:
 705 010c 0024     		mov	r4, #0
 706 010e 095F     		ldrsh	r1, [r1, r4]
 707              	.LVL81:
 708 0110 8842     		cmp	r0, r1
 709 0112 0FD1     		bne	.L51
 710              		.loc 1 468 0 discriminator 4
 711 0114 19B2     		sxth	r1, r3
 712 0116 10B2     		sxth	r0, r2
 713 0118 8142     		cmp	r1, r0
 714 011a 0BDD     		ble	.L51
 715              	.L50:
 716              	.LVL82:
 717              	.LBB6:
 469:.\ssd1306.c   ****         // swap as needed
 470:.\ssd1306.c   ****         int16_t t = x1; x1 = x2; x2 = t;
 718              		.loc 1 470 0 is_stmt 1
 719 011c 0E21     		mov	r1, #14
 720              	.LVL83:
 721 011e 6944     		add	r1, r1, sp
 722              	.LVL84:
 723 0120 0A80     		strh	r2, [r1]
 724 0122 0A22     		mov	r2, #10
 725              	.LVL85:
ARM GAS  C:\Users\User\AppData\Local\Temp\ccQ45nMh.s 			page 22


 726 0124 6A44     		add	r2, r2, sp
 727              	.LVL86:
 728 0126 1380     		strh	r3, [r2]
 471:.\ssd1306.c   ****         t = y1; y1 = y2; y2 = t;
 729              		.loc 1 471 0
 730 0128 03AA     		add	r2, sp, #12
 731              	.LVL87:
 732 012a 1188     		ldrh	r1, [r2]
 733              	.LVL88:
 734 012c 02AB     		add	r3, sp, #8
 735              	.LVL89:
 736 012e 1888     		ldrh	r0, [r3]
 737 0130 1080     		strh	r0, [r2]
 738 0132 1980     		strh	r1, [r3]
 739              	.LVL90:
 740              	.L51:
 741              	.LBE6:
 472:.\ssd1306.c   ****     }
 473:.\ssd1306.c   ****     
 474:.\ssd1306.c   ****     display_line( x1, y1, x2, y2, color );
 742              		.loc 1 474 0
 743 0134 0E23     		mov	r3, #14
 744              	.LVL91:
 745 0136 6B44     		add	r3, r3, sp
 746              	.LVL92:
 747 0138 0020     		mov	r0, #0
 748 013a 185E     		ldrsh	r0, [r3, r0]
 749 013c 03AB     		add	r3, sp, #12
 750              	.LVL93:
 751 013e 0021     		mov	r1, #0
 752 0140 595E     		ldrsh	r1, [r3, r1]
 753              	.LVL94:
 754 0142 0A23     		mov	r3, #10
 755              	.LVL95:
 756 0144 6B44     		add	r3, r3, sp
 757              	.LVL96:
 758 0146 0022     		mov	r2, #0
 759 0148 9A5E     		ldrsh	r2, [r3, r2]
 760 014a 02AB     		add	r3, sp, #8
 761              	.LVL97:
 762 014c 0024     		mov	r4, #0
 763 014e 1B5F     		ldrsh	r3, [r3, r4]
 764              	.LVL98:
 765 0150 0095     		str	r5, [sp]
 766 0152 FFF7FEFF 		bl	display_line
 767              	.LVL99:
 768              	.L43:
 475:.\ssd1306.c   **** }
 769              		.loc 1 475 0
 770 0156 04B0     		add	sp, sp, #16
 771              		@ sp needed
 772 0158 70BD     		pop	{r4, r5, r6, pc}
 773              	.L53:
 774 015a C046     		.align	2
 775              	.L52:
 776 015c 00000000 		.word	rotation
 777 0160 00000000 		.word	HEIGHT
ARM GAS  C:\Users\User\AppData\Local\Temp\ccQ45nMh.s 			page 23


 778 0164 00000000 		.word	WIDTH
 779              		.cfi_endproc
 780              	.LFE56:
 781              		.size	gfx_hvLine, .-gfx_hvLine
 782              		.section	.text.display_write_buf,"ax",%progbits
 783              		.align	2
 784              		.code	16
 785              		.thumb_func
 786              		.type	display_write_buf, %function
 787              	display_write_buf:
 788              	.LFB35:
 158:.\ssd1306.c   **** 
 789              		.loc 1 158 0
 790              		.cfi_startproc
 791              	.LVL100:
 792 0000 10B5     		push	{r4, lr}
 793              		.cfi_def_cfa_offset 8
 794              		.cfi_offset 4, -8
 795              		.cfi_offset 14, -4
 796 0002 031C     		mov	r3, r0
 797 0004 0C1C     		mov	r4, r1
 798              	.LVL101:
 162:.\ssd1306.c   ****     while( 0u == (I2COLED_I2CMasterStatus() & I2COLED_I2C_MSTAT_WR_CMPLT) );
 799              		.loc 1 162 0
 800 0006 0E4A     		ldr	r2, .L59
 801 0008 1078     		ldrb	r0, [r2]
 802              	.LVL102:
 803 000a 191C     		mov	r1, r3
 804              	.LVL103:
 805 000c 221C     		mov	r2, r4
 806 000e 0023     		mov	r3, #0
 807              	.LVL104:
 808 0010 FFF7FEFF 		bl	I2COLED_I2CMasterWriteBuf
 809              	.LVL105:
 810              	.L55:
 163:.\ssd1306.c   **** 
 811              		.loc 1 163 0 discriminator 1
 812 0014 FFF7FEFF 		bl	I2COLED_I2CMasterStatus
 813              	.LVL106:
 814 0018 8307     		lsl	r3, r0, #30
 815 001a FBD5     		bpl	.L55
 165:.\ssd1306.c   ****         // Check if all bytes was written 
 816              		.loc 1 165 0
 817 001c FFF7FEFF 		bl	I2COLED_I2CMasterStatus
 818              	.LVL107:
 819 0020 8305     		lsl	r3, r0, #22
 820 0022 05D4     		bmi	.L57
 167:.\ssd1306.c   ****             status = TRANSFER_CMPLT;
 821              		.loc 1 167 0
 822 0024 FFF7FEFF 		bl	I2COLED_I2CMasterGetWriteBufSize
 823              	.LVL108:
 824 0028 8442     		cmp	r4, r0
 825 002a 03D0     		beq	.L58
 160:.\ssd1306.c   **** 
 826              		.loc 1 160 0
 827 002c FF24     		mov	r4, #255
 828 002e 02E0     		b	.L56
ARM GAS  C:\Users\User\AppData\Local\Temp\ccQ45nMh.s 			page 24


 829              	.L57:
 830 0030 FF24     		mov	r4, #255
 831 0032 00E0     		b	.L56
 832              	.L58:
 168:.\ssd1306.c   ****         }
 833              		.loc 1 168 0
 834 0034 0024     		mov	r4, #0
 835              	.L56:
 836              	.LVL109:
 171:.\ssd1306.c   **** 
 837              		.loc 1 171 0
 838 0036 FFF7FEFF 		bl	I2COLED_I2CMasterClearStatus
 839              	.LVL110:
 174:.\ssd1306.c   **** 
 840              		.loc 1 174 0
 841 003a 201C     		mov	r0, r4
 842              		@ sp needed
 843              	.LVL111:
 844 003c 10BD     		pop	{r4, pc}
 845              	.L60:
 846 003e C046     		.align	2
 847              	.L59:
 848 0040 00000000 		.word	.LANCHOR1
 849              		.cfi_endproc
 850              	.LFE35:
 851              		.size	display_write_buf, .-display_write_buf
 852              		.section	.text.display_clear,"ax",%progbits
 853              		.align	2
 854              		.global	display_clear
 855              		.code	16
 856              		.thumb_func
 857              		.type	display_clear, %function
 858              	display_clear:
 859              	.LFB37:
 197:.\ssd1306.c   ****     memset( _displaybuf, 0, _displaybuf_size );
 860              		.loc 1 197 0
 861              		.cfi_startproc
 862 0000 10B5     		push	{r4, lr}
 863              		.cfi_def_cfa_offset 8
 864              		.cfi_offset 4, -8
 865              		.cfi_offset 14, -4
 198:.\ssd1306.c   ****     SSD1306_buffer[0] = 0x40; // to be sure its there
 866              		.loc 1 198 0
 867 0002 054C     		ldr	r4, .L62
 868 0004 601C     		add	r0, r4, #1
 869 0006 0021     		mov	r1, #0
 870 0008 8022     		mov	r2, #128
 871 000a D200     		lsl	r2, r2, #3
 872 000c FFF7FEFF 		bl	memset
 873              	.LVL112:
 199:.\ssd1306.c   **** }
 874              		.loc 1 199 0
 875 0010 4023     		mov	r3, #64
 876 0012 2370     		strb	r3, [r4]
 200:.\ssd1306.c   **** 
 877              		.loc 1 200 0
 878              		@ sp needed
ARM GAS  C:\Users\User\AppData\Local\Temp\ccQ45nMh.s 			page 25


 879 0014 10BD     		pop	{r4, pc}
 880              	.L63:
 881 0016 C046     		.align	2
 882              	.L62:
 883 0018 00000000 		.word	.LANCHOR0
 884              		.cfi_endproc
 885              	.LFE37:
 886              		.size	display_clear, .-display_clear
 887              		.section	.text.display_contrast,"ax",%progbits
 888              		.align	2
 889              		.global	display_contrast
 890              		.code	16
 891              		.thumb_func
 892              		.type	display_contrast, %function
 893              	display_contrast:
 894              	.LFB38:
 204:.\ssd1306.c   ****         
 895              		.loc 1 204 0
 896              		.cfi_startproc
 897              	.LVL113:
 898 0000 00B5     		push	{lr}
 899              		.cfi_def_cfa_offset 4
 900              		.cfi_offset 14, -4
 901 0002 83B0     		sub	sp, sp, #12
 902              		.cfi_def_cfa_offset 16
 206:.\ssd1306.c   ****         0x00,  
 903              		.loc 1 206 0
 904 0004 01AB     		add	r3, sp, #4
 905 0006 0022     		mov	r2, #0
 906 0008 1A70     		strb	r2, [r3]
 907 000a 8132     		add	r2, r2, #129
 908 000c 5A70     		strb	r2, [r3, #1]
 909 000e 9870     		strb	r0, [r3, #2]
 211:.\ssd1306.c   **** }
 910              		.loc 1 211 0
 911 0010 181C     		mov	r0, r3
 912              	.LVL114:
 913 0012 0321     		mov	r1, #3
 914 0014 FFF7FEFF 		bl	display_write_buf
 915              	.LVL115:
 212:.\ssd1306.c   **** 
 916              		.loc 1 212 0
 917 0018 03B0     		add	sp, sp, #12
 918              		@ sp needed
 919 001a 00BD     		pop	{pc}
 920              		.cfi_endproc
 921              	.LFE38:
 922              		.size	display_contrast, .-display_contrast
 923              		.section	.text.display_invert,"ax",%progbits
 924              		.align	2
 925              		.global	display_invert
 926              		.code	16
 927              		.thumb_func
 928              		.type	display_invert, %function
 929              	display_invert:
 930              	.LFB39:
 216:.\ssd1306.c   **** 
ARM GAS  C:\Users\User\AppData\Local\Temp\ccQ45nMh.s 			page 26


 931              		.loc 1 216 0
 932              		.cfi_startproc
 933              	.LVL116:
 934 0000 00B5     		push	{lr}
 935              		.cfi_def_cfa_offset 4
 936              		.cfi_offset 14, -4
 937 0002 83B0     		sub	sp, sp, #12
 938              		.cfi_def_cfa_offset 16
 218:.\ssd1306.c   ****         0x00,  
 939              		.loc 1 218 0
 940 0004 0022     		mov	r2, #0
 941 0006 01AB     		add	r3, sp, #4
 942 0008 1A70     		strb	r2, [r3]
 222:.\ssd1306.c   ****     display_write_buf( cmdbuf, sizeof(cmdbuf) ); 
 943              		.loc 1 222 0
 944 000a 0028     		cmp	r0, #0
 945 000c 01D0     		beq	.L67
 946 000e A723     		mov	r3, #167
 947 0010 00E0     		b	.L66
 948              	.L67:
 949 0012 A623     		mov	r3, #166
 950              	.L66:
 222:.\ssd1306.c   ****     display_write_buf( cmdbuf, sizeof(cmdbuf) ); 
 951              		.loc 1 222 0 is_stmt 0 discriminator 4
 952 0014 01A8     		add	r0, sp, #4
 953              	.LVL117:
 954 0016 4370     		strb	r3, [r0, #1]
 223:.\ssd1306.c   **** }
 955              		.loc 1 223 0 is_stmt 1 discriminator 4
 956 0018 0221     		mov	r1, #2
 957 001a FFF7FEFF 		bl	display_write_buf
 958              	.LVL118:
 224:.\ssd1306.c   **** 
 959              		.loc 1 224 0 discriminator 4
 960 001e 03B0     		add	sp, sp, #12
 961              		@ sp needed
 962 0020 00BD     		pop	{pc}
 963              		.cfi_endproc
 964              	.LFE39:
 965              		.size	display_invert, .-display_invert
 966 0022 C046     		.section	.text.display_update,"ax",%progbits
 967              		.align	2
 968              		.global	display_update
 969              		.code	16
 970              		.thumb_func
 971              		.type	display_update, %function
 972              	display_update:
 973              	.LFB40:
 227:.\ssd1306.c   ****       
 974              		.loc 1 227 0
 975              		.cfi_startproc
 976 0000 00B5     		push	{lr}
 977              		.cfi_def_cfa_offset 4
 978              		.cfi_offset 14, -4
 979 0002 83B0     		sub	sp, sp, #12
 980              		.cfi_def_cfa_offset 16
 229:.\ssd1306.c   ****         0x00,
ARM GAS  C:\Users\User\AppData\Local\Temp\ccQ45nMh.s 			page 27


 981              		.loc 1 229 0
 982 0004 6846     		mov	r0, sp
 983 0006 0749     		ldr	r1, .L69
 984 0008 0722     		mov	r2, #7
 985 000a FFF7FEFF 		bl	memcpy
 986              	.LVL119:
 238:.\ssd1306.c   ****     display_write_buf( SSD1306_buffer, sizeof(SSD1306_buffer) );
 987              		.loc 1 238 0
 988 000e 6846     		mov	r0, sp
 989 0010 0721     		mov	r1, #7
 990 0012 FFF7FEFF 		bl	display_write_buf
 991              	.LVL120:
 239:.\ssd1306.c   **** }
 992              		.loc 1 239 0
 993 0016 0448     		ldr	r0, .L69+4
 994 0018 0449     		ldr	r1, .L69+8
 995 001a FFF7FEFF 		bl	display_write_buf
 996              	.LVL121:
 240:.\ssd1306.c   **** 
 997              		.loc 1 240 0
 998 001e 03B0     		add	sp, sp, #12
 999              		@ sp needed
 1000 0020 00BD     		pop	{pc}
 1001              	.L70:
 1002 0022 C046     		.align	2
 1003              	.L69:
 1004 0024 00000000 		.word	.LANCHOR2
 1005 0028 00000000 		.word	.LANCHOR0
 1006 002c 01040000 		.word	1025
 1007              		.cfi_endproc
 1008              	.LFE40:
 1009              		.size	display_update, .-display_update
 1010              		.section	.text.display_stopscroll,"ax",%progbits
 1011              		.align	2
 1012              		.global	display_stopscroll
 1013              		.code	16
 1014              		.thumb_func
 1015              		.type	display_stopscroll, %function
 1016              	display_stopscroll:
 1017              	.LFB42:
 307:.\ssd1306.c   **** 
 1018              		.loc 1 307 0
 1019              		.cfi_startproc
 1020 0000 00B5     		push	{lr}
 1021              		.cfi_def_cfa_offset 4
 1022              		.cfi_offset 14, -4
 1023 0002 83B0     		sub	sp, sp, #12
 1024              		.cfi_def_cfa_offset 16
 309:.\ssd1306.c   ****         0x00,
 1025              		.loc 1 309 0
 1026 0004 01A8     		add	r0, sp, #4
 1027 0006 0023     		mov	r3, #0
 1028 0008 0370     		strb	r3, [r0]
 1029 000a 2E33     		add	r3, r3, #46
 1030 000c 4370     		strb	r3, [r0, #1]
 313:.\ssd1306.c   **** }
 1031              		.loc 1 313 0
ARM GAS  C:\Users\User\AppData\Local\Temp\ccQ45nMh.s 			page 28


 1032 000e 0221     		mov	r1, #2
 1033 0010 FFF7FEFF 		bl	display_write_buf
 1034              	.LVL122:
 314:.\ssd1306.c   **** 
 1035              		.loc 1 314 0
 1036 0014 03B0     		add	sp, sp, #12
 1037              		@ sp needed
 1038 0016 00BD     		pop	{pc}
 1039              		.cfi_endproc
 1040              	.LFE42:
 1041              		.size	display_stopscroll, .-display_stopscroll
 1042              		.section	.text.display_scroll,"ax",%progbits
 1043              		.align	2
 1044              		.global	display_scroll
 1045              		.code	16
 1046              		.thumb_func
 1047              		.type	display_scroll, %function
 1048              	display_scroll:
 1049              	.LFB43:
 316:.\ssd1306.c   ****    
 1050              		.loc 1 316 0
 1051              		.cfi_startproc
 1052              	.LVL123:
 1053 0000 30B5     		push	{r4, r5, lr}
 1054              		.cfi_def_cfa_offset 12
 1055              		.cfi_offset 4, -12
 1056              		.cfi_offset 5, -8
 1057              		.cfi_offset 14, -4
 1058 0002 85B0     		sub	sp, sp, #20
 1059              		.cfi_def_cfa_offset 32
 318:.\ssd1306.c   ****         0x00,
 1060              		.loc 1 318 0
 1061 0004 01AC     		add	r4, sp, #4
 1062 0006 0025     		mov	r5, #0
 1063 0008 2570     		strb	r5, [r4]
 1064 000a 6270     		strb	r2, [r4, #1]
 1065 000c A570     		strb	r5, [r4, #2]
 1066 000e E070     		strb	r0, [r4, #3]
 1067 0010 2371     		strb	r3, [r4, #4]
 1068 0012 6171     		strb	r1, [r4, #5]
 1069 0014 A571     		strb	r5, [r4, #6]
 1070 0016 FF23     		mov	r3, #255
 1071              	.LVL124:
 1072 0018 E371     		strb	r3, [r4, #7]
 1073 001a D03B     		sub	r3, r3, #208
 1074 001c 2372     		strb	r3, [r4, #8]
 329:.\ssd1306.c   **** }
 1075              		.loc 1 329 0
 1076 001e 201C     		mov	r0, r4
 1077              	.LVL125:
 1078 0020 0921     		mov	r1, #9
 1079              	.LVL126:
 1080 0022 FFF7FEFF 		bl	display_write_buf
 1081              	.LVL127:
 330:.\ssd1306.c   **** 
 1082              		.loc 1 330 0
 1083 0026 05B0     		add	sp, sp, #20
ARM GAS  C:\Users\User\AppData\Local\Temp\ccQ45nMh.s 			page 29


 1084              		@ sp needed
 1085 0028 30BD     		pop	{r4, r5, pc}
 1086              		.cfi_endproc
 1087              	.LFE43:
 1088              		.size	display_scroll, .-display_scroll
 1089 002a C046     		.section	.text.gfx_init,"ax",%progbits
 1090              		.align	2
 1091              		.global	gfx_init
 1092              		.code	16
 1093              		.thumb_func
 1094              		.type	gfx_init, %function
 1095              	gfx_init:
 1096              	.LFB44:
 347:.\ssd1306.c   ****     WIDTH = width;
 1097              		.loc 1 347 0
 1098              		.cfi_startproc
 1099              	.LVL128:
 348:.\ssd1306.c   ****     HEIGHT = height;
 1100              		.loc 1 348 0
 1101 0000 0A4B     		ldr	r3, .L74
 1102 0002 1880     		strh	r0, [r3]
 349:.\ssd1306.c   ****     _width = WIDTH;
 1103              		.loc 1 349 0
 1104 0004 0A4B     		ldr	r3, .L74+4
 1105 0006 1980     		strh	r1, [r3]
 350:.\ssd1306.c   ****     _height = HEIGHT;
 1106              		.loc 1 350 0
 1107 0008 0A4B     		ldr	r3, .L74+8
 1108 000a 5880     		strh	r0, [r3, #2]
 351:.\ssd1306.c   ****     
 1109              		.loc 1 351 0
 1110 000c 9980     		strh	r1, [r3, #4]
 353:.\ssd1306.c   ****     cursor_y = cursor_x = 0;
 1111              		.loc 1 353 0
 1112 000e 0022     		mov	r2, #0
 1113 0010 0949     		ldr	r1, .L74+12
 1114              	.LVL129:
 1115 0012 0A70     		strb	r2, [r1]
 354:.\ssd1306.c   ****     textsize = 1;
 1116              		.loc 1 354 0
 1117 0014 DA80     		strh	r2, [r3, #6]
 1118 0016 1A81     		strh	r2, [r3, #8]
 355:.\ssd1306.c   ****     textcolor = textbgcolor = 0xFFFF;
 1119              		.loc 1 355 0
 1120 0018 0132     		add	r2, r2, #1
 1121 001a 9A72     		strb	r2, [r3, #10]
 356:.\ssd1306.c   ****     wrap = 1;
 1122              		.loc 1 356 0
 1123 001c 0121     		mov	r1, #1
 1124 001e 4942     		neg	r1, r1
 1125 0020 9981     		strh	r1, [r3, #12]
 1126 0022 D981     		strh	r1, [r3, #14]
 357:.\ssd1306.c   **** }
 1127              		.loc 1 357 0
 1128 0024 054B     		ldr	r3, .L74+16
 1129 0026 1A70     		strb	r2, [r3]
 358:.\ssd1306.c   **** 
ARM GAS  C:\Users\User\AppData\Local\Temp\ccQ45nMh.s 			page 30


 1130              		.loc 1 358 0
 1131              		@ sp needed
 1132 0028 7047     		bx	lr
 1133              	.L75:
 1134 002a C046     		.align	2
 1135              	.L74:
 1136 002c 00000000 		.word	WIDTH
 1137 0030 00000000 		.word	HEIGHT
 1138 0034 00000000 		.word	.LANCHOR1
 1139 0038 00000000 		.word	rotation
 1140 003c 00000000 		.word	wrap
 1141              		.cfi_endproc
 1142              	.LFE44:
 1143              		.size	gfx_init, .-gfx_init
 1144              		.section	.text.display_init,"ax",%progbits
 1145              		.align	2
 1146              		.global	display_init
 1147              		.code	16
 1148              		.thumb_func
 1149              		.type	display_init, %function
 1150              	display_init:
 1151              	.LFB34:
 116:.\ssd1306.c   ****     
 1152              		.loc 1 116 0
 1153              		.cfi_startproc
 1154              	.LVL130:
 1155 0000 00B5     		push	{lr}
 1156              		.cfi_def_cfa_offset 4
 1157              		.cfi_offset 14, -4
 1158 0002 89B0     		sub	sp, sp, #36
 1159              		.cfi_def_cfa_offset 40
 118:.\ssd1306.c   ****     gfx_init( DISPLAYWIDTH, DISPLAYHEIGHT );
 1160              		.loc 1 118 0
 1161 0004 084B     		ldr	r3, .L77
 1162 0006 1870     		strb	r0, [r3]
 119:.\ssd1306.c   ****     
 1163              		.loc 1 119 0
 1164 0008 8020     		mov	r0, #128
 1165              	.LVL131:
 1166 000a 4021     		mov	r1, #64
 1167 000c FFF7FEFF 		bl	gfx_init
 1168              	.LVL132:
 121:.\ssd1306.c   ****         0x00,
 1169              		.loc 1 121 0
 1170 0010 01A8     		add	r0, sp, #4
 1171 0012 0649     		ldr	r1, .L77+4
 1172 0014 0831     		add	r1, r1, #8
 1173 0016 1A22     		mov	r2, #26
 1174 0018 FFF7FEFF 		bl	memcpy
 1175              	.LVL133:
 150:.\ssd1306.c   **** }
 1176              		.loc 1 150 0
 1177 001c 01A8     		add	r0, sp, #4
 1178 001e 1A21     		mov	r1, #26
 1179 0020 FFF7FEFF 		bl	display_write_buf
 1180              	.LVL134:
 151:.\ssd1306.c   **** 
ARM GAS  C:\Users\User\AppData\Local\Temp\ccQ45nMh.s 			page 31


 1181              		.loc 1 151 0
 1182 0024 09B0     		add	sp, sp, #36
 1183              		@ sp needed
 1184 0026 00BD     		pop	{pc}
 1185              	.L78:
 1186              		.align	2
 1187              	.L77:
 1188 0028 00000000 		.word	.LANCHOR1
 1189 002c 00000000 		.word	.LANCHOR2
 1190              		.cfi_endproc
 1191              	.LFE34:
 1192              		.size	display_init, .-display_init
 1193              		.section	.text.gfx_width,"ax",%progbits
 1194              		.align	2
 1195              		.global	gfx_width
 1196              		.code	16
 1197              		.thumb_func
 1198              		.type	gfx_width, %function
 1199              	gfx_width:
 1200              	.LFB45:
 361:.\ssd1306.c   ****     return _width;
 1201              		.loc 1 361 0
 1202              		.cfi_startproc
 362:.\ssd1306.c   **** }
 1203              		.loc 1 362 0
 1204 0000 014B     		ldr	r3, .L80
 1205 0002 0220     		mov	r0, #2
 1206 0004 185E     		ldrsh	r0, [r3, r0]
 363:.\ssd1306.c   **** 
 1207              		.loc 1 363 0
 1208              		@ sp needed
 1209 0006 7047     		bx	lr
 1210              	.L81:
 1211              		.align	2
 1212              	.L80:
 1213 0008 00000000 		.word	.LANCHOR1
 1214              		.cfi_endproc
 1215              	.LFE45:
 1216              		.size	gfx_width, .-gfx_width
 1217              		.section	.text.gfx_height,"ax",%progbits
 1218              		.align	2
 1219              		.global	gfx_height
 1220              		.code	16
 1221              		.thumb_func
 1222              		.type	gfx_height, %function
 1223              	gfx_height:
 1224              	.LFB46:
 365:.\ssd1306.c   ****     return _height;
 1225              		.loc 1 365 0
 1226              		.cfi_startproc
 366:.\ssd1306.c   **** }
 1227              		.loc 1 366 0
 1228 0000 014B     		ldr	r3, .L83
 1229 0002 0420     		mov	r0, #4
 1230 0004 185E     		ldrsh	r0, [r3, r0]
 367:.\ssd1306.c   **** 
 1231              		.loc 1 367 0
ARM GAS  C:\Users\User\AppData\Local\Temp\ccQ45nMh.s 			page 32


 1232              		@ sp needed
 1233 0006 7047     		bx	lr
 1234              	.L84:
 1235              		.align	2
 1236              	.L83:
 1237 0008 00000000 		.word	.LANCHOR1
 1238              		.cfi_endproc
 1239              	.LFE46:
 1240              		.size	gfx_height, .-gfx_height
 1241              		.section	.text.gfx_rotation,"ax",%progbits
 1242              		.align	2
 1243              		.global	gfx_rotation
 1244              		.code	16
 1245              		.thumb_func
 1246              		.type	gfx_rotation, %function
 1247              	gfx_rotation:
 1248              	.LFB47:
 369:.\ssd1306.c   ****     return rotation;
 1249              		.loc 1 369 0
 1250              		.cfi_startproc
 370:.\ssd1306.c   **** }
 1251              		.loc 1 370 0
 1252 0000 014B     		ldr	r3, .L86
 1253 0002 1878     		ldrb	r0, [r3]
 371:.\ssd1306.c   **** 
 1254              		.loc 1 371 0
 1255              		@ sp needed
 1256 0004 7047     		bx	lr
 1257              	.L87:
 1258 0006 C046     		.align	2
 1259              	.L86:
 1260 0008 00000000 		.word	rotation
 1261              		.cfi_endproc
 1262              	.LFE47:
 1263              		.size	gfx_rotation, .-gfx_rotation
 1264              		.section	.text.gfx_setCursor,"ax",%progbits
 1265              		.align	2
 1266              		.global	gfx_setCursor
 1267              		.code	16
 1268              		.thumb_func
 1269              		.type	gfx_setCursor, %function
 1270              	gfx_setCursor:
 1271              	.LFB48:
 373:.\ssd1306.c   ****     cursor_x = x;
 1272              		.loc 1 373 0
 1273              		.cfi_startproc
 1274              	.LVL135:
 374:.\ssd1306.c   ****     cursor_y = y;
 1275              		.loc 1 374 0
 1276 0000 014B     		ldr	r3, .L89
 1277 0002 D880     		strh	r0, [r3, #6]
 375:.\ssd1306.c   **** }
 1278              		.loc 1 375 0
 1279 0004 1981     		strh	r1, [r3, #8]
 376:.\ssd1306.c   **** 
 1280              		.loc 1 376 0
 1281              		@ sp needed
ARM GAS  C:\Users\User\AppData\Local\Temp\ccQ45nMh.s 			page 33


 1282 0006 7047     		bx	lr
 1283              	.L90:
 1284              		.align	2
 1285              	.L89:
 1286 0008 00000000 		.word	.LANCHOR1
 1287              		.cfi_endproc
 1288              	.LFE48:
 1289              		.size	gfx_setCursor, .-gfx_setCursor
 1290              		.section	.text.gfx_setTextSize,"ax",%progbits
 1291              		.align	2
 1292              		.global	gfx_setTextSize
 1293              		.code	16
 1294              		.thumb_func
 1295              		.type	gfx_setTextSize, %function
 1296              	gfx_setTextSize:
 1297              	.LFB49:
 378:.\ssd1306.c   ****     textsize = (size > 0) ? size : 1;
 1298              		.loc 1 378 0
 1299              		.cfi_startproc
 1300              	.LVL136:
 379:.\ssd1306.c   **** }
 1301              		.loc 1 379 0
 1302 0000 0028     		cmp	r0, #0
 1303 0002 00D1     		bne	.L92
 1304 0004 0130     		add	r0, r0, #1
 1305              	.LVL137:
 1306              	.L92:
 379:.\ssd1306.c   **** }
 1307              		.loc 1 379 0 is_stmt 0 discriminator 4
 1308 0006 014B     		ldr	r3, .L94
 1309 0008 9872     		strb	r0, [r3, #10]
 380:.\ssd1306.c   **** 
 1310              		.loc 1 380 0 is_stmt 1 discriminator 4
 1311              		@ sp needed
 1312 000a 7047     		bx	lr
 1313              	.L95:
 1314              		.align	2
 1315              	.L94:
 1316 000c 00000000 		.word	.LANCHOR1
 1317              		.cfi_endproc
 1318              	.LFE49:
 1319              		.size	gfx_setTextSize, .-gfx_setTextSize
 1320              		.section	.text.gfx_setTextColor,"ax",%progbits
 1321              		.align	2
 1322              		.global	gfx_setTextColor
 1323              		.code	16
 1324              		.thumb_func
 1325              		.type	gfx_setTextColor, %function
 1326              	gfx_setTextColor:
 1327              	.LFB50:
 382:.\ssd1306.c   ****     // For 'transparent' background, we'll set the bg
 1328              		.loc 1 382 0
 1329              		.cfi_startproc
 1330              	.LVL138:
 385:.\ssd1306.c   **** }
 1331              		.loc 1 385 0
 1332 0000 014B     		ldr	r3, .L97
ARM GAS  C:\Users\User\AppData\Local\Temp\ccQ45nMh.s 			page 34


 1333 0002 9881     		strh	r0, [r3, #12]
 1334 0004 D881     		strh	r0, [r3, #14]
 386:.\ssd1306.c   **** 
 1335              		.loc 1 386 0
 1336              		@ sp needed
 1337 0006 7047     		bx	lr
 1338              	.L98:
 1339              		.align	2
 1340              	.L97:
 1341 0008 00000000 		.word	.LANCHOR1
 1342              		.cfi_endproc
 1343              	.LFE50:
 1344              		.size	gfx_setTextColor, .-gfx_setTextColor
 1345              		.section	.text.gfx_setTextBg,"ax",%progbits
 1346              		.align	2
 1347              		.global	gfx_setTextBg
 1348              		.code	16
 1349              		.thumb_func
 1350              		.type	gfx_setTextBg, %function
 1351              	gfx_setTextBg:
 1352              	.LFB51:
 388:.\ssd1306.c   ****     textbgcolor = color;
 1353              		.loc 1 388 0
 1354              		.cfi_startproc
 1355              	.LVL139:
 389:.\ssd1306.c   **** }
 1356              		.loc 1 389 0
 1357 0000 014B     		ldr	r3, .L100
 1358 0002 9881     		strh	r0, [r3, #12]
 390:.\ssd1306.c   **** 
 1359              		.loc 1 390 0
 1360              		@ sp needed
 1361 0004 7047     		bx	lr
 1362              	.L101:
 1363 0006 C046     		.align	2
 1364              	.L100:
 1365 0008 00000000 		.word	.LANCHOR1
 1366              		.cfi_endproc
 1367              	.LFE51:
 1368              		.size	gfx_setTextBg, .-gfx_setTextBg
 1369              		.section	.text.gfx_setTextWrap,"ax",%progbits
 1370              		.align	2
 1371              		.global	gfx_setTextWrap
 1372              		.code	16
 1373              		.thumb_func
 1374              		.type	gfx_setTextWrap, %function
 1375              	gfx_setTextWrap:
 1376              	.LFB52:
 392:.\ssd1306.c   ****     wrap = w;
 1377              		.loc 1 392 0
 1378              		.cfi_startproc
 1379              	.LVL140:
 393:.\ssd1306.c   **** }
 1380              		.loc 1 393 0
 1381 0000 014B     		ldr	r3, .L103
 1382 0002 1870     		strb	r0, [r3]
 394:.\ssd1306.c   **** 
ARM GAS  C:\Users\User\AppData\Local\Temp\ccQ45nMh.s 			page 35


 1383              		.loc 1 394 0
 1384              		@ sp needed
 1385 0004 7047     		bx	lr
 1386              	.L104:
 1387 0006 C046     		.align	2
 1388              	.L103:
 1389 0008 00000000 		.word	wrap
 1390              		.cfi_endproc
 1391              	.LFE52:
 1392              		.size	gfx_setTextWrap, .-gfx_setTextWrap
 1393              		.section	.text.gfx_setRotation,"ax",%progbits
 1394              		.align	2
 1395              		.global	gfx_setRotation
 1396              		.code	16
 1397              		.thumb_func
 1398              		.type	gfx_setRotation, %function
 1399              	gfx_setRotation:
 1400              	.LFB53:
 396:.\ssd1306.c   ****     
 1401              		.loc 1 396 0
 1402              		.cfi_startproc
 1403              	.LVL141:
 398:.\ssd1306.c   ****     switch( rotation ){
 1404              		.loc 1 398 0
 1405 0000 0323     		mov	r3, #3
 1406 0002 1840     		and	r0, r3
 1407              	.LVL142:
 1408 0004 0D4B     		ldr	r3, .L109
 1409 0006 1870     		strb	r0, [r3]
 399:.\ssd1306.c   ****         case 0:
 1410              		.loc 1 399 0
 1411 0008 0128     		cmp	r0, #1
 1412 000a 0ED0     		beq	.L107
 1413 000c 0028     		cmp	r0, #0
 1414 000e 04D0     		beq	.L108
 1415 0010 0228     		cmp	r0, #2
 1416 0012 02D0     		beq	.L108
 1417 0014 0328     		cmp	r0, #3
 1418 0016 0FD1     		bne	.L105
 1419 0018 07E0     		b	.L107
 1420              	.L108:
 402:.\ssd1306.c   ****             _height = HEIGHT;
 1421              		.loc 1 402 0
 1422 001a 094B     		ldr	r3, .L109+4
 1423 001c 094A     		ldr	r2, .L109+8
 1424 001e 1288     		ldrh	r2, [r2]
 1425 0020 5A80     		strh	r2, [r3, #2]
 403:.\ssd1306.c   ****             break;
 1426              		.loc 1 403 0
 1427 0022 094A     		ldr	r2, .L109+12
 1428 0024 1288     		ldrh	r2, [r2]
 1429 0026 9A80     		strh	r2, [r3, #4]
 404:.\ssd1306.c   ****         case 1:
 1430              		.loc 1 404 0
 1431 0028 06E0     		b	.L105
 1432              	.L107:
 407:.\ssd1306.c   ****             _height = WIDTH;
ARM GAS  C:\Users\User\AppData\Local\Temp\ccQ45nMh.s 			page 36


 1433              		.loc 1 407 0
 1434 002a 054B     		ldr	r3, .L109+4
 1435 002c 064A     		ldr	r2, .L109+12
 1436 002e 1288     		ldrh	r2, [r2]
 1437 0030 5A80     		strh	r2, [r3, #2]
 408:.\ssd1306.c   ****         break;
 1438              		.loc 1 408 0
 1439 0032 044A     		ldr	r2, .L109+8
 1440 0034 1288     		ldrh	r2, [r2]
 1441 0036 9A80     		strh	r2, [r3, #4]
 1442              	.L105:
 411:.\ssd1306.c   **** 
 1443              		.loc 1 411 0
 1444              		@ sp needed
 1445 0038 7047     		bx	lr
 1446              	.L110:
 1447 003a C046     		.align	2
 1448              	.L109:
 1449 003c 00000000 		.word	rotation
 1450 0040 00000000 		.word	.LANCHOR1
 1451 0044 00000000 		.word	WIDTH
 1452 0048 00000000 		.word	HEIGHT
 1453              		.cfi_endproc
 1454              	.LFE53:
 1455              		.size	gfx_setRotation, .-gfx_setRotation
 1456              		.section	.text.gfx_drawPixel,"ax",%progbits
 1457              		.align	2
 1458              		.global	gfx_drawPixel
 1459              		.code	16
 1460              		.thumb_func
 1461              		.type	gfx_drawPixel, %function
 1462              	gfx_drawPixel:
 1463              	.LFB55:
 433:.\ssd1306.c   ****     
 1464              		.loc 1 433 0
 1465              		.cfi_startproc
 1466              	.LVL143:
 1467 0000 70B5     		push	{r4, r5, r6, lr}
 1468              		.cfi_def_cfa_offset 16
 1469              		.cfi_offset 4, -16
 1470              		.cfi_offset 5, -12
 1471              		.cfi_offset 6, -8
 1472              		.cfi_offset 14, -4
 1473 0002 82B0     		sub	sp, sp, #8
 1474              		.cfi_def_cfa_offset 24
 1475 0004 141C     		mov	r4, r2
 1476 0006 6B46     		mov	r3, sp
 1477 0008 D880     		strh	r0, [r3, #6]
 1478 000a 01AB     		add	r3, sp, #4
 1479 000c 1980     		strh	r1, [r3]
 435:.\ssd1306.c   ****         return;
 1480              		.loc 1 435 0
 1481 000e 83B2     		uxth	r3, r0
 1482 0010 0028     		cmp	r0, #0
 1483 0012 1EDB     		blt	.L111
 435:.\ssd1306.c   ****         return;
 1484              		.loc 1 435 0 is_stmt 0 discriminator 1
ARM GAS  C:\Users\User\AppData\Local\Temp\ccQ45nMh.s 			page 37


 1485 0014 1BB2     		sxth	r3, r3
 1486 0016 104A     		ldr	r2, .L113
 1487              	.LVL144:
 1488 0018 0221     		mov	r1, #2
 1489 001a 525E     		ldrsh	r2, [r2, r1]
 1490              	.LVL145:
 1491 001c 9342     		cmp	r3, r2
 1492 001e 18DA     		bge	.L111
 435:.\ssd1306.c   ****         return;
 1493              		.loc 1 435 0 discriminator 2
 1494 0020 01AB     		add	r3, sp, #4
 1495              	.LVL146:
 1496 0022 1B88     		ldrh	r3, [r3]
 1497              	.LVL147:
 1498 0024 1AB2     		sxth	r2, r3
 1499 0026 002A     		cmp	r2, #0
 1500 0028 13DB     		blt	.L111
 435:.\ssd1306.c   ****         return;
 1501              		.loc 1 435 0 discriminator 3
 1502 002a 131C     		mov	r3, r2
 1503 002c 0A4A     		ldr	r2, .L113
 1504 002e 0421     		mov	r1, #4
 1505 0030 525E     		ldrsh	r2, [r2, r1]
 1506 0032 9342     		cmp	r3, r2
 1507 0034 0DDA     		bge	.L111
 438:.\ssd1306.c   **** 
 1508              		.loc 1 438 0 is_stmt 1
 1509 0036 6B46     		mov	r3, sp
 1510 0038 9E1D     		add	r6, r3, #6
 1511 003a 01AD     		add	r5, sp, #4
 1512              	.LVL148:
 1513 003c 301C     		mov	r0, r6
 1514              	.LVL149:
 1515 003e 291C     		mov	r1, r5
 1516 0040 FFF7FEFF 		bl	gfx_rotation_adjust
 1517              	.LVL150:
 440:.\ssd1306.c   **** }
 1518              		.loc 1 440 0
 1519 0044 0023     		mov	r3, #0
 1520 0046 F05E     		ldrsh	r0, [r6, r3]
 1521 0048 0023     		mov	r3, #0
 1522 004a E95E     		ldrsh	r1, [r5, r3]
 1523 004c 221C     		mov	r2, r4
 1524 004e FFF7FEFF 		bl	display_setPixel
 1525              	.LVL151:
 1526              	.L111:
 441:.\ssd1306.c   **** 
 1527              		.loc 1 441 0
 1528 0052 02B0     		add	sp, sp, #8
 1529              	.LVL152:
 1530              		@ sp needed
 1531 0054 70BD     		pop	{r4, r5, r6, pc}
 1532              	.L114:
 1533 0056 C046     		.align	2
 1534              	.L113:
 1535 0058 00000000 		.word	.LANCHOR1
 1536              		.cfi_endproc
ARM GAS  C:\Users\User\AppData\Local\Temp\ccQ45nMh.s 			page 38


 1537              	.LFE55:
 1538              		.size	gfx_drawPixel, .-gfx_drawPixel
 1539              		.section	.text.gfx_drawLine,"ax",%progbits
 1540              		.align	2
 1541              		.global	gfx_drawLine
 1542              		.code	16
 1543              		.thumb_func
 1544              		.type	gfx_drawLine, %function
 1545              	gfx_drawLine:
 1546              	.LFB57:
 476:.\ssd1306.c   **** 
 477:.\ssd1306.c   **** // always use this function for line drawing
 478:.\ssd1306.c   **** void gfx_drawLine( int16_t x0, int16_t y0, int16_t x1, int16_t y1, uint16_t color ){
 1547              		.loc 1 478 0
 1548              		.cfi_startproc
 1549              	.LVL153:
 1550 0000 F0B5     		push	{r4, r5, r6, r7, lr}
 1551              		.cfi_def_cfa_offset 20
 1552              		.cfi_offset 4, -20
 1553              		.cfi_offset 5, -16
 1554              		.cfi_offset 6, -12
 1555              		.cfi_offset 7, -8
 1556              		.cfi_offset 14, -4
 1557 0002 5F46     		mov	r7, fp
 1558 0004 5646     		mov	r6, r10
 1559 0006 4D46     		mov	r5, r9
 1560 0008 4446     		mov	r4, r8
 1561 000a F0B4     		push	{r4, r5, r6, r7}
 1562              		.cfi_def_cfa_offset 36
 1563              		.cfi_offset 8, -36
 1564              		.cfi_offset 9, -32
 1565              		.cfi_offset 10, -28
 1566              		.cfi_offset 11, -24
 1567 000c 85B0     		sub	sp, sp, #20
 1568              		.cfi_def_cfa_offset 56
 1569 000e 041C     		mov	r4, r0
 1570 0010 0E1C     		mov	r6, r1
 1571 0012 171C     		mov	r7, r2
 1572 0014 0EAA     		add	r2, sp, #56
 1573              	.LVL154:
 1574 0016 1288     		ldrh	r2, [r2]
 1575              	.LVL155:
 1576 0018 0392     		str	r2, [sp, #12]
 479:.\ssd1306.c   ****  
 480:.\ssd1306.c   ****     if( x0 == x1 || y0 == y1 ){
 1577              		.loc 1 480 0
 1578 001a B842     		cmp	r0, r7
 1579 001c 01D0     		beq	.L116
 1580              		.loc 1 480 0 is_stmt 0 discriminator 1
 1581 001e 9942     		cmp	r1, r3
 1582 0020 07D1     		bne	.L117
 1583              	.L116:
 481:.\ssd1306.c   ****         // vertical and horizontal lines can be drawn faster
 482:.\ssd1306.c   ****         gfx_hvLine( x0, y0, x1, y1, color );
 1584              		.loc 1 482 0 is_stmt 1
 1585 0022 039A     		ldr	r2, [sp, #12]
 1586 0024 0092     		str	r2, [sp]
ARM GAS  C:\Users\User\AppData\Local\Temp\ccQ45nMh.s 			page 39


 1587 0026 201C     		mov	r0, r4
 1588              	.LVL156:
 1589 0028 311C     		mov	r1, r6
 1590              	.LVL157:
 1591 002a 3A1C     		mov	r2, r7
 1592 002c FFF7FEFF 		bl	gfx_hvLine
 1593              	.LVL158:
 483:.\ssd1306.c   ****         return;
 1594              		.loc 1 483 0
 1595 0030 51E0     		b	.L115
 1596              	.LVL159:
 1597              	.L117:
 484:.\ssd1306.c   ****     }
 485:.\ssd1306.c   ****     
 486:.\ssd1306.c   ****     int16_t t;
 487:.\ssd1306.c   ****     
 488:.\ssd1306.c   ****     int16_t steep = abs(y1 - y0) > abs(x1 - x0);
 1598              		.loc 1 488 0
 1599 0032 581A     		sub	r0, r3, r1
 1600              	.LVL160:
 1601 0034 C217     		asr	r2, r0, #31
 1602 0036 8018     		add	r0, r0, r2
 1603 0038 5040     		eor	r0, r2
 1604 003a 391B     		sub	r1, r7, r4
 1605              	.LVL161:
 1606 003c CA17     		asr	r2, r1, #31
 1607 003e 8918     		add	r1, r1, r2
 1608 0040 5140     		eor	r1, r2
 1609 0042 0122     		mov	r2, #1
 1610 0044 8842     		cmp	r0, r1
 1611 0046 00DC     		bgt	.L119
 1612 0048 0022     		mov	r2, #0
 1613              	.L119:
 1614 004a D2B2     		uxtb	r2, r2
 1615 004c 92B2     		uxth	r2, r2
 1616 004e 9046     		mov	r8, r2
 1617              	.LVL162:
 489:.\ssd1306.c   ****     if( steep ){
 1618              		.loc 1 489 0
 1619 0050 002A     		cmp	r2, #0
 1620 0052 05D0     		beq	.L120
 1621 0054 3A1C     		mov	r2, r7
 1622              	.LVL163:
 490:.\ssd1306.c   ****         t = x0; x0 = y0; y0 = t;
 491:.\ssd1306.c   ****         t = x1; x1 = y1; y1 = t;
 1623              		.loc 1 491 0
 1624 0056 1F1C     		mov	r7, r3
 1625 0058 131C     		mov	r3, r2
 1626              	.LVL164:
 1627 005a 221C     		mov	r2, r4
 490:.\ssd1306.c   ****         t = x0; x0 = y0; y0 = t;
 1628              		.loc 1 490 0
 1629 005c 341C     		mov	r4, r6
 1630 005e 161C     		mov	r6, r2
 1631              	.L120:
 1632              	.LVL165:
 492:.\ssd1306.c   ****     }
ARM GAS  C:\Users\User\AppData\Local\Temp\ccQ45nMh.s 			page 40


 493:.\ssd1306.c   ****     if( x0 > x1 ){
 1633              		.loc 1 493 0
 1634 0060 BC42     		cmp	r4, r7
 1635 0062 05DD     		ble	.L121
 1636 0064 321C     		mov	r2, r6
 494:.\ssd1306.c   ****         t = x0; x0 = x1; x1 = t;
 495:.\ssd1306.c   ****         t = y0; y0 = y1; y1 = t;
 1637              		.loc 1 495 0
 1638 0066 1E1C     		mov	r6, r3
 1639              	.LVL166:
 1640 0068 131C     		mov	r3, r2
 1641              	.LVL167:
 1642 006a 221C     		mov	r2, r4
 494:.\ssd1306.c   ****         t = x0; x0 = x1; x1 = t;
 1643              		.loc 1 494 0
 1644 006c 3C1C     		mov	r4, r7
 1645              	.LVL168:
 1646 006e 171C     		mov	r7, r2
 1647              	.LVL169:
 1648              	.L121:
 496:.\ssd1306.c   ****     }
 497:.\ssd1306.c   ****     int16_t dx, dy;
 498:.\ssd1306.c   ****     dx = x1 - x0;
 1649              		.loc 1 498 0
 1650 0070 3A1B     		sub	r2, r7, r4
 1651 0072 92B2     		uxth	r2, r2
 1652 0074 9246     		mov	r10, r2
 1653              	.LVL170:
 499:.\ssd1306.c   ****     dy = abs(y1 - y0);
 1654              		.loc 1 499 0
 1655 0076 9A1B     		sub	r2, r3, r6
 1656 0078 D117     		asr	r1, r2, #31
 1657 007a 5218     		add	r2, r2, r1
 1658 007c 4A40     		eor	r2, r1
 1659 007e 9146     		mov	r9, r2
 1660              	.LVL171:
 500:.\ssd1306.c   ****     int16_t err = dx / 2;
 1661              		.loc 1 500 0
 1662 0080 5246     		mov	r2, r10
 1663 0082 12B2     		sxth	r2, r2
 1664 0084 D50F     		lsr	r5, r2, #31
 1665 0086 AA18     		add	r2, r5, r2
 1666 0088 5210     		asr	r2, r2, #1
 1667 008a 95B2     		uxth	r5, r2
 1668              	.LVL172:
 501:.\ssd1306.c   ****     int16_t ystep;
 502:.\ssd1306.c   ****     if( y0 < y1 ){
 1669              		.loc 1 502 0
 1670 008c 9E42     		cmp	r6, r3
 1671 008e 02DA     		bge	.L130
 503:.\ssd1306.c   ****         ystep = 1;
 1672              		.loc 1 503 0
 1673 0090 0123     		mov	r3, #1
 1674              	.LVL173:
 1675 0092 9B46     		mov	fp, r3
 1676 0094 1DE0     		b	.L123
 1677              	.LVL174:
ARM GAS  C:\Users\User\AppData\Local\Temp\ccQ45nMh.s 			page 41


 1678              	.L130:
 504:.\ssd1306.c   ****     }else{
 505:.\ssd1306.c   ****         ystep = -1;
 1679              		.loc 1 505 0
 1680 0096 134B     		ldr	r3, .L131
 1681              	.LVL175:
 1682 0098 9B46     		mov	fp, r3
 1683 009a 1AE0     		b	.L123
 1684              	.LVL176:
 1685              	.L127:
 506:.\ssd1306.c   ****     }
 507:.\ssd1306.c   ****     for( ; x0<=x1; x0++ ){
 508:.\ssd1306.c   ****         if( steep ){
 1686              		.loc 1 508 0
 1687 009c 4346     		mov	r3, r8
 1688 009e 002B     		cmp	r3, #0
 1689 00a0 05D0     		beq	.L124
 1690              	.LVL177:
 509:.\ssd1306.c   ****             gfx_drawPixel( y0, x0, color );
 1691              		.loc 1 509 0
 1692 00a2 301C     		mov	r0, r6
 1693 00a4 211C     		mov	r1, r4
 1694 00a6 039A     		ldr	r2, [sp, #12]
 1695 00a8 FFF7FEFF 		bl	gfx_drawPixel
 1696              	.LVL178:
 1697 00ac 04E0     		b	.L125
 1698              	.LVL179:
 1699              	.L124:
 510:.\ssd1306.c   ****         }else{
 511:.\ssd1306.c   ****             gfx_drawPixel( x0, y0, color );
 1700              		.loc 1 511 0
 1701 00ae 201C     		mov	r0, r4
 1702 00b0 311C     		mov	r1, r6
 1703 00b2 039A     		ldr	r2, [sp, #12]
 1704 00b4 FFF7FEFF 		bl	gfx_drawPixel
 1705              	.LVL180:
 1706              	.L125:
 512:.\ssd1306.c   ****         }
 513:.\ssd1306.c   ****         err -= dy;
 1707              		.loc 1 513 0
 1708 00b8 4B46     		mov	r3, r9
 1709 00ba ED1A     		sub	r5, r5, r3
 1710              	.LVL181:
 1711 00bc ABB2     		uxth	r3, r5
 1712 00be 9DB2     		uxth	r5, r3
 1713              	.LVL182:
 514:.\ssd1306.c   ****         if( err < 0 ){
 1714              		.loc 1 514 0
 1715 00c0 2AB2     		sxth	r2, r5
 1716 00c2 002A     		cmp	r2, #0
 1717 00c4 03DA     		bge	.L126
 515:.\ssd1306.c   ****             y0 += ystep;
 1718              		.loc 1 515 0
 1719 00c6 5E44     		add	r6, r6, fp
 1720              	.LVL183:
 1721 00c8 36B2     		sxth	r6, r6
 1722              	.LVL184:
ARM GAS  C:\Users\User\AppData\Local\Temp\ccQ45nMh.s 			page 42


 516:.\ssd1306.c   ****             err += dx;
 1723              		.loc 1 516 0
 1724 00ca 5344     		add	r3, r3, r10
 1725 00cc 9DB2     		uxth	r5, r3
 1726              	.LVL185:
 1727              	.L126:
 507:.\ssd1306.c   ****         if( steep ){
 1728              		.loc 1 507 0
 1729 00ce 0134     		add	r4, r4, #1
 1730              	.LVL186:
 1731 00d0 24B2     		sxth	r4, r4
 1732              	.LVL187:
 1733              	.L123:
 507:.\ssd1306.c   ****         if( steep ){
 1734              		.loc 1 507 0 is_stmt 0 discriminator 1
 1735 00d2 BC42     		cmp	r4, r7
 1736 00d4 E2DD     		ble	.L127
 1737              	.LVL188:
 1738              	.L115:
 517:.\ssd1306.c   ****         }
 518:.\ssd1306.c   ****     }
 519:.\ssd1306.c   **** }
 1739              		.loc 1 519 0 is_stmt 1
 1740 00d6 05B0     		add	sp, sp, #20
 1741              		@ sp needed
 1742 00d8 3CBC     		pop	{r2, r3, r4, r5}
 1743 00da 9046     		mov	r8, r2
 1744 00dc 9946     		mov	r9, r3
 1745 00de A246     		mov	r10, r4
 1746 00e0 AB46     		mov	fp, r5
 1747 00e2 F0BD     		pop	{r4, r5, r6, r7, pc}
 1748              	.L132:
 1749              		.align	2
 1750              	.L131:
 1751 00e4 FFFF0000 		.word	65535
 1752              		.cfi_endproc
 1753              	.LFE57:
 1754              		.size	gfx_drawLine, .-gfx_drawLine
 1755              		.section	.text.gfx_drawRect,"ax",%progbits
 1756              		.align	2
 1757              		.global	gfx_drawRect
 1758              		.code	16
 1759              		.thumb_func
 1760              		.type	gfx_drawRect, %function
 1761              	gfx_drawRect:
 1762              	.LFB58:
 520:.\ssd1306.c   **** 
 521:.\ssd1306.c   **** void gfx_drawRect( int16_t x, int16_t y, int16_t w, int16_t h, uint16_t color ){
 1763              		.loc 1 521 0
 1764              		.cfi_startproc
 1765              	.LVL189:
 1766 0000 F0B5     		push	{r4, r5, r6, r7, lr}
 1767              		.cfi_def_cfa_offset 20
 1768              		.cfi_offset 4, -20
 1769              		.cfi_offset 5, -16
 1770              		.cfi_offset 6, -12
 1771              		.cfi_offset 7, -8
ARM GAS  C:\Users\User\AppData\Local\Temp\ccQ45nMh.s 			page 43


 1772              		.cfi_offset 14, -4
 1773 0002 85B0     		sub	sp, sp, #20
 1774              		.cfi_def_cfa_offset 40
 1775 0004 071C     		mov	r7, r0
 1776 0006 1C1C     		mov	r4, r3
 1777 0008 0AAB     		add	r3, sp, #40
 1778              	.LVL190:
 1779 000a 1E88     		ldrh	r6, [r3]
 522:.\ssd1306.c   ****     
 523:.\ssd1306.c   ****     gfx_drawLine( x, y, x+w-1, y, color );
 1780              		.loc 1 523 0
 1781 000c 8518     		add	r5, r0, r2
 1782 000e 013D     		sub	r5, r5, #1
 1783 0010 2DB2     		sxth	r5, r5
 1784 0012 0096     		str	r6, [sp]
 1785 0014 0B1C     		mov	r3, r1
 1786              	.LVL191:
 1787 0016 2A1C     		mov	r2, r5
 1788              	.LVL192:
 1789 0018 0393     		str	r3, [sp, #12]
 1790 001a FFF7FEFF 		bl	gfx_drawLine
 1791              	.LVL193:
 524:.\ssd1306.c   ****     gfx_drawLine( x, y+h-1, x+w-1, y+h-1, color );
 1792              		.loc 1 524 0
 1793 001e 039B     		ldr	r3, [sp, #12]
 1794 0020 9C46     		mov	ip, r3
 1795 0022 6444     		add	r4, r4, ip
 1796 0024 013C     		sub	r4, r4, #1
 1797 0026 24B2     		sxth	r4, r4
 1798 0028 0096     		str	r6, [sp]
 1799 002a 381C     		mov	r0, r7
 1800 002c 211C     		mov	r1, r4
 1801 002e 2A1C     		mov	r2, r5
 1802 0030 231C     		mov	r3, r4
 1803 0032 FFF7FEFF 		bl	gfx_drawLine
 1804              	.LVL194:
 525:.\ssd1306.c   ****     gfx_drawLine( x, y, x, y+h-1, color );
 1805              		.loc 1 525 0
 1806 0036 0096     		str	r6, [sp]
 1807 0038 381C     		mov	r0, r7
 1808 003a 0399     		ldr	r1, [sp, #12]
 1809 003c 3A1C     		mov	r2, r7
 1810 003e 231C     		mov	r3, r4
 1811 0040 FFF7FEFF 		bl	gfx_drawLine
 1812              	.LVL195:
 526:.\ssd1306.c   ****     gfx_drawLine( x+w-1, y, x+w-1, y+h-1, color );
 1813              		.loc 1 526 0
 1814 0044 0096     		str	r6, [sp]
 1815 0046 281C     		mov	r0, r5
 1816 0048 0399     		ldr	r1, [sp, #12]
 1817 004a 2A1C     		mov	r2, r5
 1818 004c 231C     		mov	r3, r4
 1819 004e FFF7FEFF 		bl	gfx_drawLine
 1820              	.LVL196:
 527:.\ssd1306.c   **** }
 1821              		.loc 1 527 0
 1822 0052 05B0     		add	sp, sp, #20
ARM GAS  C:\Users\User\AppData\Local\Temp\ccQ45nMh.s 			page 44


 1823              		@ sp needed
 1824 0054 F0BD     		pop	{r4, r5, r6, r7, pc}
 1825              		.cfi_endproc
 1826              	.LFE58:
 1827              		.size	gfx_drawRect, .-gfx_drawRect
 1828 0056 C046     		.section	.text.gfx_fillRect,"ax",%progbits
 1829              		.align	2
 1830              		.global	gfx_fillRect
 1831              		.code	16
 1832              		.thumb_func
 1833              		.type	gfx_fillRect, %function
 1834              	gfx_fillRect:
 1835              	.LFB59:
 528:.\ssd1306.c   **** 
 529:.\ssd1306.c   **** void gfx_fillRect( int16_t x, int16_t y, int16_t w, int16_t h, uint16_t color ){
 1836              		.loc 1 529 0
 1837              		.cfi_startproc
 1838              	.LVL197:
 1839 0000 F0B5     		push	{r4, r5, r6, r7, lr}
 1840              		.cfi_def_cfa_offset 20
 1841              		.cfi_offset 4, -20
 1842              		.cfi_offset 5, -16
 1843              		.cfi_offset 6, -12
 1844              		.cfi_offset 7, -8
 1845              		.cfi_offset 14, -4
 1846 0002 4F46     		mov	r7, r9
 1847 0004 4646     		mov	r6, r8
 1848 0006 C0B4     		push	{r6, r7}
 1849              		.cfi_def_cfa_offset 28
 1850              		.cfi_offset 8, -28
 1851              		.cfi_offset 9, -24
 1852 0008 83B0     		sub	sp, sp, #12
 1853              		.cfi_def_cfa_offset 40
 1854 000a 051C     		mov	r5, r0
 1855 000c 0E1C     		mov	r6, r1
 1856 000e 171C     		mov	r7, r2
 1857 0010 9846     		mov	r8, r3
 1858 0012 0AAB     		add	r3, sp, #40
 1859              	.LVL198:
 1860 0014 1B88     		ldrh	r3, [r3]
 1861              	.LVL199:
 1862 0016 9946     		mov	r9, r3
 1863              	.LVL200:
 530:.\ssd1306.c   ****     int16_t i = 0;
 531:.\ssd1306.c   ****     if( h > w ){
 1864              		.loc 1 531 0
 1865 0018 9045     		cmp	r8, r2
 1866 001a 0FDC     		bgt	.L140
 1867 001c 0C1C     		mov	r4, r1
 1868 001e 1EE0     		b	.L136
 1869              	.LVL201:
 1870              	.L137:
 532:.\ssd1306.c   ****         for( i = x ; i < x+w ; i++ ){
 533:.\ssd1306.c   ****             gfx_drawLine( i, y, i, y+h-1, color );
 1871              		.loc 1 533 0 discriminator 3
 1872 0020 4346     		mov	r3, r8
 1873 0022 F318     		add	r3, r6, r3
ARM GAS  C:\Users\User\AppData\Local\Temp\ccQ45nMh.s 			page 45


 1874 0024 013B     		sub	r3, r3, #1
 1875 0026 1BB2     		sxth	r3, r3
 1876 0028 4A46     		mov	r2, r9
 1877 002a 0092     		str	r2, [sp]
 1878 002c 201C     		mov	r0, r4
 1879 002e 311C     		mov	r1, r6
 1880 0030 221C     		mov	r2, r4
 1881 0032 FFF7FEFF 		bl	gfx_drawLine
 1882              	.LVL202:
 532:.\ssd1306.c   ****         for( i = x ; i < x+w ; i++ ){
 1883              		.loc 1 532 0 discriminator 3
 1884 0036 0134     		add	r4, r4, #1
 1885              	.LVL203:
 1886 0038 24B2     		sxth	r4, r4
 1887              	.LVL204:
 1888 003a 00E0     		b	.L135
 1889              	.LVL205:
 1890              	.L140:
 1891 003c 041C     		mov	r4, r0
 1892              	.LVL206:
 1893              	.L135:
 532:.\ssd1306.c   ****         for( i = x ; i < x+w ; i++ ){
 1894              		.loc 1 532 0 is_stmt 0 discriminator 1
 1895 003e EB19     		add	r3, r5, r7
 1896 0040 9C42     		cmp	r4, r3
 1897 0042 EDDB     		blt	.L137
 1898 0044 0FE0     		b	.L134
 1899              	.L139:
 534:.\ssd1306.c   ****         }
 535:.\ssd1306.c   ****     }else{
 536:.\ssd1306.c   ****         for( i = y ; i < y+h ; i++ ){
 537:.\ssd1306.c   ****             gfx_drawLine( x, i, x+w-1, i, color );
 1900              		.loc 1 537 0 is_stmt 1 discriminator 3
 1901 0046 EA19     		add	r2, r5, r7
 1902 0048 013A     		sub	r2, r2, #1
 1903 004a 12B2     		sxth	r2, r2
 1904 004c 4B46     		mov	r3, r9
 1905 004e 0093     		str	r3, [sp]
 1906 0050 281C     		mov	r0, r5
 1907 0052 211C     		mov	r1, r4
 1908 0054 231C     		mov	r3, r4
 1909 0056 FFF7FEFF 		bl	gfx_drawLine
 1910              	.LVL207:
 536:.\ssd1306.c   ****             gfx_drawLine( x, i, x+w-1, i, color );
 1911              		.loc 1 536 0 discriminator 3
 1912 005a 0134     		add	r4, r4, #1
 1913              	.LVL208:
 1914 005c 24B2     		sxth	r4, r4
 1915              	.LVL209:
 1916              	.L136:
 536:.\ssd1306.c   ****             gfx_drawLine( x, i, x+w-1, i, color );
 1917              		.loc 1 536 0 is_stmt 0 discriminator 1
 1918 005e 4346     		mov	r3, r8
 1919 0060 F318     		add	r3, r6, r3
 1920 0062 9C42     		cmp	r4, r3
 1921 0064 EFDB     		blt	.L139
 1922              	.L134:
ARM GAS  C:\Users\User\AppData\Local\Temp\ccQ45nMh.s 			page 46


 538:.\ssd1306.c   ****         }
 539:.\ssd1306.c   ****     }
 540:.\ssd1306.c   **** }
 1923              		.loc 1 540 0 is_stmt 1
 1924 0066 03B0     		add	sp, sp, #12
 1925              		@ sp needed
 1926              	.LVL210:
 1927 0068 0CBC     		pop	{r2, r3}
 1928 006a 9046     		mov	r8, r2
 1929 006c 9946     		mov	r9, r3
 1930 006e F0BD     		pop	{r4, r5, r6, r7, pc}
 1931              		.cfi_endproc
 1932              	.LFE59:
 1933              		.size	gfx_fillRect, .-gfx_fillRect
 1934              		.section	.text.gfx_drawCircle,"ax",%progbits
 1935              		.align	2
 1936              		.global	gfx_drawCircle
 1937              		.code	16
 1938              		.thumb_func
 1939              		.type	gfx_drawCircle, %function
 1940              	gfx_drawCircle:
 1941              	.LFB60:
 541:.\ssd1306.c   **** 
 542:.\ssd1306.c   **** 
 543:.\ssd1306.c   **** // circle outline
 544:.\ssd1306.c   **** void gfx_drawCircle( int16_t x0, int16_t y0, int16_t r,uint16_t color ){
 1942              		.loc 1 544 0
 1943              		.cfi_startproc
 1944              	.LVL211:
 1945 0000 F0B5     		push	{r4, r5, r6, r7, lr}
 1946              		.cfi_def_cfa_offset 20
 1947              		.cfi_offset 4, -20
 1948              		.cfi_offset 5, -16
 1949              		.cfi_offset 6, -12
 1950              		.cfi_offset 7, -8
 1951              		.cfi_offset 14, -4
 1952 0002 5F46     		mov	r7, fp
 1953 0004 5646     		mov	r6, r10
 1954 0006 4D46     		mov	r5, r9
 1955 0008 4446     		mov	r4, r8
 1956 000a F0B4     		push	{r4, r5, r6, r7}
 1957              		.cfi_def_cfa_offset 36
 1958              		.cfi_offset 8, -36
 1959              		.cfi_offset 9, -32
 1960              		.cfi_offset 10, -28
 1961              		.cfi_offset 11, -24
 1962 000c 87B0     		sub	sp, sp, #28
 1963              		.cfi_def_cfa_offset 64
 1964 000e 051C     		mov	r5, r0
 1965 0010 0C1C     		mov	r4, r1
 1966 0012 0292     		str	r2, [sp, #8]
 1967 0014 1F1C     		mov	r7, r3
 1968 0016 0193     		str	r3, [sp, #4]
 545:.\ssd1306.c   **** 
 546:.\ssd1306.c   ****     int16_t f = 1 - r;
 1969              		.loc 1 546 0
 1970 0018 96B2     		uxth	r6, r2
ARM GAS  C:\Users\User\AppData\Local\Temp\ccQ45nMh.s 			page 47


 1971 001a 0123     		mov	r3, #1
 1972              	.LVL212:
 1973 001c 9B1B     		sub	r3, r3, r6
 1974 001e 9BB2     		uxth	r3, r3
 1975 0020 9B46     		mov	fp, r3
 1976              	.LVL213:
 547:.\ssd1306.c   ****     int16_t ddF_x = 1;
 548:.\ssd1306.c   ****     int16_t ddF_y = -2 * r;
 1977              		.loc 1 548 0
 1978 0022 F303     		lsl	r3, r6, #15
 1979 0024 9B1B     		sub	r3, r3, r6
 1980 0026 5A00     		lsl	r2, r3, #1
 1981              	.LVL214:
 1982 0028 93B2     		uxth	r3, r2
 1983 002a 0593     		str	r3, [sp, #20]
 1984              	.LVL215:
 549:.\ssd1306.c   ****     int16_t x = 0;
 550:.\ssd1306.c   ****     int16_t y = r;
 551:.\ssd1306.c   ****     gfx_drawPixel( x0 , y0+r, color );
 1985              		.loc 1 551 0
 1986 002c 8BB2     		uxth	r3, r1
 1987 002e 9A46     		mov	r10, r3
 1988 0030 F118     		add	r1, r6, r3
 1989              	.LVL216:
 1990 0032 09B2     		sxth	r1, r1
 1991 0034 3A1C     		mov	r2, r7
 1992 0036 FFF7FEFF 		bl	gfx_drawPixel
 1993              	.LVL217:
 552:.\ssd1306.c   ****     gfx_drawPixel( x0 , y0-r, color );
 1994              		.loc 1 552 0
 1995 003a 5346     		mov	r3, r10
 1996 003c 991B     		sub	r1, r3, r6
 1997 003e 09B2     		sxth	r1, r1
 1998 0040 281C     		mov	r0, r5
 1999 0042 3A1C     		mov	r2, r7
 2000 0044 FFF7FEFF 		bl	gfx_drawPixel
 2001              	.LVL218:
 553:.\ssd1306.c   ****     gfx_drawPixel( x0+r, y0 , color );
 2002              		.loc 1 553 0
 2003 0048 ABB2     		uxth	r3, r5
 2004 004a 9946     		mov	r9, r3
 2005 004c F018     		add	r0, r6, r3
 2006 004e 00B2     		sxth	r0, r0
 2007 0050 211C     		mov	r1, r4
 2008 0052 3A1C     		mov	r2, r7
 2009 0054 FFF7FEFF 		bl	gfx_drawPixel
 2010              	.LVL219:
 554:.\ssd1306.c   ****     gfx_drawPixel( x0-r, y0 , color );
 2011              		.loc 1 554 0
 2012 0058 4B46     		mov	r3, r9
 2013 005a 981B     		sub	r0, r3, r6
 2014 005c 00B2     		sxth	r0, r0
 2015 005e 211C     		mov	r1, r4
 2016 0060 3A1C     		mov	r2, r7
 2017 0062 FFF7FEFF 		bl	gfx_drawPixel
 2018              	.LVL220:
 549:.\ssd1306.c   ****     int16_t y = r;
ARM GAS  C:\Users\User\AppData\Local\Temp\ccQ45nMh.s 			page 48


 2019              		.loc 1 549 0
 2020 0066 0023     		mov	r3, #0
 2021 0068 0393     		str	r3, [sp, #12]
 547:.\ssd1306.c   ****     int16_t ddF_y = -2 * r;
 2022              		.loc 1 547 0
 2023 006a 0133     		add	r3, r3, #1
 2024 006c 9846     		mov	r8, r3
 555:.\ssd1306.c   ****     while( x < y ){
 2025              		.loc 1 555 0
 2026 006e 62E0     		b	.L142
 2027              	.LVL221:
 2028              	.L144:
 556:.\ssd1306.c   ****         if( f >= 0 ){
 2029              		.loc 1 556 0
 2030 0070 5B46     		mov	r3, fp
 2031 0072 1BB2     		sxth	r3, r3
 2032 0074 002B     		cmp	r3, #0
 2033 0076 0BDB     		blt	.L143
 557:.\ssd1306.c   ****             y--;
 2034              		.loc 1 557 0
 2035 0078 029B     		ldr	r3, [sp, #8]
 2036 007a 013B     		sub	r3, r3, #1
 2037 007c 1BB2     		sxth	r3, r3
 2038 007e 0293     		str	r3, [sp, #8]
 2039              	.LVL222:
 558:.\ssd1306.c   ****             ddF_y += 2;
 2040              		.loc 1 558 0
 2041 0080 059B     		ldr	r3, [sp, #20]
 2042 0082 0233     		add	r3, r3, #2
 2043 0084 9BB2     		uxth	r3, r3
 2044 0086 9AB2     		uxth	r2, r3
 2045 0088 0592     		str	r2, [sp, #20]
 2046              	.LVL223:
 559:.\ssd1306.c   ****             f += ddF_y;
 2047              		.loc 1 559 0
 2048 008a 5B44     		add	r3, r3, fp
 2049 008c 9BB2     		uxth	r3, r3
 2050 008e 9B46     		mov	fp, r3
 2051              	.LVL224:
 2052              	.L143:
 560:.\ssd1306.c   ****         }
 561:.\ssd1306.c   ****         x++;
 2053              		.loc 1 561 0
 2054 0090 039C     		ldr	r4, [sp, #12]
 2055 0092 0134     		add	r4, r4, #1
 2056 0094 A4B2     		uxth	r4, r4
 2057 0096 A3B2     		uxth	r3, r4
 2058 0098 0393     		str	r3, [sp, #12]
 2059              	.LVL225:
 562:.\ssd1306.c   ****         ddF_x += 2;
 2060              		.loc 1 562 0
 2061 009a 4346     		mov	r3, r8
 2062 009c 0233     		add	r3, r3, #2
 2063 009e 9BB2     		uxth	r3, r3
 2064 00a0 9AB2     		uxth	r2, r3
 2065 00a2 9046     		mov	r8, r2
 2066              	.LVL226:
ARM GAS  C:\Users\User\AppData\Local\Temp\ccQ45nMh.s 			page 49


 563:.\ssd1306.c   ****         f += ddF_x;
 2067              		.loc 1 563 0
 2068 00a4 5B44     		add	r3, r3, fp
 2069 00a6 9BB2     		uxth	r3, r3
 2070 00a8 9B46     		mov	fp, r3
 2071              	.LVL227:
 564:.\ssd1306.c   ****         gfx_drawPixel( x0 + x, y0 + y, color );
 2072              		.loc 1 564 0
 2073 00aa 4B46     		mov	r3, r9
 2074 00ac 1F19     		add	r7, r3, r4
 2075 00ae 6B46     		mov	r3, sp
 2076 00b0 1D89     		ldrh	r5, [r3, #8]
 2077 00b2 5346     		mov	r3, r10
 2078 00b4 5E19     		add	r6, r3, r5
 2079 00b6 3FB2     		sxth	r7, r7
 2080 00b8 36B2     		sxth	r6, r6
 2081 00ba 381C     		mov	r0, r7
 2082 00bc 311C     		mov	r1, r6
 2083 00be 019A     		ldr	r2, [sp, #4]
 2084 00c0 FFF7FEFF 		bl	gfx_drawPixel
 2085              	.LVL228:
 565:.\ssd1306.c   ****         gfx_drawPixel( x0 - x, y0 + y, color );
 2086              		.loc 1 565 0
 2087 00c4 4B46     		mov	r3, r9
 2088 00c6 1B1B     		sub	r3, r3, r4
 2089 00c8 1BB2     		sxth	r3, r3
 2090 00ca 0493     		str	r3, [sp, #16]
 2091 00cc 181C     		mov	r0, r3
 2092 00ce 311C     		mov	r1, r6
 2093 00d0 019A     		ldr	r2, [sp, #4]
 2094 00d2 FFF7FEFF 		bl	gfx_drawPixel
 2095              	.LVL229:
 566:.\ssd1306.c   ****         gfx_drawPixel( x0 + x, y0 - y, color );
 2096              		.loc 1 566 0
 2097 00d6 5246     		mov	r2, r10
 2098 00d8 561B     		sub	r6, r2, r5
 2099 00da 36B2     		sxth	r6, r6
 2100 00dc 381C     		mov	r0, r7
 2101 00de 311C     		mov	r1, r6
 2102 00e0 019F     		ldr	r7, [sp, #4]
 2103 00e2 3A1C     		mov	r2, r7
 2104 00e4 FFF7FEFF 		bl	gfx_drawPixel
 2105              	.LVL230:
 567:.\ssd1306.c   ****         gfx_drawPixel( x0 - x, y0 - y, color );
 2106              		.loc 1 567 0
 2107 00e8 0498     		ldr	r0, [sp, #16]
 2108 00ea 311C     		mov	r1, r6
 2109 00ec 0197     		str	r7, [sp, #4]
 2110 00ee 3A1C     		mov	r2, r7
 2111 00f0 FFF7FEFF 		bl	gfx_drawPixel
 2112              	.LVL231:
 568:.\ssd1306.c   ****         gfx_drawPixel( x0 + y, y0 + x, color );
 2113              		.loc 1 568 0
 2114 00f4 4B46     		mov	r3, r9
 2115 00f6 5E19     		add	r6, r3, r5
 2116 00f8 5346     		mov	r3, r10
 2117 00fa 1F19     		add	r7, r3, r4
ARM GAS  C:\Users\User\AppData\Local\Temp\ccQ45nMh.s 			page 50


 2118 00fc 36B2     		sxth	r6, r6
 2119 00fe 3FB2     		sxth	r7, r7
 2120 0100 301C     		mov	r0, r6
 2121 0102 391C     		mov	r1, r7
 2122 0104 019A     		ldr	r2, [sp, #4]
 2123 0106 FFF7FEFF 		bl	gfx_drawPixel
 2124              	.LVL232:
 569:.\ssd1306.c   ****         gfx_drawPixel( x0 - y, y0 + x, color );
 2125              		.loc 1 569 0
 2126 010a 4B46     		mov	r3, r9
 2127 010c 5D1B     		sub	r5, r3, r5
 2128 010e 2DB2     		sxth	r5, r5
 2129 0110 281C     		mov	r0, r5
 2130 0112 391C     		mov	r1, r7
 2131 0114 019F     		ldr	r7, [sp, #4]
 2132 0116 3A1C     		mov	r2, r7
 2133 0118 FFF7FEFF 		bl	gfx_drawPixel
 2134              	.LVL233:
 570:.\ssd1306.c   ****         gfx_drawPixel( x0 + y, y0 - x, color );
 2135              		.loc 1 570 0
 2136 011c 5346     		mov	r3, r10
 2137 011e 1C1B     		sub	r4, r3, r4
 2138 0120 24B2     		sxth	r4, r4
 2139 0122 301C     		mov	r0, r6
 2140 0124 211C     		mov	r1, r4
 2141 0126 3A1C     		mov	r2, r7
 2142 0128 FFF7FEFF 		bl	gfx_drawPixel
 2143              	.LVL234:
 571:.\ssd1306.c   ****         gfx_drawPixel( x0 - y, y0 - x, color );
 2144              		.loc 1 571 0
 2145 012c 281C     		mov	r0, r5
 2146 012e 211C     		mov	r1, r4
 2147 0130 3A1C     		mov	r2, r7
 2148 0132 FFF7FEFF 		bl	gfx_drawPixel
 2149              	.LVL235:
 2150              	.L142:
 555:.\ssd1306.c   ****         if( f >= 0 ){
 2151              		.loc 1 555 0
 2152 0136 6B46     		mov	r3, sp
 2153 0138 0C22     		mov	r2, #12
 2154 013a 9B5E     		ldrsh	r3, [r3, r2]
 2155 013c 029A     		ldr	r2, [sp, #8]
 2156 013e 9342     		cmp	r3, r2
 2157 0140 96DB     		blt	.L144
 572:.\ssd1306.c   ****     }
 573:.\ssd1306.c   **** }
 2158              		.loc 1 573 0
 2159 0142 07B0     		add	sp, sp, #28
 2160              		@ sp needed
 2161              	.LVL236:
 2162              	.LVL237:
 2163              	.LVL238:
 2164 0144 3CBC     		pop	{r2, r3, r4, r5}
 2165 0146 9046     		mov	r8, r2
 2166 0148 9946     		mov	r9, r3
 2167 014a A246     		mov	r10, r4
 2168 014c AB46     		mov	fp, r5
ARM GAS  C:\Users\User\AppData\Local\Temp\ccQ45nMh.s 			page 51


 2169 014e F0BD     		pop	{r4, r5, r6, r7, pc}
 2170              		.cfi_endproc
 2171              	.LFE60:
 2172              		.size	gfx_drawCircle, .-gfx_drawCircle
 2173              		.section	.text.gfx_drawTriangle,"ax",%progbits
 2174              		.align	2
 2175              		.global	gfx_drawTriangle
 2176              		.code	16
 2177              		.thumb_func
 2178              		.type	gfx_drawTriangle, %function
 2179              	gfx_drawTriangle:
 2180              	.LFB61:
 574:.\ssd1306.c   **** 
 575:.\ssd1306.c   **** void gfx_drawTriangle( int16_t x0, int16_t y0,int16_t x1, int16_t y1, int16_t x2, int16_t y2, uint1
 2181              		.loc 1 575 0
 2182              		.cfi_startproc
 2183              	.LVL239:
 2184 0000 F0B5     		push	{r4, r5, r6, r7, lr}
 2185              		.cfi_def_cfa_offset 20
 2186              		.cfi_offset 4, -20
 2187              		.cfi_offset 5, -16
 2188              		.cfi_offset 6, -12
 2189              		.cfi_offset 7, -8
 2190              		.cfi_offset 14, -4
 2191 0002 87B0     		sub	sp, sp, #28
 2192              		.cfi_def_cfa_offset 48
 2193 0004 171C     		mov	r7, r2
 2194 0006 0393     		str	r3, [sp, #12]
 2195 0008 0CAB     		add	r3, sp, #48
 2196              	.LVL240:
 2197 000a 0022     		mov	r2, #0
 2198 000c 9D5E     		ldrsh	r5, [r3, r2]
 2199              	.LVL241:
 2200 000e 0DAB     		add	r3, sp, #52
 2201              	.LVL242:
 2202 0010 0022     		mov	r2, #0
 2203 0012 9C5E     		ldrsh	r4, [r3, r2]
 2204 0014 0EAB     		add	r3, sp, #56
 2205              	.LVL243:
 2206 0016 1E88     		ldrh	r6, [r3]
 576:.\ssd1306.c   ****     
 577:.\ssd1306.c   ****     gfx_drawLine( x0, y0, x1, y1, color );
 2207              		.loc 1 577 0
 2208 0018 0096     		str	r6, [sp]
 2209 001a 0490     		str	r0, [sp, #16]
 2210 001c 0591     		str	r1, [sp, #20]
 2211 001e 3A1C     		mov	r2, r7
 2212 0020 039B     		ldr	r3, [sp, #12]
 2213              	.LVL244:
 2214 0022 FFF7FEFF 		bl	gfx_drawLine
 2215              	.LVL245:
 578:.\ssd1306.c   ****     gfx_drawLine( x1, y1, x2, y2, color );
 2216              		.loc 1 578 0
 2217 0026 0096     		str	r6, [sp]
 2218 0028 381C     		mov	r0, r7
 2219 002a 0399     		ldr	r1, [sp, #12]
 2220 002c 2A1C     		mov	r2, r5
ARM GAS  C:\Users\User\AppData\Local\Temp\ccQ45nMh.s 			page 52


 2221 002e 231C     		mov	r3, r4
 2222 0030 FFF7FEFF 		bl	gfx_drawLine
 2223              	.LVL246:
 579:.\ssd1306.c   ****     gfx_drawLine( x2, y2, x0, y0, color );
 2224              		.loc 1 579 0
 2225 0034 0096     		str	r6, [sp]
 2226 0036 281C     		mov	r0, r5
 2227 0038 211C     		mov	r1, r4
 2228 003a 049A     		ldr	r2, [sp, #16]
 2229 003c 059B     		ldr	r3, [sp, #20]
 2230 003e FFF7FEFF 		bl	gfx_drawLine
 2231              	.LVL247:
 580:.\ssd1306.c   **** }
 2232              		.loc 1 580 0
 2233 0042 07B0     		add	sp, sp, #28
 2234              		@ sp needed
 2235 0044 F0BD     		pop	{r4, r5, r6, r7, pc}
 2236              		.cfi_endproc
 2237              	.LFE61:
 2238              		.size	gfx_drawTriangle, .-gfx_drawTriangle
 2239 0046 C046     		.section	.text.gfx_drawChar,"ax",%progbits
 2240              		.align	2
 2241              		.global	gfx_drawChar
 2242              		.code	16
 2243              		.thumb_func
 2244              		.type	gfx_drawChar, %function
 2245              	gfx_drawChar:
 2246              	.LFB62:
 581:.\ssd1306.c   **** 
 582:.\ssd1306.c   **** 
 583:.\ssd1306.c   **** // Draw a character
 584:.\ssd1306.c   **** void gfx_drawChar( int16_t x, int16_t y, unsigned char c,uint16_t color, uint16_t bg, uint8_t size)
 2247              		.loc 1 584 0
 2248              		.cfi_startproc
 2249              	.LVL248:
 2250 0000 F0B5     		push	{r4, r5, r6, r7, lr}
 2251              		.cfi_def_cfa_offset 20
 2252              		.cfi_offset 4, -20
 2253              		.cfi_offset 5, -16
 2254              		.cfi_offset 6, -12
 2255              		.cfi_offset 7, -8
 2256              		.cfi_offset 14, -4
 2257 0002 5F46     		mov	r7, fp
 2258 0004 5646     		mov	r6, r10
 2259 0006 4D46     		mov	r5, r9
 2260 0008 4446     		mov	r4, r8
 2261 000a F0B4     		push	{r4, r5, r6, r7}
 2262              		.cfi_def_cfa_offset 36
 2263              		.cfi_offset 8, -36
 2264              		.cfi_offset 9, -32
 2265              		.cfi_offset 10, -28
 2266              		.cfi_offset 11, -24
 2267 000c 85B0     		sub	sp, sp, #20
 2268              		.cfi_def_cfa_offset 56
 2269 000e 0EAC     		add	r4, sp, #56
 2270              	.LVL249:
 2271 0010 2488     		ldrh	r4, [r4]
ARM GAS  C:\Users\User\AppData\Local\Temp\ccQ45nMh.s 			page 53


 2272              	.LVL250:
 2273 0012 A346     		mov	fp, r4
 2274 0014 0FAC     		add	r4, sp, #60
 2275              	.LVL251:
 2276 0016 2778     		ldrb	r7, [r4]
 585:.\ssd1306.c   ****     if( (x >= _width) || // Clip right
 2277              		.loc 1 585 0
 2278 0018 3A4C     		ldr	r4, .L158
 2279              	.LVL252:
 2280 001a 0225     		mov	r5, #2
 2281 001c 645F     		ldrsh	r4, [r4, r5]
 2282 001e A042     		cmp	r0, r4
 2283 0020 68DA     		bge	.L146
 2284              		.loc 1 585 0 is_stmt 0 discriminator 1
 2285 0022 384C     		ldr	r4, .L158
 2286 0024 0425     		mov	r5, #4
 2287 0026 645F     		ldrsh	r4, [r4, r5]
 2288 0028 A142     		cmp	r1, r4
 2289 002a 63DA     		bge	.L146
 586:.\ssd1306.c   ****         (y >= _height) || // Clip bottom
 587:.\ssd1306.c   ****         ((x + 6 * size - 1) < 0) || // Clip left
 2290              		.loc 1 587 0 is_stmt 1
 2291 002c 7C00     		lsl	r4, r7, #1
 2292 002e E419     		add	r4, r4, r7
 2293 0030 6400     		lsl	r4, r4, #1
 2294 0032 0419     		add	r4, r0, r4
 586:.\ssd1306.c   ****         (y >= _height) || // Clip bottom
 2295              		.loc 1 586 0
 2296 0034 012C     		cmp	r4, #1
 2297 0036 5DD4     		bmi	.L146
 588:.\ssd1306.c   ****         ((y + 8 * size - 1) < 0)) // Clip top
 2298              		.loc 1 588 0
 2299 0038 FC00     		lsl	r4, r7, #3
 2300 003a 0C19     		add	r4, r1, r4
 587:.\ssd1306.c   ****         ((y + 8 * size - 1) < 0)) // Clip top
 2301              		.loc 1 587 0
 2302 003c 012C     		cmp	r4, #1
 2303 003e 59D4     		bmi	.L146
 2304 0040 9846     		mov	r8, r3
 2305 0042 0392     		str	r2, [sp, #12]
 2306 0044 8A46     		mov	r10, r1
 2307 0046 8146     		mov	r9, r0
 2308 0048 0026     		mov	r6, #0
 2309 004a 50E0     		b	.L148
 2310              	.LVL253:
 2311              	.L156:
 2312              	.LBB7:
 589:.\ssd1306.c   ****         return;
 590:.\ssd1306.c   **** 
 591:.\ssd1306.c   ****     int8_t i = 0;
 592:.\ssd1306.c   ****     for( i = 0 ; i < 6 ; i++ ){
 593:.\ssd1306.c   ****         uint8_t line;
 594:.\ssd1306.c   ****         if( i == 5 )
 2313              		.loc 1 594 0
 2314 004c 052E     		cmp	r6, #5
 2315 004e 08D0     		beq	.L157
 595:.\ssd1306.c   ****             line = 0x0;
ARM GAS  C:\Users\User\AppData\Local\Temp\ccQ45nMh.s 			page 54


 596:.\ssd1306.c   ****         else
 597:.\ssd1306.c   ****            line = font[(c*5)+i];
 2316              		.loc 1 597 0
 2317 0050 039A     		ldr	r2, [sp, #12]
 2318 0052 9300     		lsl	r3, r2, #2
 2319 0054 9A18     		add	r2, r3, r2
 2320 0056 73B2     		sxtb	r3, r6
 2321 0058 D318     		add	r3, r2, r3
 2322 005a 2B4A     		ldr	r2, .L158+4
 2323 005c 2432     		add	r2, r2, #36
 2324 005e D55C     		ldrb	r5, [r2, r3]
 2325              	.LVL254:
 2326 0060 00E0     		b	.L149
 2327              	.LVL255:
 2328              	.L157:
 595:.\ssd1306.c   ****             line = 0x0;
 2329              		.loc 1 595 0
 2330 0062 0025     		mov	r5, #0
 2331              	.L149:
 595:.\ssd1306.c   ****             line = 0x0;
 2332              		.loc 1 595 0 is_stmt 0 discriminator 1
 2333 0064 0024     		mov	r4, #0
 2334 0066 3DE0     		b	.L150
 2335              	.LVL256:
 2336              	.L155:
 598:.\ssd1306.c   ****         int8_t j = 0;
 599:.\ssd1306.c   ****         for( j = 0; j < 8 ; j++ ){
 600:.\ssd1306.c   ****             if( line & 0x1 ){
 2337              		.loc 1 600 0 is_stmt 1
 2338 0068 EB07     		lsl	r3, r5, #31
 2339 006a 1BD5     		bpl	.L151
 601:.\ssd1306.c   ****                 if( size == 1 ) // default size
 2340              		.loc 1 601 0
 2341 006c 012F     		cmp	r7, #1
 2342 006e 09D1     		bne	.L152
 602:.\ssd1306.c   ****                     gfx_drawPixel( x+i, y+j, color );
 2343              		.loc 1 602 0
 2344 0070 70B2     		sxtb	r0, r6
 2345 0072 4844     		add	r0, r0, r9
 2346 0074 00B2     		sxth	r0, r0
 2347 0076 61B2     		sxtb	r1, r4
 2348 0078 5144     		add	r1, r1, r10
 2349 007a 09B2     		sxth	r1, r1
 2350 007c 4246     		mov	r2, r8
 2351 007e FFF7FEFF 		bl	gfx_drawPixel
 2352              	.LVL257:
 2353 0082 2CE0     		b	.L153
 2354              	.L152:
 603:.\ssd1306.c   ****                 else { // big size
 604:.\ssd1306.c   ****                     gfx_fillRect( x+(i*size), y+(j*size), size, size, color );
 2355              		.loc 1 604 0
 2356 0084 BBB2     		uxth	r3, r7
 2357 0086 70B2     		sxtb	r0, r6
 2358 0088 5843     		mul	r0, r3
 2359 008a 4844     		add	r0, r0, r9
 2360 008c 00B2     		sxth	r0, r0
 2361 008e 61B2     		sxtb	r1, r4
ARM GAS  C:\Users\User\AppData\Local\Temp\ccQ45nMh.s 			page 55


 2362 0090 5943     		mul	r1, r3
 2363 0092 5144     		add	r1, r1, r10
 2364 0094 09B2     		sxth	r1, r1
 2365 0096 1BB2     		sxth	r3, r3
 2366 0098 4246     		mov	r2, r8
 2367 009a 0092     		str	r2, [sp]
 2368 009c 1A1C     		mov	r2, r3
 2369 009e FFF7FEFF 		bl	gfx_fillRect
 2370              	.LVL258:
 2371 00a2 1CE0     		b	.L153
 2372              	.L151:
 605:.\ssd1306.c   ****                 }
 606:.\ssd1306.c   ****             } else if( bg != color ){
 2373              		.loc 1 606 0
 2374 00a4 C345     		cmp	fp, r8
 2375 00a6 1AD0     		beq	.L153
 607:.\ssd1306.c   ****                 if( size == 1 ) // default size
 2376              		.loc 1 607 0
 2377 00a8 012F     		cmp	r7, #1
 2378 00aa 09D1     		bne	.L154
 608:.\ssd1306.c   ****                     gfx_drawPixel( x+i, y+j, bg );
 2379              		.loc 1 608 0
 2380 00ac 70B2     		sxtb	r0, r6
 2381 00ae 4844     		add	r0, r0, r9
 2382 00b0 00B2     		sxth	r0, r0
 2383 00b2 61B2     		sxtb	r1, r4
 2384 00b4 5144     		add	r1, r1, r10
 2385 00b6 09B2     		sxth	r1, r1
 2386 00b8 5A46     		mov	r2, fp
 2387 00ba FFF7FEFF 		bl	gfx_drawPixel
 2388              	.LVL259:
 2389 00be 0EE0     		b	.L153
 2390              	.L154:
 609:.\ssd1306.c   ****                 else { // big size
 610:.\ssd1306.c   ****                     gfx_fillRect( x+i*size, y+j*size, size, size, bg );
 2391              		.loc 1 610 0
 2392 00c0 BBB2     		uxth	r3, r7
 2393 00c2 70B2     		sxtb	r0, r6
 2394 00c4 5843     		mul	r0, r3
 2395 00c6 4844     		add	r0, r0, r9
 2396 00c8 00B2     		sxth	r0, r0
 2397 00ca 61B2     		sxtb	r1, r4
 2398 00cc 5943     		mul	r1, r3
 2399 00ce 5144     		add	r1, r1, r10
 2400 00d0 09B2     		sxth	r1, r1
 2401 00d2 1BB2     		sxth	r3, r3
 2402 00d4 5A46     		mov	r2, fp
 2403 00d6 0092     		str	r2, [sp]
 2404 00d8 1A1C     		mov	r2, r3
 2405 00da FFF7FEFF 		bl	gfx_fillRect
 2406              	.LVL260:
 2407              	.L153:
 611:.\ssd1306.c   ****                 }
 612:.\ssd1306.c   ****             }
 613:.\ssd1306.c   ****             line >>= 1;
 2408              		.loc 1 613 0 discriminator 2
 2409 00de 6D08     		lsr	r5, r5, #1
ARM GAS  C:\Users\User\AppData\Local\Temp\ccQ45nMh.s 			page 56


 2410              	.LVL261:
 599:.\ssd1306.c   ****             if( line & 0x1 ){
 2411              		.loc 1 599 0 discriminator 2
 2412 00e0 0134     		add	r4, r4, #1
 2413              	.LVL262:
 2414 00e2 E4B2     		uxtb	r4, r4
 2415              	.LVL263:
 2416              	.L150:
 599:.\ssd1306.c   ****             if( line & 0x1 ){
 2417              		.loc 1 599 0 is_stmt 0 discriminator 1
 2418 00e4 63B2     		sxtb	r3, r4
 2419 00e6 072B     		cmp	r3, #7
 2420 00e8 BEDD     		ble	.L155
 2421              	.LBE7:
 592:.\ssd1306.c   ****         uint8_t line;
 2422              		.loc 1 592 0 is_stmt 1 discriminator 2
 2423 00ea 0136     		add	r6, r6, #1
 2424              	.LVL264:
 2425 00ec F6B2     		uxtb	r6, r6
 2426              	.LVL265:
 2427              	.L148:
 592:.\ssd1306.c   ****         uint8_t line;
 2428              		.loc 1 592 0 is_stmt 0 discriminator 1
 2429 00ee 73B2     		sxtb	r3, r6
 2430 00f0 052B     		cmp	r3, #5
 2431 00f2 ABDD     		ble	.L156
 2432              	.LVL266:
 2433              	.L146:
 614:.\ssd1306.c   ****         }
 615:.\ssd1306.c   ****     }
 616:.\ssd1306.c   **** }
 2434              		.loc 1 616 0 is_stmt 1
 2435 00f4 05B0     		add	sp, sp, #20
 2436              		@ sp needed
 2437 00f6 3CBC     		pop	{r2, r3, r4, r5}
 2438 00f8 9046     		mov	r8, r2
 2439 00fa 9946     		mov	r9, r3
 2440 00fc A246     		mov	r10, r4
 2441 00fe AB46     		mov	fp, r5
 2442 0100 F0BD     		pop	{r4, r5, r6, r7, pc}
 2443              	.L159:
 2444 0102 C046     		.align	2
 2445              	.L158:
 2446 0104 00000000 		.word	.LANCHOR1
 2447 0108 00000000 		.word	.LANCHOR2
 2448              		.cfi_endproc
 2449              	.LFE62:
 2450              		.size	gfx_drawChar, .-gfx_drawChar
 2451              		.section	.text.gfx_write,"ax",%progbits
 2452              		.align	2
 2453              		.global	gfx_write
 2454              		.code	16
 2455              		.thumb_func
 2456              		.type	gfx_write, %function
 2457              	gfx_write:
 2458              	.LFB63:
 617:.\ssd1306.c   **** 
ARM GAS  C:\Users\User\AppData\Local\Temp\ccQ45nMh.s 			page 57


 618:.\ssd1306.c   **** void gfx_write( uint8_t ch ){
 2459              		.loc 1 618 0
 2460              		.cfi_startproc
 2461              	.LVL267:
 2462 0000 30B5     		push	{r4, r5, lr}
 2463              		.cfi_def_cfa_offset 12
 2464              		.cfi_offset 4, -12
 2465              		.cfi_offset 5, -8
 2466              		.cfi_offset 14, -4
 2467 0002 83B0     		sub	sp, sp, #12
 2468              		.cfi_def_cfa_offset 24
 619:.\ssd1306.c   ****     if( ch == '\n' ){
 2469              		.loc 1 619 0
 2470 0004 0A28     		cmp	r0, #10
 2471 0006 08D1     		bne	.L161
 620:.\ssd1306.c   ****         cursor_y += textsize*8;
 2472              		.loc 1 620 0
 2473 0008 1B4B     		ldr	r3, .L163
 2474 000a 9A7A     		ldrb	r2, [r3, #10]
 2475 000c D200     		lsl	r2, r2, #3
 2476 000e 1989     		ldrh	r1, [r3, #8]
 2477 0010 5218     		add	r2, r2, r1
 2478 0012 1A81     		strh	r2, [r3, #8]
 621:.\ssd1306.c   ****         cursor_x = 0;
 2479              		.loc 1 621 0
 2480 0014 0022     		mov	r2, #0
 2481 0016 DA80     		strh	r2, [r3, #6]
 2482 0018 2CE0     		b	.L160
 2483              	.L161:
 622:.\ssd1306.c   ****     }else if( ch == '\r' ){
 2484              		.loc 1 622 0
 2485 001a 0D28     		cmp	r0, #13
 2486 001c 2AD0     		beq	.L160
 2487 001e 021C     		mov	r2, r0
 623:.\ssd1306.c   ****         // skip em
 624:.\ssd1306.c   ****     }else{
 625:.\ssd1306.c   ****         gfx_drawChar(cursor_x, cursor_y, ch, textcolor, textbgcolor, textsize);
 2488              		.loc 1 625 0
 2489 0020 154C     		ldr	r4, .L163
 2490 0022 0623     		mov	r3, #6
 2491 0024 E05E     		ldrsh	r0, [r4, r3]
 2492              	.LVL268:
 2493 0026 0823     		mov	r3, #8
 2494 0028 E15E     		ldrsh	r1, [r4, r3]
 2495 002a E389     		ldrh	r3, [r4, #14]
 2496 002c A589     		ldrh	r5, [r4, #12]
 2497 002e 0095     		str	r5, [sp]
 2498 0030 A57A     		ldrb	r5, [r4, #10]
 2499 0032 0195     		str	r5, [sp, #4]
 2500 0034 FFF7FEFF 		bl	gfx_drawChar
 2501              	.LVL269:
 626:.\ssd1306.c   ****         cursor_x += textsize*6;
 2502              		.loc 1 626 0
 2503 0038 A27A     		ldrb	r2, [r4, #10]
 2504 003a 90B2     		uxth	r0, r2
 2505 003c 4100     		lsl	r1, r0, #1
 2506 003e 4118     		add	r1, r0, r1
ARM GAS  C:\Users\User\AppData\Local\Temp\ccQ45nMh.s 			page 58


 2507 0040 4D00     		lsl	r5, r1, #1
 2508 0042 E388     		ldrh	r3, [r4, #6]
 2509 0044 EB18     		add	r3, r5, r3
 2510 0046 9BB2     		uxth	r3, r3
 2511 0048 E380     		strh	r3, [r4, #6]
 627:.\ssd1306.c   ****         if( wrap && (cursor_x > (_width - textsize*6)) ){
 2512              		.loc 1 627 0
 2513 004a 0C49     		ldr	r1, .L163+4
 2514 004c 0978     		ldrb	r1, [r1]
 2515 004e 0029     		cmp	r1, #0
 2516 0050 10D0     		beq	.L160
 2517              		.loc 1 627 0 is_stmt 0 discriminator 1
 2518 0052 1BB2     		sxth	r3, r3
 2519 0054 9100     		lsl	r1, r2, #2
 2520 0056 521A     		sub	r2, r2, r1
 2521 0058 5200     		lsl	r2, r2, #1
 2522 005a 0749     		ldr	r1, .L163
 2523 005c 0224     		mov	r4, #2
 2524 005e 095F     		ldrsh	r1, [r1, r4]
 2525 0060 8A18     		add	r2, r1, r2
 2526 0062 9342     		cmp	r3, r2
 2527 0064 06DD     		ble	.L160
 628:.\ssd1306.c   ****             cursor_y += textsize*8;
 2528              		.loc 1 628 0 is_stmt 1
 2529 0066 044B     		ldr	r3, .L163
 2530 0068 C000     		lsl	r0, r0, #3
 2531 006a 1A89     		ldrh	r2, [r3, #8]
 2532 006c 8018     		add	r0, r0, r2
 2533 006e 1881     		strh	r0, [r3, #8]
 629:.\ssd1306.c   ****             cursor_x = 0;
 2534              		.loc 1 629 0
 2535 0070 0022     		mov	r2, #0
 2536 0072 DA80     		strh	r2, [r3, #6]
 2537              	.L160:
 630:.\ssd1306.c   ****         }
 631:.\ssd1306.c   ****     }
 632:.\ssd1306.c   **** }
 2538              		.loc 1 632 0
 2539 0074 03B0     		add	sp, sp, #12
 2540              		@ sp needed
 2541 0076 30BD     		pop	{r4, r5, pc}
 2542              	.L164:
 2543              		.align	2
 2544              	.L163:
 2545 0078 00000000 		.word	.LANCHOR1
 2546 007c 00000000 		.word	wrap
 2547              		.cfi_endproc
 2548              	.LFE63:
 2549              		.size	gfx_write, .-gfx_write
 2550              		.section	.text.gfx_print,"ax",%progbits
 2551              		.align	2
 2552              		.global	gfx_print
 2553              		.code	16
 2554              		.thumb_func
 2555              		.type	gfx_print, %function
 2556              	gfx_print:
 2557              	.LFB64:
ARM GAS  C:\Users\User\AppData\Local\Temp\ccQ45nMh.s 			page 59


 633:.\ssd1306.c   **** 
 634:.\ssd1306.c   **** void gfx_print( const char* s ){
 2558              		.loc 1 634 0
 2559              		.cfi_startproc
 2560              	.LVL270:
 2561 0000 70B5     		push	{r4, r5, r6, lr}
 2562              		.cfi_def_cfa_offset 16
 2563              		.cfi_offset 4, -16
 2564              		.cfi_offset 5, -12
 2565              		.cfi_offset 6, -8
 2566              		.cfi_offset 14, -4
 2567 0002 061C     		mov	r6, r0
 635:.\ssd1306.c   ****     
 636:.\ssd1306.c   ****     unsigned int len = strlen( s );
 2568              		.loc 1 636 0
 2569 0004 FFF7FEFF 		bl	strlen
 2570              	.LVL271:
 2571 0008 051C     		mov	r5, r0
 2572              	.LVL272:
 637:.\ssd1306.c   ****     unsigned int i = 0; 
 638:.\ssd1306.c   ****     for( i = 0 ; i < len ; i++ ){
 2573              		.loc 1 638 0
 2574 000a 0024     		mov	r4, #0
 2575 000c 03E0     		b	.L166
 2576              	.LVL273:
 2577              	.L167:
 639:.\ssd1306.c   ****         gfx_write( s[i] );
 2578              		.loc 1 639 0 discriminator 3
 2579 000e 305D     		ldrb	r0, [r6, r4]
 2580 0010 FFF7FEFF 		bl	gfx_write
 2581              	.LVL274:
 638:.\ssd1306.c   ****         gfx_write( s[i] );
 2582              		.loc 1 638 0 discriminator 3
 2583 0014 0134     		add	r4, r4, #1
 2584              	.LVL275:
 2585              	.L166:
 638:.\ssd1306.c   ****         gfx_write( s[i] );
 2586              		.loc 1 638 0 is_stmt 0 discriminator 1
 2587 0016 AC42     		cmp	r4, r5
 2588 0018 F9D3     		bcc	.L167
 640:.\ssd1306.c   ****     }
 641:.\ssd1306.c   **** }
 2589              		.loc 1 641 0 is_stmt 1
 2590              		@ sp needed
 2591              	.LVL276:
 2592              	.LVL277:
 2593              	.LVL278:
 2594 001a 70BD     		pop	{r4, r5, r6, pc}
 2595              		.cfi_endproc
 2596              	.LFE64:
 2597              		.size	gfx_print, .-gfx_print
 2598              		.section	.text.gfx_println,"ax",%progbits
 2599              		.align	2
 2600              		.global	gfx_println
 2601              		.code	16
 2602              		.thumb_func
 2603              		.type	gfx_println, %function
ARM GAS  C:\Users\User\AppData\Local\Temp\ccQ45nMh.s 			page 60


 2604              	gfx_println:
 2605              	.LFB65:
 642:.\ssd1306.c   **** 
 643:.\ssd1306.c   **** void gfx_println( const char* s ){ 
 2606              		.loc 1 643 0
 2607              		.cfi_startproc
 2608              	.LVL279:
 2609 0000 08B5     		push	{r3, lr}
 2610              		.cfi_def_cfa_offset 8
 2611              		.cfi_offset 3, -8
 2612              		.cfi_offset 14, -4
 644:.\ssd1306.c   ****     gfx_print( s ); 
 2613              		.loc 1 644 0
 2614 0002 FFF7FEFF 		bl	gfx_print
 2615              	.LVL280:
 645:.\ssd1306.c   ****     gfx_write( '\n' );
 2616              		.loc 1 645 0
 2617 0006 0A20     		mov	r0, #10
 2618 0008 FFF7FEFF 		bl	gfx_write
 2619              	.LVL281:
 646:.\ssd1306.c   **** }
 2620              		.loc 1 646 0
 2621              		@ sp needed
 2622 000c 08BD     		pop	{r3, pc}
 2623              		.cfi_endproc
 2624              	.LFE65:
 2625              		.size	gfx_println, .-gfx_println
 2626              		.comm	wrap,1,1
 2627              		.comm	rotation,1,1
 2628              		.comm	HEIGHT,2,2
 2629              		.comm	WIDTH,2,2
 2630 000e C046     		.section	.rodata
 2631              		.align	2
 2632              		.set	.LANCHOR2,. + 0
 2633              	.LC1:
 2634 0000 00       		.byte	0
 2635 0001 21       		.byte	33
 2636 0002 00       		.byte	0
 2637 0003 7F       		.byte	127
 2638 0004 22       		.byte	34
 2639 0005 00       		.byte	0
 2640 0006 07       		.byte	7
 2641 0007 00       		.space	1
 2642              	.LC0:
 2643 0008 00       		.byte	0
 2644 0009 AE       		.byte	-82
 2645 000a D5       		.byte	-43
 2646 000b 80       		.byte	-128
 2647 000c A8       		.byte	-88
 2648 000d 3F       		.byte	63
 2649 000e D3       		.byte	-45
 2650 000f 00       		.byte	0
 2651 0010 40       		.byte	64
 2652 0011 8D       		.byte	-115
 2653 0012 14       		.byte	20
 2654 0013 20       		.byte	32
 2655 0014 00       		.byte	0
ARM GAS  C:\Users\User\AppData\Local\Temp\ccQ45nMh.s 			page 61


 2656 0015 A1       		.byte	-95
 2657 0016 C8       		.byte	-56
 2658 0017 DA       		.byte	-38
 2659 0018 12       		.byte	18
 2660 0019 81       		.byte	-127
 2661 001a CF       		.byte	-49
 2662 001b D9       		.byte	-39
 2663 001c F1       		.byte	-15
 2664 001d DB       		.byte	-37
 2665 001e 40       		.byte	64
 2666 001f A4       		.byte	-92
 2667 0020 A6       		.byte	-90
 2668 0021 AF       		.byte	-81
 2669 0022 0000     		.space	2
 2670              		.type	font, %object
 2671              		.size	font, 1275
 2672              	font:
 2673 0024 00       		.byte	0
 2674 0025 00       		.byte	0
 2675 0026 00       		.byte	0
 2676 0027 00       		.byte	0
 2677 0028 00       		.byte	0
 2678 0029 3E       		.byte	62
 2679 002a 5B       		.byte	91
 2680 002b 4F       		.byte	79
 2681 002c 5B       		.byte	91
 2682 002d 3E       		.byte	62
 2683 002e 3E       		.byte	62
 2684 002f 6B       		.byte	107
 2685 0030 4F       		.byte	79
 2686 0031 6B       		.byte	107
 2687 0032 3E       		.byte	62
 2688 0033 1C       		.byte	28
 2689 0034 3E       		.byte	62
 2690 0035 7C       		.byte	124
 2691 0036 3E       		.byte	62
 2692 0037 1C       		.byte	28
 2693 0038 18       		.byte	24
 2694 0039 3C       		.byte	60
 2695 003a 7E       		.byte	126
 2696 003b 3C       		.byte	60
 2697 003c 18       		.byte	24
 2698 003d 1C       		.byte	28
 2699 003e 57       		.byte	87
 2700 003f 7D       		.byte	125
 2701 0040 57       		.byte	87
 2702 0041 1C       		.byte	28
 2703 0042 1C       		.byte	28
 2704 0043 5E       		.byte	94
 2705 0044 7F       		.byte	127
 2706 0045 5E       		.byte	94
 2707 0046 1C       		.byte	28
 2708 0047 00       		.byte	0
 2709 0048 18       		.byte	24
 2710 0049 3C       		.byte	60
 2711 004a 18       		.byte	24
 2712 004b 00       		.byte	0
ARM GAS  C:\Users\User\AppData\Local\Temp\ccQ45nMh.s 			page 62


 2713 004c FF       		.byte	-1
 2714 004d E7       		.byte	-25
 2715 004e C3       		.byte	-61
 2716 004f E7       		.byte	-25
 2717 0050 FF       		.byte	-1
 2718 0051 00       		.byte	0
 2719 0052 18       		.byte	24
 2720 0053 24       		.byte	36
 2721 0054 18       		.byte	24
 2722 0055 00       		.byte	0
 2723 0056 FF       		.byte	-1
 2724 0057 E7       		.byte	-25
 2725 0058 DB       		.byte	-37
 2726 0059 E7       		.byte	-25
 2727 005a FF       		.byte	-1
 2728 005b 30       		.byte	48
 2729 005c 48       		.byte	72
 2730 005d 3A       		.byte	58
 2731 005e 06       		.byte	6
 2732 005f 0E       		.byte	14
 2733 0060 26       		.byte	38
 2734 0061 29       		.byte	41
 2735 0062 79       		.byte	121
 2736 0063 29       		.byte	41
 2737 0064 26       		.byte	38
 2738 0065 40       		.byte	64
 2739 0066 7F       		.byte	127
 2740 0067 05       		.byte	5
 2741 0068 05       		.byte	5
 2742 0069 07       		.byte	7
 2743 006a 40       		.byte	64
 2744 006b 7F       		.byte	127
 2745 006c 05       		.byte	5
 2746 006d 25       		.byte	37
 2747 006e 3F       		.byte	63
 2748 006f 5A       		.byte	90
 2749 0070 3C       		.byte	60
 2750 0071 E7       		.byte	-25
 2751 0072 3C       		.byte	60
 2752 0073 5A       		.byte	90
 2753 0074 7F       		.byte	127
 2754 0075 3E       		.byte	62
 2755 0076 1C       		.byte	28
 2756 0077 1C       		.byte	28
 2757 0078 08       		.byte	8
 2758 0079 08       		.byte	8
 2759 007a 1C       		.byte	28
 2760 007b 1C       		.byte	28
 2761 007c 3E       		.byte	62
 2762 007d 7F       		.byte	127
 2763 007e 14       		.byte	20
 2764 007f 22       		.byte	34
 2765 0080 7F       		.byte	127
 2766 0081 22       		.byte	34
 2767 0082 14       		.byte	20
 2768 0083 5F       		.byte	95
 2769 0084 5F       		.byte	95
ARM GAS  C:\Users\User\AppData\Local\Temp\ccQ45nMh.s 			page 63


 2770 0085 00       		.byte	0
 2771 0086 5F       		.byte	95
 2772 0087 5F       		.byte	95
 2773 0088 06       		.byte	6
 2774 0089 09       		.byte	9
 2775 008a 7F       		.byte	127
 2776 008b 01       		.byte	1
 2777 008c 7F       		.byte	127
 2778 008d 00       		.byte	0
 2779 008e 66       		.byte	102
 2780 008f 89       		.byte	-119
 2781 0090 95       		.byte	-107
 2782 0091 6A       		.byte	106
 2783 0092 60       		.byte	96
 2784 0093 60       		.byte	96
 2785 0094 60       		.byte	96
 2786 0095 60       		.byte	96
 2787 0096 60       		.byte	96
 2788 0097 94       		.byte	-108
 2789 0098 A2       		.byte	-94
 2790 0099 FF       		.byte	-1
 2791 009a A2       		.byte	-94
 2792 009b 94       		.byte	-108
 2793 009c 08       		.byte	8
 2794 009d 04       		.byte	4
 2795 009e 7E       		.byte	126
 2796 009f 04       		.byte	4
 2797 00a0 08       		.byte	8
 2798 00a1 10       		.byte	16
 2799 00a2 20       		.byte	32
 2800 00a3 7E       		.byte	126
 2801 00a4 20       		.byte	32
 2802 00a5 10       		.byte	16
 2803 00a6 08       		.byte	8
 2804 00a7 08       		.byte	8
 2805 00a8 2A       		.byte	42
 2806 00a9 1C       		.byte	28
 2807 00aa 08       		.byte	8
 2808 00ab 08       		.byte	8
 2809 00ac 1C       		.byte	28
 2810 00ad 2A       		.byte	42
 2811 00ae 08       		.byte	8
 2812 00af 08       		.byte	8
 2813 00b0 1E       		.byte	30
 2814 00b1 10       		.byte	16
 2815 00b2 10       		.byte	16
 2816 00b3 10       		.byte	16
 2817 00b4 10       		.byte	16
 2818 00b5 0C       		.byte	12
 2819 00b6 1E       		.byte	30
 2820 00b7 0C       		.byte	12
 2821 00b8 1E       		.byte	30
 2822 00b9 0C       		.byte	12
 2823 00ba 30       		.byte	48
 2824 00bb 38       		.byte	56
 2825 00bc 3E       		.byte	62
 2826 00bd 38       		.byte	56
ARM GAS  C:\Users\User\AppData\Local\Temp\ccQ45nMh.s 			page 64


 2827 00be 30       		.byte	48
 2828 00bf 06       		.byte	6
 2829 00c0 0E       		.byte	14
 2830 00c1 3E       		.byte	62
 2831 00c2 0E       		.byte	14
 2832 00c3 06       		.byte	6
 2833 00c4 00       		.byte	0
 2834 00c5 00       		.byte	0
 2835 00c6 00       		.byte	0
 2836 00c7 00       		.byte	0
 2837 00c8 00       		.byte	0
 2838 00c9 00       		.byte	0
 2839 00ca 00       		.byte	0
 2840 00cb 5F       		.byte	95
 2841 00cc 00       		.byte	0
 2842 00cd 00       		.byte	0
 2843 00ce 00       		.byte	0
 2844 00cf 07       		.byte	7
 2845 00d0 00       		.byte	0
 2846 00d1 07       		.byte	7
 2847 00d2 00       		.byte	0
 2848 00d3 14       		.byte	20
 2849 00d4 7F       		.byte	127
 2850 00d5 14       		.byte	20
 2851 00d6 7F       		.byte	127
 2852 00d7 14       		.byte	20
 2853 00d8 24       		.byte	36
 2854 00d9 2A       		.byte	42
 2855 00da 7F       		.byte	127
 2856 00db 2A       		.byte	42
 2857 00dc 12       		.byte	18
 2858 00dd 23       		.byte	35
 2859 00de 13       		.byte	19
 2860 00df 08       		.byte	8
 2861 00e0 64       		.byte	100
 2862 00e1 62       		.byte	98
 2863 00e2 36       		.byte	54
 2864 00e3 49       		.byte	73
 2865 00e4 56       		.byte	86
 2866 00e5 20       		.byte	32
 2867 00e6 50       		.byte	80
 2868 00e7 00       		.byte	0
 2869 00e8 08       		.byte	8
 2870 00e9 07       		.byte	7
 2871 00ea 03       		.byte	3
 2872 00eb 00       		.byte	0
 2873 00ec 00       		.byte	0
 2874 00ed 1C       		.byte	28
 2875 00ee 22       		.byte	34
 2876 00ef 41       		.byte	65
 2877 00f0 00       		.byte	0
 2878 00f1 00       		.byte	0
 2879 00f2 41       		.byte	65
 2880 00f3 22       		.byte	34
 2881 00f4 1C       		.byte	28
 2882 00f5 00       		.byte	0
 2883 00f6 2A       		.byte	42
ARM GAS  C:\Users\User\AppData\Local\Temp\ccQ45nMh.s 			page 65


 2884 00f7 1C       		.byte	28
 2885 00f8 7F       		.byte	127
 2886 00f9 1C       		.byte	28
 2887 00fa 2A       		.byte	42
 2888 00fb 08       		.byte	8
 2889 00fc 08       		.byte	8
 2890 00fd 3E       		.byte	62
 2891 00fe 08       		.byte	8
 2892 00ff 08       		.byte	8
 2893 0100 00       		.byte	0
 2894 0101 80       		.byte	-128
 2895 0102 70       		.byte	112
 2896 0103 30       		.byte	48
 2897 0104 00       		.byte	0
 2898 0105 08       		.byte	8
 2899 0106 08       		.byte	8
 2900 0107 08       		.byte	8
 2901 0108 08       		.byte	8
 2902 0109 08       		.byte	8
 2903 010a 00       		.byte	0
 2904 010b 00       		.byte	0
 2905 010c 60       		.byte	96
 2906 010d 60       		.byte	96
 2907 010e 00       		.byte	0
 2908 010f 20       		.byte	32
 2909 0110 10       		.byte	16
 2910 0111 08       		.byte	8
 2911 0112 04       		.byte	4
 2912 0113 02       		.byte	2
 2913 0114 3E       		.byte	62
 2914 0115 51       		.byte	81
 2915 0116 49       		.byte	73
 2916 0117 45       		.byte	69
 2917 0118 3E       		.byte	62
 2918 0119 00       		.byte	0
 2919 011a 42       		.byte	66
 2920 011b 7F       		.byte	127
 2921 011c 40       		.byte	64
 2922 011d 00       		.byte	0
 2923 011e 72       		.byte	114
 2924 011f 49       		.byte	73
 2925 0120 49       		.byte	73
 2926 0121 49       		.byte	73
 2927 0122 46       		.byte	70
 2928 0123 21       		.byte	33
 2929 0124 41       		.byte	65
 2930 0125 49       		.byte	73
 2931 0126 4D       		.byte	77
 2932 0127 33       		.byte	51
 2933 0128 18       		.byte	24
 2934 0129 14       		.byte	20
 2935 012a 12       		.byte	18
 2936 012b 7F       		.byte	127
 2937 012c 10       		.byte	16
 2938 012d 27       		.byte	39
 2939 012e 45       		.byte	69
 2940 012f 45       		.byte	69
ARM GAS  C:\Users\User\AppData\Local\Temp\ccQ45nMh.s 			page 66


 2941 0130 45       		.byte	69
 2942 0131 39       		.byte	57
 2943 0132 3C       		.byte	60
 2944 0133 4A       		.byte	74
 2945 0134 49       		.byte	73
 2946 0135 49       		.byte	73
 2947 0136 31       		.byte	49
 2948 0137 41       		.byte	65
 2949 0138 21       		.byte	33
 2950 0139 11       		.byte	17
 2951 013a 09       		.byte	9
 2952 013b 07       		.byte	7
 2953 013c 36       		.byte	54
 2954 013d 49       		.byte	73
 2955 013e 49       		.byte	73
 2956 013f 49       		.byte	73
 2957 0140 36       		.byte	54
 2958 0141 46       		.byte	70
 2959 0142 49       		.byte	73
 2960 0143 49       		.byte	73
 2961 0144 29       		.byte	41
 2962 0145 1E       		.byte	30
 2963 0146 00       		.byte	0
 2964 0147 00       		.byte	0
 2965 0148 14       		.byte	20
 2966 0149 00       		.byte	0
 2967 014a 00       		.byte	0
 2968 014b 00       		.byte	0
 2969 014c 40       		.byte	64
 2970 014d 34       		.byte	52
 2971 014e 00       		.byte	0
 2972 014f 00       		.byte	0
 2973 0150 00       		.byte	0
 2974 0151 08       		.byte	8
 2975 0152 14       		.byte	20
 2976 0153 22       		.byte	34
 2977 0154 41       		.byte	65
 2978 0155 14       		.byte	20
 2979 0156 14       		.byte	20
 2980 0157 14       		.byte	20
 2981 0158 14       		.byte	20
 2982 0159 14       		.byte	20
 2983 015a 00       		.byte	0
 2984 015b 41       		.byte	65
 2985 015c 22       		.byte	34
 2986 015d 14       		.byte	20
 2987 015e 08       		.byte	8
 2988 015f 02       		.byte	2
 2989 0160 01       		.byte	1
 2990 0161 59       		.byte	89
 2991 0162 09       		.byte	9
 2992 0163 06       		.byte	6
 2993 0164 3E       		.byte	62
 2994 0165 41       		.byte	65
 2995 0166 5D       		.byte	93
 2996 0167 59       		.byte	89
 2997 0168 4E       		.byte	78
ARM GAS  C:\Users\User\AppData\Local\Temp\ccQ45nMh.s 			page 67


 2998 0169 7C       		.byte	124
 2999 016a 12       		.byte	18
 3000 016b 11       		.byte	17
 3001 016c 12       		.byte	18
 3002 016d 7C       		.byte	124
 3003 016e 7F       		.byte	127
 3004 016f 49       		.byte	73
 3005 0170 49       		.byte	73
 3006 0171 49       		.byte	73
 3007 0172 36       		.byte	54
 3008 0173 3E       		.byte	62
 3009 0174 41       		.byte	65
 3010 0175 41       		.byte	65
 3011 0176 41       		.byte	65
 3012 0177 22       		.byte	34
 3013 0178 7F       		.byte	127
 3014 0179 41       		.byte	65
 3015 017a 41       		.byte	65
 3016 017b 41       		.byte	65
 3017 017c 3E       		.byte	62
 3018 017d 7F       		.byte	127
 3019 017e 49       		.byte	73
 3020 017f 49       		.byte	73
 3021 0180 49       		.byte	73
 3022 0181 41       		.byte	65
 3023 0182 7F       		.byte	127
 3024 0183 09       		.byte	9
 3025 0184 09       		.byte	9
 3026 0185 09       		.byte	9
 3027 0186 01       		.byte	1
 3028 0187 3E       		.byte	62
 3029 0188 41       		.byte	65
 3030 0189 41       		.byte	65
 3031 018a 51       		.byte	81
 3032 018b 73       		.byte	115
 3033 018c 7F       		.byte	127
 3034 018d 08       		.byte	8
 3035 018e 08       		.byte	8
 3036 018f 08       		.byte	8
 3037 0190 7F       		.byte	127
 3038 0191 00       		.byte	0
 3039 0192 41       		.byte	65
 3040 0193 7F       		.byte	127
 3041 0194 41       		.byte	65
 3042 0195 00       		.byte	0
 3043 0196 20       		.byte	32
 3044 0197 40       		.byte	64
 3045 0198 41       		.byte	65
 3046 0199 3F       		.byte	63
 3047 019a 01       		.byte	1
 3048 019b 7F       		.byte	127
 3049 019c 08       		.byte	8
 3050 019d 14       		.byte	20
 3051 019e 22       		.byte	34
 3052 019f 41       		.byte	65
 3053 01a0 7F       		.byte	127
 3054 01a1 40       		.byte	64
ARM GAS  C:\Users\User\AppData\Local\Temp\ccQ45nMh.s 			page 68


 3055 01a2 40       		.byte	64
 3056 01a3 40       		.byte	64
 3057 01a4 40       		.byte	64
 3058 01a5 7F       		.byte	127
 3059 01a6 02       		.byte	2
 3060 01a7 1C       		.byte	28
 3061 01a8 02       		.byte	2
 3062 01a9 7F       		.byte	127
 3063 01aa 7F       		.byte	127
 3064 01ab 04       		.byte	4
 3065 01ac 08       		.byte	8
 3066 01ad 10       		.byte	16
 3067 01ae 7F       		.byte	127
 3068 01af 3E       		.byte	62
 3069 01b0 41       		.byte	65
 3070 01b1 41       		.byte	65
 3071 01b2 41       		.byte	65
 3072 01b3 3E       		.byte	62
 3073 01b4 7F       		.byte	127
 3074 01b5 09       		.byte	9
 3075 01b6 09       		.byte	9
 3076 01b7 09       		.byte	9
 3077 01b8 06       		.byte	6
 3078 01b9 3E       		.byte	62
 3079 01ba 41       		.byte	65
 3080 01bb 51       		.byte	81
 3081 01bc 21       		.byte	33
 3082 01bd 5E       		.byte	94
 3083 01be 7F       		.byte	127
 3084 01bf 09       		.byte	9
 3085 01c0 19       		.byte	25
 3086 01c1 29       		.byte	41
 3087 01c2 46       		.byte	70
 3088 01c3 26       		.byte	38
 3089 01c4 49       		.byte	73
 3090 01c5 49       		.byte	73
 3091 01c6 49       		.byte	73
 3092 01c7 32       		.byte	50
 3093 01c8 03       		.byte	3
 3094 01c9 01       		.byte	1
 3095 01ca 7F       		.byte	127
 3096 01cb 01       		.byte	1
 3097 01cc 03       		.byte	3
 3098 01cd 3F       		.byte	63
 3099 01ce 40       		.byte	64
 3100 01cf 40       		.byte	64
 3101 01d0 40       		.byte	64
 3102 01d1 3F       		.byte	63
 3103 01d2 1F       		.byte	31
 3104 01d3 20       		.byte	32
 3105 01d4 40       		.byte	64
 3106 01d5 20       		.byte	32
 3107 01d6 1F       		.byte	31
 3108 01d7 3F       		.byte	63
 3109 01d8 40       		.byte	64
 3110 01d9 38       		.byte	56
 3111 01da 40       		.byte	64
ARM GAS  C:\Users\User\AppData\Local\Temp\ccQ45nMh.s 			page 69


 3112 01db 3F       		.byte	63
 3113 01dc 63       		.byte	99
 3114 01dd 14       		.byte	20
 3115 01de 08       		.byte	8
 3116 01df 14       		.byte	20
 3117 01e0 63       		.byte	99
 3118 01e1 03       		.byte	3
 3119 01e2 04       		.byte	4
 3120 01e3 78       		.byte	120
 3121 01e4 04       		.byte	4
 3122 01e5 03       		.byte	3
 3123 01e6 61       		.byte	97
 3124 01e7 59       		.byte	89
 3125 01e8 49       		.byte	73
 3126 01e9 4D       		.byte	77
 3127 01ea 43       		.byte	67
 3128 01eb 00       		.byte	0
 3129 01ec 7F       		.byte	127
 3130 01ed 41       		.byte	65
 3131 01ee 41       		.byte	65
 3132 01ef 41       		.byte	65
 3133 01f0 02       		.byte	2
 3134 01f1 04       		.byte	4
 3135 01f2 08       		.byte	8
 3136 01f3 10       		.byte	16
 3137 01f4 20       		.byte	32
 3138 01f5 00       		.byte	0
 3139 01f6 41       		.byte	65
 3140 01f7 41       		.byte	65
 3141 01f8 41       		.byte	65
 3142 01f9 7F       		.byte	127
 3143 01fa 04       		.byte	4
 3144 01fb 02       		.byte	2
 3145 01fc 01       		.byte	1
 3146 01fd 02       		.byte	2
 3147 01fe 04       		.byte	4
 3148 01ff 40       		.byte	64
 3149 0200 40       		.byte	64
 3150 0201 40       		.byte	64
 3151 0202 40       		.byte	64
 3152 0203 40       		.byte	64
 3153 0204 00       		.byte	0
 3154 0205 03       		.byte	3
 3155 0206 07       		.byte	7
 3156 0207 08       		.byte	8
 3157 0208 00       		.byte	0
 3158 0209 20       		.byte	32
 3159 020a 54       		.byte	84
 3160 020b 54       		.byte	84
 3161 020c 78       		.byte	120
 3162 020d 40       		.byte	64
 3163 020e 7F       		.byte	127
 3164 020f 28       		.byte	40
 3165 0210 44       		.byte	68
 3166 0211 44       		.byte	68
 3167 0212 38       		.byte	56
 3168 0213 38       		.byte	56
ARM GAS  C:\Users\User\AppData\Local\Temp\ccQ45nMh.s 			page 70


 3169 0214 44       		.byte	68
 3170 0215 44       		.byte	68
 3171 0216 44       		.byte	68
 3172 0217 28       		.byte	40
 3173 0218 38       		.byte	56
 3174 0219 44       		.byte	68
 3175 021a 44       		.byte	68
 3176 021b 28       		.byte	40
 3177 021c 7F       		.byte	127
 3178 021d 38       		.byte	56
 3179 021e 54       		.byte	84
 3180 021f 54       		.byte	84
 3181 0220 54       		.byte	84
 3182 0221 18       		.byte	24
 3183 0222 00       		.byte	0
 3184 0223 08       		.byte	8
 3185 0224 7E       		.byte	126
 3186 0225 09       		.byte	9
 3187 0226 02       		.byte	2
 3188 0227 18       		.byte	24
 3189 0228 A4       		.byte	-92
 3190 0229 A4       		.byte	-92
 3191 022a 9C       		.byte	-100
 3192 022b 78       		.byte	120
 3193 022c 7F       		.byte	127
 3194 022d 08       		.byte	8
 3195 022e 04       		.byte	4
 3196 022f 04       		.byte	4
 3197 0230 78       		.byte	120
 3198 0231 00       		.byte	0
 3199 0232 44       		.byte	68
 3200 0233 7D       		.byte	125
 3201 0234 40       		.byte	64
 3202 0235 00       		.byte	0
 3203 0236 20       		.byte	32
 3204 0237 40       		.byte	64
 3205 0238 40       		.byte	64
 3206 0239 3D       		.byte	61
 3207 023a 00       		.byte	0
 3208 023b 7F       		.byte	127
 3209 023c 10       		.byte	16
 3210 023d 28       		.byte	40
 3211 023e 44       		.byte	68
 3212 023f 00       		.byte	0
 3213 0240 00       		.byte	0
 3214 0241 41       		.byte	65
 3215 0242 7F       		.byte	127
 3216 0243 40       		.byte	64
 3217 0244 00       		.byte	0
 3218 0245 7C       		.byte	124
 3219 0246 04       		.byte	4
 3220 0247 78       		.byte	120
 3221 0248 04       		.byte	4
 3222 0249 78       		.byte	120
 3223 024a 7C       		.byte	124
 3224 024b 08       		.byte	8
 3225 024c 04       		.byte	4
ARM GAS  C:\Users\User\AppData\Local\Temp\ccQ45nMh.s 			page 71


 3226 024d 04       		.byte	4
 3227 024e 78       		.byte	120
 3228 024f 38       		.byte	56
 3229 0250 44       		.byte	68
 3230 0251 44       		.byte	68
 3231 0252 44       		.byte	68
 3232 0253 38       		.byte	56
 3233 0254 FC       		.byte	-4
 3234 0255 18       		.byte	24
 3235 0256 24       		.byte	36
 3236 0257 24       		.byte	36
 3237 0258 18       		.byte	24
 3238 0259 18       		.byte	24
 3239 025a 24       		.byte	36
 3240 025b 24       		.byte	36
 3241 025c 18       		.byte	24
 3242 025d FC       		.byte	-4
 3243 025e 7C       		.byte	124
 3244 025f 08       		.byte	8
 3245 0260 04       		.byte	4
 3246 0261 04       		.byte	4
 3247 0262 08       		.byte	8
 3248 0263 48       		.byte	72
 3249 0264 54       		.byte	84
 3250 0265 54       		.byte	84
 3251 0266 54       		.byte	84
 3252 0267 24       		.byte	36
 3253 0268 04       		.byte	4
 3254 0269 04       		.byte	4
 3255 026a 3F       		.byte	63
 3256 026b 44       		.byte	68
 3257 026c 24       		.byte	36
 3258 026d 3C       		.byte	60
 3259 026e 40       		.byte	64
 3260 026f 40       		.byte	64
 3261 0270 20       		.byte	32
 3262 0271 7C       		.byte	124
 3263 0272 1C       		.byte	28
 3264 0273 20       		.byte	32
 3265 0274 40       		.byte	64
 3266 0275 20       		.byte	32
 3267 0276 1C       		.byte	28
 3268 0277 3C       		.byte	60
 3269 0278 40       		.byte	64
 3270 0279 30       		.byte	48
 3271 027a 40       		.byte	64
 3272 027b 3C       		.byte	60
 3273 027c 44       		.byte	68
 3274 027d 28       		.byte	40
 3275 027e 10       		.byte	16
 3276 027f 28       		.byte	40
 3277 0280 44       		.byte	68
 3278 0281 4C       		.byte	76
 3279 0282 90       		.byte	-112
 3280 0283 90       		.byte	-112
 3281 0284 90       		.byte	-112
 3282 0285 7C       		.byte	124
ARM GAS  C:\Users\User\AppData\Local\Temp\ccQ45nMh.s 			page 72


 3283 0286 44       		.byte	68
 3284 0287 64       		.byte	100
 3285 0288 54       		.byte	84
 3286 0289 4C       		.byte	76
 3287 028a 44       		.byte	68
 3288 028b 00       		.byte	0
 3289 028c 08       		.byte	8
 3290 028d 36       		.byte	54
 3291 028e 41       		.byte	65
 3292 028f 00       		.byte	0
 3293 0290 00       		.byte	0
 3294 0291 00       		.byte	0
 3295 0292 77       		.byte	119
 3296 0293 00       		.byte	0
 3297 0294 00       		.byte	0
 3298 0295 00       		.byte	0
 3299 0296 41       		.byte	65
 3300 0297 36       		.byte	54
 3301 0298 08       		.byte	8
 3302 0299 00       		.byte	0
 3303 029a 02       		.byte	2
 3304 029b 01       		.byte	1
 3305 029c 02       		.byte	2
 3306 029d 04       		.byte	4
 3307 029e 02       		.byte	2
 3308 029f 3C       		.byte	60
 3309 02a0 26       		.byte	38
 3310 02a1 23       		.byte	35
 3311 02a2 26       		.byte	38
 3312 02a3 3C       		.byte	60
 3313 02a4 1E       		.byte	30
 3314 02a5 A1       		.byte	-95
 3315 02a6 A1       		.byte	-95
 3316 02a7 61       		.byte	97
 3317 02a8 12       		.byte	18
 3318 02a9 3A       		.byte	58
 3319 02aa 40       		.byte	64
 3320 02ab 40       		.byte	64
 3321 02ac 20       		.byte	32
 3322 02ad 7A       		.byte	122
 3323 02ae 38       		.byte	56
 3324 02af 54       		.byte	84
 3325 02b0 54       		.byte	84
 3326 02b1 55       		.byte	85
 3327 02b2 59       		.byte	89
 3328 02b3 21       		.byte	33
 3329 02b4 55       		.byte	85
 3330 02b5 55       		.byte	85
 3331 02b6 79       		.byte	121
 3332 02b7 41       		.byte	65
 3333 02b8 22       		.byte	34
 3334 02b9 54       		.byte	84
 3335 02ba 54       		.byte	84
 3336 02bb 78       		.byte	120
 3337 02bc 42       		.byte	66
 3338 02bd 21       		.byte	33
 3339 02be 55       		.byte	85
ARM GAS  C:\Users\User\AppData\Local\Temp\ccQ45nMh.s 			page 73


 3340 02bf 54       		.byte	84
 3341 02c0 78       		.byte	120
 3342 02c1 40       		.byte	64
 3343 02c2 20       		.byte	32
 3344 02c3 54       		.byte	84
 3345 02c4 55       		.byte	85
 3346 02c5 79       		.byte	121
 3347 02c6 40       		.byte	64
 3348 02c7 0C       		.byte	12
 3349 02c8 1E       		.byte	30
 3350 02c9 52       		.byte	82
 3351 02ca 72       		.byte	114
 3352 02cb 12       		.byte	18
 3353 02cc 39       		.byte	57
 3354 02cd 55       		.byte	85
 3355 02ce 55       		.byte	85
 3356 02cf 55       		.byte	85
 3357 02d0 59       		.byte	89
 3358 02d1 39       		.byte	57
 3359 02d2 54       		.byte	84
 3360 02d3 54       		.byte	84
 3361 02d4 54       		.byte	84
 3362 02d5 59       		.byte	89
 3363 02d6 39       		.byte	57
 3364 02d7 55       		.byte	85
 3365 02d8 54       		.byte	84
 3366 02d9 54       		.byte	84
 3367 02da 58       		.byte	88
 3368 02db 00       		.byte	0
 3369 02dc 00       		.byte	0
 3370 02dd 45       		.byte	69
 3371 02de 7C       		.byte	124
 3372 02df 41       		.byte	65
 3373 02e0 00       		.byte	0
 3374 02e1 02       		.byte	2
 3375 02e2 45       		.byte	69
 3376 02e3 7D       		.byte	125
 3377 02e4 42       		.byte	66
 3378 02e5 00       		.byte	0
 3379 02e6 01       		.byte	1
 3380 02e7 45       		.byte	69
 3381 02e8 7C       		.byte	124
 3382 02e9 40       		.byte	64
 3383 02ea 7D       		.byte	125
 3384 02eb 12       		.byte	18
 3385 02ec 11       		.byte	17
 3386 02ed 12       		.byte	18
 3387 02ee 7D       		.byte	125
 3388 02ef F0       		.byte	-16
 3389 02f0 28       		.byte	40
 3390 02f1 25       		.byte	37
 3391 02f2 28       		.byte	40
 3392 02f3 F0       		.byte	-16
 3393 02f4 7C       		.byte	124
 3394 02f5 54       		.byte	84
 3395 02f6 55       		.byte	85
 3396 02f7 45       		.byte	69
ARM GAS  C:\Users\User\AppData\Local\Temp\ccQ45nMh.s 			page 74


 3397 02f8 00       		.byte	0
 3398 02f9 20       		.byte	32
 3399 02fa 54       		.byte	84
 3400 02fb 54       		.byte	84
 3401 02fc 7C       		.byte	124
 3402 02fd 54       		.byte	84
 3403 02fe 7C       		.byte	124
 3404 02ff 0A       		.byte	10
 3405 0300 09       		.byte	9
 3406 0301 7F       		.byte	127
 3407 0302 49       		.byte	73
 3408 0303 32       		.byte	50
 3409 0304 49       		.byte	73
 3410 0305 49       		.byte	73
 3411 0306 49       		.byte	73
 3412 0307 32       		.byte	50
 3413 0308 3A       		.byte	58
 3414 0309 44       		.byte	68
 3415 030a 44       		.byte	68
 3416 030b 44       		.byte	68
 3417 030c 3A       		.byte	58
 3418 030d 32       		.byte	50
 3419 030e 4A       		.byte	74
 3420 030f 48       		.byte	72
 3421 0310 48       		.byte	72
 3422 0311 30       		.byte	48
 3423 0312 3A       		.byte	58
 3424 0313 41       		.byte	65
 3425 0314 41       		.byte	65
 3426 0315 21       		.byte	33
 3427 0316 7A       		.byte	122
 3428 0317 3A       		.byte	58
 3429 0318 42       		.byte	66
 3430 0319 40       		.byte	64
 3431 031a 20       		.byte	32
 3432 031b 78       		.byte	120
 3433 031c 00       		.byte	0
 3434 031d 9D       		.byte	-99
 3435 031e A0       		.byte	-96
 3436 031f A0       		.byte	-96
 3437 0320 7D       		.byte	125
 3438 0321 3D       		.byte	61
 3439 0322 42       		.byte	66
 3440 0323 42       		.byte	66
 3441 0324 42       		.byte	66
 3442 0325 3D       		.byte	61
 3443 0326 3D       		.byte	61
 3444 0327 40       		.byte	64
 3445 0328 40       		.byte	64
 3446 0329 40       		.byte	64
 3447 032a 3D       		.byte	61
 3448 032b 3C       		.byte	60
 3449 032c 24       		.byte	36
 3450 032d FF       		.byte	-1
 3451 032e 24       		.byte	36
 3452 032f 24       		.byte	36
 3453 0330 48       		.byte	72
ARM GAS  C:\Users\User\AppData\Local\Temp\ccQ45nMh.s 			page 75


 3454 0331 7E       		.byte	126
 3455 0332 49       		.byte	73
 3456 0333 43       		.byte	67
 3457 0334 66       		.byte	102
 3458 0335 2B       		.byte	43
 3459 0336 2F       		.byte	47
 3460 0337 FC       		.byte	-4
 3461 0338 2F       		.byte	47
 3462 0339 2B       		.byte	43
 3463 033a FF       		.byte	-1
 3464 033b 09       		.byte	9
 3465 033c 29       		.byte	41
 3466 033d F6       		.byte	-10
 3467 033e 20       		.byte	32
 3468 033f C0       		.byte	-64
 3469 0340 88       		.byte	-120
 3470 0341 7E       		.byte	126
 3471 0342 09       		.byte	9
 3472 0343 03       		.byte	3
 3473 0344 20       		.byte	32
 3474 0345 54       		.byte	84
 3475 0346 54       		.byte	84
 3476 0347 79       		.byte	121
 3477 0348 41       		.byte	65
 3478 0349 00       		.byte	0
 3479 034a 00       		.byte	0
 3480 034b 44       		.byte	68
 3481 034c 7D       		.byte	125
 3482 034d 41       		.byte	65
 3483 034e 30       		.byte	48
 3484 034f 48       		.byte	72
 3485 0350 48       		.byte	72
 3486 0351 4A       		.byte	74
 3487 0352 32       		.byte	50
 3488 0353 38       		.byte	56
 3489 0354 40       		.byte	64
 3490 0355 40       		.byte	64
 3491 0356 22       		.byte	34
 3492 0357 7A       		.byte	122
 3493 0358 00       		.byte	0
 3494 0359 7A       		.byte	122
 3495 035a 0A       		.byte	10
 3496 035b 0A       		.byte	10
 3497 035c 72       		.byte	114
 3498 035d 7D       		.byte	125
 3499 035e 0D       		.byte	13
 3500 035f 19       		.byte	25
 3501 0360 31       		.byte	49
 3502 0361 7D       		.byte	125
 3503 0362 26       		.byte	38
 3504 0363 29       		.byte	41
 3505 0364 29       		.byte	41
 3506 0365 2F       		.byte	47
 3507 0366 28       		.byte	40
 3508 0367 26       		.byte	38
 3509 0368 29       		.byte	41
 3510 0369 29       		.byte	41
ARM GAS  C:\Users\User\AppData\Local\Temp\ccQ45nMh.s 			page 76


 3511 036a 29       		.byte	41
 3512 036b 26       		.byte	38
 3513 036c 30       		.byte	48
 3514 036d 48       		.byte	72
 3515 036e 4D       		.byte	77
 3516 036f 40       		.byte	64
 3517 0370 20       		.byte	32
 3518 0371 38       		.byte	56
 3519 0372 08       		.byte	8
 3520 0373 08       		.byte	8
 3521 0374 08       		.byte	8
 3522 0375 08       		.byte	8
 3523 0376 08       		.byte	8
 3524 0377 08       		.byte	8
 3525 0378 08       		.byte	8
 3526 0379 08       		.byte	8
 3527 037a 38       		.byte	56
 3528 037b 2F       		.byte	47
 3529 037c 10       		.byte	16
 3530 037d C8       		.byte	-56
 3531 037e AC       		.byte	-84
 3532 037f BA       		.byte	-70
 3533 0380 2F       		.byte	47
 3534 0381 10       		.byte	16
 3535 0382 28       		.byte	40
 3536 0383 34       		.byte	52
 3537 0384 FA       		.byte	-6
 3538 0385 00       		.byte	0
 3539 0386 00       		.byte	0
 3540 0387 7B       		.byte	123
 3541 0388 00       		.byte	0
 3542 0389 00       		.byte	0
 3543 038a 08       		.byte	8
 3544 038b 14       		.byte	20
 3545 038c 2A       		.byte	42
 3546 038d 14       		.byte	20
 3547 038e 22       		.byte	34
 3548 038f 22       		.byte	34
 3549 0390 14       		.byte	20
 3550 0391 2A       		.byte	42
 3551 0392 14       		.byte	20
 3552 0393 08       		.byte	8
 3553 0394 AA       		.byte	-86
 3554 0395 00       		.byte	0
 3555 0396 55       		.byte	85
 3556 0397 00       		.byte	0
 3557 0398 AA       		.byte	-86
 3558 0399 AA       		.byte	-86
 3559 039a 55       		.byte	85
 3560 039b AA       		.byte	-86
 3561 039c 55       		.byte	85
 3562 039d AA       		.byte	-86
 3563 039e 00       		.byte	0
 3564 039f 00       		.byte	0
 3565 03a0 00       		.byte	0
 3566 03a1 FF       		.byte	-1
 3567 03a2 00       		.byte	0
ARM GAS  C:\Users\User\AppData\Local\Temp\ccQ45nMh.s 			page 77


 3568 03a3 10       		.byte	16
 3569 03a4 10       		.byte	16
 3570 03a5 10       		.byte	16
 3571 03a6 FF       		.byte	-1
 3572 03a7 00       		.byte	0
 3573 03a8 14       		.byte	20
 3574 03a9 14       		.byte	20
 3575 03aa 14       		.byte	20
 3576 03ab FF       		.byte	-1
 3577 03ac 00       		.byte	0
 3578 03ad 10       		.byte	16
 3579 03ae 10       		.byte	16
 3580 03af FF       		.byte	-1
 3581 03b0 00       		.byte	0
 3582 03b1 FF       		.byte	-1
 3583 03b2 10       		.byte	16
 3584 03b3 10       		.byte	16
 3585 03b4 F0       		.byte	-16
 3586 03b5 10       		.byte	16
 3587 03b6 F0       		.byte	-16
 3588 03b7 14       		.byte	20
 3589 03b8 14       		.byte	20
 3590 03b9 14       		.byte	20
 3591 03ba FC       		.byte	-4
 3592 03bb 00       		.byte	0
 3593 03bc 14       		.byte	20
 3594 03bd 14       		.byte	20
 3595 03be F7       		.byte	-9
 3596 03bf 00       		.byte	0
 3597 03c0 FF       		.byte	-1
 3598 03c1 00       		.byte	0
 3599 03c2 00       		.byte	0
 3600 03c3 FF       		.byte	-1
 3601 03c4 00       		.byte	0
 3602 03c5 FF       		.byte	-1
 3603 03c6 14       		.byte	20
 3604 03c7 14       		.byte	20
 3605 03c8 F4       		.byte	-12
 3606 03c9 04       		.byte	4
 3607 03ca FC       		.byte	-4
 3608 03cb 14       		.byte	20
 3609 03cc 14       		.byte	20
 3610 03cd 17       		.byte	23
 3611 03ce 10       		.byte	16
 3612 03cf 1F       		.byte	31
 3613 03d0 10       		.byte	16
 3614 03d1 10       		.byte	16
 3615 03d2 1F       		.byte	31
 3616 03d3 10       		.byte	16
 3617 03d4 1F       		.byte	31
 3618 03d5 14       		.byte	20
 3619 03d6 14       		.byte	20
 3620 03d7 14       		.byte	20
 3621 03d8 1F       		.byte	31
 3622 03d9 00       		.byte	0
 3623 03da 10       		.byte	16
 3624 03db 10       		.byte	16
ARM GAS  C:\Users\User\AppData\Local\Temp\ccQ45nMh.s 			page 78


 3625 03dc 10       		.byte	16
 3626 03dd F0       		.byte	-16
 3627 03de 00       		.byte	0
 3628 03df 00       		.byte	0
 3629 03e0 00       		.byte	0
 3630 03e1 00       		.byte	0
 3631 03e2 1F       		.byte	31
 3632 03e3 10       		.byte	16
 3633 03e4 10       		.byte	16
 3634 03e5 10       		.byte	16
 3635 03e6 10       		.byte	16
 3636 03e7 1F       		.byte	31
 3637 03e8 10       		.byte	16
 3638 03e9 10       		.byte	16
 3639 03ea 10       		.byte	16
 3640 03eb 10       		.byte	16
 3641 03ec F0       		.byte	-16
 3642 03ed 10       		.byte	16
 3643 03ee 00       		.byte	0
 3644 03ef 00       		.byte	0
 3645 03f0 00       		.byte	0
 3646 03f1 FF       		.byte	-1
 3647 03f2 10       		.byte	16
 3648 03f3 10       		.byte	16
 3649 03f4 10       		.byte	16
 3650 03f5 10       		.byte	16
 3651 03f6 10       		.byte	16
 3652 03f7 10       		.byte	16
 3653 03f8 10       		.byte	16
 3654 03f9 10       		.byte	16
 3655 03fa 10       		.byte	16
 3656 03fb FF       		.byte	-1
 3657 03fc 10       		.byte	16
 3658 03fd 00       		.byte	0
 3659 03fe 00       		.byte	0
 3660 03ff 00       		.byte	0
 3661 0400 FF       		.byte	-1
 3662 0401 14       		.byte	20
 3663 0402 00       		.byte	0
 3664 0403 00       		.byte	0
 3665 0404 FF       		.byte	-1
 3666 0405 00       		.byte	0
 3667 0406 FF       		.byte	-1
 3668 0407 00       		.byte	0
 3669 0408 00       		.byte	0
 3670 0409 1F       		.byte	31
 3671 040a 10       		.byte	16
 3672 040b 17       		.byte	23
 3673 040c 00       		.byte	0
 3674 040d 00       		.byte	0
 3675 040e FC       		.byte	-4
 3676 040f 04       		.byte	4
 3677 0410 F4       		.byte	-12
 3678 0411 14       		.byte	20
 3679 0412 14       		.byte	20
 3680 0413 17       		.byte	23
 3681 0414 10       		.byte	16
ARM GAS  C:\Users\User\AppData\Local\Temp\ccQ45nMh.s 			page 79


 3682 0415 17       		.byte	23
 3683 0416 14       		.byte	20
 3684 0417 14       		.byte	20
 3685 0418 F4       		.byte	-12
 3686 0419 04       		.byte	4
 3687 041a F4       		.byte	-12
 3688 041b 00       		.byte	0
 3689 041c 00       		.byte	0
 3690 041d FF       		.byte	-1
 3691 041e 00       		.byte	0
 3692 041f F7       		.byte	-9
 3693 0420 14       		.byte	20
 3694 0421 14       		.byte	20
 3695 0422 14       		.byte	20
 3696 0423 14       		.byte	20
 3697 0424 14       		.byte	20
 3698 0425 14       		.byte	20
 3699 0426 14       		.byte	20
 3700 0427 F7       		.byte	-9
 3701 0428 00       		.byte	0
 3702 0429 F7       		.byte	-9
 3703 042a 14       		.byte	20
 3704 042b 14       		.byte	20
 3705 042c 14       		.byte	20
 3706 042d 17       		.byte	23
 3707 042e 14       		.byte	20
 3708 042f 10       		.byte	16
 3709 0430 10       		.byte	16
 3710 0431 1F       		.byte	31
 3711 0432 10       		.byte	16
 3712 0433 1F       		.byte	31
 3713 0434 14       		.byte	20
 3714 0435 14       		.byte	20
 3715 0436 14       		.byte	20
 3716 0437 F4       		.byte	-12
 3717 0438 14       		.byte	20
 3718 0439 10       		.byte	16
 3719 043a 10       		.byte	16
 3720 043b F0       		.byte	-16
 3721 043c 10       		.byte	16
 3722 043d F0       		.byte	-16
 3723 043e 00       		.byte	0
 3724 043f 00       		.byte	0
 3725 0440 1F       		.byte	31
 3726 0441 10       		.byte	16
 3727 0442 1F       		.byte	31
 3728 0443 00       		.byte	0
 3729 0444 00       		.byte	0
 3730 0445 00       		.byte	0
 3731 0446 1F       		.byte	31
 3732 0447 14       		.byte	20
 3733 0448 00       		.byte	0
 3734 0449 00       		.byte	0
 3735 044a 00       		.byte	0
 3736 044b FC       		.byte	-4
 3737 044c 14       		.byte	20
 3738 044d 00       		.byte	0
ARM GAS  C:\Users\User\AppData\Local\Temp\ccQ45nMh.s 			page 80


 3739 044e 00       		.byte	0
 3740 044f F0       		.byte	-16
 3741 0450 10       		.byte	16
 3742 0451 F0       		.byte	-16
 3743 0452 10       		.byte	16
 3744 0453 10       		.byte	16
 3745 0454 FF       		.byte	-1
 3746 0455 10       		.byte	16
 3747 0456 FF       		.byte	-1
 3748 0457 14       		.byte	20
 3749 0458 14       		.byte	20
 3750 0459 14       		.byte	20
 3751 045a FF       		.byte	-1
 3752 045b 14       		.byte	20
 3753 045c 10       		.byte	16
 3754 045d 10       		.byte	16
 3755 045e 10       		.byte	16
 3756 045f 1F       		.byte	31
 3757 0460 00       		.byte	0
 3758 0461 00       		.byte	0
 3759 0462 00       		.byte	0
 3760 0463 00       		.byte	0
 3761 0464 F0       		.byte	-16
 3762 0465 10       		.byte	16
 3763 0466 FF       		.byte	-1
 3764 0467 FF       		.byte	-1
 3765 0468 FF       		.byte	-1
 3766 0469 FF       		.byte	-1
 3767 046a FF       		.byte	-1
 3768 046b F0       		.byte	-16
 3769 046c F0       		.byte	-16
 3770 046d F0       		.byte	-16
 3771 046e F0       		.byte	-16
 3772 046f F0       		.byte	-16
 3773 0470 FF       		.byte	-1
 3774 0471 FF       		.byte	-1
 3775 0472 FF       		.byte	-1
 3776 0473 00       		.byte	0
 3777 0474 00       		.byte	0
 3778 0475 00       		.byte	0
 3779 0476 00       		.byte	0
 3780 0477 00       		.byte	0
 3781 0478 FF       		.byte	-1
 3782 0479 FF       		.byte	-1
 3783 047a 0F       		.byte	15
 3784 047b 0F       		.byte	15
 3785 047c 0F       		.byte	15
 3786 047d 0F       		.byte	15
 3787 047e 0F       		.byte	15
 3788 047f 38       		.byte	56
 3789 0480 44       		.byte	68
 3790 0481 44       		.byte	68
 3791 0482 38       		.byte	56
 3792 0483 44       		.byte	68
 3793 0484 FC       		.byte	-4
 3794 0485 4A       		.byte	74
 3795 0486 4A       		.byte	74
ARM GAS  C:\Users\User\AppData\Local\Temp\ccQ45nMh.s 			page 81


 3796 0487 4A       		.byte	74
 3797 0488 34       		.byte	52
 3798 0489 7E       		.byte	126
 3799 048a 02       		.byte	2
 3800 048b 02       		.byte	2
 3801 048c 06       		.byte	6
 3802 048d 06       		.byte	6
 3803 048e 02       		.byte	2
 3804 048f 7E       		.byte	126
 3805 0490 02       		.byte	2
 3806 0491 7E       		.byte	126
 3807 0492 02       		.byte	2
 3808 0493 63       		.byte	99
 3809 0494 55       		.byte	85
 3810 0495 49       		.byte	73
 3811 0496 41       		.byte	65
 3812 0497 63       		.byte	99
 3813 0498 38       		.byte	56
 3814 0499 44       		.byte	68
 3815 049a 44       		.byte	68
 3816 049b 3C       		.byte	60
 3817 049c 04       		.byte	4
 3818 049d 40       		.byte	64
 3819 049e 7E       		.byte	126
 3820 049f 20       		.byte	32
 3821 04a0 1E       		.byte	30
 3822 04a1 20       		.byte	32
 3823 04a2 06       		.byte	6
 3824 04a3 02       		.byte	2
 3825 04a4 7E       		.byte	126
 3826 04a5 02       		.byte	2
 3827 04a6 02       		.byte	2
 3828 04a7 99       		.byte	-103
 3829 04a8 A5       		.byte	-91
 3830 04a9 E7       		.byte	-25
 3831 04aa A5       		.byte	-91
 3832 04ab 99       		.byte	-103
 3833 04ac 1C       		.byte	28
 3834 04ad 2A       		.byte	42
 3835 04ae 49       		.byte	73
 3836 04af 2A       		.byte	42
 3837 04b0 1C       		.byte	28
 3838 04b1 4C       		.byte	76
 3839 04b2 72       		.byte	114
 3840 04b3 01       		.byte	1
 3841 04b4 72       		.byte	114
 3842 04b5 4C       		.byte	76
 3843 04b6 30       		.byte	48
 3844 04b7 4A       		.byte	74
 3845 04b8 4D       		.byte	77
 3846 04b9 4D       		.byte	77
 3847 04ba 30       		.byte	48
 3848 04bb 30       		.byte	48
 3849 04bc 48       		.byte	72
 3850 04bd 78       		.byte	120
 3851 04be 48       		.byte	72
 3852 04bf 30       		.byte	48
ARM GAS  C:\Users\User\AppData\Local\Temp\ccQ45nMh.s 			page 82


 3853 04c0 BC       		.byte	-68
 3854 04c1 62       		.byte	98
 3855 04c2 5A       		.byte	90
 3856 04c3 46       		.byte	70
 3857 04c4 3D       		.byte	61
 3858 04c5 3E       		.byte	62
 3859 04c6 49       		.byte	73
 3860 04c7 49       		.byte	73
 3861 04c8 49       		.byte	73
 3862 04c9 00       		.byte	0
 3863 04ca 7E       		.byte	126
 3864 04cb 01       		.byte	1
 3865 04cc 01       		.byte	1
 3866 04cd 01       		.byte	1
 3867 04ce 7E       		.byte	126
 3868 04cf 2A       		.byte	42
 3869 04d0 2A       		.byte	42
 3870 04d1 2A       		.byte	42
 3871 04d2 2A       		.byte	42
 3872 04d3 2A       		.byte	42
 3873 04d4 44       		.byte	68
 3874 04d5 44       		.byte	68
 3875 04d6 5F       		.byte	95
 3876 04d7 44       		.byte	68
 3877 04d8 44       		.byte	68
 3878 04d9 40       		.byte	64
 3879 04da 51       		.byte	81
 3880 04db 4A       		.byte	74
 3881 04dc 44       		.byte	68
 3882 04dd 40       		.byte	64
 3883 04de 40       		.byte	64
 3884 04df 44       		.byte	68
 3885 04e0 4A       		.byte	74
 3886 04e1 51       		.byte	81
 3887 04e2 40       		.byte	64
 3888 04e3 00       		.byte	0
 3889 04e4 00       		.byte	0
 3890 04e5 FF       		.byte	-1
 3891 04e6 01       		.byte	1
 3892 04e7 03       		.byte	3
 3893 04e8 E0       		.byte	-32
 3894 04e9 80       		.byte	-128
 3895 04ea FF       		.byte	-1
 3896 04eb 00       		.byte	0
 3897 04ec 00       		.byte	0
 3898 04ed 08       		.byte	8
 3899 04ee 08       		.byte	8
 3900 04ef 6B       		.byte	107
 3901 04f0 6B       		.byte	107
 3902 04f1 08       		.byte	8
 3903 04f2 36       		.byte	54
 3904 04f3 12       		.byte	18
 3905 04f4 36       		.byte	54
 3906 04f5 24       		.byte	36
 3907 04f6 36       		.byte	54
 3908 04f7 06       		.byte	6
 3909 04f8 0F       		.byte	15
ARM GAS  C:\Users\User\AppData\Local\Temp\ccQ45nMh.s 			page 83


 3910 04f9 09       		.byte	9
 3911 04fa 0F       		.byte	15
 3912 04fb 06       		.byte	6
 3913 04fc 00       		.byte	0
 3914 04fd 00       		.byte	0
 3915 04fe 18       		.byte	24
 3916 04ff 18       		.byte	24
 3917 0500 00       		.byte	0
 3918 0501 00       		.byte	0
 3919 0502 00       		.byte	0
 3920 0503 10       		.byte	16
 3921 0504 10       		.byte	16
 3922 0505 00       		.byte	0
 3923 0506 30       		.byte	48
 3924 0507 40       		.byte	64
 3925 0508 FF       		.byte	-1
 3926 0509 01       		.byte	1
 3927 050a 01       		.byte	1
 3928 050b 00       		.byte	0
 3929 050c 1F       		.byte	31
 3930 050d 01       		.byte	1
 3931 050e 01       		.byte	1
 3932 050f 1E       		.byte	30
 3933 0510 00       		.byte	0
 3934 0511 19       		.byte	25
 3935 0512 1D       		.byte	29
 3936 0513 17       		.byte	23
 3937 0514 12       		.byte	18
 3938 0515 00       		.byte	0
 3939 0516 3C       		.byte	60
 3940 0517 3C       		.byte	60
 3941 0518 3C       		.byte	60
 3942 0519 3C       		.byte	60
 3943 051a 00       		.byte	0
 3944 051b 00       		.byte	0
 3945 051c 00       		.byte	0
 3946 051d 00       		.byte	0
 3947 051e 00       		.byte	0
 3948 051f 00       		.data
 3949              		.align	2
 3950              		.set	.LANCHOR0,. + 0
 3951              		.type	SSD1306_buffer, %object
 3952              		.size	SSD1306_buffer, 1025
 3953              	SSD1306_buffer:
 3954 0000 40       		.byte	64
 3955 0001 00000000 		.space	1024
 3955      00000000 
 3955      00000000 
 3955      00000000 
 3955      00000000 
 3956 0401 000000   		.bss
 3957              		.align	1
 3958              		.set	.LANCHOR1,. + 0
 3959              		.type	_i2caddr, %object
 3960              		.size	_i2caddr, 1
 3961              	_i2caddr:
 3962 0000 00       		.space	1
ARM GAS  C:\Users\User\AppData\Local\Temp\ccQ45nMh.s 			page 84


 3963 0001 00       		.space	1
 3964              		.type	_width, %object
 3965              		.size	_width, 2
 3966              	_width:
 3967 0002 0000     		.space	2
 3968              		.type	_height, %object
 3969              		.size	_height, 2
 3970              	_height:
 3971 0004 0000     		.space	2
 3972              		.type	cursor_x, %object
 3973              		.size	cursor_x, 2
 3974              	cursor_x:
 3975 0006 0000     		.space	2
 3976              		.type	cursor_y, %object
 3977              		.size	cursor_y, 2
 3978              	cursor_y:
 3979 0008 0000     		.space	2
 3980              		.type	textsize, %object
 3981              		.size	textsize, 1
 3982              	textsize:
 3983 000a 00       		.space	1
 3984 000b 00       		.space	1
 3985              		.type	textbgcolor, %object
 3986              		.size	textbgcolor, 2
 3987              	textbgcolor:
 3988 000c 0000     		.space	2
 3989              		.type	textcolor, %object
 3990              		.size	textcolor, 2
 3991              	textcolor:
 3992 000e 0000     		.space	2
 3993              		.text
 3994              	.Letext0:
 3995              		.file 2 "d:\\cypress\\psoc creator\\3.3\\psoc creator\\import\\gnu\\arm\\4.9.3\\arm-none-eabi\\inc
 3996              		.file 3 "d:\\cypress\\psoc creator\\3.3\\psoc creator\\import\\gnu\\arm\\4.9.3\\arm-none-eabi\\inc
 3997              		.file 4 "Generated_Source\\PSoC4/cytypes.h"
 3998              		.file 5 "d:\\cypress\\psoc creator\\3.3\\psoc creator\\import\\gnu\\arm\\4.9.3\\lib\\gcc\\arm-none
 3999              		.file 6 ".\\ssd1306.h"
 4000              		.file 7 ".\\font.h"
 4001              		.file 8 "Generated_Source\\PSoC4/I2COLED_I2C.h"
 4002              		.file 9 "d:\\cypress\\psoc creator\\3.3\\psoc creator\\import\\gnu\\arm\\4.9.3\\arm-none-eabi\\inc
 4003              		.section	.debug_info,"",%progbits
 4004              	.Ldebug_info0:
 4005 0000 F4130000 		.4byte	0x13f4
 4006 0004 0400     		.2byte	0x4
 4007 0006 00000000 		.4byte	.Ldebug_abbrev0
 4008 000a 04       		.byte	0x4
 4009 000b 01       		.uleb128 0x1
 4010 000c 32040000 		.4byte	.LASF121
 4011 0010 01       		.byte	0x1
 4012 0011 F4010000 		.4byte	.LASF122
 4013 0015 8B010000 		.4byte	.LASF123
 4014 0019 00000000 		.4byte	.Ldebug_ranges0+0
 4015 001d 00000000 		.4byte	0
 4016 0021 00000000 		.4byte	.Ldebug_line0
 4017 0025 02       		.uleb128 0x2
 4018 0026 C2030000 		.4byte	.LASF0
 4019 002a 02       		.byte	0x2
ARM GAS  C:\Users\User\AppData\Local\Temp\ccQ45nMh.s 			page 85


 4020 002b 1B       		.byte	0x1b
 4021 002c 30000000 		.4byte	0x30
 4022 0030 03       		.uleb128 0x3
 4023 0031 01       		.byte	0x1
 4024 0032 06       		.byte	0x6
 4025 0033 A5050000 		.4byte	.LASF2
 4026 0037 02       		.uleb128 0x2
 4027 0038 D0040000 		.4byte	.LASF1
 4028 003c 02       		.byte	0x2
 4029 003d 1D       		.byte	0x1d
 4030 003e 42000000 		.4byte	0x42
 4031 0042 03       		.uleb128 0x3
 4032 0043 01       		.byte	0x1
 4033 0044 08       		.byte	0x8
 4034 0045 48050000 		.4byte	.LASF3
 4035 0049 02       		.uleb128 0x2
 4036 004a 54030000 		.4byte	.LASF4
 4037 004e 02       		.byte	0x2
 4038 004f 29       		.byte	0x29
 4039 0050 54000000 		.4byte	0x54
 4040 0054 03       		.uleb128 0x3
 4041 0055 02       		.byte	0x2
 4042 0056 05       		.byte	0x5
 4043 0057 EC030000 		.4byte	.LASF5
 4044 005b 02       		.uleb128 0x2
 4045 005c 80010000 		.4byte	.LASF6
 4046 0060 02       		.byte	0x2
 4047 0061 2B       		.byte	0x2b
 4048 0062 66000000 		.4byte	0x66
 4049 0066 03       		.uleb128 0x3
 4050 0067 02       		.byte	0x2
 4051 0068 07       		.byte	0x7
 4052 0069 B1050000 		.4byte	.LASF7
 4053 006d 03       		.uleb128 0x3
 4054 006e 04       		.byte	0x4
 4055 006f 05       		.byte	0x5
 4056 0070 FE030000 		.4byte	.LASF8
 4057 0074 03       		.uleb128 0x3
 4058 0075 04       		.byte	0x4
 4059 0076 07       		.byte	0x7
 4060 0077 0A050000 		.4byte	.LASF9
 4061 007b 03       		.uleb128 0x3
 4062 007c 08       		.byte	0x8
 4063 007d 05       		.byte	0x5
 4064 007e 1A030000 		.4byte	.LASF10
 4065 0082 03       		.uleb128 0x3
 4066 0083 08       		.byte	0x8
 4067 0084 07       		.byte	0x7
 4068 0085 69010000 		.4byte	.LASF11
 4069 0089 04       		.uleb128 0x4
 4070 008a 04       		.byte	0x4
 4071 008b 05       		.byte	0x5
 4072 008c 696E7400 		.ascii	"int\000"
 4073 0090 03       		.uleb128 0x3
 4074 0091 04       		.byte	0x4
 4075 0092 07       		.byte	0x7
 4076 0093 2B000000 		.4byte	.LASF12
ARM GAS  C:\Users\User\AppData\Local\Temp\ccQ45nMh.s 			page 86


 4077 0097 02       		.uleb128 0x2
 4078 0098 1C010000 		.4byte	.LASF13
 4079 009c 03       		.byte	0x3
 4080 009d 14       		.byte	0x14
 4081 009e 25000000 		.4byte	0x25
 4082 00a2 02       		.uleb128 0x2
 4083 00a3 F1020000 		.4byte	.LASF14
 4084 00a7 03       		.byte	0x3
 4085 00a8 15       		.byte	0x15
 4086 00a9 37000000 		.4byte	0x37
 4087 00ad 02       		.uleb128 0x2
 4088 00ae 61010000 		.4byte	.LASF15
 4089 00b2 03       		.byte	0x3
 4090 00b3 20       		.byte	0x20
 4091 00b4 49000000 		.4byte	0x49
 4092 00b8 02       		.uleb128 0x2
 4093 00b9 D6030000 		.4byte	.LASF16
 4094 00bd 03       		.byte	0x3
 4095 00be 21       		.byte	0x21
 4096 00bf 5B000000 		.4byte	0x5b
 4097 00c3 05       		.uleb128 0x5
 4098 00c4 DE050000 		.4byte	.LASF17
 4099 00c8 04       		.byte	0x4
 4100 00c9 3801     		.2byte	0x138
 4101 00cb 42000000 		.4byte	0x42
 4102 00cf 05       		.uleb128 0x5
 4103 00d0 E3020000 		.4byte	.LASF18
 4104 00d4 04       		.byte	0x4
 4105 00d5 3901     		.2byte	0x139
 4106 00d7 66000000 		.4byte	0x66
 4107 00db 05       		.uleb128 0x5
 4108 00dc 83030000 		.4byte	.LASF19
 4109 00e0 04       		.byte	0x4
 4110 00e1 3A01     		.2byte	0x13a
 4111 00e3 74000000 		.4byte	0x74
 4112 00e7 03       		.uleb128 0x3
 4113 00e8 04       		.byte	0x4
 4114 00e9 04       		.byte	0x4
 4115 00ea 28010000 		.4byte	.LASF20
 4116 00ee 03       		.uleb128 0x3
 4117 00ef 08       		.byte	0x8
 4118 00f0 04       		.byte	0x4
 4119 00f1 E4050000 		.4byte	.LASF21
 4120 00f5 03       		.uleb128 0x3
 4121 00f6 01       		.byte	0x1
 4122 00f7 08       		.byte	0x8
 4123 00f8 DE020000 		.4byte	.LASF22
 4124 00fc 02       		.uleb128 0x2
 4125 00fd E7010000 		.4byte	.LASF23
 4126 0101 05       		.byte	0x5
 4127 0102 D4       		.byte	0xd4
 4128 0103 90000000 		.4byte	0x90
 4129 0107 03       		.uleb128 0x3
 4130 0108 04       		.byte	0x4
 4131 0109 07       		.byte	0x7
 4132 010a FA040000 		.4byte	.LASF24
 4133 010e 06       		.uleb128 0x6
ARM GAS  C:\Users\User\AppData\Local\Temp\ccQ45nMh.s 			page 87


 4134 010f 04       		.byte	0x4
 4135 0110 07       		.uleb128 0x7
 4136 0111 04       		.byte	0x4
 4137 0112 16010000 		.4byte	0x116
 4138 0116 08       		.uleb128 0x8
 4139 0117 F5000000 		.4byte	0xf5
 4140 011b 07       		.uleb128 0x7
 4141 011c 04       		.byte	0x4
 4142 011d 21010000 		.4byte	0x121
 4143 0121 09       		.uleb128 0x9
 4144 0122 0A       		.uleb128 0xa
 4145 0123 01       		.byte	0x1
 4146 0124 06       		.byte	0x6
 4147 0125 19       		.byte	0x19
 4148 0126 37010000 		.4byte	0x137
 4149 012a 0B       		.uleb128 0xb
 4150 012b 3B050000 		.4byte	.LASF25
 4151 012f 26       		.sleb128 38
 4152 0130 0B       		.uleb128 0xb
 4153 0131 1C050000 		.4byte	.LASF26
 4154 0135 2A       		.sleb128 42
 4155 0136 00       		.byte	0
 4156 0137 02       		.uleb128 0x2
 4157 0138 76000000 		.4byte	.LASF27
 4158 013c 06       		.byte	0x6
 4159 013d 1C       		.byte	0x1c
 4160 013e 22010000 		.4byte	0x122
 4161 0142 0A       		.uleb128 0xa
 4162 0143 01       		.byte	0x1
 4163 0144 06       		.byte	0x6
 4164 0145 1E       		.byte	0x1e
 4165 0146 7B010000 		.4byte	0x17b
 4166 014a 0B       		.uleb128 0xb
 4167 014b 9D000000 		.4byte	.LASF28
 4168 014f 03       		.sleb128 3
 4169 0150 0B       		.uleb128 0xb
 4170 0151 AC000000 		.4byte	.LASF29
 4171 0155 02       		.sleb128 2
 4172 0156 0B       		.uleb128 0xb
 4173 0157 BB000000 		.4byte	.LASF30
 4174 015b 01       		.sleb128 1
 4175 015c 0B       		.uleb128 0xb
 4176 015d CA000000 		.4byte	.LASF31
 4177 0161 06       		.sleb128 6
 4178 0162 0B       		.uleb128 0xb
 4179 0163 D9000000 		.4byte	.LASF32
 4180 0167 00       		.sleb128 0
 4181 0168 0B       		.uleb128 0xb
 4182 0169 E8000000 		.4byte	.LASF33
 4183 016d 05       		.sleb128 5
 4184 016e 0B       		.uleb128 0xb
 4185 016f F7000000 		.4byte	.LASF34
 4186 0173 04       		.sleb128 4
 4187 0174 0B       		.uleb128 0xb
 4188 0175 06010000 		.4byte	.LASF35
 4189 0179 07       		.sleb128 7
 4190 017a 00       		.byte	0
ARM GAS  C:\Users\User\AppData\Local\Temp\ccQ45nMh.s 			page 88


 4191 017b 02       		.uleb128 0x2
 4192 017c 31030000 		.4byte	.LASF36
 4193 0180 06       		.byte	0x6
 4194 0181 27       		.byte	0x27
 4195 0182 42010000 		.4byte	0x142
 4196 0186 0A       		.uleb128 0xa
 4197 0187 01       		.byte	0x1
 4198 0188 06       		.byte	0x6
 4199 0189 29       		.byte	0x29
 4200 018a BF010000 		.4byte	0x1bf
 4201 018e 0B       		.uleb128 0xb
 4202 018f 11020000 		.4byte	.LASF37
 4203 0193 00       		.sleb128 0
 4204 0194 0B       		.uleb128 0xb
 4205 0195 1F020000 		.4byte	.LASF38
 4206 0199 01       		.sleb128 1
 4207 019a 0B       		.uleb128 0xb
 4208 019b 2D020000 		.4byte	.LASF39
 4209 019f 02       		.sleb128 2
 4210 01a0 0B       		.uleb128 0xb
 4211 01a1 3B020000 		.4byte	.LASF40
 4212 01a5 03       		.sleb128 3
 4213 01a6 0B       		.uleb128 0xb
 4214 01a7 49020000 		.4byte	.LASF41
 4215 01ab 04       		.sleb128 4
 4216 01ac 0B       		.uleb128 0xb
 4217 01ad 57020000 		.4byte	.LASF42
 4218 01b1 05       		.sleb128 5
 4219 01b2 0B       		.uleb128 0xb
 4220 01b3 65020000 		.4byte	.LASF43
 4221 01b7 06       		.sleb128 6
 4222 01b8 0B       		.uleb128 0xb
 4223 01b9 73020000 		.4byte	.LASF44
 4224 01bd 07       		.sleb128 7
 4225 01be 00       		.byte	0
 4226 01bf 02       		.uleb128 0x2
 4227 01c0 3E030000 		.4byte	.LASF45
 4228 01c4 06       		.byte	0x6
 4229 01c5 32       		.byte	0x32
 4230 01c6 86010000 		.4byte	0x186
 4231 01ca 0C       		.uleb128 0xc
 4232 01cb 00020000 		.4byte	.LASF47
 4233 01cf 01       		.byte	0x1
 4234 01d0 B2       		.byte	0xb2
 4235 01d1 00000000 		.4byte	.LFB36
 4236 01d5 8C000000 		.4byte	.LFE36-.LFB36
 4237 01d9 01       		.uleb128 0x1
 4238 01da 9C       		.byte	0x9c
 4239 01db 07020000 		.4byte	0x207
 4240 01df 0D       		.uleb128 0xd
 4241 01e0 7800     		.ascii	"x\000"
 4242 01e2 01       		.byte	0x1
 4243 01e3 B2       		.byte	0xb2
 4244 01e4 AD000000 		.4byte	0xad
 4245 01e8 00000000 		.4byte	.LLST0
 4246 01ec 0D       		.uleb128 0xd
 4247 01ed 7900     		.ascii	"y\000"
ARM GAS  C:\Users\User\AppData\Local\Temp\ccQ45nMh.s 			page 89


 4248 01ef 01       		.byte	0x1
 4249 01f0 B2       		.byte	0xb2
 4250 01f1 AD000000 		.4byte	0xad
 4251 01f5 53000000 		.4byte	.LLST1
 4252 01f9 0E       		.uleb128 0xe
 4253 01fa 2C040000 		.4byte	.LASF46
 4254 01fe 01       		.byte	0x1
 4255 01ff B2       		.byte	0xb2
 4256 0200 B8000000 		.4byte	0xb8
 4257 0204 01       		.uleb128 0x1
 4258 0205 52       		.byte	0x52
 4259 0206 00       		.byte	0
 4260 0207 0C       		.uleb128 0xc
 4261 0208 5E000000 		.4byte	.LASF48
 4262 020c 01       		.byte	0x1
 4263 020d F6       		.byte	0xf6
 4264 020e 00000000 		.4byte	.LFB41
 4265 0212 40010000 		.4byte	.LFE41-.LFB41
 4266 0216 01       		.uleb128 0x1
 4267 0217 9C       		.byte	0x9c
 4268 0218 2D030000 		.4byte	0x32d
 4269 021c 0D       		.uleb128 0xd
 4270 021d 783100   		.ascii	"x1\000"
 4271 0220 01       		.byte	0x1
 4272 0221 F6       		.byte	0xf6
 4273 0222 AD000000 		.4byte	0xad
 4274 0226 A6000000 		.4byte	.LLST2
 4275 022a 0D       		.uleb128 0xd
 4276 022b 793100   		.ascii	"y1\000"
 4277 022e 01       		.byte	0x1
 4278 022f F6       		.byte	0xf6
 4279 0230 AD000000 		.4byte	0xad
 4280 0234 E0000000 		.4byte	.LLST3
 4281 0238 0D       		.uleb128 0xd
 4282 0239 783200   		.ascii	"x2\000"
 4283 023c 01       		.byte	0x1
 4284 023d F6       		.byte	0xf6
 4285 023e AD000000 		.4byte	0xad
 4286 0242 01010000 		.4byte	.LLST4
 4287 0246 0D       		.uleb128 0xd
 4288 0247 793200   		.ascii	"y2\000"
 4289 024a 01       		.byte	0x1
 4290 024b F6       		.byte	0xf6
 4291 024c AD000000 		.4byte	0xad
 4292 0250 3B010000 		.4byte	.LLST5
 4293 0254 0F       		.uleb128 0xf
 4294 0255 2C040000 		.4byte	.LASF46
 4295 0259 01       		.byte	0x1
 4296 025a F6       		.byte	0xf6
 4297 025b B8000000 		.4byte	0xb8
 4298 025f 5C010000 		.4byte	.LLST6
 4299 0263 10       		.uleb128 0x10
 4300 0264 0E000000 		.4byte	.LBB2
 4301 0268 D6000000 		.4byte	.LBE2-.LBB2
 4302 026c E2020000 		.4byte	0x2e2
 4303 0270 11       		.uleb128 0x11
 4304 0271 2E010000 		.4byte	.LASF49
ARM GAS  C:\Users\User\AppData\Local\Temp\ccQ45nMh.s 			page 90


 4305 0275 01       		.byte	0x1
 4306 0276 FA       		.byte	0xfa
 4307 0277 2D030000 		.4byte	0x32d
 4308 027b A0010000 		.4byte	.LLST7
 4309 027f 11       		.uleb128 0x11
 4310 0280 6D030000 		.4byte	.LASF50
 4311 0284 01       		.byte	0x1
 4312 0285 FB       		.byte	0xfb
 4313 0286 2D030000 		.4byte	0x32d
 4314 028a B3010000 		.4byte	.LLST8
 4315 028e 12       		.uleb128 0x12
 4316 028f 70747200 		.ascii	"ptr\000"
 4317 0293 01       		.byte	0x1
 4318 0294 FC       		.byte	0xfc
 4319 0295 2D030000 		.4byte	0x32d
 4320 0299 C6010000 		.4byte	.LLST9
 4321 029d 13       		.uleb128 0x13
 4322 029e 32000000 		.4byte	.LBB3
 4323 02a2 AC000000 		.4byte	.LBE3-.LBB3
 4324 02a6 14       		.uleb128 0x14
 4325 02a7 9C030000 		.4byte	.LASF51
 4326 02ab 01       		.byte	0x1
 4327 02ac 0001     		.2byte	0x100
 4328 02ae A2000000 		.4byte	0xa2
 4329 02b2 E4010000 		.4byte	.LLST10
 4330 02b6 13       		.uleb128 0x13
 4331 02b7 36000000 		.4byte	.LBB4
 4332 02bb 36000000 		.4byte	.LBE4-.LBB4
 4333 02bf 14       		.uleb128 0x14
 4334 02c0 DA040000 		.4byte	.LASF52
 4335 02c4 01       		.byte	0x1
 4336 02c5 0301     		.2byte	0x103
 4337 02c7 A2000000 		.4byte	0xa2
 4338 02cb 0D020000 		.4byte	.LLST11
 4339 02cf 14       		.uleb128 0x14
 4340 02d0 56050000 		.4byte	.LASF53
 4341 02d4 01       		.byte	0x1
 4342 02d5 0501     		.2byte	0x105
 4343 02d7 A2000000 		.4byte	0xa2
 4344 02db 2B020000 		.4byte	.LLST12
 4345 02df 00       		.byte	0
 4346 02e0 00       		.byte	0
 4347 02e1 00       		.byte	0
 4348 02e2 13       		.uleb128 0x13
 4349 02e3 E4000000 		.4byte	.LBB5
 4350 02e7 4E000000 		.4byte	.LBE5-.LBB5
 4351 02eb 14       		.uleb128 0x14
 4352 02ec 2E010000 		.4byte	.LASF49
 4353 02f0 01       		.byte	0x1
 4354 02f1 2101     		.2byte	0x121
 4355 02f3 2D030000 		.4byte	0x32d
 4356 02f7 3E020000 		.4byte	.LLST13
 4357 02fb 14       		.uleb128 0x14
 4358 02fc 6D030000 		.4byte	.LASF50
 4359 0300 01       		.byte	0x1
 4360 0301 2201     		.2byte	0x122
 4361 0303 2D030000 		.4byte	0x32d
ARM GAS  C:\Users\User\AppData\Local\Temp\ccQ45nMh.s 			page 91


 4362 0307 51020000 		.4byte	.LLST14
 4363 030b 14       		.uleb128 0x14
 4364 030c F6030000 		.4byte	.LASF54
 4365 0310 01       		.byte	0x1
 4366 0311 2301     		.2byte	0x123
 4367 0313 A2000000 		.4byte	0xa2
 4368 0317 64020000 		.4byte	.LLST15
 4369 031b 15       		.uleb128 0x15
 4370 031c 70747200 		.ascii	"ptr\000"
 4371 0320 01       		.byte	0x1
 4372 0321 2501     		.2byte	0x125
 4373 0323 2D030000 		.4byte	0x32d
 4374 0327 77020000 		.4byte	.LLST16
 4375 032b 00       		.byte	0
 4376 032c 00       		.byte	0
 4377 032d 07       		.uleb128 0x7
 4378 032e 04       		.byte	0x4
 4379 032f A2000000 		.4byte	0xa2
 4380 0333 16       		.uleb128 0x16
 4381 0334 BE010000 		.4byte	.LASF55
 4382 0338 01       		.byte	0x1
 4383 0339 9D01     		.2byte	0x19d
 4384 033b 00000000 		.4byte	.LFB54
 4385 033f 5C000000 		.4byte	.LFE54-.LFB54
 4386 0343 01       		.uleb128 0x1
 4387 0344 9C       		.byte	0x9c
 4388 0345 73030000 		.4byte	0x373
 4389 0349 17       		.uleb128 0x17
 4390 034a 707800   		.ascii	"px\000"
 4391 034d 01       		.byte	0x1
 4392 034e 9D01     		.2byte	0x19d
 4393 0350 73030000 		.4byte	0x373
 4394 0354 01       		.uleb128 0x1
 4395 0355 50       		.byte	0x50
 4396 0356 17       		.uleb128 0x17
 4397 0357 707900   		.ascii	"py\000"
 4398 035a 01       		.byte	0x1
 4399 035b 9D01     		.2byte	0x19d
 4400 035d 73030000 		.4byte	0x373
 4401 0361 01       		.uleb128 0x1
 4402 0362 51       		.byte	0x51
 4403 0363 15       		.uleb128 0x15
 4404 0364 793000   		.ascii	"y0\000"
 4405 0367 01       		.byte	0x1
 4406 0368 9F01     		.2byte	0x19f
 4407 036a AD000000 		.4byte	0xad
 4408 036e 8A020000 		.4byte	.LLST17
 4409 0372 00       		.byte	0
 4410 0373 07       		.uleb128 0x7
 4411 0374 04       		.byte	0x4
 4412 0375 AD000000 		.4byte	0xad
 4413 0379 16       		.uleb128 0x16
 4414 037a 6B000000 		.4byte	.LASF56
 4415 037e 01       		.byte	0x1
 4416 037f BC01     		.2byte	0x1bc
 4417 0381 00000000 		.4byte	.LFB56
 4418 0385 68010000 		.4byte	.LFE56-.LFB56
ARM GAS  C:\Users\User\AppData\Local\Temp\ccQ45nMh.s 			page 92


 4419 0389 01       		.uleb128 0x1
 4420 038a 9C       		.byte	0x9c
 4421 038b 3D040000 		.4byte	0x43d
 4422 038f 18       		.uleb128 0x18
 4423 0390 783100   		.ascii	"x1\000"
 4424 0393 01       		.byte	0x1
 4425 0394 BC01     		.2byte	0x1bc
 4426 0396 AD000000 		.4byte	0xad
 4427 039a BF020000 		.4byte	.LLST18
 4428 039e 18       		.uleb128 0x18
 4429 039f 793100   		.ascii	"y1\000"
 4430 03a2 01       		.byte	0x1
 4431 03a3 BC01     		.2byte	0x1bc
 4432 03a5 AD000000 		.4byte	0xad
 4433 03a9 38030000 		.4byte	.LLST19
 4434 03ad 18       		.uleb128 0x18
 4435 03ae 783200   		.ascii	"x2\000"
 4436 03b1 01       		.byte	0x1
 4437 03b2 BC01     		.2byte	0x1bc
 4438 03b4 AD000000 		.4byte	0xad
 4439 03b8 0B040000 		.4byte	.LLST20
 4440 03bc 18       		.uleb128 0x18
 4441 03bd 793200   		.ascii	"y2\000"
 4442 03c0 01       		.byte	0x1
 4443 03c1 BC01     		.2byte	0x1bc
 4444 03c3 AD000000 		.4byte	0xad
 4445 03c7 84040000 		.4byte	.LLST21
 4446 03cb 19       		.uleb128 0x19
 4447 03cc 2C040000 		.4byte	.LASF46
 4448 03d0 01       		.byte	0x1
 4449 03d1 BC01     		.2byte	0x1bc
 4450 03d3 B8000000 		.4byte	0xb8
 4451 03d7 6F050000 		.4byte	.LLST22
 4452 03db 10       		.uleb128 0x10
 4453 03dc 1C010000 		.4byte	.LBB6
 4454 03e0 18000000 		.4byte	.LBE6-.LBB6
 4455 03e4 F7030000 		.4byte	0x3f7
 4456 03e8 15       		.uleb128 0x15
 4457 03e9 7400     		.ascii	"t\000"
 4458 03eb 01       		.byte	0x1
 4459 03ec D601     		.2byte	0x1d6
 4460 03ee AD000000 		.4byte	0xad
 4461 03f2 9B050000 		.4byte	.LLST23
 4462 03f6 00       		.byte	0
 4463 03f7 1A       		.uleb128 0x1a
 4464 03f8 DC000000 		.4byte	.LVL69
 4465 03fc 33030000 		.4byte	0x333
 4466 0400 11040000 		.4byte	0x411
 4467 0404 1B       		.uleb128 0x1b
 4468 0405 01       		.uleb128 0x1
 4469 0406 51       		.byte	0x51
 4470 0407 02       		.uleb128 0x2
 4471 0408 91       		.byte	0x91
 4472 0409 6C       		.sleb128 -20
 4473 040a 1B       		.uleb128 0x1b
 4474 040b 01       		.uleb128 0x1
 4475 040c 50       		.byte	0x50
ARM GAS  C:\Users\User\AppData\Local\Temp\ccQ45nMh.s 			page 93


 4476 040d 02       		.uleb128 0x2
 4477 040e 76       		.byte	0x76
 4478 040f 00       		.sleb128 0
 4479 0410 00       		.byte	0
 4480 0411 1A       		.uleb128 0x1a
 4481 0412 E8000000 		.4byte	.LVL73
 4482 0416 33030000 		.4byte	0x333
 4483 041a 2B040000 		.4byte	0x42b
 4484 041e 1B       		.uleb128 0x1b
 4485 041f 01       		.uleb128 0x1
 4486 0420 51       		.byte	0x51
 4487 0421 02       		.uleb128 0x2
 4488 0422 91       		.byte	0x91
 4489 0423 68       		.sleb128 -24
 4490 0424 1B       		.uleb128 0x1b
 4491 0425 01       		.uleb128 0x1
 4492 0426 50       		.byte	0x50
 4493 0427 02       		.uleb128 0x2
 4494 0428 74       		.byte	0x74
 4495 0429 00       		.sleb128 0
 4496 042a 00       		.byte	0
 4497 042b 1C       		.uleb128 0x1c
 4498 042c 56010000 		.4byte	.LVL99
 4499 0430 07020000 		.4byte	0x207
 4500 0434 1B       		.uleb128 0x1b
 4501 0435 02       		.uleb128 0x2
 4502 0436 7D       		.byte	0x7d
 4503 0437 00       		.sleb128 0
 4504 0438 02       		.uleb128 0x2
 4505 0439 75       		.byte	0x75
 4506 043a 00       		.sleb128 0
 4507 043b 00       		.byte	0
 4508 043c 00       		.byte	0
 4509 043d 1D       		.uleb128 0x1d
 4510 043e 8A030000 		.4byte	.LASF124
 4511 0442 01       		.byte	0x1
 4512 0443 9E       		.byte	0x9e
 4513 0444 DB000000 		.4byte	0xdb
 4514 0448 00000000 		.4byte	.LFB35
 4515 044c 44000000 		.4byte	.LFE35-.LFB35
 4516 0450 01       		.uleb128 0x1
 4517 0451 9C       		.byte	0x9c
 4518 0452 C8040000 		.4byte	0x4c8
 4519 0456 0D       		.uleb128 0xd
 4520 0457 62756600 		.ascii	"buf\000"
 4521 045b 01       		.byte	0x1
 4522 045c 9E       		.byte	0x9e
 4523 045d C8040000 		.4byte	0x4c8
 4524 0461 B9050000 		.4byte	.LLST24
 4525 0465 0F       		.uleb128 0xf
 4526 0466 23010000 		.4byte	.LASF57
 4527 046a 01       		.byte	0x1
 4528 046b 9E       		.byte	0x9e
 4529 046c B8000000 		.4byte	0xb8
 4530 0470 F0050000 		.4byte	.LLST25
 4531 0474 11       		.uleb128 0x11
 4532 0475 F9020000 		.4byte	.LASF58
ARM GAS  C:\Users\User\AppData\Local\Temp\ccQ45nMh.s 			page 94


 4533 0479 01       		.byte	0x1
 4534 047a A0       		.byte	0xa0
 4535 047b DB000000 		.4byte	0xdb
 4536 047f 11060000 		.4byte	.LLST26
 4537 0483 1A       		.uleb128 0x1a
 4538 0484 14000000 		.4byte	.LVL105
 4539 0488 63130000 		.4byte	0x1363
 4540 048c A3040000 		.4byte	0x4a3
 4541 0490 1B       		.uleb128 0x1b
 4542 0491 01       		.uleb128 0x1
 4543 0492 53       		.byte	0x53
 4544 0493 01       		.uleb128 0x1
 4545 0494 30       		.byte	0x30
 4546 0495 1B       		.uleb128 0x1b
 4547 0496 01       		.uleb128 0x1
 4548 0497 52       		.byte	0x52
 4549 0498 02       		.uleb128 0x2
 4550 0499 74       		.byte	0x74
 4551 049a 00       		.sleb128 0
 4552 049b 1B       		.uleb128 0x1b
 4553 049c 01       		.uleb128 0x1
 4554 049d 51       		.byte	0x51
 4555 049e 03       		.uleb128 0x3
 4556 049f F3       		.byte	0xf3
 4557 04a0 01       		.uleb128 0x1
 4558 04a1 50       		.byte	0x50
 4559 04a2 00       		.byte	0
 4560 04a3 1E       		.uleb128 0x1e
 4561 04a4 18000000 		.4byte	.LVL106
 4562 04a8 88130000 		.4byte	0x1388
 4563 04ac 1E       		.uleb128 0x1e
 4564 04ad 20000000 		.4byte	.LVL107
 4565 04b1 88130000 		.4byte	0x1388
 4566 04b5 1E       		.uleb128 0x1e
 4567 04b6 28000000 		.4byte	.LVL108
 4568 04ba 94130000 		.4byte	0x1394
 4569 04be 1E       		.uleb128 0x1e
 4570 04bf 3A000000 		.4byte	.LVL110
 4571 04c3 A0130000 		.4byte	0x13a0
 4572 04c7 00       		.byte	0
 4573 04c8 07       		.uleb128 0x7
 4574 04c9 04       		.byte	0x4
 4575 04ca C3000000 		.4byte	0xc3
 4576 04ce 1F       		.uleb128 0x1f
 4577 04cf 28050000 		.4byte	.LASF59
 4578 04d3 01       		.byte	0x1
 4579 04d4 C5       		.byte	0xc5
 4580 04d5 00000000 		.4byte	.LFB37
 4581 04d9 1C000000 		.4byte	.LFE37-.LFB37
 4582 04dd 01       		.uleb128 0x1
 4583 04de 9C       		.byte	0x9c
 4584 04df 00050000 		.4byte	0x500
 4585 04e3 1C       		.uleb128 0x1c
 4586 04e4 10000000 		.4byte	.LVL112
 4587 04e8 AC130000 		.4byte	0x13ac
 4588 04ec 1B       		.uleb128 0x1b
 4589 04ed 01       		.uleb128 0x1
ARM GAS  C:\Users\User\AppData\Local\Temp\ccQ45nMh.s 			page 95


 4590 04ee 52       		.byte	0x52
 4591 04ef 03       		.uleb128 0x3
 4592 04f0 0A       		.byte	0xa
 4593 04f1 0004     		.2byte	0x400
 4594 04f3 1B       		.uleb128 0x1b
 4595 04f4 01       		.uleb128 0x1
 4596 04f5 51       		.byte	0x51
 4597 04f6 01       		.uleb128 0x1
 4598 04f7 30       		.byte	0x30
 4599 04f8 1B       		.uleb128 0x1b
 4600 04f9 01       		.uleb128 0x1
 4601 04fa 50       		.byte	0x50
 4602 04fb 02       		.uleb128 0x2
 4603 04fc 74       		.byte	0x74
 4604 04fd 01       		.sleb128 1
 4605 04fe 00       		.byte	0
 4606 04ff 00       		.byte	0
 4607 0500 1F       		.uleb128 0x1f
 4608 0501 88050000 		.4byte	.LASF60
 4609 0505 01       		.byte	0x1
 4610 0506 CC       		.byte	0xcc
 4611 0507 00000000 		.4byte	.LFB38
 4612 050b 1C000000 		.4byte	.LFE38-.LFB38
 4613 050f 01       		.uleb128 0x1
 4614 0510 9C       		.byte	0x9c
 4615 0511 48050000 		.4byte	0x548
 4616 0515 0F       		.uleb128 0xf
 4617 0516 28030000 		.4byte	.LASF61
 4618 051a 01       		.byte	0x1
 4619 051b CC       		.byte	0xcc
 4620 051c A2000000 		.4byte	0xa2
 4621 0520 3C060000 		.4byte	.LLST27
 4622 0524 20       		.uleb128 0x20
 4623 0525 03050000 		.4byte	.LASF62
 4624 0529 01       		.byte	0x1
 4625 052a CE       		.byte	0xce
 4626 052b 48050000 		.4byte	0x548
 4627 052f 02       		.uleb128 0x2
 4628 0530 91       		.byte	0x91
 4629 0531 74       		.sleb128 -12
 4630 0532 1C       		.uleb128 0x1c
 4631 0533 18000000 		.4byte	.LVL115
 4632 0537 3D040000 		.4byte	0x43d
 4633 053b 1B       		.uleb128 0x1b
 4634 053c 01       		.uleb128 0x1
 4635 053d 51       		.byte	0x51
 4636 053e 01       		.uleb128 0x1
 4637 053f 33       		.byte	0x33
 4638 0540 1B       		.uleb128 0x1b
 4639 0541 01       		.uleb128 0x1
 4640 0542 50       		.byte	0x50
 4641 0543 02       		.uleb128 0x2
 4642 0544 91       		.byte	0x91
 4643 0545 74       		.sleb128 -12
 4644 0546 00       		.byte	0
 4645 0547 00       		.byte	0
 4646 0548 21       		.uleb128 0x21
ARM GAS  C:\Users\User\AppData\Local\Temp\ccQ45nMh.s 			page 96


 4647 0549 C3000000 		.4byte	0xc3
 4648 054d 58050000 		.4byte	0x558
 4649 0551 22       		.uleb128 0x22
 4650 0552 07010000 		.4byte	0x107
 4651 0556 02       		.byte	0x2
 4652 0557 00       		.byte	0
 4653 0558 1F       		.uleb128 0x1f
 4654 0559 1D040000 		.4byte	.LASF63
 4655 055d 01       		.byte	0x1
 4656 055e D8       		.byte	0xd8
 4657 055f 00000000 		.4byte	.LFB39
 4658 0563 22000000 		.4byte	.LFE39-.LFB39
 4659 0567 01       		.uleb128 0x1
 4660 0568 9C       		.byte	0x9c
 4661 0569 A0050000 		.4byte	0x5a0
 4662 056d 0F       		.uleb128 0xf
 4663 056e EA020000 		.4byte	.LASF64
 4664 0572 01       		.byte	0x1
 4665 0573 D8       		.byte	0xd8
 4666 0574 A2000000 		.4byte	0xa2
 4667 0578 69060000 		.4byte	.LLST28
 4668 057c 20       		.uleb128 0x20
 4669 057d 03050000 		.4byte	.LASF62
 4670 0581 01       		.byte	0x1
 4671 0582 DA       		.byte	0xda
 4672 0583 A0050000 		.4byte	0x5a0
 4673 0587 02       		.uleb128 0x2
 4674 0588 91       		.byte	0x91
 4675 0589 74       		.sleb128 -12
 4676 058a 1C       		.uleb128 0x1c
 4677 058b 1E000000 		.4byte	.LVL118
 4678 058f 3D040000 		.4byte	0x43d
 4679 0593 1B       		.uleb128 0x1b
 4680 0594 01       		.uleb128 0x1
 4681 0595 51       		.byte	0x51
 4682 0596 01       		.uleb128 0x1
 4683 0597 32       		.byte	0x32
 4684 0598 1B       		.uleb128 0x1b
 4685 0599 01       		.uleb128 0x1
 4686 059a 50       		.byte	0x50
 4687 059b 02       		.uleb128 0x2
 4688 059c 91       		.byte	0x91
 4689 059d 74       		.sleb128 -12
 4690 059e 00       		.byte	0
 4691 059f 00       		.byte	0
 4692 05a0 21       		.uleb128 0x21
 4693 05a1 C3000000 		.4byte	0xc3
 4694 05a5 B0050000 		.4byte	0x5b0
 4695 05a9 22       		.uleb128 0x22
 4696 05aa 07010000 		.4byte	0x107
 4697 05ae 01       		.byte	0x1
 4698 05af 00       		.byte	0
 4699 05b0 1F       		.uleb128 0x1f
 4700 05b1 CF020000 		.4byte	.LASF65
 4701 05b5 01       		.byte	0x1
 4702 05b6 E3       		.byte	0xe3
 4703 05b7 00000000 		.4byte	.LFB40
ARM GAS  C:\Users\User\AppData\Local\Temp\ccQ45nMh.s 			page 97


 4704 05bb 30000000 		.4byte	.LFE40-.LFB40
 4705 05bf 01       		.uleb128 0x1
 4706 05c0 9C       		.byte	0x9c
 4707 05c1 29060000 		.4byte	0x629
 4708 05c5 20       		.uleb128 0x20
 4709 05c6 03050000 		.4byte	.LASF62
 4710 05ca 01       		.byte	0x1
 4711 05cb E5       		.byte	0xe5
 4712 05cc 29060000 		.4byte	0x629
 4713 05d0 02       		.uleb128 0x2
 4714 05d1 91       		.byte	0x91
 4715 05d2 70       		.sleb128 -16
 4716 05d3 1A       		.uleb128 0x1a
 4717 05d4 0E000000 		.4byte	.LVL119
 4718 05d8 C9130000 		.4byte	0x13c9
 4719 05dc F5050000 		.4byte	0x5f5
 4720 05e0 1B       		.uleb128 0x1b
 4721 05e1 01       		.uleb128 0x1
 4722 05e2 52       		.byte	0x52
 4723 05e3 01       		.uleb128 0x1
 4724 05e4 37       		.byte	0x37
 4725 05e5 1B       		.uleb128 0x1b
 4726 05e6 01       		.uleb128 0x1
 4727 05e7 51       		.byte	0x51
 4728 05e8 05       		.uleb128 0x5
 4729 05e9 03       		.byte	0x3
 4730 05ea 00000000 		.4byte	.LANCHOR2
 4731 05ee 1B       		.uleb128 0x1b
 4732 05ef 01       		.uleb128 0x1
 4733 05f0 50       		.byte	0x50
 4734 05f1 02       		.uleb128 0x2
 4735 05f2 7D       		.byte	0x7d
 4736 05f3 00       		.sleb128 0
 4737 05f4 00       		.byte	0
 4738 05f5 1A       		.uleb128 0x1a
 4739 05f6 16000000 		.4byte	.LVL120
 4740 05fa 3D040000 		.4byte	0x43d
 4741 05fe 0E060000 		.4byte	0x60e
 4742 0602 1B       		.uleb128 0x1b
 4743 0603 01       		.uleb128 0x1
 4744 0604 51       		.byte	0x51
 4745 0605 01       		.uleb128 0x1
 4746 0606 37       		.byte	0x37
 4747 0607 1B       		.uleb128 0x1b
 4748 0608 01       		.uleb128 0x1
 4749 0609 50       		.byte	0x50
 4750 060a 02       		.uleb128 0x2
 4751 060b 7D       		.byte	0x7d
 4752 060c 00       		.sleb128 0
 4753 060d 00       		.byte	0
 4754 060e 1C       		.uleb128 0x1c
 4755 060f 1E000000 		.4byte	.LVL121
 4756 0613 3D040000 		.4byte	0x43d
 4757 0617 1B       		.uleb128 0x1b
 4758 0618 01       		.uleb128 0x1
 4759 0619 51       		.byte	0x51
 4760 061a 03       		.uleb128 0x3
ARM GAS  C:\Users\User\AppData\Local\Temp\ccQ45nMh.s 			page 98


 4761 061b 0A       		.byte	0xa
 4762 061c 0104     		.2byte	0x401
 4763 061e 1B       		.uleb128 0x1b
 4764 061f 01       		.uleb128 0x1
 4765 0620 50       		.byte	0x50
 4766 0621 05       		.uleb128 0x5
 4767 0622 03       		.byte	0x3
 4768 0623 00000000 		.4byte	.LANCHOR0
 4769 0627 00       		.byte	0
 4770 0628 00       		.byte	0
 4771 0629 21       		.uleb128 0x21
 4772 062a C3000000 		.4byte	0xc3
 4773 062e 39060000 		.4byte	0x639
 4774 0632 22       		.uleb128 0x22
 4775 0633 07010000 		.4byte	0x107
 4776 0637 06       		.byte	0x6
 4777 0638 00       		.byte	0
 4778 0639 23       		.uleb128 0x23
 4779 063a CB050000 		.4byte	.LASF66
 4780 063e 01       		.byte	0x1
 4781 063f 3301     		.2byte	0x133
 4782 0641 00000000 		.4byte	.LFB42
 4783 0645 18000000 		.4byte	.LFE42-.LFB42
 4784 0649 01       		.uleb128 0x1
 4785 064a 9C       		.byte	0x9c
 4786 064b 74060000 		.4byte	0x674
 4787 064f 24       		.uleb128 0x24
 4788 0650 03050000 		.4byte	.LASF62
 4789 0654 01       		.byte	0x1
 4790 0655 3501     		.2byte	0x135
 4791 0657 A0050000 		.4byte	0x5a0
 4792 065b 02       		.uleb128 0x2
 4793 065c 91       		.byte	0x91
 4794 065d 74       		.sleb128 -12
 4795 065e 1C       		.uleb128 0x1c
 4796 065f 14000000 		.4byte	.LVL122
 4797 0663 3D040000 		.4byte	0x43d
 4798 0667 1B       		.uleb128 0x1b
 4799 0668 01       		.uleb128 0x1
 4800 0669 51       		.byte	0x51
 4801 066a 01       		.uleb128 0x1
 4802 066b 32       		.byte	0x32
 4803 066c 1B       		.uleb128 0x1b
 4804 066d 01       		.uleb128 0x1
 4805 066e 50       		.byte	0x50
 4806 066f 02       		.uleb128 0x2
 4807 0670 91       		.byte	0x91
 4808 0671 74       		.sleb128 -12
 4809 0672 00       		.byte	0
 4810 0673 00       		.byte	0
 4811 0674 23       		.uleb128 0x23
 4812 0675 6D050000 		.4byte	.LASF67
 4813 0679 01       		.byte	0x1
 4814 067a 3C01     		.2byte	0x13c
 4815 067c 00000000 		.4byte	.LFB43
 4816 0680 2A000000 		.4byte	.LFE43-.LFB43
 4817 0684 01       		.uleb128 0x1
ARM GAS  C:\Users\User\AppData\Local\Temp\ccQ45nMh.s 			page 99


 4818 0685 9C       		.byte	0x9c
 4819 0686 EF060000 		.4byte	0x6ef
 4820 068a 19       		.uleb128 0x19
 4821 068b DF040000 		.4byte	.LASF68
 4822 068f 01       		.byte	0x1
 4823 0690 3C01     		.2byte	0x13c
 4824 0692 BF010000 		.4byte	0x1bf
 4825 0696 8A060000 		.4byte	.LLST29
 4826 069a 18       		.uleb128 0x18
 4827 069b 656E6400 		.ascii	"end\000"
 4828 069f 01       		.byte	0x1
 4829 06a0 3C01     		.2byte	0x13c
 4830 06a2 BF010000 		.4byte	0x1bf
 4831 06a6 B7060000 		.4byte	.LLST30
 4832 06aa 18       		.uleb128 0x18
 4833 06ab 64697200 		.ascii	"dir\000"
 4834 06af 01       		.byte	0x1
 4835 06b0 3C01     		.2byte	0x13c
 4836 06b2 37010000 		.4byte	0x137
 4837 06b6 E4060000 		.4byte	.LLST31
 4838 06ba 19       		.uleb128 0x19
 4839 06bb 8A000000 		.4byte	.LASF69
 4840 06bf 01       		.byte	0x1
 4841 06c0 3C01     		.2byte	0x13c
 4842 06c2 7B010000 		.4byte	0x17b
 4843 06c6 05070000 		.4byte	.LLST32
 4844 06ca 24       		.uleb128 0x24
 4845 06cb 03050000 		.4byte	.LASF62
 4846 06cf 01       		.byte	0x1
 4847 06d0 3E01     		.2byte	0x13e
 4848 06d2 EF060000 		.4byte	0x6ef
 4849 06d6 02       		.uleb128 0x2
 4850 06d7 91       		.byte	0x91
 4851 06d8 64       		.sleb128 -28
 4852 06d9 1C       		.uleb128 0x1c
 4853 06da 26000000 		.4byte	.LVL127
 4854 06de 3D040000 		.4byte	0x43d
 4855 06e2 1B       		.uleb128 0x1b
 4856 06e3 01       		.uleb128 0x1
 4857 06e4 51       		.byte	0x51
 4858 06e5 01       		.uleb128 0x1
 4859 06e6 39       		.byte	0x39
 4860 06e7 1B       		.uleb128 0x1b
 4861 06e8 01       		.uleb128 0x1
 4862 06e9 50       		.byte	0x50
 4863 06ea 02       		.uleb128 0x2
 4864 06eb 74       		.byte	0x74
 4865 06ec 00       		.sleb128 0
 4866 06ed 00       		.byte	0
 4867 06ee 00       		.byte	0
 4868 06ef 21       		.uleb128 0x21
 4869 06f0 C3000000 		.4byte	0xc3
 4870 06f4 FF060000 		.4byte	0x6ff
 4871 06f8 22       		.uleb128 0x22
 4872 06f9 07010000 		.4byte	0x107
 4873 06fd 08       		.byte	0x8
 4874 06fe 00       		.byte	0
ARM GAS  C:\Users\User\AppData\Local\Temp\ccQ45nMh.s 			page 100


 4875 06ff 23       		.uleb128 0x23
 4876 0700 15000000 		.4byte	.LASF70
 4877 0704 01       		.byte	0x1
 4878 0705 5B01     		.2byte	0x15b
 4879 0707 00000000 		.4byte	.LFB44
 4880 070b 40000000 		.4byte	.LFE44-.LFB44
 4881 070f 01       		.uleb128 0x1
 4882 0710 9C       		.byte	0x9c
 4883 0711 34070000 		.4byte	0x734
 4884 0715 25       		.uleb128 0x25
 4885 0716 EE010000 		.4byte	.LASF71
 4886 071a 01       		.byte	0x1
 4887 071b 5B01     		.2byte	0x15b
 4888 071d AD000000 		.4byte	0xad
 4889 0721 01       		.uleb128 0x1
 4890 0722 50       		.byte	0x50
 4891 0723 19       		.uleb128 0x19
 4892 0724 AA030000 		.4byte	.LASF72
 4893 0728 01       		.byte	0x1
 4894 0729 5B01     		.2byte	0x15b
 4895 072b AD000000 		.4byte	0xad
 4896 072f 32070000 		.4byte	.LLST33
 4897 0733 00       		.byte	0
 4898 0734 1F       		.uleb128 0x1f
 4899 0735 90000000 		.4byte	.LASF73
 4900 0739 01       		.byte	0x1
 4901 073a 74       		.byte	0x74
 4902 073b 00000000 		.4byte	.LFB34
 4903 073f 30000000 		.4byte	.LFE34-.LFB34
 4904 0743 01       		.uleb128 0x1
 4905 0744 9C       		.byte	0x9c
 4906 0745 B8070000 		.4byte	0x7b8
 4907 0749 0F       		.uleb128 0xf
 4908 074a 46000000 		.4byte	.LASF74
 4909 074e 01       		.byte	0x1
 4910 074f 74       		.byte	0x74
 4911 0750 C3000000 		.4byte	0xc3
 4912 0754 54070000 		.4byte	.LLST34
 4913 0758 20       		.uleb128 0x20
 4914 0759 03050000 		.4byte	.LASF62
 4915 075d 01       		.byte	0x1
 4916 075e 79       		.byte	0x79
 4917 075f B8070000 		.4byte	0x7b8
 4918 0763 02       		.uleb128 0x2
 4919 0764 91       		.byte	0x91
 4920 0765 5C       		.sleb128 -36
 4921 0766 1A       		.uleb128 0x1a
 4922 0767 10000000 		.4byte	.LVL132
 4923 076b FF060000 		.4byte	0x6ff
 4924 076f 80070000 		.4byte	0x780
 4925 0773 1B       		.uleb128 0x1b
 4926 0774 01       		.uleb128 0x1
 4927 0775 51       		.byte	0x51
 4928 0776 02       		.uleb128 0x2
 4929 0777 08       		.byte	0x8
 4930 0778 40       		.byte	0x40
 4931 0779 1B       		.uleb128 0x1b
ARM GAS  C:\Users\User\AppData\Local\Temp\ccQ45nMh.s 			page 101


 4932 077a 01       		.uleb128 0x1
 4933 077b 50       		.byte	0x50
 4934 077c 02       		.uleb128 0x2
 4935 077d 08       		.byte	0x8
 4936 077e 80       		.byte	0x80
 4937 077f 00       		.byte	0
 4938 0780 1A       		.uleb128 0x1a
 4939 0781 1C000000 		.4byte	.LVL133
 4940 0785 C9130000 		.4byte	0x13c9
 4941 0789 A2070000 		.4byte	0x7a2
 4942 078d 1B       		.uleb128 0x1b
 4943 078e 01       		.uleb128 0x1
 4944 078f 52       		.byte	0x52
 4945 0790 01       		.uleb128 0x1
 4946 0791 4A       		.byte	0x4a
 4947 0792 1B       		.uleb128 0x1b
 4948 0793 01       		.uleb128 0x1
 4949 0794 51       		.byte	0x51
 4950 0795 05       		.uleb128 0x5
 4951 0796 03       		.byte	0x3
 4952 0797 08000000 		.4byte	.LANCHOR2+8
 4953 079b 1B       		.uleb128 0x1b
 4954 079c 01       		.uleb128 0x1
 4955 079d 50       		.byte	0x50
 4956 079e 02       		.uleb128 0x2
 4957 079f 91       		.byte	0x91
 4958 07a0 5C       		.sleb128 -36
 4959 07a1 00       		.byte	0
 4960 07a2 1C       		.uleb128 0x1c
 4961 07a3 24000000 		.4byte	.LVL134
 4962 07a7 3D040000 		.4byte	0x43d
 4963 07ab 1B       		.uleb128 0x1b
 4964 07ac 01       		.uleb128 0x1
 4965 07ad 51       		.byte	0x51
 4966 07ae 01       		.uleb128 0x1
 4967 07af 4A       		.byte	0x4a
 4968 07b0 1B       		.uleb128 0x1b
 4969 07b1 01       		.uleb128 0x1
 4970 07b2 50       		.byte	0x50
 4971 07b3 02       		.uleb128 0x2
 4972 07b4 91       		.byte	0x91
 4973 07b5 5C       		.sleb128 -36
 4974 07b6 00       		.byte	0
 4975 07b7 00       		.byte	0
 4976 07b8 21       		.uleb128 0x21
 4977 07b9 C3000000 		.4byte	0xc3
 4978 07bd C8070000 		.4byte	0x7c8
 4979 07c1 22       		.uleb128 0x22
 4980 07c2 07010000 		.4byte	0x107
 4981 07c6 19       		.byte	0x19
 4982 07c7 00       		.byte	0
 4983 07c8 26       		.uleb128 0x26
 4984 07c9 4A030000 		.4byte	.LASF75
 4985 07cd 01       		.byte	0x1
 4986 07ce 6901     		.2byte	0x169
 4987 07d0 AD000000 		.4byte	0xad
 4988 07d4 00000000 		.4byte	.LFB45
ARM GAS  C:\Users\User\AppData\Local\Temp\ccQ45nMh.s 			page 102


 4989 07d8 0C000000 		.4byte	.LFE45-.LFB45
 4990 07dc 01       		.uleb128 0x1
 4991 07dd 9C       		.byte	0x9c
 4992 07de 26       		.uleb128 0x26
 4993 07df CB030000 		.4byte	.LASF76
 4994 07e3 01       		.byte	0x1
 4995 07e4 6D01     		.2byte	0x16d
 4996 07e6 AD000000 		.4byte	0xad
 4997 07ea 00000000 		.4byte	.LFB46
 4998 07ee 0C000000 		.4byte	.LFE46-.LFB46
 4999 07f2 01       		.uleb128 0x1
 5000 07f3 9C       		.byte	0x9c
 5001 07f4 26       		.uleb128 0x26
 5002 07f5 1E000000 		.4byte	.LASF77
 5003 07f9 01       		.byte	0x1
 5004 07fa 7101     		.2byte	0x171
 5005 07fc A2000000 		.4byte	0xa2
 5006 0800 00000000 		.4byte	.LFB47
 5007 0804 0C000000 		.4byte	.LFE47-.LFB47
 5008 0808 01       		.uleb128 0x1
 5009 0809 9C       		.byte	0x9c
 5010 080a 23       		.uleb128 0x23
 5011 080b 1E060000 		.4byte	.LASF78
 5012 080f 01       		.byte	0x1
 5013 0810 7501     		.2byte	0x175
 5014 0812 00000000 		.4byte	.LFB48
 5015 0816 0C000000 		.4byte	.LFE48-.LFB48
 5016 081a 01       		.uleb128 0x1
 5017 081b 9C       		.byte	0x9c
 5018 081c 39080000 		.4byte	0x839
 5019 0820 17       		.uleb128 0x17
 5020 0821 7800     		.ascii	"x\000"
 5021 0823 01       		.byte	0x1
 5022 0824 7501     		.2byte	0x175
 5023 0826 AD000000 		.4byte	0xad
 5024 082a 01       		.uleb128 0x1
 5025 082b 50       		.byte	0x50
 5026 082c 17       		.uleb128 0x17
 5027 082d 7900     		.ascii	"y\000"
 5028 082f 01       		.byte	0x1
 5029 0830 7501     		.2byte	0x175
 5030 0832 AD000000 		.4byte	0xad
 5031 0836 01       		.uleb128 0x1
 5032 0837 51       		.byte	0x51
 5033 0838 00       		.byte	0
 5034 0839 23       		.uleb128 0x23
 5035 083a C0040000 		.4byte	.LASF79
 5036 083e 01       		.byte	0x1
 5037 083f 7A01     		.2byte	0x17a
 5038 0841 00000000 		.4byte	.LFB49
 5039 0845 10000000 		.4byte	.LFE49-.LFB49
 5040 0849 01       		.uleb128 0x1
 5041 084a 9C       		.byte	0x9c
 5042 084b 60080000 		.4byte	0x860
 5043 084f 19       		.uleb128 0x19
 5044 0850 23010000 		.4byte	.LASF57
 5045 0854 01       		.byte	0x1
ARM GAS  C:\Users\User\AppData\Local\Temp\ccQ45nMh.s 			page 103


 5046 0855 7A01     		.2byte	0x17a
 5047 0857 A2000000 		.4byte	0xa2
 5048 085b 84070000 		.4byte	.LLST35
 5049 085f 00       		.byte	0
 5050 0860 23       		.uleb128 0x23
 5051 0861 B1030000 		.4byte	.LASF80
 5052 0865 01       		.byte	0x1
 5053 0866 7E01     		.2byte	0x17e
 5054 0868 00000000 		.4byte	.LFB50
 5055 086c 0C000000 		.4byte	.LFE50-.LFB50
 5056 0870 01       		.uleb128 0x1
 5057 0871 9C       		.byte	0x9c
 5058 0872 85080000 		.4byte	0x885
 5059 0876 25       		.uleb128 0x25
 5060 0877 2C040000 		.4byte	.LASF46
 5061 087b 01       		.byte	0x1
 5062 087c 7E01     		.2byte	0x17e
 5063 087e B8000000 		.4byte	0xb8
 5064 0882 01       		.uleb128 0x1
 5065 0883 50       		.byte	0x50
 5066 0884 00       		.byte	0
 5067 0885 23       		.uleb128 0x23
 5068 0886 38000000 		.4byte	.LASF81
 5069 088a 01       		.byte	0x1
 5070 088b 8401     		.2byte	0x184
 5071 088d 00000000 		.4byte	.LFB51
 5072 0891 0C000000 		.4byte	.LFE51-.LFB51
 5073 0895 01       		.uleb128 0x1
 5074 0896 9C       		.byte	0x9c
 5075 0897 AA080000 		.4byte	0x8aa
 5076 089b 25       		.uleb128 0x25
 5077 089c 2C040000 		.4byte	.LASF46
 5078 08a0 01       		.byte	0x1
 5079 08a1 8401     		.2byte	0x184
 5080 08a3 B8000000 		.4byte	0xb8
 5081 08a7 01       		.uleb128 0x1
 5082 08a8 50       		.byte	0x50
 5083 08a9 00       		.byte	0
 5084 08aa 23       		.uleb128 0x23
 5085 08ab 2C060000 		.4byte	.LASF82
 5086 08af 01       		.byte	0x1
 5087 08b0 8801     		.2byte	0x188
 5088 08b2 00000000 		.4byte	.LFB52
 5089 08b6 0C000000 		.4byte	.LFE52-.LFB52
 5090 08ba 01       		.uleb128 0x1
 5091 08bb 9C       		.byte	0x9c
 5092 08bc CD080000 		.4byte	0x8cd
 5093 08c0 17       		.uleb128 0x17
 5094 08c1 7700     		.ascii	"w\000"
 5095 08c3 01       		.byte	0x1
 5096 08c4 8801     		.2byte	0x188
 5097 08c6 C3000000 		.4byte	0xc3
 5098 08ca 01       		.uleb128 0x1
 5099 08cb 50       		.byte	0x50
 5100 08cc 00       		.byte	0
 5101 08cd 23       		.uleb128 0x23
 5102 08ce 4E000000 		.4byte	.LASF83
ARM GAS  C:\Users\User\AppData\Local\Temp\ccQ45nMh.s 			page 104


 5103 08d2 01       		.byte	0x1
 5104 08d3 8C01     		.2byte	0x18c
 5105 08d5 00000000 		.4byte	.LFB53
 5106 08d9 4C000000 		.4byte	.LFE53-.LFB53
 5107 08dd 01       		.uleb128 0x1
 5108 08de 9C       		.byte	0x9c
 5109 08df F2080000 		.4byte	0x8f2
 5110 08e3 18       		.uleb128 0x18
 5111 08e4 7800     		.ascii	"x\000"
 5112 08e6 01       		.byte	0x1
 5113 08e7 8C01     		.2byte	0x18c
 5114 08e9 A2000000 		.4byte	0xa2
 5115 08ed A5070000 		.4byte	.LLST36
 5116 08f1 00       		.byte	0
 5117 08f2 23       		.uleb128 0x23
 5118 08f3 00000000 		.4byte	.LASF84
 5119 08f7 01       		.byte	0x1
 5120 08f8 B101     		.2byte	0x1b1
 5121 08fa 00000000 		.4byte	.LFB55
 5122 08fe 5C000000 		.4byte	.LFE55-.LFB55
 5123 0902 01       		.uleb128 0x1
 5124 0903 9C       		.byte	0x9c
 5125 0904 5F090000 		.4byte	0x95f
 5126 0908 18       		.uleb128 0x18
 5127 0909 7800     		.ascii	"x\000"
 5128 090b 01       		.byte	0x1
 5129 090c B101     		.2byte	0x1b1
 5130 090e AD000000 		.4byte	0xad
 5131 0912 C6070000 		.4byte	.LLST37
 5132 0916 18       		.uleb128 0x18
 5133 0917 7900     		.ascii	"y\000"
 5134 0919 01       		.byte	0x1
 5135 091a B101     		.2byte	0x1b1
 5136 091c AD000000 		.4byte	0xad
 5137 0920 09080000 		.4byte	.LLST38
 5138 0924 19       		.uleb128 0x19
 5139 0925 2C040000 		.4byte	.LASF46
 5140 0929 01       		.byte	0x1
 5141 092a B101     		.2byte	0x1b1
 5142 092c B8000000 		.4byte	0xb8
 5143 0930 58080000 		.4byte	.LLST39
 5144 0934 1A       		.uleb128 0x1a
 5145 0935 44000000 		.4byte	.LVL150
 5146 0939 33030000 		.4byte	0x333
 5147 093d 4E090000 		.4byte	0x94e
 5148 0941 1B       		.uleb128 0x1b
 5149 0942 01       		.uleb128 0x1
 5150 0943 51       		.byte	0x51
 5151 0944 02       		.uleb128 0x2
 5152 0945 75       		.byte	0x75
 5153 0946 00       		.sleb128 0
 5154 0947 1B       		.uleb128 0x1b
 5155 0948 01       		.uleb128 0x1
 5156 0949 50       		.byte	0x50
 5157 094a 02       		.uleb128 0x2
 5158 094b 76       		.byte	0x76
 5159 094c 00       		.sleb128 0
ARM GAS  C:\Users\User\AppData\Local\Temp\ccQ45nMh.s 			page 105


 5160 094d 00       		.byte	0
 5161 094e 1C       		.uleb128 0x1c
 5162 094f 52000000 		.4byte	.LVL151
 5163 0953 CA010000 		.4byte	0x1ca
 5164 0957 1B       		.uleb128 0x1b
 5165 0958 01       		.uleb128 0x1
 5166 0959 52       		.byte	0x52
 5167 095a 02       		.uleb128 0x2
 5168 095b 74       		.byte	0x74
 5169 095c 00       		.sleb128 0
 5170 095d 00       		.byte	0
 5171 095e 00       		.byte	0
 5172 095f 23       		.uleb128 0x23
 5173 0960 C2020000 		.4byte	.LASF85
 5174 0964 01       		.byte	0x1
 5175 0965 DE01     		.2byte	0x1de
 5176 0967 00000000 		.4byte	.LFB57
 5177 096b E8000000 		.4byte	.LFE57-.LFB57
 5178 096f 01       		.uleb128 0x1
 5179 0970 9C       		.byte	0x9c
 5180 0971 830A0000 		.4byte	0xa83
 5181 0975 18       		.uleb128 0x18
 5182 0976 783000   		.ascii	"x0\000"
 5183 0979 01       		.byte	0x1
 5184 097a DE01     		.2byte	0x1de
 5185 097c AD000000 		.4byte	0xad
 5186 0980 79080000 		.4byte	.LLST40
 5187 0984 18       		.uleb128 0x18
 5188 0985 793000   		.ascii	"y0\000"
 5189 0988 01       		.byte	0x1
 5190 0989 DE01     		.2byte	0x1de
 5191 098b AD000000 		.4byte	0xad
 5192 098f D4080000 		.4byte	.LLST41
 5193 0993 18       		.uleb128 0x18
 5194 0994 783100   		.ascii	"x1\000"
 5195 0997 01       		.byte	0x1
 5196 0998 DE01     		.2byte	0x1de
 5197 099a AD000000 		.4byte	0xad
 5198 099e 2F090000 		.4byte	.LLST42
 5199 09a2 18       		.uleb128 0x18
 5200 09a3 793100   		.ascii	"y1\000"
 5201 09a6 01       		.byte	0x1
 5202 09a7 DE01     		.2byte	0x1de
 5203 09a9 AD000000 		.4byte	0xad
 5204 09ad 5B090000 		.4byte	.LLST43
 5205 09b1 19       		.uleb128 0x19
 5206 09b2 2C040000 		.4byte	.LASF46
 5207 09b6 01       		.byte	0x1
 5208 09b7 DE01     		.2byte	0x1de
 5209 09b9 B8000000 		.4byte	0xb8
 5210 09bd B6090000 		.4byte	.LLST44
 5211 09c1 27       		.uleb128 0x27
 5212 09c2 7400     		.ascii	"t\000"
 5213 09c4 01       		.byte	0x1
 5214 09c5 E601     		.2byte	0x1e6
 5215 09c7 AD000000 		.4byte	0xad
 5216 09cb 14       		.uleb128 0x14
ARM GAS  C:\Users\User\AppData\Local\Temp\ccQ45nMh.s 			page 106


 5217 09cc 14030000 		.4byte	.LASF86
 5218 09d0 01       		.byte	0x1
 5219 09d1 E801     		.2byte	0x1e8
 5220 09d3 AD000000 		.4byte	0xad
 5221 09d7 E2090000 		.4byte	.LLST45
 5222 09db 15       		.uleb128 0x15
 5223 09dc 647800   		.ascii	"dx\000"
 5224 09df 01       		.byte	0x1
 5225 09e0 F101     		.2byte	0x1f1
 5226 09e2 AD000000 		.4byte	0xad
 5227 09e6 2C0A0000 		.4byte	.LLST46
 5228 09ea 15       		.uleb128 0x15
 5229 09eb 647900   		.ascii	"dy\000"
 5230 09ee 01       		.byte	0x1
 5231 09ef F101     		.2byte	0x1f1
 5232 09f1 AD000000 		.4byte	0xad
 5233 09f5 3F0A0000 		.4byte	.LLST47
 5234 09f9 15       		.uleb128 0x15
 5235 09fa 65727200 		.ascii	"err\000"
 5236 09fe 01       		.byte	0x1
 5237 09ff F401     		.2byte	0x1f4
 5238 0a01 AD000000 		.4byte	0xad
 5239 0a05 520A0000 		.4byte	.LLST48
 5240 0a09 14       		.uleb128 0x14
 5241 0a0a EF040000 		.4byte	.LASF87
 5242 0a0e 01       		.byte	0x1
 5243 0a0f F501     		.2byte	0x1f5
 5244 0a11 AD000000 		.4byte	0xad
 5245 0a15 700A0000 		.4byte	.LLST49
 5246 0a19 1A       		.uleb128 0x1a
 5247 0a1a 30000000 		.4byte	.LVL158
 5248 0a1e 79030000 		.4byte	0x379
 5249 0a22 420A0000 		.4byte	0xa42
 5250 0a26 1B       		.uleb128 0x1b
 5251 0a27 01       		.uleb128 0x1
 5252 0a28 52       		.byte	0x52
 5253 0a29 02       		.uleb128 0x2
 5254 0a2a 77       		.byte	0x77
 5255 0a2b 00       		.sleb128 0
 5256 0a2c 1B       		.uleb128 0x1b
 5257 0a2d 01       		.uleb128 0x1
 5258 0a2e 51       		.byte	0x51
 5259 0a2f 02       		.uleb128 0x2
 5260 0a30 76       		.byte	0x76
 5261 0a31 00       		.sleb128 0
 5262 0a32 1B       		.uleb128 0x1b
 5263 0a33 01       		.uleb128 0x1
 5264 0a34 50       		.byte	0x50
 5265 0a35 02       		.uleb128 0x2
 5266 0a36 74       		.byte	0x74
 5267 0a37 00       		.sleb128 0
 5268 0a38 1B       		.uleb128 0x1b
 5269 0a39 02       		.uleb128 0x2
 5270 0a3a 7D       		.byte	0x7d
 5271 0a3b 00       		.sleb128 0
 5272 0a3c 04       		.uleb128 0x4
 5273 0a3d 91       		.byte	0x91
ARM GAS  C:\Users\User\AppData\Local\Temp\ccQ45nMh.s 			page 107


 5274 0a3e 54       		.sleb128 -44
 5275 0a3f 94       		.byte	0x94
 5276 0a40 02       		.byte	0x2
 5277 0a41 00       		.byte	0
 5278 0a42 1A       		.uleb128 0x1a
 5279 0a43 AC000000 		.4byte	.LVL178
 5280 0a47 F2080000 		.4byte	0x8f2
 5281 0a4b 640A0000 		.4byte	0xa64
 5282 0a4f 1B       		.uleb128 0x1b
 5283 0a50 01       		.uleb128 0x1
 5284 0a51 52       		.byte	0x52
 5285 0a52 04       		.uleb128 0x4
 5286 0a53 91       		.byte	0x91
 5287 0a54 54       		.sleb128 -44
 5288 0a55 94       		.byte	0x94
 5289 0a56 02       		.byte	0x2
 5290 0a57 1B       		.uleb128 0x1b
 5291 0a58 01       		.uleb128 0x1
 5292 0a59 51       		.byte	0x51
 5293 0a5a 02       		.uleb128 0x2
 5294 0a5b 74       		.byte	0x74
 5295 0a5c 00       		.sleb128 0
 5296 0a5d 1B       		.uleb128 0x1b
 5297 0a5e 01       		.uleb128 0x1
 5298 0a5f 50       		.byte	0x50
 5299 0a60 02       		.uleb128 0x2
 5300 0a61 76       		.byte	0x76
 5301 0a62 00       		.sleb128 0
 5302 0a63 00       		.byte	0
 5303 0a64 1C       		.uleb128 0x1c
 5304 0a65 B8000000 		.4byte	.LVL180
 5305 0a69 F2080000 		.4byte	0x8f2
 5306 0a6d 1B       		.uleb128 0x1b
 5307 0a6e 01       		.uleb128 0x1
 5308 0a6f 52       		.byte	0x52
 5309 0a70 04       		.uleb128 0x4
 5310 0a71 91       		.byte	0x91
 5311 0a72 54       		.sleb128 -44
 5312 0a73 94       		.byte	0x94
 5313 0a74 02       		.byte	0x2
 5314 0a75 1B       		.uleb128 0x1b
 5315 0a76 01       		.uleb128 0x1
 5316 0a77 51       		.byte	0x51
 5317 0a78 02       		.uleb128 0x2
 5318 0a79 76       		.byte	0x76
 5319 0a7a 00       		.sleb128 0
 5320 0a7b 1B       		.uleb128 0x1b
 5321 0a7c 01       		.uleb128 0x1
 5322 0a7d 50       		.byte	0x50
 5323 0a7e 02       		.uleb128 0x2
 5324 0a7f 74       		.byte	0x74
 5325 0a80 00       		.sleb128 0
 5326 0a81 00       		.byte	0
 5327 0a82 00       		.byte	0
 5328 0a83 23       		.uleb128 0x23
 5329 0a84 00030000 		.4byte	.LASF88
 5330 0a88 01       		.byte	0x1
ARM GAS  C:\Users\User\AppData\Local\Temp\ccQ45nMh.s 			page 108


 5331 0a89 0902     		.2byte	0x209
 5332 0a8b 00000000 		.4byte	.LFB58
 5333 0a8f 56000000 		.4byte	.LFE58-.LFB58
 5334 0a93 01       		.uleb128 0x1
 5335 0a94 9C       		.byte	0x9c
 5336 0a95 9A0B0000 		.4byte	0xb9a
 5337 0a99 18       		.uleb128 0x18
 5338 0a9a 7800     		.ascii	"x\000"
 5339 0a9c 01       		.byte	0x1
 5340 0a9d 0902     		.2byte	0x209
 5341 0a9f AD000000 		.4byte	0xad
 5342 0aa3 830A0000 		.4byte	.LLST50
 5343 0aa7 18       		.uleb128 0x18
 5344 0aa8 7900     		.ascii	"y\000"
 5345 0aaa 01       		.byte	0x1
 5346 0aab 0902     		.2byte	0x209
 5347 0aad AD000000 		.4byte	0xad
 5348 0ab1 A40A0000 		.4byte	.LLST51
 5349 0ab5 18       		.uleb128 0x18
 5350 0ab6 7700     		.ascii	"w\000"
 5351 0ab8 01       		.byte	0x1
 5352 0ab9 0902     		.2byte	0x209
 5353 0abb AD000000 		.4byte	0xad
 5354 0abf C50A0000 		.4byte	.LLST52
 5355 0ac3 18       		.uleb128 0x18
 5356 0ac4 6800     		.ascii	"h\000"
 5357 0ac6 01       		.byte	0x1
 5358 0ac7 0902     		.2byte	0x209
 5359 0ac9 AD000000 		.4byte	0xad
 5360 0acd E60A0000 		.4byte	.LLST53
 5361 0ad1 19       		.uleb128 0x19
 5362 0ad2 2C040000 		.4byte	.LASF46
 5363 0ad6 01       		.byte	0x1
 5364 0ad7 0902     		.2byte	0x209
 5365 0ad9 B8000000 		.4byte	0xb8
 5366 0add 070B0000 		.4byte	.LLST54
 5367 0ae1 1A       		.uleb128 0x1a
 5368 0ae2 1E000000 		.4byte	.LVL193
 5369 0ae6 5F090000 		.4byte	0x95f
 5370 0aea 120B0000 		.4byte	0xb12
 5371 0aee 1B       		.uleb128 0x1b
 5372 0aef 01       		.uleb128 0x1
 5373 0af0 53       		.byte	0x53
 5374 0af1 04       		.uleb128 0x4
 5375 0af2 91       		.byte	0x91
 5376 0af3 64       		.sleb128 -28
 5377 0af4 94       		.byte	0x94
 5378 0af5 02       		.byte	0x2
 5379 0af6 1B       		.uleb128 0x1b
 5380 0af7 01       		.uleb128 0x1
 5381 0af8 52       		.byte	0x52
 5382 0af9 02       		.uleb128 0x2
 5383 0afa 75       		.byte	0x75
 5384 0afb 00       		.sleb128 0
 5385 0afc 1B       		.uleb128 0x1b
 5386 0afd 01       		.uleb128 0x1
 5387 0afe 51       		.byte	0x51
ARM GAS  C:\Users\User\AppData\Local\Temp\ccQ45nMh.s 			page 109


 5388 0aff 04       		.uleb128 0x4
 5389 0b00 91       		.byte	0x91
 5390 0b01 64       		.sleb128 -28
 5391 0b02 94       		.byte	0x94
 5392 0b03 02       		.byte	0x2
 5393 0b04 1B       		.uleb128 0x1b
 5394 0b05 01       		.uleb128 0x1
 5395 0b06 50       		.byte	0x50
 5396 0b07 02       		.uleb128 0x2
 5397 0b08 77       		.byte	0x77
 5398 0b09 00       		.sleb128 0
 5399 0b0a 1B       		.uleb128 0x1b
 5400 0b0b 02       		.uleb128 0x2
 5401 0b0c 7D       		.byte	0x7d
 5402 0b0d 00       		.sleb128 0
 5403 0b0e 02       		.uleb128 0x2
 5404 0b0f 76       		.byte	0x76
 5405 0b10 00       		.sleb128 0
 5406 0b11 00       		.byte	0
 5407 0b12 1A       		.uleb128 0x1a
 5408 0b13 36000000 		.4byte	.LVL194
 5409 0b17 5F090000 		.4byte	0x95f
 5410 0b1b 3F0B0000 		.4byte	0xb3f
 5411 0b1f 1B       		.uleb128 0x1b
 5412 0b20 01       		.uleb128 0x1
 5413 0b21 53       		.byte	0x53
 5414 0b22 02       		.uleb128 0x2
 5415 0b23 74       		.byte	0x74
 5416 0b24 00       		.sleb128 0
 5417 0b25 1B       		.uleb128 0x1b
 5418 0b26 01       		.uleb128 0x1
 5419 0b27 52       		.byte	0x52
 5420 0b28 02       		.uleb128 0x2
 5421 0b29 75       		.byte	0x75
 5422 0b2a 00       		.sleb128 0
 5423 0b2b 1B       		.uleb128 0x1b
 5424 0b2c 01       		.uleb128 0x1
 5425 0b2d 51       		.byte	0x51
 5426 0b2e 02       		.uleb128 0x2
 5427 0b2f 74       		.byte	0x74
 5428 0b30 00       		.sleb128 0
 5429 0b31 1B       		.uleb128 0x1b
 5430 0b32 01       		.uleb128 0x1
 5431 0b33 50       		.byte	0x50
 5432 0b34 02       		.uleb128 0x2
 5433 0b35 77       		.byte	0x77
 5434 0b36 00       		.sleb128 0
 5435 0b37 1B       		.uleb128 0x1b
 5436 0b38 02       		.uleb128 0x2
 5437 0b39 7D       		.byte	0x7d
 5438 0b3a 00       		.sleb128 0
 5439 0b3b 02       		.uleb128 0x2
 5440 0b3c 76       		.byte	0x76
 5441 0b3d 00       		.sleb128 0
 5442 0b3e 00       		.byte	0
 5443 0b3f 1A       		.uleb128 0x1a
 5444 0b40 44000000 		.4byte	.LVL195
ARM GAS  C:\Users\User\AppData\Local\Temp\ccQ45nMh.s 			page 110


 5445 0b44 5F090000 		.4byte	0x95f
 5446 0b48 6E0B0000 		.4byte	0xb6e
 5447 0b4c 1B       		.uleb128 0x1b
 5448 0b4d 01       		.uleb128 0x1
 5449 0b4e 53       		.byte	0x53
 5450 0b4f 02       		.uleb128 0x2
 5451 0b50 74       		.byte	0x74
 5452 0b51 00       		.sleb128 0
 5453 0b52 1B       		.uleb128 0x1b
 5454 0b53 01       		.uleb128 0x1
 5455 0b54 52       		.byte	0x52
 5456 0b55 02       		.uleb128 0x2
 5457 0b56 77       		.byte	0x77
 5458 0b57 00       		.sleb128 0
 5459 0b58 1B       		.uleb128 0x1b
 5460 0b59 01       		.uleb128 0x1
 5461 0b5a 51       		.byte	0x51
 5462 0b5b 04       		.uleb128 0x4
 5463 0b5c 91       		.byte	0x91
 5464 0b5d 64       		.sleb128 -28
 5465 0b5e 94       		.byte	0x94
 5466 0b5f 02       		.byte	0x2
 5467 0b60 1B       		.uleb128 0x1b
 5468 0b61 01       		.uleb128 0x1
 5469 0b62 50       		.byte	0x50
 5470 0b63 02       		.uleb128 0x2
 5471 0b64 77       		.byte	0x77
 5472 0b65 00       		.sleb128 0
 5473 0b66 1B       		.uleb128 0x1b
 5474 0b67 02       		.uleb128 0x2
 5475 0b68 7D       		.byte	0x7d
 5476 0b69 00       		.sleb128 0
 5477 0b6a 02       		.uleb128 0x2
 5478 0b6b 76       		.byte	0x76
 5479 0b6c 00       		.sleb128 0
 5480 0b6d 00       		.byte	0
 5481 0b6e 1C       		.uleb128 0x1c
 5482 0b6f 52000000 		.4byte	.LVL196
 5483 0b73 5F090000 		.4byte	0x95f
 5484 0b77 1B       		.uleb128 0x1b
 5485 0b78 01       		.uleb128 0x1
 5486 0b79 53       		.byte	0x53
 5487 0b7a 02       		.uleb128 0x2
 5488 0b7b 74       		.byte	0x74
 5489 0b7c 00       		.sleb128 0
 5490 0b7d 1B       		.uleb128 0x1b
 5491 0b7e 01       		.uleb128 0x1
 5492 0b7f 52       		.byte	0x52
 5493 0b80 02       		.uleb128 0x2
 5494 0b81 75       		.byte	0x75
 5495 0b82 00       		.sleb128 0
 5496 0b83 1B       		.uleb128 0x1b
 5497 0b84 01       		.uleb128 0x1
 5498 0b85 51       		.byte	0x51
 5499 0b86 04       		.uleb128 0x4
 5500 0b87 91       		.byte	0x91
 5501 0b88 64       		.sleb128 -28
ARM GAS  C:\Users\User\AppData\Local\Temp\ccQ45nMh.s 			page 111


 5502 0b89 94       		.byte	0x94
 5503 0b8a 02       		.byte	0x2
 5504 0b8b 1B       		.uleb128 0x1b
 5505 0b8c 01       		.uleb128 0x1
 5506 0b8d 50       		.byte	0x50
 5507 0b8e 02       		.uleb128 0x2
 5508 0b8f 75       		.byte	0x75
 5509 0b90 00       		.sleb128 0
 5510 0b91 1B       		.uleb128 0x1b
 5511 0b92 02       		.uleb128 0x2
 5512 0b93 7D       		.byte	0x7d
 5513 0b94 00       		.sleb128 0
 5514 0b95 02       		.uleb128 0x2
 5515 0b96 76       		.byte	0x76
 5516 0b97 00       		.sleb128 0
 5517 0b98 00       		.byte	0
 5518 0b99 00       		.byte	0
 5519 0b9a 23       		.uleb128 0x23
 5520 0b9b DF030000 		.4byte	.LASF89
 5521 0b9f 01       		.byte	0x1
 5522 0ba0 1102     		.2byte	0x211
 5523 0ba2 00000000 		.4byte	.LFB59
 5524 0ba6 70000000 		.4byte	.LFE59-.LFB59
 5525 0baa 01       		.uleb128 0x1
 5526 0bab 9C       		.byte	0x9c
 5527 0bac 670C0000 		.4byte	0xc67
 5528 0bb0 18       		.uleb128 0x18
 5529 0bb1 7800     		.ascii	"x\000"
 5530 0bb3 01       		.byte	0x1
 5531 0bb4 1102     		.2byte	0x211
 5532 0bb6 AD000000 		.4byte	0xad
 5533 0bba 330B0000 		.4byte	.LLST55
 5534 0bbe 18       		.uleb128 0x18
 5535 0bbf 7900     		.ascii	"y\000"
 5536 0bc1 01       		.byte	0x1
 5537 0bc2 1102     		.2byte	0x211
 5538 0bc4 AD000000 		.4byte	0xad
 5539 0bc8 6D0B0000 		.4byte	.LLST56
 5540 0bcc 18       		.uleb128 0x18
 5541 0bcd 7700     		.ascii	"w\000"
 5542 0bcf 01       		.byte	0x1
 5543 0bd0 1102     		.2byte	0x211
 5544 0bd2 AD000000 		.4byte	0xad
 5545 0bd6 A70B0000 		.4byte	.LLST57
 5546 0bda 18       		.uleb128 0x18
 5547 0bdb 6800     		.ascii	"h\000"
 5548 0bdd 01       		.byte	0x1
 5549 0bde 1102     		.2byte	0x211
 5550 0be0 AD000000 		.4byte	0xad
 5551 0be4 E10B0000 		.4byte	.LLST58
 5552 0be8 19       		.uleb128 0x19
 5553 0be9 2C040000 		.4byte	.LASF46
 5554 0bed 01       		.byte	0x1
 5555 0bee 1102     		.2byte	0x211
 5556 0bf0 B8000000 		.4byte	0xb8
 5557 0bf4 020C0000 		.4byte	.LLST59
 5558 0bf8 15       		.uleb128 0x15
ARM GAS  C:\Users\User\AppData\Local\Temp\ccQ45nMh.s 			page 112


 5559 0bf9 6900     		.ascii	"i\000"
 5560 0bfb 01       		.byte	0x1
 5561 0bfc 1202     		.2byte	0x212
 5562 0bfe AD000000 		.4byte	0xad
 5563 0c02 2E0C0000 		.4byte	.LLST60
 5564 0c06 1A       		.uleb128 0x1a
 5565 0c07 36000000 		.4byte	.LVL202
 5566 0c0b 5F090000 		.4byte	0x95f
 5567 0c0f 380C0000 		.4byte	0xc38
 5568 0c13 1B       		.uleb128 0x1b
 5569 0c14 01       		.uleb128 0x1
 5570 0c15 53       		.byte	0x53
 5571 0c16 07       		.uleb128 0x7
 5572 0c17 76       		.byte	0x76
 5573 0c18 00       		.sleb128 0
 5574 0c19 78       		.byte	0x78
 5575 0c1a 00       		.sleb128 0
 5576 0c1b 22       		.byte	0x22
 5577 0c1c 31       		.byte	0x31
 5578 0c1d 1C       		.byte	0x1c
 5579 0c1e 1B       		.uleb128 0x1b
 5580 0c1f 01       		.uleb128 0x1
 5581 0c20 52       		.byte	0x52
 5582 0c21 02       		.uleb128 0x2
 5583 0c22 74       		.byte	0x74
 5584 0c23 00       		.sleb128 0
 5585 0c24 1B       		.uleb128 0x1b
 5586 0c25 01       		.uleb128 0x1
 5587 0c26 51       		.byte	0x51
 5588 0c27 02       		.uleb128 0x2
 5589 0c28 76       		.byte	0x76
 5590 0c29 00       		.sleb128 0
 5591 0c2a 1B       		.uleb128 0x1b
 5592 0c2b 01       		.uleb128 0x1
 5593 0c2c 50       		.byte	0x50
 5594 0c2d 02       		.uleb128 0x2
 5595 0c2e 74       		.byte	0x74
 5596 0c2f 00       		.sleb128 0
 5597 0c30 1B       		.uleb128 0x1b
 5598 0c31 02       		.uleb128 0x2
 5599 0c32 7D       		.byte	0x7d
 5600 0c33 00       		.sleb128 0
 5601 0c34 02       		.uleb128 0x2
 5602 0c35 79       		.byte	0x79
 5603 0c36 00       		.sleb128 0
 5604 0c37 00       		.byte	0
 5605 0c38 1C       		.uleb128 0x1c
 5606 0c39 5A000000 		.4byte	.LVL207
 5607 0c3d 5F090000 		.4byte	0x95f
 5608 0c41 1B       		.uleb128 0x1b
 5609 0c42 01       		.uleb128 0x1
 5610 0c43 53       		.byte	0x53
 5611 0c44 02       		.uleb128 0x2
 5612 0c45 74       		.byte	0x74
 5613 0c46 00       		.sleb128 0
 5614 0c47 1B       		.uleb128 0x1b
 5615 0c48 01       		.uleb128 0x1
ARM GAS  C:\Users\User\AppData\Local\Temp\ccQ45nMh.s 			page 113


 5616 0c49 52       		.byte	0x52
 5617 0c4a 07       		.uleb128 0x7
 5618 0c4b 75       		.byte	0x75
 5619 0c4c 00       		.sleb128 0
 5620 0c4d 77       		.byte	0x77
 5621 0c4e 00       		.sleb128 0
 5622 0c4f 22       		.byte	0x22
 5623 0c50 31       		.byte	0x31
 5624 0c51 1C       		.byte	0x1c
 5625 0c52 1B       		.uleb128 0x1b
 5626 0c53 01       		.uleb128 0x1
 5627 0c54 51       		.byte	0x51
 5628 0c55 02       		.uleb128 0x2
 5629 0c56 74       		.byte	0x74
 5630 0c57 00       		.sleb128 0
 5631 0c58 1B       		.uleb128 0x1b
 5632 0c59 01       		.uleb128 0x1
 5633 0c5a 50       		.byte	0x50
 5634 0c5b 02       		.uleb128 0x2
 5635 0c5c 75       		.byte	0x75
 5636 0c5d 00       		.sleb128 0
 5637 0c5e 1B       		.uleb128 0x1b
 5638 0c5f 02       		.uleb128 0x2
 5639 0c60 7D       		.byte	0x7d
 5640 0c61 00       		.sleb128 0
 5641 0c62 02       		.uleb128 0x2
 5642 0c63 79       		.byte	0x79
 5643 0c64 00       		.sleb128 0
 5644 0c65 00       		.byte	0
 5645 0c66 00       		.byte	0
 5646 0c67 23       		.uleb128 0x23
 5647 0c68 D8010000 		.4byte	.LASF90
 5648 0c6c 01       		.byte	0x1
 5649 0c6d 2002     		.2byte	0x220
 5650 0c6f 00000000 		.4byte	.LFB60
 5651 0c73 50010000 		.4byte	.LFE60-.LFB60
 5652 0c77 01       		.uleb128 0x1
 5653 0c78 9C       		.byte	0x9c
 5654 0c79 9A0E0000 		.4byte	0xe9a
 5655 0c7d 18       		.uleb128 0x18
 5656 0c7e 783000   		.ascii	"x0\000"
 5657 0c81 01       		.byte	0x1
 5658 0c82 2002     		.2byte	0x220
 5659 0c84 AD000000 		.4byte	0xad
 5660 0c88 7A0C0000 		.4byte	.LLST61
 5661 0c8c 18       		.uleb128 0x18
 5662 0c8d 793000   		.ascii	"y0\000"
 5663 0c90 01       		.byte	0x1
 5664 0c91 2002     		.2byte	0x220
 5665 0c93 AD000000 		.4byte	0xad
 5666 0c97 9B0C0000 		.4byte	.LLST62
 5667 0c9b 18       		.uleb128 0x18
 5668 0c9c 7200     		.ascii	"r\000"
 5669 0c9e 01       		.byte	0x1
 5670 0c9f 2002     		.2byte	0x220
 5671 0ca1 AD000000 		.4byte	0xad
 5672 0ca5 D20C0000 		.4byte	.LLST63
ARM GAS  C:\Users\User\AppData\Local\Temp\ccQ45nMh.s 			page 114


 5673 0ca9 19       		.uleb128 0x19
 5674 0caa 2C040000 		.4byte	.LASF46
 5675 0cae 01       		.byte	0x1
 5676 0caf 2002     		.2byte	0x220
 5677 0cb1 B8000000 		.4byte	0xb8
 5678 0cb5 FE0C0000 		.4byte	.LLST64
 5679 0cb9 15       		.uleb128 0x15
 5680 0cba 6600     		.ascii	"f\000"
 5681 0cbc 01       		.byte	0x1
 5682 0cbd 2202     		.2byte	0x222
 5683 0cbf AD000000 		.4byte	0xad
 5684 0cc3 1F0D0000 		.4byte	.LLST65
 5685 0cc7 14       		.uleb128 0x14
 5686 0cc8 99050000 		.4byte	.LASF91
 5687 0ccc 01       		.byte	0x1
 5688 0ccd 2302     		.2byte	0x223
 5689 0ccf AD000000 		.4byte	0xad
 5690 0cd3 320D0000 		.4byte	.LLST66
 5691 0cd7 24       		.uleb128 0x24
 5692 0cd8 9F050000 		.4byte	.LASF92
 5693 0cdc 01       		.byte	0x1
 5694 0cdd 2402     		.2byte	0x224
 5695 0cdf AD000000 		.4byte	0xad
 5696 0ce3 02       		.uleb128 0x2
 5697 0ce4 91       		.byte	0x91
 5698 0ce5 54       		.sleb128 -44
 5699 0ce6 15       		.uleb128 0x15
 5700 0ce7 7800     		.ascii	"x\000"
 5701 0ce9 01       		.byte	0x1
 5702 0cea 2502     		.2byte	0x225
 5703 0cec AD000000 		.4byte	0xad
 5704 0cf0 510D0000 		.4byte	.LLST67
 5705 0cf4 28       		.uleb128 0x28
 5706 0cf5 7900     		.ascii	"y\000"
 5707 0cf7 01       		.byte	0x1
 5708 0cf8 2602     		.2byte	0x226
 5709 0cfa AD000000 		.4byte	0xad
 5710 0cfe 02       		.uleb128 0x2
 5711 0cff 91       		.byte	0x91
 5712 0d00 48       		.sleb128 -56
 5713 0d01 1A       		.uleb128 0x1a
 5714 0d02 3A000000 		.4byte	.LVL217
 5715 0d06 F2080000 		.4byte	0x8f2
 5716 0d0a 240D0000 		.4byte	0xd24
 5717 0d0e 1B       		.uleb128 0x1b
 5718 0d0f 01       		.uleb128 0x1
 5719 0d10 52       		.byte	0x52
 5720 0d11 02       		.uleb128 0x2
 5721 0d12 77       		.byte	0x77
 5722 0d13 00       		.sleb128 0
 5723 0d14 1B       		.uleb128 0x1b
 5724 0d15 01       		.uleb128 0x1
 5725 0d16 51       		.byte	0x51
 5726 0d17 05       		.uleb128 0x5
 5727 0d18 76       		.byte	0x76
 5728 0d19 00       		.sleb128 0
 5729 0d1a 7A       		.byte	0x7a
ARM GAS  C:\Users\User\AppData\Local\Temp\ccQ45nMh.s 			page 115


 5730 0d1b 00       		.sleb128 0
 5731 0d1c 22       		.byte	0x22
 5732 0d1d 1B       		.uleb128 0x1b
 5733 0d1e 01       		.uleb128 0x1
 5734 0d1f 50       		.byte	0x50
 5735 0d20 02       		.uleb128 0x2
 5736 0d21 75       		.byte	0x75
 5737 0d22 00       		.sleb128 0
 5738 0d23 00       		.byte	0
 5739 0d24 1A       		.uleb128 0x1a
 5740 0d25 48000000 		.4byte	.LVL218
 5741 0d29 F2080000 		.4byte	0x8f2
 5742 0d2d 470D0000 		.4byte	0xd47
 5743 0d31 1B       		.uleb128 0x1b
 5744 0d32 01       		.uleb128 0x1
 5745 0d33 52       		.byte	0x52
 5746 0d34 02       		.uleb128 0x2
 5747 0d35 77       		.byte	0x77
 5748 0d36 00       		.sleb128 0
 5749 0d37 1B       		.uleb128 0x1b
 5750 0d38 01       		.uleb128 0x1
 5751 0d39 51       		.byte	0x51
 5752 0d3a 05       		.uleb128 0x5
 5753 0d3b 7A       		.byte	0x7a
 5754 0d3c 00       		.sleb128 0
 5755 0d3d 76       		.byte	0x76
 5756 0d3e 00       		.sleb128 0
 5757 0d3f 1C       		.byte	0x1c
 5758 0d40 1B       		.uleb128 0x1b
 5759 0d41 01       		.uleb128 0x1
 5760 0d42 50       		.byte	0x50
 5761 0d43 02       		.uleb128 0x2
 5762 0d44 75       		.byte	0x75
 5763 0d45 00       		.sleb128 0
 5764 0d46 00       		.byte	0
 5765 0d47 1A       		.uleb128 0x1a
 5766 0d48 58000000 		.4byte	.LVL219
 5767 0d4c F2080000 		.4byte	0x8f2
 5768 0d50 6A0D0000 		.4byte	0xd6a
 5769 0d54 1B       		.uleb128 0x1b
 5770 0d55 01       		.uleb128 0x1
 5771 0d56 52       		.byte	0x52
 5772 0d57 02       		.uleb128 0x2
 5773 0d58 77       		.byte	0x77
 5774 0d59 00       		.sleb128 0
 5775 0d5a 1B       		.uleb128 0x1b
 5776 0d5b 01       		.uleb128 0x1
 5777 0d5c 51       		.byte	0x51
 5778 0d5d 02       		.uleb128 0x2
 5779 0d5e 74       		.byte	0x74
 5780 0d5f 00       		.sleb128 0
 5781 0d60 1B       		.uleb128 0x1b
 5782 0d61 01       		.uleb128 0x1
 5783 0d62 50       		.byte	0x50
 5784 0d63 05       		.uleb128 0x5
 5785 0d64 76       		.byte	0x76
 5786 0d65 00       		.sleb128 0
ARM GAS  C:\Users\User\AppData\Local\Temp\ccQ45nMh.s 			page 116


 5787 0d66 79       		.byte	0x79
 5788 0d67 00       		.sleb128 0
 5789 0d68 22       		.byte	0x22
 5790 0d69 00       		.byte	0
 5791 0d6a 1A       		.uleb128 0x1a
 5792 0d6b 66000000 		.4byte	.LVL220
 5793 0d6f F2080000 		.4byte	0x8f2
 5794 0d73 8D0D0000 		.4byte	0xd8d
 5795 0d77 1B       		.uleb128 0x1b
 5796 0d78 01       		.uleb128 0x1
 5797 0d79 52       		.byte	0x52
 5798 0d7a 02       		.uleb128 0x2
 5799 0d7b 77       		.byte	0x77
 5800 0d7c 00       		.sleb128 0
 5801 0d7d 1B       		.uleb128 0x1b
 5802 0d7e 01       		.uleb128 0x1
 5803 0d7f 51       		.byte	0x51
 5804 0d80 02       		.uleb128 0x2
 5805 0d81 74       		.byte	0x74
 5806 0d82 00       		.sleb128 0
 5807 0d83 1B       		.uleb128 0x1b
 5808 0d84 01       		.uleb128 0x1
 5809 0d85 50       		.byte	0x50
 5810 0d86 05       		.uleb128 0x5
 5811 0d87 79       		.byte	0x79
 5812 0d88 00       		.sleb128 0
 5813 0d89 76       		.byte	0x76
 5814 0d8a 00       		.sleb128 0
 5815 0d8b 1C       		.byte	0x1c
 5816 0d8c 00       		.byte	0
 5817 0d8d 1A       		.uleb128 0x1a
 5818 0d8e C4000000 		.4byte	.LVL228
 5819 0d92 F2080000 		.4byte	0x8f2
 5820 0d96 AF0D0000 		.4byte	0xdaf
 5821 0d9a 1B       		.uleb128 0x1b
 5822 0d9b 01       		.uleb128 0x1
 5823 0d9c 52       		.byte	0x52
 5824 0d9d 04       		.uleb128 0x4
 5825 0d9e 91       		.byte	0x91
 5826 0d9f 44       		.sleb128 -60
 5827 0da0 94       		.byte	0x94
 5828 0da1 02       		.byte	0x2
 5829 0da2 1B       		.uleb128 0x1b
 5830 0da3 01       		.uleb128 0x1
 5831 0da4 51       		.byte	0x51
 5832 0da5 02       		.uleb128 0x2
 5833 0da6 76       		.byte	0x76
 5834 0da7 00       		.sleb128 0
 5835 0da8 1B       		.uleb128 0x1b
 5836 0da9 01       		.uleb128 0x1
 5837 0daa 50       		.byte	0x50
 5838 0dab 02       		.uleb128 0x2
 5839 0dac 77       		.byte	0x77
 5840 0dad 00       		.sleb128 0
 5841 0dae 00       		.byte	0
 5842 0daf 1A       		.uleb128 0x1a
 5843 0db0 D6000000 		.4byte	.LVL229
ARM GAS  C:\Users\User\AppData\Local\Temp\ccQ45nMh.s 			page 117


 5844 0db4 F2080000 		.4byte	0x8f2
 5845 0db8 D30D0000 		.4byte	0xdd3
 5846 0dbc 1B       		.uleb128 0x1b
 5847 0dbd 01       		.uleb128 0x1
 5848 0dbe 52       		.byte	0x52
 5849 0dbf 04       		.uleb128 0x4
 5850 0dc0 91       		.byte	0x91
 5851 0dc1 44       		.sleb128 -60
 5852 0dc2 94       		.byte	0x94
 5853 0dc3 02       		.byte	0x2
 5854 0dc4 1B       		.uleb128 0x1b
 5855 0dc5 01       		.uleb128 0x1
 5856 0dc6 51       		.byte	0x51
 5857 0dc7 02       		.uleb128 0x2
 5858 0dc8 76       		.byte	0x76
 5859 0dc9 00       		.sleb128 0
 5860 0dca 1B       		.uleb128 0x1b
 5861 0dcb 01       		.uleb128 0x1
 5862 0dcc 50       		.byte	0x50
 5863 0dcd 04       		.uleb128 0x4
 5864 0dce 91       		.byte	0x91
 5865 0dcf 50       		.sleb128 -48
 5866 0dd0 94       		.byte	0x94
 5867 0dd1 02       		.byte	0x2
 5868 0dd2 00       		.byte	0
 5869 0dd3 1A       		.uleb128 0x1a
 5870 0dd4 E8000000 		.4byte	.LVL230
 5871 0dd8 F2080000 		.4byte	0x8f2
 5872 0ddc F60D0000 		.4byte	0xdf6
 5873 0de0 1B       		.uleb128 0x1b
 5874 0de1 01       		.uleb128 0x1
 5875 0de2 52       		.byte	0x52
 5876 0de3 02       		.uleb128 0x2
 5877 0de4 77       		.byte	0x77
 5878 0de5 00       		.sleb128 0
 5879 0de6 1B       		.uleb128 0x1b
 5880 0de7 01       		.uleb128 0x1
 5881 0de8 51       		.byte	0x51
 5882 0de9 02       		.uleb128 0x2
 5883 0dea 76       		.byte	0x76
 5884 0deb 00       		.sleb128 0
 5885 0dec 1B       		.uleb128 0x1b
 5886 0ded 01       		.uleb128 0x1
 5887 0dee 50       		.byte	0x50
 5888 0def 05       		.uleb128 0x5
 5889 0df0 79       		.byte	0x79
 5890 0df1 00       		.sleb128 0
 5891 0df2 74       		.byte	0x74
 5892 0df3 00       		.sleb128 0
 5893 0df4 22       		.byte	0x22
 5894 0df5 00       		.byte	0
 5895 0df6 1A       		.uleb128 0x1a
 5896 0df7 F4000000 		.4byte	.LVL231
 5897 0dfb F2080000 		.4byte	0x8f2
 5898 0dff 180E0000 		.4byte	0xe18
 5899 0e03 1B       		.uleb128 0x1b
 5900 0e04 01       		.uleb128 0x1
ARM GAS  C:\Users\User\AppData\Local\Temp\ccQ45nMh.s 			page 118


 5901 0e05 52       		.byte	0x52
 5902 0e06 02       		.uleb128 0x2
 5903 0e07 77       		.byte	0x77
 5904 0e08 00       		.sleb128 0
 5905 0e09 1B       		.uleb128 0x1b
 5906 0e0a 01       		.uleb128 0x1
 5907 0e0b 51       		.byte	0x51
 5908 0e0c 02       		.uleb128 0x2
 5909 0e0d 76       		.byte	0x76
 5910 0e0e 00       		.sleb128 0
 5911 0e0f 1B       		.uleb128 0x1b
 5912 0e10 01       		.uleb128 0x1
 5913 0e11 50       		.byte	0x50
 5914 0e12 04       		.uleb128 0x4
 5915 0e13 91       		.byte	0x91
 5916 0e14 50       		.sleb128 -48
 5917 0e15 94       		.byte	0x94
 5918 0e16 02       		.byte	0x2
 5919 0e17 00       		.byte	0
 5920 0e18 1A       		.uleb128 0x1a
 5921 0e19 0A010000 		.4byte	.LVL232
 5922 0e1d F2080000 		.4byte	0x8f2
 5923 0e21 3A0E0000 		.4byte	0xe3a
 5924 0e25 1B       		.uleb128 0x1b
 5925 0e26 01       		.uleb128 0x1
 5926 0e27 52       		.byte	0x52
 5927 0e28 04       		.uleb128 0x4
 5928 0e29 91       		.byte	0x91
 5929 0e2a 44       		.sleb128 -60
 5930 0e2b 94       		.byte	0x94
 5931 0e2c 02       		.byte	0x2
 5932 0e2d 1B       		.uleb128 0x1b
 5933 0e2e 01       		.uleb128 0x1
 5934 0e2f 51       		.byte	0x51
 5935 0e30 02       		.uleb128 0x2
 5936 0e31 77       		.byte	0x77
 5937 0e32 00       		.sleb128 0
 5938 0e33 1B       		.uleb128 0x1b
 5939 0e34 01       		.uleb128 0x1
 5940 0e35 50       		.byte	0x50
 5941 0e36 02       		.uleb128 0x2
 5942 0e37 76       		.byte	0x76
 5943 0e38 00       		.sleb128 0
 5944 0e39 00       		.byte	0
 5945 0e3a 1A       		.uleb128 0x1a
 5946 0e3b 1C010000 		.4byte	.LVL233
 5947 0e3f F2080000 		.4byte	0x8f2
 5948 0e43 5D0E0000 		.4byte	0xe5d
 5949 0e47 1B       		.uleb128 0x1b
 5950 0e48 01       		.uleb128 0x1
 5951 0e49 52       		.byte	0x52
 5952 0e4a 02       		.uleb128 0x2
 5953 0e4b 77       		.byte	0x77
 5954 0e4c 00       		.sleb128 0
 5955 0e4d 1B       		.uleb128 0x1b
 5956 0e4e 01       		.uleb128 0x1
 5957 0e4f 51       		.byte	0x51
ARM GAS  C:\Users\User\AppData\Local\Temp\ccQ45nMh.s 			page 119


 5958 0e50 05       		.uleb128 0x5
 5959 0e51 7A       		.byte	0x7a
 5960 0e52 00       		.sleb128 0
 5961 0e53 74       		.byte	0x74
 5962 0e54 00       		.sleb128 0
 5963 0e55 22       		.byte	0x22
 5964 0e56 1B       		.uleb128 0x1b
 5965 0e57 01       		.uleb128 0x1
 5966 0e58 50       		.byte	0x50
 5967 0e59 02       		.uleb128 0x2
 5968 0e5a 75       		.byte	0x75
 5969 0e5b 00       		.sleb128 0
 5970 0e5c 00       		.byte	0
 5971 0e5d 1A       		.uleb128 0x1a
 5972 0e5e 2C010000 		.4byte	.LVL234
 5973 0e62 F2080000 		.4byte	0x8f2
 5974 0e66 7D0E0000 		.4byte	0xe7d
 5975 0e6a 1B       		.uleb128 0x1b
 5976 0e6b 01       		.uleb128 0x1
 5977 0e6c 52       		.byte	0x52
 5978 0e6d 02       		.uleb128 0x2
 5979 0e6e 77       		.byte	0x77
 5980 0e6f 00       		.sleb128 0
 5981 0e70 1B       		.uleb128 0x1b
 5982 0e71 01       		.uleb128 0x1
 5983 0e72 51       		.byte	0x51
 5984 0e73 02       		.uleb128 0x2
 5985 0e74 74       		.byte	0x74
 5986 0e75 00       		.sleb128 0
 5987 0e76 1B       		.uleb128 0x1b
 5988 0e77 01       		.uleb128 0x1
 5989 0e78 50       		.byte	0x50
 5990 0e79 02       		.uleb128 0x2
 5991 0e7a 76       		.byte	0x76
 5992 0e7b 00       		.sleb128 0
 5993 0e7c 00       		.byte	0
 5994 0e7d 1C       		.uleb128 0x1c
 5995 0e7e 36010000 		.4byte	.LVL235
 5996 0e82 F2080000 		.4byte	0x8f2
 5997 0e86 1B       		.uleb128 0x1b
 5998 0e87 01       		.uleb128 0x1
 5999 0e88 52       		.byte	0x52
 6000 0e89 02       		.uleb128 0x2
 6001 0e8a 77       		.byte	0x77
 6002 0e8b 00       		.sleb128 0
 6003 0e8c 1B       		.uleb128 0x1b
 6004 0e8d 01       		.uleb128 0x1
 6005 0e8e 51       		.byte	0x51
 6006 0e8f 02       		.uleb128 0x2
 6007 0e90 74       		.byte	0x74
 6008 0e91 00       		.sleb128 0
 6009 0e92 1B       		.uleb128 0x1b
 6010 0e93 01       		.uleb128 0x1
 6011 0e94 50       		.byte	0x50
 6012 0e95 02       		.uleb128 0x2
 6013 0e96 75       		.byte	0x75
 6014 0e97 00       		.sleb128 0
ARM GAS  C:\Users\User\AppData\Local\Temp\ccQ45nMh.s 			page 120


 6015 0e98 00       		.byte	0
 6016 0e99 00       		.byte	0
 6017 0e9a 23       		.uleb128 0x23
 6018 0e9b 47010000 		.4byte	.LASF93
 6019 0e9f 01       		.byte	0x1
 6020 0ea0 3F02     		.2byte	0x23f
 6021 0ea2 00000000 		.4byte	.LFB61
 6022 0ea6 46000000 		.4byte	.LFE61-.LFB61
 6023 0eaa 01       		.uleb128 0x1
 6024 0eab 9C       		.byte	0x9c
 6025 0eac AA0F0000 		.4byte	0xfaa
 6026 0eb0 18       		.uleb128 0x18
 6027 0eb1 783000   		.ascii	"x0\000"
 6028 0eb4 01       		.byte	0x1
 6029 0eb5 3F02     		.2byte	0x23f
 6030 0eb7 AD000000 		.4byte	0xad
 6031 0ebb 710D0000 		.4byte	.LLST68
 6032 0ebf 18       		.uleb128 0x18
 6033 0ec0 793000   		.ascii	"y0\000"
 6034 0ec3 01       		.byte	0x1
 6035 0ec4 3F02     		.2byte	0x23f
 6036 0ec6 AD000000 		.4byte	0xad
 6037 0eca 920D0000 		.4byte	.LLST69
 6038 0ece 18       		.uleb128 0x18
 6039 0ecf 783100   		.ascii	"x1\000"
 6040 0ed2 01       		.byte	0x1
 6041 0ed3 3F02     		.2byte	0x23f
 6042 0ed5 AD000000 		.4byte	0xad
 6043 0ed9 B30D0000 		.4byte	.LLST70
 6044 0edd 18       		.uleb128 0x18
 6045 0ede 793100   		.ascii	"y1\000"
 6046 0ee1 01       		.byte	0x1
 6047 0ee2 3F02     		.2byte	0x23f
 6048 0ee4 AD000000 		.4byte	0xad
 6049 0ee8 D40D0000 		.4byte	.LLST71
 6050 0eec 18       		.uleb128 0x18
 6051 0eed 783200   		.ascii	"x2\000"
 6052 0ef0 01       		.byte	0x1
 6053 0ef1 3F02     		.2byte	0x23f
 6054 0ef3 AD000000 		.4byte	0xad
 6055 0ef7 F50D0000 		.4byte	.LLST72
 6056 0efb 18       		.uleb128 0x18
 6057 0efc 793200   		.ascii	"y2\000"
 6058 0eff 01       		.byte	0x1
 6059 0f00 3F02     		.2byte	0x23f
 6060 0f02 AD000000 		.4byte	0xad
 6061 0f06 210E0000 		.4byte	.LLST73
 6062 0f0a 19       		.uleb128 0x19
 6063 0f0b 2C040000 		.4byte	.LASF46
 6064 0f0f 01       		.byte	0x1
 6065 0f10 3F02     		.2byte	0x23f
 6066 0f12 B8000000 		.4byte	0xb8
 6067 0f16 590E0000 		.4byte	.LLST74
 6068 0f1a 1A       		.uleb128 0x1a
 6069 0f1b 26000000 		.4byte	.LVL245
 6070 0f1f 5F090000 		.4byte	0x95f
 6071 0f23 4D0F0000 		.4byte	0xf4d
ARM GAS  C:\Users\User\AppData\Local\Temp\ccQ45nMh.s 			page 121


 6072 0f27 1B       		.uleb128 0x1b
 6073 0f28 01       		.uleb128 0x1
 6074 0f29 53       		.byte	0x53
 6075 0f2a 04       		.uleb128 0x4
 6076 0f2b 91       		.byte	0x91
 6077 0f2c 5C       		.sleb128 -36
 6078 0f2d 94       		.byte	0x94
 6079 0f2e 02       		.byte	0x2
 6080 0f2f 1B       		.uleb128 0x1b
 6081 0f30 01       		.uleb128 0x1
 6082 0f31 52       		.byte	0x52
 6083 0f32 02       		.uleb128 0x2
 6084 0f33 77       		.byte	0x77
 6085 0f34 00       		.sleb128 0
 6086 0f35 1B       		.uleb128 0x1b
 6087 0f36 01       		.uleb128 0x1
 6088 0f37 51       		.byte	0x51
 6089 0f38 04       		.uleb128 0x4
 6090 0f39 91       		.byte	0x91
 6091 0f3a 64       		.sleb128 -28
 6092 0f3b 94       		.byte	0x94
 6093 0f3c 02       		.byte	0x2
 6094 0f3d 1B       		.uleb128 0x1b
 6095 0f3e 01       		.uleb128 0x1
 6096 0f3f 50       		.byte	0x50
 6097 0f40 04       		.uleb128 0x4
 6098 0f41 91       		.byte	0x91
 6099 0f42 60       		.sleb128 -32
 6100 0f43 94       		.byte	0x94
 6101 0f44 02       		.byte	0x2
 6102 0f45 1B       		.uleb128 0x1b
 6103 0f46 02       		.uleb128 0x2
 6104 0f47 7D       		.byte	0x7d
 6105 0f48 00       		.sleb128 0
 6106 0f49 02       		.uleb128 0x2
 6107 0f4a 76       		.byte	0x76
 6108 0f4b 00       		.sleb128 0
 6109 0f4c 00       		.byte	0
 6110 0f4d 1A       		.uleb128 0x1a
 6111 0f4e 34000000 		.4byte	.LVL246
 6112 0f52 5F090000 		.4byte	0x95f
 6113 0f56 7C0F0000 		.4byte	0xf7c
 6114 0f5a 1B       		.uleb128 0x1b
 6115 0f5b 01       		.uleb128 0x1
 6116 0f5c 53       		.byte	0x53
 6117 0f5d 02       		.uleb128 0x2
 6118 0f5e 74       		.byte	0x74
 6119 0f5f 00       		.sleb128 0
 6120 0f60 1B       		.uleb128 0x1b
 6121 0f61 01       		.uleb128 0x1
 6122 0f62 52       		.byte	0x52
 6123 0f63 02       		.uleb128 0x2
 6124 0f64 75       		.byte	0x75
 6125 0f65 00       		.sleb128 0
 6126 0f66 1B       		.uleb128 0x1b
 6127 0f67 01       		.uleb128 0x1
 6128 0f68 51       		.byte	0x51
ARM GAS  C:\Users\User\AppData\Local\Temp\ccQ45nMh.s 			page 122


 6129 0f69 04       		.uleb128 0x4
 6130 0f6a 91       		.byte	0x91
 6131 0f6b 5C       		.sleb128 -36
 6132 0f6c 94       		.byte	0x94
 6133 0f6d 02       		.byte	0x2
 6134 0f6e 1B       		.uleb128 0x1b
 6135 0f6f 01       		.uleb128 0x1
 6136 0f70 50       		.byte	0x50
 6137 0f71 02       		.uleb128 0x2
 6138 0f72 77       		.byte	0x77
 6139 0f73 00       		.sleb128 0
 6140 0f74 1B       		.uleb128 0x1b
 6141 0f75 02       		.uleb128 0x2
 6142 0f76 7D       		.byte	0x7d
 6143 0f77 00       		.sleb128 0
 6144 0f78 02       		.uleb128 0x2
 6145 0f79 76       		.byte	0x76
 6146 0f7a 00       		.sleb128 0
 6147 0f7b 00       		.byte	0
 6148 0f7c 1C       		.uleb128 0x1c
 6149 0f7d 42000000 		.4byte	.LVL247
 6150 0f81 5F090000 		.4byte	0x95f
 6151 0f85 1B       		.uleb128 0x1b
 6152 0f86 01       		.uleb128 0x1
 6153 0f87 53       		.byte	0x53
 6154 0f88 04       		.uleb128 0x4
 6155 0f89 91       		.byte	0x91
 6156 0f8a 64       		.sleb128 -28
 6157 0f8b 94       		.byte	0x94
 6158 0f8c 02       		.byte	0x2
 6159 0f8d 1B       		.uleb128 0x1b
 6160 0f8e 01       		.uleb128 0x1
 6161 0f8f 52       		.byte	0x52
 6162 0f90 04       		.uleb128 0x4
 6163 0f91 91       		.byte	0x91
 6164 0f92 60       		.sleb128 -32
 6165 0f93 94       		.byte	0x94
 6166 0f94 02       		.byte	0x2
 6167 0f95 1B       		.uleb128 0x1b
 6168 0f96 01       		.uleb128 0x1
 6169 0f97 51       		.byte	0x51
 6170 0f98 02       		.uleb128 0x2
 6171 0f99 74       		.byte	0x74
 6172 0f9a 00       		.sleb128 0
 6173 0f9b 1B       		.uleb128 0x1b
 6174 0f9c 01       		.uleb128 0x1
 6175 0f9d 50       		.byte	0x50
 6176 0f9e 02       		.uleb128 0x2
 6177 0f9f 75       		.byte	0x75
 6178 0fa0 00       		.sleb128 0
 6179 0fa1 1B       		.uleb128 0x1b
 6180 0fa2 02       		.uleb128 0x2
 6181 0fa3 7D       		.byte	0x7d
 6182 0fa4 00       		.sleb128 0
 6183 0fa5 02       		.uleb128 0x2
 6184 0fa6 76       		.byte	0x76
 6185 0fa7 00       		.sleb128 0
ARM GAS  C:\Users\User\AppData\Local\Temp\ccQ45nMh.s 			page 123


 6186 0fa8 00       		.byte	0
 6187 0fa9 00       		.byte	0
 6188 0faa 23       		.uleb128 0x23
 6189 0fab 60050000 		.4byte	.LASF94
 6190 0faf 01       		.byte	0x1
 6191 0fb0 4802     		.2byte	0x248
 6192 0fb2 00000000 		.4byte	.LFB62
 6193 0fb6 0C010000 		.4byte	.LFE62-.LFB62
 6194 0fba 01       		.uleb128 0x1
 6195 0fbb 9C       		.byte	0x9c
 6196 0fbc 3A110000 		.4byte	0x113a
 6197 0fc0 18       		.uleb128 0x18
 6198 0fc1 7800     		.ascii	"x\000"
 6199 0fc3 01       		.byte	0x1
 6200 0fc4 4802     		.2byte	0x248
 6201 0fc6 AD000000 		.4byte	0xad
 6202 0fca 9D0E0000 		.4byte	.LLST75
 6203 0fce 18       		.uleb128 0x18
 6204 0fcf 7900     		.ascii	"y\000"
 6205 0fd1 01       		.byte	0x1
 6206 0fd2 4802     		.2byte	0x248
 6207 0fd4 AD000000 		.4byte	0xad
 6208 0fd8 BE0E0000 		.4byte	.LLST76
 6209 0fdc 18       		.uleb128 0x18
 6210 0fdd 6300     		.ascii	"c\000"
 6211 0fdf 01       		.byte	0x1
 6212 0fe0 4802     		.2byte	0x248
 6213 0fe2 42000000 		.4byte	0x42
 6214 0fe6 DF0E0000 		.4byte	.LLST77
 6215 0fea 19       		.uleb128 0x19
 6216 0feb 2C040000 		.4byte	.LASF46
 6217 0fef 01       		.byte	0x1
 6218 0ff0 4802     		.2byte	0x248
 6219 0ff2 B8000000 		.4byte	0xb8
 6220 0ff6 000F0000 		.4byte	.LLST78
 6221 0ffa 18       		.uleb128 0x18
 6222 0ffb 626700   		.ascii	"bg\000"
 6223 0ffe 01       		.byte	0x1
 6224 0fff 4802     		.2byte	0x248
 6225 1001 B8000000 		.4byte	0xb8
 6226 1005 210F0000 		.4byte	.LLST79
 6227 1009 19       		.uleb128 0x19
 6228 100a 23010000 		.4byte	.LASF57
 6229 100e 01       		.byte	0x1
 6230 100f 4802     		.2byte	0x248
 6231 1011 A2000000 		.4byte	0xa2
 6232 1015 4D0F0000 		.4byte	.LLST80
 6233 1019 15       		.uleb128 0x15
 6234 101a 6900     		.ascii	"i\000"
 6235 101c 01       		.byte	0x1
 6236 101d 4F02     		.2byte	0x24f
 6237 101f 97000000 		.4byte	0x97
 6238 1023 910F0000 		.4byte	.LLST81
 6239 1027 13       		.uleb128 0x13
 6240 1028 4C000000 		.4byte	.LBB7
 6241 102c 9E000000 		.4byte	.LBE7-.LBB7
 6242 1030 14       		.uleb128 0x14
ARM GAS  C:\Users\User\AppData\Local\Temp\ccQ45nMh.s 			page 124


 6243 1031 5B050000 		.4byte	.LASF95
 6244 1035 01       		.byte	0x1
 6245 1036 5102     		.2byte	0x251
 6246 1038 A2000000 		.4byte	0xa2
 6247 103c AF0F0000 		.4byte	.LLST82
 6248 1040 15       		.uleb128 0x15
 6249 1041 6A00     		.ascii	"j\000"
 6250 1043 01       		.byte	0x1
 6251 1044 5602     		.2byte	0x256
 6252 1046 97000000 		.4byte	0x97
 6253 104a CD0F0000 		.4byte	.LLST83
 6254 104e 1A       		.uleb128 0x1a
 6255 104f 82000000 		.4byte	.LVL257
 6256 1053 F2080000 		.4byte	0x8f2
 6257 1057 7C100000 		.4byte	0x107c
 6258 105b 1B       		.uleb128 0x1b
 6259 105c 01       		.uleb128 0x1
 6260 105d 52       		.byte	0x52
 6261 105e 02       		.uleb128 0x2
 6262 105f 78       		.byte	0x78
 6263 1060 00       		.sleb128 0
 6264 1061 1B       		.uleb128 0x1b
 6265 1062 01       		.uleb128 0x1
 6266 1063 51       		.byte	0x51
 6267 1064 09       		.uleb128 0x9
 6268 1065 74       		.byte	0x74
 6269 1066 00       		.sleb128 0
 6270 1067 48       		.byte	0x48
 6271 1068 24       		.byte	0x24
 6272 1069 48       		.byte	0x48
 6273 106a 26       		.byte	0x26
 6274 106b 7A       		.byte	0x7a
 6275 106c 00       		.sleb128 0
 6276 106d 22       		.byte	0x22
 6277 106e 1B       		.uleb128 0x1b
 6278 106f 01       		.uleb128 0x1
 6279 1070 50       		.byte	0x50
 6280 1071 09       		.uleb128 0x9
 6281 1072 76       		.byte	0x76
 6282 1073 00       		.sleb128 0
 6283 1074 48       		.byte	0x48
 6284 1075 24       		.byte	0x24
 6285 1076 48       		.byte	0x48
 6286 1077 26       		.byte	0x26
 6287 1078 79       		.byte	0x79
 6288 1079 00       		.sleb128 0
 6289 107a 22       		.byte	0x22
 6290 107b 00       		.byte	0
 6291 107c 1A       		.uleb128 0x1a
 6292 107d A2000000 		.4byte	.LVL258
 6293 1081 9A0B0000 		.4byte	0xb9a
 6294 1085 C5100000 		.4byte	0x10c5
 6295 1089 1B       		.uleb128 0x1b
 6296 108a 01       		.uleb128 0x1
 6297 108b 53       		.byte	0x53
 6298 108c 02       		.uleb128 0x2
 6299 108d 77       		.byte	0x77
ARM GAS  C:\Users\User\AppData\Local\Temp\ccQ45nMh.s 			page 125


 6300 108e 00       		.sleb128 0
 6301 108f 1B       		.uleb128 0x1b
 6302 1090 01       		.uleb128 0x1
 6303 1091 52       		.byte	0x52
 6304 1092 02       		.uleb128 0x2
 6305 1093 77       		.byte	0x77
 6306 1094 00       		.sleb128 0
 6307 1095 1B       		.uleb128 0x1b
 6308 1096 01       		.uleb128 0x1
 6309 1097 51       		.byte	0x51
 6310 1098 10       		.uleb128 0x10
 6311 1099 74       		.byte	0x74
 6312 109a 00       		.sleb128 0
 6313 109b 48       		.byte	0x48
 6314 109c 24       		.byte	0x24
 6315 109d 48       		.byte	0x48
 6316 109e 26       		.byte	0x26
 6317 109f 77       		.byte	0x77
 6318 10a0 00       		.sleb128 0
 6319 10a1 0A       		.byte	0xa
 6320 10a2 FFFF     		.2byte	0xffff
 6321 10a4 1A       		.byte	0x1a
 6322 10a5 1E       		.byte	0x1e
 6323 10a6 7A       		.byte	0x7a
 6324 10a7 00       		.sleb128 0
 6325 10a8 22       		.byte	0x22
 6326 10a9 1B       		.uleb128 0x1b
 6327 10aa 01       		.uleb128 0x1
 6328 10ab 50       		.byte	0x50
 6329 10ac 10       		.uleb128 0x10
 6330 10ad 76       		.byte	0x76
 6331 10ae 00       		.sleb128 0
 6332 10af 48       		.byte	0x48
 6333 10b0 24       		.byte	0x24
 6334 10b1 48       		.byte	0x48
 6335 10b2 26       		.byte	0x26
 6336 10b3 77       		.byte	0x77
 6337 10b4 00       		.sleb128 0
 6338 10b5 0A       		.byte	0xa
 6339 10b6 FFFF     		.2byte	0xffff
 6340 10b8 1A       		.byte	0x1a
 6341 10b9 1E       		.byte	0x1e
 6342 10ba 79       		.byte	0x79
 6343 10bb 00       		.sleb128 0
 6344 10bc 22       		.byte	0x22
 6345 10bd 1B       		.uleb128 0x1b
 6346 10be 02       		.uleb128 0x2
 6347 10bf 7D       		.byte	0x7d
 6348 10c0 00       		.sleb128 0
 6349 10c1 02       		.uleb128 0x2
 6350 10c2 78       		.byte	0x78
 6351 10c3 00       		.sleb128 0
 6352 10c4 00       		.byte	0
 6353 10c5 1A       		.uleb128 0x1a
 6354 10c6 BE000000 		.4byte	.LVL259
 6355 10ca F2080000 		.4byte	0x8f2
 6356 10ce F3100000 		.4byte	0x10f3
ARM GAS  C:\Users\User\AppData\Local\Temp\ccQ45nMh.s 			page 126


 6357 10d2 1B       		.uleb128 0x1b
 6358 10d3 01       		.uleb128 0x1
 6359 10d4 52       		.byte	0x52
 6360 10d5 02       		.uleb128 0x2
 6361 10d6 7B       		.byte	0x7b
 6362 10d7 00       		.sleb128 0
 6363 10d8 1B       		.uleb128 0x1b
 6364 10d9 01       		.uleb128 0x1
 6365 10da 51       		.byte	0x51
 6366 10db 09       		.uleb128 0x9
 6367 10dc 74       		.byte	0x74
 6368 10dd 00       		.sleb128 0
 6369 10de 48       		.byte	0x48
 6370 10df 24       		.byte	0x24
 6371 10e0 48       		.byte	0x48
 6372 10e1 26       		.byte	0x26
 6373 10e2 7A       		.byte	0x7a
 6374 10e3 00       		.sleb128 0
 6375 10e4 22       		.byte	0x22
 6376 10e5 1B       		.uleb128 0x1b
 6377 10e6 01       		.uleb128 0x1
 6378 10e7 50       		.byte	0x50
 6379 10e8 09       		.uleb128 0x9
 6380 10e9 76       		.byte	0x76
 6381 10ea 00       		.sleb128 0
 6382 10eb 48       		.byte	0x48
 6383 10ec 24       		.byte	0x24
 6384 10ed 48       		.byte	0x48
 6385 10ee 26       		.byte	0x26
 6386 10ef 79       		.byte	0x79
 6387 10f0 00       		.sleb128 0
 6388 10f1 22       		.byte	0x22
 6389 10f2 00       		.byte	0
 6390 10f3 1C       		.uleb128 0x1c
 6391 10f4 DE000000 		.4byte	.LVL260
 6392 10f8 9A0B0000 		.4byte	0xb9a
 6393 10fc 1B       		.uleb128 0x1b
 6394 10fd 01       		.uleb128 0x1
 6395 10fe 53       		.byte	0x53
 6396 10ff 02       		.uleb128 0x2
 6397 1100 77       		.byte	0x77
 6398 1101 00       		.sleb128 0
 6399 1102 1B       		.uleb128 0x1b
 6400 1103 01       		.uleb128 0x1
 6401 1104 52       		.byte	0x52
 6402 1105 02       		.uleb128 0x2
 6403 1106 77       		.byte	0x77
 6404 1107 00       		.sleb128 0
 6405 1108 1B       		.uleb128 0x1b
 6406 1109 01       		.uleb128 0x1
 6407 110a 51       		.byte	0x51
 6408 110b 10       		.uleb128 0x10
 6409 110c 74       		.byte	0x74
 6410 110d 00       		.sleb128 0
 6411 110e 48       		.byte	0x48
 6412 110f 24       		.byte	0x24
 6413 1110 48       		.byte	0x48
ARM GAS  C:\Users\User\AppData\Local\Temp\ccQ45nMh.s 			page 127


 6414 1111 26       		.byte	0x26
 6415 1112 77       		.byte	0x77
 6416 1113 00       		.sleb128 0
 6417 1114 0A       		.byte	0xa
 6418 1115 FFFF     		.2byte	0xffff
 6419 1117 1A       		.byte	0x1a
 6420 1118 1E       		.byte	0x1e
 6421 1119 7A       		.byte	0x7a
 6422 111a 00       		.sleb128 0
 6423 111b 22       		.byte	0x22
 6424 111c 1B       		.uleb128 0x1b
 6425 111d 01       		.uleb128 0x1
 6426 111e 50       		.byte	0x50
 6427 111f 10       		.uleb128 0x10
 6428 1120 76       		.byte	0x76
 6429 1121 00       		.sleb128 0
 6430 1122 48       		.byte	0x48
 6431 1123 24       		.byte	0x24
 6432 1124 48       		.byte	0x48
 6433 1125 26       		.byte	0x26
 6434 1126 77       		.byte	0x77
 6435 1127 00       		.sleb128 0
 6436 1128 0A       		.byte	0xa
 6437 1129 FFFF     		.2byte	0xffff
 6438 112b 1A       		.byte	0x1a
 6439 112c 1E       		.byte	0x1e
 6440 112d 79       		.byte	0x79
 6441 112e 00       		.sleb128 0
 6442 112f 22       		.byte	0x22
 6443 1130 1B       		.uleb128 0x1b
 6444 1131 02       		.uleb128 0x2
 6445 1132 7D       		.byte	0x7d
 6446 1133 00       		.sleb128 0
 6447 1134 02       		.uleb128 0x2
 6448 1135 7B       		.byte	0x7b
 6449 1136 00       		.sleb128 0
 6450 1137 00       		.byte	0
 6451 1138 00       		.byte	0
 6452 1139 00       		.byte	0
 6453 113a 23       		.uleb128 0x23
 6454 113b 13040000 		.4byte	.LASF96
 6455 113f 01       		.byte	0x1
 6456 1140 6A02     		.2byte	0x26a
 6457 1142 00000000 		.4byte	.LFB63
 6458 1146 80000000 		.4byte	.LFE63-.LFB63
 6459 114a 01       		.uleb128 0x1
 6460 114b 9C       		.byte	0x9c
 6461 114c 71110000 		.4byte	0x1171
 6462 1150 18       		.uleb128 0x18
 6463 1151 636800   		.ascii	"ch\000"
 6464 1154 01       		.byte	0x1
 6465 1155 6A02     		.2byte	0x26a
 6466 1157 A2000000 		.4byte	0xa2
 6467 115b EB0F0000 		.4byte	.LLST84
 6468 115f 1C       		.uleb128 0x1c
 6469 1160 38000000 		.4byte	.LVL269
 6470 1164 AA0F0000 		.4byte	0xfaa
ARM GAS  C:\Users\User\AppData\Local\Temp\ccQ45nMh.s 			page 128


 6471 1168 1B       		.uleb128 0x1b
 6472 1169 02       		.uleb128 0x2
 6473 116a 7D       		.byte	0x7d
 6474 116b 04       		.sleb128 4
 6475 116c 02       		.uleb128 0x2
 6476 116d 75       		.byte	0x75
 6477 116e 00       		.sleb128 0
 6478 116f 00       		.byte	0
 6479 1170 00       		.byte	0
 6480 1171 23       		.uleb128 0x23
 6481 1172 E5040000 		.4byte	.LASF97
 6482 1176 01       		.byte	0x1
 6483 1177 7A02     		.2byte	0x27a
 6484 1179 00000000 		.4byte	.LFB64
 6485 117d 1C000000 		.4byte	.LFE64-.LFB64
 6486 1181 01       		.uleb128 0x1
 6487 1182 9C       		.byte	0x9c
 6488 1183 D1110000 		.4byte	0x11d1
 6489 1187 18       		.uleb128 0x18
 6490 1188 7300     		.ascii	"s\000"
 6491 118a 01       		.byte	0x1
 6492 118b 7A02     		.2byte	0x27a
 6493 118d 10010000 		.4byte	0x110
 6494 1191 0C100000 		.4byte	.LLST85
 6495 1195 15       		.uleb128 0x15
 6496 1196 6C656E00 		.ascii	"len\000"
 6497 119a 01       		.byte	0x1
 6498 119b 7C02     		.2byte	0x27c
 6499 119d 90000000 		.4byte	0x90
 6500 11a1 38100000 		.4byte	.LLST86
 6501 11a5 15       		.uleb128 0x15
 6502 11a6 6900     		.ascii	"i\000"
 6503 11a8 01       		.byte	0x1
 6504 11a9 7D02     		.2byte	0x27d
 6505 11ab 90000000 		.4byte	0x90
 6506 11af 56100000 		.4byte	.LLST87
 6507 11b3 1A       		.uleb128 0x1a
 6508 11b4 08000000 		.4byte	.LVL271
 6509 11b8 E6130000 		.4byte	0x13e6
 6510 11bc C7110000 		.4byte	0x11c7
 6511 11c0 1B       		.uleb128 0x1b
 6512 11c1 01       		.uleb128 0x1
 6513 11c2 50       		.byte	0x50
 6514 11c3 02       		.uleb128 0x2
 6515 11c4 76       		.byte	0x76
 6516 11c5 00       		.sleb128 0
 6517 11c6 00       		.byte	0
 6518 11c7 1E       		.uleb128 0x1e
 6519 11c8 14000000 		.4byte	.LVL274
 6520 11cc 3A110000 		.4byte	0x113a
 6521 11d0 00       		.byte	0
 6522 11d1 23       		.uleb128 0x23
 6523 11d2 07040000 		.4byte	.LASF98
 6524 11d6 01       		.byte	0x1
 6525 11d7 8302     		.2byte	0x283
 6526 11d9 00000000 		.4byte	.LFB65
 6527 11dd 0E000000 		.4byte	.LFE65-.LFB65
ARM GAS  C:\Users\User\AppData\Local\Temp\ccQ45nMh.s 			page 129


 6528 11e1 01       		.uleb128 0x1
 6529 11e2 9C       		.byte	0x9c
 6530 11e3 1A120000 		.4byte	0x121a
 6531 11e7 18       		.uleb128 0x18
 6532 11e8 7300     		.ascii	"s\000"
 6533 11ea 01       		.byte	0x1
 6534 11eb 8302     		.2byte	0x283
 6535 11ed 10010000 		.4byte	0x110
 6536 11f1 75100000 		.4byte	.LLST88
 6537 11f5 1A       		.uleb128 0x1a
 6538 11f6 06000000 		.4byte	.LVL280
 6539 11fa 71110000 		.4byte	0x1171
 6540 11fe 0A120000 		.4byte	0x120a
 6541 1202 1B       		.uleb128 0x1b
 6542 1203 01       		.uleb128 0x1
 6543 1204 50       		.byte	0x50
 6544 1205 03       		.uleb128 0x3
 6545 1206 F3       		.byte	0xf3
 6546 1207 01       		.uleb128 0x1
 6547 1208 50       		.byte	0x50
 6548 1209 00       		.byte	0
 6549 120a 1C       		.uleb128 0x1c
 6550 120b 0C000000 		.4byte	.LVL281
 6551 120f 3A110000 		.4byte	0x113a
 6552 1213 1B       		.uleb128 0x1b
 6553 1214 01       		.uleb128 0x1
 6554 1215 50       		.byte	0x50
 6555 1216 01       		.uleb128 0x1
 6556 1217 3A       		.byte	0x3a
 6557 1218 00       		.byte	0
 6558 1219 00       		.byte	0
 6559 121a 21       		.uleb128 0x21
 6560 121b 42000000 		.4byte	0x42
 6561 121f 2B120000 		.4byte	0x122b
 6562 1223 29       		.uleb128 0x29
 6563 1224 07010000 		.4byte	0x107
 6564 1228 FA04     		.2byte	0x4fa
 6565 122a 00       		.byte	0
 6566 122b 20       		.uleb128 0x20
 6567 122c F5040000 		.4byte	.LASF99
 6568 1230 07       		.byte	0x7
 6569 1231 05       		.byte	0x5
 6570 1232 3C120000 		.4byte	0x123c
 6571 1236 05       		.uleb128 0x5
 6572 1237 03       		.byte	0x3
 6573 1238 24000000 		.4byte	font
 6574 123c 08       		.uleb128 0x8
 6575 123d 1A120000 		.4byte	0x121a
 6576 1241 20       		.uleb128 0x20
 6577 1242 A1030000 		.4byte	.LASF100
 6578 1246 01       		.byte	0x1
 6579 1247 5B       		.byte	0x5b
 6580 1248 C3000000 		.4byte	0xc3
 6581 124c 05       		.uleb128 0x5
 6582 124d 03       		.byte	0x3
 6583 124e 00000000 		.4byte	_i2caddr
 6584 1252 21       		.uleb128 0x21
ARM GAS  C:\Users\User\AppData\Local\Temp\ccQ45nMh.s 			page 130


 6585 1253 A2000000 		.4byte	0xa2
 6586 1257 63120000 		.4byte	0x1263
 6587 125b 29       		.uleb128 0x29
 6588 125c 07010000 		.4byte	0x107
 6589 1260 0004     		.2byte	0x400
 6590 1262 00       		.byte	0
 6591 1263 20       		.uleb128 0x20
 6592 1264 9B020000 		.4byte	.LASF101
 6593 1268 01       		.byte	0x1
 6594 1269 5E       		.byte	0x5e
 6595 126a 52120000 		.4byte	0x1252
 6596 126e 05       		.uleb128 0x5
 6597 126f 03       		.byte	0x3
 6598 1270 00000000 		.4byte	SSD1306_buffer
 6599 1274 20       		.uleb128 0x20
 6600 1275 7C050000 		.4byte	.LASF102
 6601 1279 01       		.byte	0x1
 6602 127a 60       		.byte	0x60
 6603 127b 86120000 		.4byte	0x1286
 6604 127f 06       		.uleb128 0x6
 6605 1280 03       		.byte	0x3
 6606 1281 01000000 		.4byte	SSD1306_buffer+1
 6607 1285 9F       		.byte	0x9f
 6608 1286 08       		.uleb128 0x8
 6609 1287 2D030000 		.4byte	0x32d
 6610 128b 2A       		.uleb128 0x2a
 6611 128c 72030000 		.4byte	.LASF103
 6612 1290 01       		.byte	0x1
 6613 1291 61       		.byte	0x61
 6614 1292 98120000 		.4byte	0x1298
 6615 1296 0004     		.2byte	0x400
 6616 1298 08       		.uleb128 0x8
 6617 1299 B8000000 		.4byte	0xb8
 6618 129d 24       		.uleb128 0x24
 6619 129e 0D030000 		.4byte	.LASF104
 6620 12a2 01       		.byte	0x1
 6621 12a3 5201     		.2byte	0x152
 6622 12a5 AD000000 		.4byte	0xad
 6623 12a9 05       		.uleb128 0x5
 6624 12aa 03       		.byte	0x3
 6625 12ab 02000000 		.4byte	_width
 6626 12af 24       		.uleb128 0x24
 6627 12b0 5E030000 		.4byte	.LASF105
 6628 12b4 01       		.byte	0x1
 6629 12b5 5201     		.2byte	0x152
 6630 12b7 AD000000 		.4byte	0xad
 6631 12bb 05       		.uleb128 0x5
 6632 12bc 03       		.byte	0x3
 6633 12bd 04000000 		.4byte	_height
 6634 12c1 24       		.uleb128 0x24
 6635 12c2 35010000 		.4byte	.LASF106
 6636 12c6 01       		.byte	0x1
 6637 12c7 5301     		.2byte	0x153
 6638 12c9 AD000000 		.4byte	0xad
 6639 12cd 05       		.uleb128 0x5
 6640 12ce 03       		.byte	0x3
 6641 12cf 06000000 		.4byte	cursor_x
ARM GAS  C:\Users\User\AppData\Local\Temp\ccQ45nMh.s 			page 131


 6642 12d3 24       		.uleb128 0x24
 6643 12d4 3E010000 		.4byte	.LASF107
 6644 12d8 01       		.byte	0x1
 6645 12d9 5301     		.2byte	0x153
 6646 12db AD000000 		.4byte	0xad
 6647 12df 05       		.uleb128 0x5
 6648 12e0 03       		.byte	0x3
 6649 12e1 08000000 		.4byte	cursor_y
 6650 12e5 24       		.uleb128 0x24
 6651 12e6 08060000 		.4byte	.LASF108
 6652 12ea 01       		.byte	0x1
 6653 12eb 5401     		.2byte	0x154
 6654 12ed B8000000 		.4byte	0xb8
 6655 12f1 05       		.uleb128 0x5
 6656 12f2 03       		.byte	0x3
 6657 12f3 0E000000 		.4byte	textcolor
 6658 12f7 24       		.uleb128 0x24
 6659 12f8 12060000 		.4byte	.LASF109
 6660 12fc 01       		.byte	0x1
 6661 12fd 5401     		.2byte	0x154
 6662 12ff B8000000 		.4byte	0xb8
 6663 1303 05       		.uleb128 0x5
 6664 1304 03       		.byte	0x3
 6665 1305 0C000000 		.4byte	textbgcolor
 6666 1309 24       		.uleb128 0x24
 6667 130a 58010000 		.4byte	.LASF110
 6668 130e 01       		.byte	0x1
 6669 130f 5501     		.2byte	0x155
 6670 1311 A2000000 		.4byte	0xa2
 6671 1315 05       		.uleb128 0x5
 6672 1316 03       		.byte	0x3
 6673 1317 0A000000 		.4byte	textsize
 6674 131b 2B       		.uleb128 0x2b
 6675 131c D2010000 		.4byte	.LASF111
 6676 1320 01       		.byte	0x1
 6677 1321 5101     		.2byte	0x151
 6678 1323 AD000000 		.4byte	0xad
 6679 1327 05       		.uleb128 0x5
 6680 1328 03       		.byte	0x3
 6681 1329 00000000 		.4byte	WIDTH
 6682 132d 2B       		.uleb128 0x2b
 6683 132e 15010000 		.4byte	.LASF112
 6684 1332 01       		.byte	0x1
 6685 1333 5101     		.2byte	0x151
 6686 1335 AD000000 		.4byte	0xad
 6687 1339 05       		.uleb128 0x5
 6688 133a 03       		.byte	0x3
 6689 133b 00000000 		.4byte	HEIGHT
 6690 133f 2B       		.uleb128 0x2b
 6691 1340 81000000 		.4byte	.LASF113
 6692 1344 01       		.byte	0x1
 6693 1345 5601     		.2byte	0x156
 6694 1347 A2000000 		.4byte	0xa2
 6695 134b 05       		.uleb128 0x5
 6696 134c 03       		.byte	0x3
 6697 134d 00000000 		.4byte	rotation
 6698 1351 2B       		.uleb128 0x2b
ARM GAS  C:\Users\User\AppData\Local\Temp\ccQ45nMh.s 			page 132


 6699 1352 36050000 		.4byte	.LASF114
 6700 1356 01       		.byte	0x1
 6701 1357 5701     		.2byte	0x157
 6702 1359 A2000000 		.4byte	0xa2
 6703 135d 05       		.uleb128 0x5
 6704 135e 03       		.byte	0x3
 6705 135f 00000000 		.4byte	wrap
 6706 1363 2C       		.uleb128 0x2c
 6707 1364 81020000 		.4byte	.LASF125
 6708 1368 08       		.byte	0x8
 6709 1369 1301     		.2byte	0x113
 6710 136b DB000000 		.4byte	0xdb
 6711 136f 88130000 		.4byte	0x1388
 6712 1373 2D       		.uleb128 0x2d
 6713 1374 DB000000 		.4byte	0xdb
 6714 1378 2D       		.uleb128 0x2d
 6715 1379 C8040000 		.4byte	0x4c8
 6716 137d 2D       		.uleb128 0x2d
 6717 137e DB000000 		.4byte	0xdb
 6718 1382 2D       		.uleb128 0x2d
 6719 1383 DB000000 		.4byte	0xdb
 6720 1387 00       		.byte	0
 6721 1388 2E       		.uleb128 0x2e
 6722 1389 AA020000 		.4byte	.LASF115
 6723 138d 08       		.byte	0x8
 6724 138e 0F01     		.2byte	0x10f
 6725 1390 DB000000 		.4byte	0xdb
 6726 1394 2E       		.uleb128 0x2e
 6727 1395 3C060000 		.4byte	.LASF116
 6728 1399 08       		.byte	0x8
 6729 139a 1601     		.2byte	0x116
 6730 139c DB000000 		.4byte	0xdb
 6731 13a0 2E       		.uleb128 0x2e
 6732 13a1 EB050000 		.4byte	.LASF117
 6733 13a5 08       		.byte	0x8
 6734 13a6 1001     		.2byte	0x110
 6735 13a8 DB000000 		.4byte	0xdb
 6736 13ac 2F       		.uleb128 0x2f
 6737 13ad 66030000 		.4byte	.LASF118
 6738 13b1 0E010000 		.4byte	0x10e
 6739 13b5 C9130000 		.4byte	0x13c9
 6740 13b9 2D       		.uleb128 0x2d
 6741 13ba 0E010000 		.4byte	0x10e
 6742 13be 2D       		.uleb128 0x2d
 6743 13bf 89000000 		.4byte	0x89
 6744 13c3 2D       		.uleb128 0x2d
 6745 13c4 07010000 		.4byte	0x107
 6746 13c8 00       		.byte	0
 6747 13c9 2F       		.uleb128 0x2f
 6748 13ca C4050000 		.4byte	.LASF119
 6749 13ce 0E010000 		.4byte	0x10e
 6750 13d2 E6130000 		.4byte	0x13e6
 6751 13d6 2D       		.uleb128 0x2d
 6752 13d7 0E010000 		.4byte	0x10e
 6753 13db 2D       		.uleb128 0x2d
 6754 13dc 1B010000 		.4byte	0x11b
 6755 13e0 2D       		.uleb128 0x2d
ARM GAS  C:\Users\User\AppData\Local\Temp\ccQ45nMh.s 			page 133


 6756 13e1 07010000 		.4byte	0x107
 6757 13e5 00       		.byte	0
 6758 13e6 30       		.uleb128 0x30
 6759 13e7 0E000000 		.4byte	.LASF120
 6760 13eb 09       		.byte	0x9
 6761 13ec 21       		.byte	0x21
 6762 13ed FC000000 		.4byte	0xfc
 6763 13f1 2D       		.uleb128 0x2d
 6764 13f2 10010000 		.4byte	0x110
 6765 13f6 00       		.byte	0
 6766 13f7 00       		.byte	0
 6767              		.section	.debug_abbrev,"",%progbits
 6768              	.Ldebug_abbrev0:
 6769 0000 01       		.uleb128 0x1
 6770 0001 11       		.uleb128 0x11
 6771 0002 01       		.byte	0x1
 6772 0003 25       		.uleb128 0x25
 6773 0004 0E       		.uleb128 0xe
 6774 0005 13       		.uleb128 0x13
 6775 0006 0B       		.uleb128 0xb
 6776 0007 03       		.uleb128 0x3
 6777 0008 0E       		.uleb128 0xe
 6778 0009 1B       		.uleb128 0x1b
 6779 000a 0E       		.uleb128 0xe
 6780 000b 55       		.uleb128 0x55
 6781 000c 17       		.uleb128 0x17
 6782 000d 11       		.uleb128 0x11
 6783 000e 01       		.uleb128 0x1
 6784 000f 10       		.uleb128 0x10
 6785 0010 17       		.uleb128 0x17
 6786 0011 00       		.byte	0
 6787 0012 00       		.byte	0
 6788 0013 02       		.uleb128 0x2
 6789 0014 16       		.uleb128 0x16
 6790 0015 00       		.byte	0
 6791 0016 03       		.uleb128 0x3
 6792 0017 0E       		.uleb128 0xe
 6793 0018 3A       		.uleb128 0x3a
 6794 0019 0B       		.uleb128 0xb
 6795 001a 3B       		.uleb128 0x3b
 6796 001b 0B       		.uleb128 0xb
 6797 001c 49       		.uleb128 0x49
 6798 001d 13       		.uleb128 0x13
 6799 001e 00       		.byte	0
 6800 001f 00       		.byte	0
 6801 0020 03       		.uleb128 0x3
 6802 0021 24       		.uleb128 0x24
 6803 0022 00       		.byte	0
 6804 0023 0B       		.uleb128 0xb
 6805 0024 0B       		.uleb128 0xb
 6806 0025 3E       		.uleb128 0x3e
 6807 0026 0B       		.uleb128 0xb
 6808 0027 03       		.uleb128 0x3
 6809 0028 0E       		.uleb128 0xe
 6810 0029 00       		.byte	0
 6811 002a 00       		.byte	0
 6812 002b 04       		.uleb128 0x4
ARM GAS  C:\Users\User\AppData\Local\Temp\ccQ45nMh.s 			page 134


 6813 002c 24       		.uleb128 0x24
 6814 002d 00       		.byte	0
 6815 002e 0B       		.uleb128 0xb
 6816 002f 0B       		.uleb128 0xb
 6817 0030 3E       		.uleb128 0x3e
 6818 0031 0B       		.uleb128 0xb
 6819 0032 03       		.uleb128 0x3
 6820 0033 08       		.uleb128 0x8
 6821 0034 00       		.byte	0
 6822 0035 00       		.byte	0
 6823 0036 05       		.uleb128 0x5
 6824 0037 16       		.uleb128 0x16
 6825 0038 00       		.byte	0
 6826 0039 03       		.uleb128 0x3
 6827 003a 0E       		.uleb128 0xe
 6828 003b 3A       		.uleb128 0x3a
 6829 003c 0B       		.uleb128 0xb
 6830 003d 3B       		.uleb128 0x3b
 6831 003e 05       		.uleb128 0x5
 6832 003f 49       		.uleb128 0x49
 6833 0040 13       		.uleb128 0x13
 6834 0041 00       		.byte	0
 6835 0042 00       		.byte	0
 6836 0043 06       		.uleb128 0x6
 6837 0044 0F       		.uleb128 0xf
 6838 0045 00       		.byte	0
 6839 0046 0B       		.uleb128 0xb
 6840 0047 0B       		.uleb128 0xb
 6841 0048 00       		.byte	0
 6842 0049 00       		.byte	0
 6843 004a 07       		.uleb128 0x7
 6844 004b 0F       		.uleb128 0xf
 6845 004c 00       		.byte	0
 6846 004d 0B       		.uleb128 0xb
 6847 004e 0B       		.uleb128 0xb
 6848 004f 49       		.uleb128 0x49
 6849 0050 13       		.uleb128 0x13
 6850 0051 00       		.byte	0
 6851 0052 00       		.byte	0
 6852 0053 08       		.uleb128 0x8
 6853 0054 26       		.uleb128 0x26
 6854 0055 00       		.byte	0
 6855 0056 49       		.uleb128 0x49
 6856 0057 13       		.uleb128 0x13
 6857 0058 00       		.byte	0
 6858 0059 00       		.byte	0
 6859 005a 09       		.uleb128 0x9
 6860 005b 26       		.uleb128 0x26
 6861 005c 00       		.byte	0
 6862 005d 00       		.byte	0
 6863 005e 00       		.byte	0
 6864 005f 0A       		.uleb128 0xa
 6865 0060 04       		.uleb128 0x4
 6866 0061 01       		.byte	0x1
 6867 0062 0B       		.uleb128 0xb
 6868 0063 0B       		.uleb128 0xb
 6869 0064 3A       		.uleb128 0x3a
ARM GAS  C:\Users\User\AppData\Local\Temp\ccQ45nMh.s 			page 135


 6870 0065 0B       		.uleb128 0xb
 6871 0066 3B       		.uleb128 0x3b
 6872 0067 0B       		.uleb128 0xb
 6873 0068 01       		.uleb128 0x1
 6874 0069 13       		.uleb128 0x13
 6875 006a 00       		.byte	0
 6876 006b 00       		.byte	0
 6877 006c 0B       		.uleb128 0xb
 6878 006d 28       		.uleb128 0x28
 6879 006e 00       		.byte	0
 6880 006f 03       		.uleb128 0x3
 6881 0070 0E       		.uleb128 0xe
 6882 0071 1C       		.uleb128 0x1c
 6883 0072 0D       		.uleb128 0xd
 6884 0073 00       		.byte	0
 6885 0074 00       		.byte	0
 6886 0075 0C       		.uleb128 0xc
 6887 0076 2E       		.uleb128 0x2e
 6888 0077 01       		.byte	0x1
 6889 0078 03       		.uleb128 0x3
 6890 0079 0E       		.uleb128 0xe
 6891 007a 3A       		.uleb128 0x3a
 6892 007b 0B       		.uleb128 0xb
 6893 007c 3B       		.uleb128 0x3b
 6894 007d 0B       		.uleb128 0xb
 6895 007e 27       		.uleb128 0x27
 6896 007f 19       		.uleb128 0x19
 6897 0080 11       		.uleb128 0x11
 6898 0081 01       		.uleb128 0x1
 6899 0082 12       		.uleb128 0x12
 6900 0083 06       		.uleb128 0x6
 6901 0084 40       		.uleb128 0x40
 6902 0085 18       		.uleb128 0x18
 6903 0086 9742     		.uleb128 0x2117
 6904 0088 19       		.uleb128 0x19
 6905 0089 01       		.uleb128 0x1
 6906 008a 13       		.uleb128 0x13
 6907 008b 00       		.byte	0
 6908 008c 00       		.byte	0
 6909 008d 0D       		.uleb128 0xd
 6910 008e 05       		.uleb128 0x5
 6911 008f 00       		.byte	0
 6912 0090 03       		.uleb128 0x3
 6913 0091 08       		.uleb128 0x8
 6914 0092 3A       		.uleb128 0x3a
 6915 0093 0B       		.uleb128 0xb
 6916 0094 3B       		.uleb128 0x3b
 6917 0095 0B       		.uleb128 0xb
 6918 0096 49       		.uleb128 0x49
 6919 0097 13       		.uleb128 0x13
 6920 0098 02       		.uleb128 0x2
 6921 0099 17       		.uleb128 0x17
 6922 009a 00       		.byte	0
 6923 009b 00       		.byte	0
 6924 009c 0E       		.uleb128 0xe
 6925 009d 05       		.uleb128 0x5
 6926 009e 00       		.byte	0
ARM GAS  C:\Users\User\AppData\Local\Temp\ccQ45nMh.s 			page 136


 6927 009f 03       		.uleb128 0x3
 6928 00a0 0E       		.uleb128 0xe
 6929 00a1 3A       		.uleb128 0x3a
 6930 00a2 0B       		.uleb128 0xb
 6931 00a3 3B       		.uleb128 0x3b
 6932 00a4 0B       		.uleb128 0xb
 6933 00a5 49       		.uleb128 0x49
 6934 00a6 13       		.uleb128 0x13
 6935 00a7 02       		.uleb128 0x2
 6936 00a8 18       		.uleb128 0x18
 6937 00a9 00       		.byte	0
 6938 00aa 00       		.byte	0
 6939 00ab 0F       		.uleb128 0xf
 6940 00ac 05       		.uleb128 0x5
 6941 00ad 00       		.byte	0
 6942 00ae 03       		.uleb128 0x3
 6943 00af 0E       		.uleb128 0xe
 6944 00b0 3A       		.uleb128 0x3a
 6945 00b1 0B       		.uleb128 0xb
 6946 00b2 3B       		.uleb128 0x3b
 6947 00b3 0B       		.uleb128 0xb
 6948 00b4 49       		.uleb128 0x49
 6949 00b5 13       		.uleb128 0x13
 6950 00b6 02       		.uleb128 0x2
 6951 00b7 17       		.uleb128 0x17
 6952 00b8 00       		.byte	0
 6953 00b9 00       		.byte	0
 6954 00ba 10       		.uleb128 0x10
 6955 00bb 0B       		.uleb128 0xb
 6956 00bc 01       		.byte	0x1
 6957 00bd 11       		.uleb128 0x11
 6958 00be 01       		.uleb128 0x1
 6959 00bf 12       		.uleb128 0x12
 6960 00c0 06       		.uleb128 0x6
 6961 00c1 01       		.uleb128 0x1
 6962 00c2 13       		.uleb128 0x13
 6963 00c3 00       		.byte	0
 6964 00c4 00       		.byte	0
 6965 00c5 11       		.uleb128 0x11
 6966 00c6 34       		.uleb128 0x34
 6967 00c7 00       		.byte	0
 6968 00c8 03       		.uleb128 0x3
 6969 00c9 0E       		.uleb128 0xe
 6970 00ca 3A       		.uleb128 0x3a
 6971 00cb 0B       		.uleb128 0xb
 6972 00cc 3B       		.uleb128 0x3b
 6973 00cd 0B       		.uleb128 0xb
 6974 00ce 49       		.uleb128 0x49
 6975 00cf 13       		.uleb128 0x13
 6976 00d0 02       		.uleb128 0x2
 6977 00d1 17       		.uleb128 0x17
 6978 00d2 00       		.byte	0
 6979 00d3 00       		.byte	0
 6980 00d4 12       		.uleb128 0x12
 6981 00d5 34       		.uleb128 0x34
 6982 00d6 00       		.byte	0
 6983 00d7 03       		.uleb128 0x3
ARM GAS  C:\Users\User\AppData\Local\Temp\ccQ45nMh.s 			page 137


 6984 00d8 08       		.uleb128 0x8
 6985 00d9 3A       		.uleb128 0x3a
 6986 00da 0B       		.uleb128 0xb
 6987 00db 3B       		.uleb128 0x3b
 6988 00dc 0B       		.uleb128 0xb
 6989 00dd 49       		.uleb128 0x49
 6990 00de 13       		.uleb128 0x13
 6991 00df 02       		.uleb128 0x2
 6992 00e0 17       		.uleb128 0x17
 6993 00e1 00       		.byte	0
 6994 00e2 00       		.byte	0
 6995 00e3 13       		.uleb128 0x13
 6996 00e4 0B       		.uleb128 0xb
 6997 00e5 01       		.byte	0x1
 6998 00e6 11       		.uleb128 0x11
 6999 00e7 01       		.uleb128 0x1
 7000 00e8 12       		.uleb128 0x12
 7001 00e9 06       		.uleb128 0x6
 7002 00ea 00       		.byte	0
 7003 00eb 00       		.byte	0
 7004 00ec 14       		.uleb128 0x14
 7005 00ed 34       		.uleb128 0x34
 7006 00ee 00       		.byte	0
 7007 00ef 03       		.uleb128 0x3
 7008 00f0 0E       		.uleb128 0xe
 7009 00f1 3A       		.uleb128 0x3a
 7010 00f2 0B       		.uleb128 0xb
 7011 00f3 3B       		.uleb128 0x3b
 7012 00f4 05       		.uleb128 0x5
 7013 00f5 49       		.uleb128 0x49
 7014 00f6 13       		.uleb128 0x13
 7015 00f7 02       		.uleb128 0x2
 7016 00f8 17       		.uleb128 0x17
 7017 00f9 00       		.byte	0
 7018 00fa 00       		.byte	0
 7019 00fb 15       		.uleb128 0x15
 7020 00fc 34       		.uleb128 0x34
 7021 00fd 00       		.byte	0
 7022 00fe 03       		.uleb128 0x3
 7023 00ff 08       		.uleb128 0x8
 7024 0100 3A       		.uleb128 0x3a
 7025 0101 0B       		.uleb128 0xb
 7026 0102 3B       		.uleb128 0x3b
 7027 0103 05       		.uleb128 0x5
 7028 0104 49       		.uleb128 0x49
 7029 0105 13       		.uleb128 0x13
 7030 0106 02       		.uleb128 0x2
 7031 0107 17       		.uleb128 0x17
 7032 0108 00       		.byte	0
 7033 0109 00       		.byte	0
 7034 010a 16       		.uleb128 0x16
 7035 010b 2E       		.uleb128 0x2e
 7036 010c 01       		.byte	0x1
 7037 010d 03       		.uleb128 0x3
 7038 010e 0E       		.uleb128 0xe
 7039 010f 3A       		.uleb128 0x3a
 7040 0110 0B       		.uleb128 0xb
ARM GAS  C:\Users\User\AppData\Local\Temp\ccQ45nMh.s 			page 138


 7041 0111 3B       		.uleb128 0x3b
 7042 0112 05       		.uleb128 0x5
 7043 0113 27       		.uleb128 0x27
 7044 0114 19       		.uleb128 0x19
 7045 0115 11       		.uleb128 0x11
 7046 0116 01       		.uleb128 0x1
 7047 0117 12       		.uleb128 0x12
 7048 0118 06       		.uleb128 0x6
 7049 0119 40       		.uleb128 0x40
 7050 011a 18       		.uleb128 0x18
 7051 011b 9742     		.uleb128 0x2117
 7052 011d 19       		.uleb128 0x19
 7053 011e 01       		.uleb128 0x1
 7054 011f 13       		.uleb128 0x13
 7055 0120 00       		.byte	0
 7056 0121 00       		.byte	0
 7057 0122 17       		.uleb128 0x17
 7058 0123 05       		.uleb128 0x5
 7059 0124 00       		.byte	0
 7060 0125 03       		.uleb128 0x3
 7061 0126 08       		.uleb128 0x8
 7062 0127 3A       		.uleb128 0x3a
 7063 0128 0B       		.uleb128 0xb
 7064 0129 3B       		.uleb128 0x3b
 7065 012a 05       		.uleb128 0x5
 7066 012b 49       		.uleb128 0x49
 7067 012c 13       		.uleb128 0x13
 7068 012d 02       		.uleb128 0x2
 7069 012e 18       		.uleb128 0x18
 7070 012f 00       		.byte	0
 7071 0130 00       		.byte	0
 7072 0131 18       		.uleb128 0x18
 7073 0132 05       		.uleb128 0x5
 7074 0133 00       		.byte	0
 7075 0134 03       		.uleb128 0x3
 7076 0135 08       		.uleb128 0x8
 7077 0136 3A       		.uleb128 0x3a
 7078 0137 0B       		.uleb128 0xb
 7079 0138 3B       		.uleb128 0x3b
 7080 0139 05       		.uleb128 0x5
 7081 013a 49       		.uleb128 0x49
 7082 013b 13       		.uleb128 0x13
 7083 013c 02       		.uleb128 0x2
 7084 013d 17       		.uleb128 0x17
 7085 013e 00       		.byte	0
 7086 013f 00       		.byte	0
 7087 0140 19       		.uleb128 0x19
 7088 0141 05       		.uleb128 0x5
 7089 0142 00       		.byte	0
 7090 0143 03       		.uleb128 0x3
 7091 0144 0E       		.uleb128 0xe
 7092 0145 3A       		.uleb128 0x3a
 7093 0146 0B       		.uleb128 0xb
 7094 0147 3B       		.uleb128 0x3b
 7095 0148 05       		.uleb128 0x5
 7096 0149 49       		.uleb128 0x49
 7097 014a 13       		.uleb128 0x13
ARM GAS  C:\Users\User\AppData\Local\Temp\ccQ45nMh.s 			page 139


 7098 014b 02       		.uleb128 0x2
 7099 014c 17       		.uleb128 0x17
 7100 014d 00       		.byte	0
 7101 014e 00       		.byte	0
 7102 014f 1A       		.uleb128 0x1a
 7103 0150 898201   		.uleb128 0x4109
 7104 0153 01       		.byte	0x1
 7105 0154 11       		.uleb128 0x11
 7106 0155 01       		.uleb128 0x1
 7107 0156 31       		.uleb128 0x31
 7108 0157 13       		.uleb128 0x13
 7109 0158 01       		.uleb128 0x1
 7110 0159 13       		.uleb128 0x13
 7111 015a 00       		.byte	0
 7112 015b 00       		.byte	0
 7113 015c 1B       		.uleb128 0x1b
 7114 015d 8A8201   		.uleb128 0x410a
 7115 0160 00       		.byte	0
 7116 0161 02       		.uleb128 0x2
 7117 0162 18       		.uleb128 0x18
 7118 0163 9142     		.uleb128 0x2111
 7119 0165 18       		.uleb128 0x18
 7120 0166 00       		.byte	0
 7121 0167 00       		.byte	0
 7122 0168 1C       		.uleb128 0x1c
 7123 0169 898201   		.uleb128 0x4109
 7124 016c 01       		.byte	0x1
 7125 016d 11       		.uleb128 0x11
 7126 016e 01       		.uleb128 0x1
 7127 016f 31       		.uleb128 0x31
 7128 0170 13       		.uleb128 0x13
 7129 0171 00       		.byte	0
 7130 0172 00       		.byte	0
 7131 0173 1D       		.uleb128 0x1d
 7132 0174 2E       		.uleb128 0x2e
 7133 0175 01       		.byte	0x1
 7134 0176 03       		.uleb128 0x3
 7135 0177 0E       		.uleb128 0xe
 7136 0178 3A       		.uleb128 0x3a
 7137 0179 0B       		.uleb128 0xb
 7138 017a 3B       		.uleb128 0x3b
 7139 017b 0B       		.uleb128 0xb
 7140 017c 27       		.uleb128 0x27
 7141 017d 19       		.uleb128 0x19
 7142 017e 49       		.uleb128 0x49
 7143 017f 13       		.uleb128 0x13
 7144 0180 11       		.uleb128 0x11
 7145 0181 01       		.uleb128 0x1
 7146 0182 12       		.uleb128 0x12
 7147 0183 06       		.uleb128 0x6
 7148 0184 40       		.uleb128 0x40
 7149 0185 18       		.uleb128 0x18
 7150 0186 9742     		.uleb128 0x2117
 7151 0188 19       		.uleb128 0x19
 7152 0189 01       		.uleb128 0x1
 7153 018a 13       		.uleb128 0x13
 7154 018b 00       		.byte	0
ARM GAS  C:\Users\User\AppData\Local\Temp\ccQ45nMh.s 			page 140


 7155 018c 00       		.byte	0
 7156 018d 1E       		.uleb128 0x1e
 7157 018e 898201   		.uleb128 0x4109
 7158 0191 00       		.byte	0
 7159 0192 11       		.uleb128 0x11
 7160 0193 01       		.uleb128 0x1
 7161 0194 31       		.uleb128 0x31
 7162 0195 13       		.uleb128 0x13
 7163 0196 00       		.byte	0
 7164 0197 00       		.byte	0
 7165 0198 1F       		.uleb128 0x1f
 7166 0199 2E       		.uleb128 0x2e
 7167 019a 01       		.byte	0x1
 7168 019b 3F       		.uleb128 0x3f
 7169 019c 19       		.uleb128 0x19
 7170 019d 03       		.uleb128 0x3
 7171 019e 0E       		.uleb128 0xe
 7172 019f 3A       		.uleb128 0x3a
 7173 01a0 0B       		.uleb128 0xb
 7174 01a1 3B       		.uleb128 0x3b
 7175 01a2 0B       		.uleb128 0xb
 7176 01a3 27       		.uleb128 0x27
 7177 01a4 19       		.uleb128 0x19
 7178 01a5 11       		.uleb128 0x11
 7179 01a6 01       		.uleb128 0x1
 7180 01a7 12       		.uleb128 0x12
 7181 01a8 06       		.uleb128 0x6
 7182 01a9 40       		.uleb128 0x40
 7183 01aa 18       		.uleb128 0x18
 7184 01ab 9742     		.uleb128 0x2117
 7185 01ad 19       		.uleb128 0x19
 7186 01ae 01       		.uleb128 0x1
 7187 01af 13       		.uleb128 0x13
 7188 01b0 00       		.byte	0
 7189 01b1 00       		.byte	0
 7190 01b2 20       		.uleb128 0x20
 7191 01b3 34       		.uleb128 0x34
 7192 01b4 00       		.byte	0
 7193 01b5 03       		.uleb128 0x3
 7194 01b6 0E       		.uleb128 0xe
 7195 01b7 3A       		.uleb128 0x3a
 7196 01b8 0B       		.uleb128 0xb
 7197 01b9 3B       		.uleb128 0x3b
 7198 01ba 0B       		.uleb128 0xb
 7199 01bb 49       		.uleb128 0x49
 7200 01bc 13       		.uleb128 0x13
 7201 01bd 02       		.uleb128 0x2
 7202 01be 18       		.uleb128 0x18
 7203 01bf 00       		.byte	0
 7204 01c0 00       		.byte	0
 7205 01c1 21       		.uleb128 0x21
 7206 01c2 01       		.uleb128 0x1
 7207 01c3 01       		.byte	0x1
 7208 01c4 49       		.uleb128 0x49
 7209 01c5 13       		.uleb128 0x13
 7210 01c6 01       		.uleb128 0x1
 7211 01c7 13       		.uleb128 0x13
ARM GAS  C:\Users\User\AppData\Local\Temp\ccQ45nMh.s 			page 141


 7212 01c8 00       		.byte	0
 7213 01c9 00       		.byte	0
 7214 01ca 22       		.uleb128 0x22
 7215 01cb 21       		.uleb128 0x21
 7216 01cc 00       		.byte	0
 7217 01cd 49       		.uleb128 0x49
 7218 01ce 13       		.uleb128 0x13
 7219 01cf 2F       		.uleb128 0x2f
 7220 01d0 0B       		.uleb128 0xb
 7221 01d1 00       		.byte	0
 7222 01d2 00       		.byte	0
 7223 01d3 23       		.uleb128 0x23
 7224 01d4 2E       		.uleb128 0x2e
 7225 01d5 01       		.byte	0x1
 7226 01d6 3F       		.uleb128 0x3f
 7227 01d7 19       		.uleb128 0x19
 7228 01d8 03       		.uleb128 0x3
 7229 01d9 0E       		.uleb128 0xe
 7230 01da 3A       		.uleb128 0x3a
 7231 01db 0B       		.uleb128 0xb
 7232 01dc 3B       		.uleb128 0x3b
 7233 01dd 05       		.uleb128 0x5
 7234 01de 27       		.uleb128 0x27
 7235 01df 19       		.uleb128 0x19
 7236 01e0 11       		.uleb128 0x11
 7237 01e1 01       		.uleb128 0x1
 7238 01e2 12       		.uleb128 0x12
 7239 01e3 06       		.uleb128 0x6
 7240 01e4 40       		.uleb128 0x40
 7241 01e5 18       		.uleb128 0x18
 7242 01e6 9742     		.uleb128 0x2117
 7243 01e8 19       		.uleb128 0x19
 7244 01e9 01       		.uleb128 0x1
 7245 01ea 13       		.uleb128 0x13
 7246 01eb 00       		.byte	0
 7247 01ec 00       		.byte	0
 7248 01ed 24       		.uleb128 0x24
 7249 01ee 34       		.uleb128 0x34
 7250 01ef 00       		.byte	0
 7251 01f0 03       		.uleb128 0x3
 7252 01f1 0E       		.uleb128 0xe
 7253 01f2 3A       		.uleb128 0x3a
 7254 01f3 0B       		.uleb128 0xb
 7255 01f4 3B       		.uleb128 0x3b
 7256 01f5 05       		.uleb128 0x5
 7257 01f6 49       		.uleb128 0x49
 7258 01f7 13       		.uleb128 0x13
 7259 01f8 02       		.uleb128 0x2
 7260 01f9 18       		.uleb128 0x18
 7261 01fa 00       		.byte	0
 7262 01fb 00       		.byte	0
 7263 01fc 25       		.uleb128 0x25
 7264 01fd 05       		.uleb128 0x5
 7265 01fe 00       		.byte	0
 7266 01ff 03       		.uleb128 0x3
 7267 0200 0E       		.uleb128 0xe
 7268 0201 3A       		.uleb128 0x3a
ARM GAS  C:\Users\User\AppData\Local\Temp\ccQ45nMh.s 			page 142


 7269 0202 0B       		.uleb128 0xb
 7270 0203 3B       		.uleb128 0x3b
 7271 0204 05       		.uleb128 0x5
 7272 0205 49       		.uleb128 0x49
 7273 0206 13       		.uleb128 0x13
 7274 0207 02       		.uleb128 0x2
 7275 0208 18       		.uleb128 0x18
 7276 0209 00       		.byte	0
 7277 020a 00       		.byte	0
 7278 020b 26       		.uleb128 0x26
 7279 020c 2E       		.uleb128 0x2e
 7280 020d 00       		.byte	0
 7281 020e 3F       		.uleb128 0x3f
 7282 020f 19       		.uleb128 0x19
 7283 0210 03       		.uleb128 0x3
 7284 0211 0E       		.uleb128 0xe
 7285 0212 3A       		.uleb128 0x3a
 7286 0213 0B       		.uleb128 0xb
 7287 0214 3B       		.uleb128 0x3b
 7288 0215 05       		.uleb128 0x5
 7289 0216 27       		.uleb128 0x27
 7290 0217 19       		.uleb128 0x19
 7291 0218 49       		.uleb128 0x49
 7292 0219 13       		.uleb128 0x13
 7293 021a 11       		.uleb128 0x11
 7294 021b 01       		.uleb128 0x1
 7295 021c 12       		.uleb128 0x12
 7296 021d 06       		.uleb128 0x6
 7297 021e 40       		.uleb128 0x40
 7298 021f 18       		.uleb128 0x18
 7299 0220 9742     		.uleb128 0x2117
 7300 0222 19       		.uleb128 0x19
 7301 0223 00       		.byte	0
 7302 0224 00       		.byte	0
 7303 0225 27       		.uleb128 0x27
 7304 0226 34       		.uleb128 0x34
 7305 0227 00       		.byte	0
 7306 0228 03       		.uleb128 0x3
 7307 0229 08       		.uleb128 0x8
 7308 022a 3A       		.uleb128 0x3a
 7309 022b 0B       		.uleb128 0xb
 7310 022c 3B       		.uleb128 0x3b
 7311 022d 05       		.uleb128 0x5
 7312 022e 49       		.uleb128 0x49
 7313 022f 13       		.uleb128 0x13
 7314 0230 00       		.byte	0
 7315 0231 00       		.byte	0
 7316 0232 28       		.uleb128 0x28
 7317 0233 34       		.uleb128 0x34
 7318 0234 00       		.byte	0
 7319 0235 03       		.uleb128 0x3
 7320 0236 08       		.uleb128 0x8
 7321 0237 3A       		.uleb128 0x3a
 7322 0238 0B       		.uleb128 0xb
 7323 0239 3B       		.uleb128 0x3b
 7324 023a 05       		.uleb128 0x5
 7325 023b 49       		.uleb128 0x49
ARM GAS  C:\Users\User\AppData\Local\Temp\ccQ45nMh.s 			page 143


 7326 023c 13       		.uleb128 0x13
 7327 023d 02       		.uleb128 0x2
 7328 023e 18       		.uleb128 0x18
 7329 023f 00       		.byte	0
 7330 0240 00       		.byte	0
 7331 0241 29       		.uleb128 0x29
 7332 0242 21       		.uleb128 0x21
 7333 0243 00       		.byte	0
 7334 0244 49       		.uleb128 0x49
 7335 0245 13       		.uleb128 0x13
 7336 0246 2F       		.uleb128 0x2f
 7337 0247 05       		.uleb128 0x5
 7338 0248 00       		.byte	0
 7339 0249 00       		.byte	0
 7340 024a 2A       		.uleb128 0x2a
 7341 024b 34       		.uleb128 0x34
 7342 024c 00       		.byte	0
 7343 024d 03       		.uleb128 0x3
 7344 024e 0E       		.uleb128 0xe
 7345 024f 3A       		.uleb128 0x3a
 7346 0250 0B       		.uleb128 0xb
 7347 0251 3B       		.uleb128 0x3b
 7348 0252 0B       		.uleb128 0xb
 7349 0253 49       		.uleb128 0x49
 7350 0254 13       		.uleb128 0x13
 7351 0255 1C       		.uleb128 0x1c
 7352 0256 05       		.uleb128 0x5
 7353 0257 00       		.byte	0
 7354 0258 00       		.byte	0
 7355 0259 2B       		.uleb128 0x2b
 7356 025a 34       		.uleb128 0x34
 7357 025b 00       		.byte	0
 7358 025c 03       		.uleb128 0x3
 7359 025d 0E       		.uleb128 0xe
 7360 025e 3A       		.uleb128 0x3a
 7361 025f 0B       		.uleb128 0xb
 7362 0260 3B       		.uleb128 0x3b
 7363 0261 05       		.uleb128 0x5
 7364 0262 49       		.uleb128 0x49
 7365 0263 13       		.uleb128 0x13
 7366 0264 3F       		.uleb128 0x3f
 7367 0265 19       		.uleb128 0x19
 7368 0266 02       		.uleb128 0x2
 7369 0267 18       		.uleb128 0x18
 7370 0268 00       		.byte	0
 7371 0269 00       		.byte	0
 7372 026a 2C       		.uleb128 0x2c
 7373 026b 2E       		.uleb128 0x2e
 7374 026c 01       		.byte	0x1
 7375 026d 3F       		.uleb128 0x3f
 7376 026e 19       		.uleb128 0x19
 7377 026f 03       		.uleb128 0x3
 7378 0270 0E       		.uleb128 0xe
 7379 0271 3A       		.uleb128 0x3a
 7380 0272 0B       		.uleb128 0xb
 7381 0273 3B       		.uleb128 0x3b
 7382 0274 05       		.uleb128 0x5
ARM GAS  C:\Users\User\AppData\Local\Temp\ccQ45nMh.s 			page 144


 7383 0275 27       		.uleb128 0x27
 7384 0276 19       		.uleb128 0x19
 7385 0277 49       		.uleb128 0x49
 7386 0278 13       		.uleb128 0x13
 7387 0279 3C       		.uleb128 0x3c
 7388 027a 19       		.uleb128 0x19
 7389 027b 01       		.uleb128 0x1
 7390 027c 13       		.uleb128 0x13
 7391 027d 00       		.byte	0
 7392 027e 00       		.byte	0
 7393 027f 2D       		.uleb128 0x2d
 7394 0280 05       		.uleb128 0x5
 7395 0281 00       		.byte	0
 7396 0282 49       		.uleb128 0x49
 7397 0283 13       		.uleb128 0x13
 7398 0284 00       		.byte	0
 7399 0285 00       		.byte	0
 7400 0286 2E       		.uleb128 0x2e
 7401 0287 2E       		.uleb128 0x2e
 7402 0288 00       		.byte	0
 7403 0289 3F       		.uleb128 0x3f
 7404 028a 19       		.uleb128 0x19
 7405 028b 03       		.uleb128 0x3
 7406 028c 0E       		.uleb128 0xe
 7407 028d 3A       		.uleb128 0x3a
 7408 028e 0B       		.uleb128 0xb
 7409 028f 3B       		.uleb128 0x3b
 7410 0290 05       		.uleb128 0x5
 7411 0291 27       		.uleb128 0x27
 7412 0292 19       		.uleb128 0x19
 7413 0293 49       		.uleb128 0x49
 7414 0294 13       		.uleb128 0x13
 7415 0295 3C       		.uleb128 0x3c
 7416 0296 19       		.uleb128 0x19
 7417 0297 00       		.byte	0
 7418 0298 00       		.byte	0
 7419 0299 2F       		.uleb128 0x2f
 7420 029a 2E       		.uleb128 0x2e
 7421 029b 01       		.byte	0x1
 7422 029c 3F       		.uleb128 0x3f
 7423 029d 19       		.uleb128 0x19
 7424 029e 03       		.uleb128 0x3
 7425 029f 0E       		.uleb128 0xe
 7426 02a0 27       		.uleb128 0x27
 7427 02a1 19       		.uleb128 0x19
 7428 02a2 49       		.uleb128 0x49
 7429 02a3 13       		.uleb128 0x13
 7430 02a4 34       		.uleb128 0x34
 7431 02a5 19       		.uleb128 0x19
 7432 02a6 3C       		.uleb128 0x3c
 7433 02a7 19       		.uleb128 0x19
 7434 02a8 01       		.uleb128 0x1
 7435 02a9 13       		.uleb128 0x13
 7436 02aa 00       		.byte	0
 7437 02ab 00       		.byte	0
 7438 02ac 30       		.uleb128 0x30
 7439 02ad 2E       		.uleb128 0x2e
ARM GAS  C:\Users\User\AppData\Local\Temp\ccQ45nMh.s 			page 145


 7440 02ae 01       		.byte	0x1
 7441 02af 3F       		.uleb128 0x3f
 7442 02b0 19       		.uleb128 0x19
 7443 02b1 03       		.uleb128 0x3
 7444 02b2 0E       		.uleb128 0xe
 7445 02b3 3A       		.uleb128 0x3a
 7446 02b4 0B       		.uleb128 0xb
 7447 02b5 3B       		.uleb128 0x3b
 7448 02b6 0B       		.uleb128 0xb
 7449 02b7 27       		.uleb128 0x27
 7450 02b8 19       		.uleb128 0x19
 7451 02b9 49       		.uleb128 0x49
 7452 02ba 13       		.uleb128 0x13
 7453 02bb 3C       		.uleb128 0x3c
 7454 02bc 19       		.uleb128 0x19
 7455 02bd 00       		.byte	0
 7456 02be 00       		.byte	0
 7457 02bf 00       		.byte	0
 7458              		.section	.debug_loc,"",%progbits
 7459              	.Ldebug_loc0:
 7460              	.LLST0:
 7461 0000 00000000 		.4byte	.LVL0
 7462 0004 2A000000 		.4byte	.LVL1
 7463 0008 0100     		.2byte	0x1
 7464 000a 50       		.byte	0x50
 7465 000b 2A000000 		.4byte	.LVL1
 7466 000f 40000000 		.4byte	.LVL3
 7467 0013 0400     		.2byte	0x4
 7468 0015 F3       		.byte	0xf3
 7469 0016 01       		.uleb128 0x1
 7470 0017 50       		.byte	0x50
 7471 0018 9F       		.byte	0x9f
 7472 0019 40000000 		.4byte	.LVL3
 7473 001d 4E000000 		.4byte	.LVL4
 7474 0021 0100     		.2byte	0x1
 7475 0023 50       		.byte	0x50
 7476 0024 4E000000 		.4byte	.LVL4
 7477 0028 64000000 		.4byte	.LVL6
 7478 002c 0400     		.2byte	0x4
 7479 002e F3       		.byte	0xf3
 7480 002f 01       		.uleb128 0x1
 7481 0030 50       		.byte	0x50
 7482 0031 9F       		.byte	0x9f
 7483 0032 64000000 		.4byte	.LVL6
 7484 0036 72000000 		.4byte	.LVL7
 7485 003a 0100     		.2byte	0x1
 7486 003c 50       		.byte	0x50
 7487 003d 72000000 		.4byte	.LVL7
 7488 0041 8C000000 		.4byte	.LFE36
 7489 0045 0400     		.2byte	0x4
 7490 0047 F3       		.byte	0xf3
 7491 0048 01       		.uleb128 0x1
 7492 0049 50       		.byte	0x50
 7493 004a 9F       		.byte	0x9f
 7494 004b 00000000 		.4byte	0
 7495 004f 00000000 		.4byte	0
 7496              	.LLST1:
ARM GAS  C:\Users\User\AppData\Local\Temp\ccQ45nMh.s 			page 146


 7497 0053 00000000 		.4byte	.LVL0
 7498 0057 32000000 		.4byte	.LVL2
 7499 005b 0100     		.2byte	0x1
 7500 005d 51       		.byte	0x51
 7501 005e 32000000 		.4byte	.LVL2
 7502 0062 40000000 		.4byte	.LVL3
 7503 0066 0400     		.2byte	0x4
 7504 0068 F3       		.byte	0xf3
 7505 0069 01       		.uleb128 0x1
 7506 006a 51       		.byte	0x51
 7507 006b 9F       		.byte	0x9f
 7508 006c 40000000 		.4byte	.LVL3
 7509 0070 56000000 		.4byte	.LVL5
 7510 0074 0100     		.2byte	0x1
 7511 0076 51       		.byte	0x51
 7512 0077 56000000 		.4byte	.LVL5
 7513 007b 64000000 		.4byte	.LVL6
 7514 007f 0400     		.2byte	0x4
 7515 0081 F3       		.byte	0xf3
 7516 0082 01       		.uleb128 0x1
 7517 0083 51       		.byte	0x51
 7518 0084 9F       		.byte	0x9f
 7519 0085 64000000 		.4byte	.LVL6
 7520 0089 7A000000 		.4byte	.LVL8
 7521 008d 0100     		.2byte	0x1
 7522 008f 51       		.byte	0x51
 7523 0090 7A000000 		.4byte	.LVL8
 7524 0094 8C000000 		.4byte	.LFE36
 7525 0098 0400     		.2byte	0x4
 7526 009a F3       		.byte	0xf3
 7527 009b 01       		.uleb128 0x1
 7528 009c 51       		.byte	0x51
 7529 009d 9F       		.byte	0x9f
 7530 009e 00000000 		.4byte	0
 7531 00a2 00000000 		.4byte	0
 7532              	.LLST2:
 7533 00a6 00000000 		.4byte	.LVL9
 7534 00aa 1A000000 		.4byte	.LVL12
 7535 00ae 0100     		.2byte	0x1
 7536 00b0 50       		.byte	0x50
 7537 00b1 1A000000 		.4byte	.LVL12
 7538 00b5 E4000000 		.4byte	.LVL28
 7539 00b9 0400     		.2byte	0x4
 7540 00bb F3       		.byte	0xf3
 7541 00bc 01       		.uleb128 0x1
 7542 00bd 50       		.byte	0x50
 7543 00be 9F       		.byte	0x9f
 7544 00bf E4000000 		.4byte	.LVL28
 7545 00c3 FC000000 		.4byte	.LVL34
 7546 00c7 0100     		.2byte	0x1
 7547 00c9 50       		.byte	0x50
 7548 00ca FC000000 		.4byte	.LVL34
 7549 00ce 40010000 		.4byte	.LFE41
 7550 00d2 0400     		.2byte	0x4
 7551 00d4 F3       		.byte	0xf3
 7552 00d5 01       		.uleb128 0x1
 7553 00d6 50       		.byte	0x50
ARM GAS  C:\Users\User\AppData\Local\Temp\ccQ45nMh.s 			page 147


 7554 00d7 9F       		.byte	0x9f
 7555 00d8 00000000 		.4byte	0
 7556 00dc 00000000 		.4byte	0
 7557              	.LLST3:
 7558 00e0 00000000 		.4byte	.LVL9
 7559 00e4 FE000000 		.4byte	.LVL35
 7560 00e8 0100     		.2byte	0x1
 7561 00ea 51       		.byte	0x51
 7562 00eb FE000000 		.4byte	.LVL35
 7563 00ef 40010000 		.4byte	.LFE41
 7564 00f3 0400     		.2byte	0x4
 7565 00f5 F3       		.byte	0xf3
 7566 00f6 01       		.uleb128 0x1
 7567 00f7 51       		.byte	0x51
 7568 00f8 9F       		.byte	0x9f
 7569 00f9 00000000 		.4byte	0
 7570 00fd 00000000 		.4byte	0
 7571              	.LLST4:
 7572 0101 00000000 		.4byte	.LVL9
 7573 0105 2C000000 		.4byte	.LVL14
 7574 0109 0100     		.2byte	0x1
 7575 010b 52       		.byte	0x52
 7576 010c 2C000000 		.4byte	.LVL14
 7577 0110 E4000000 		.4byte	.LVL28
 7578 0114 0400     		.2byte	0x4
 7579 0116 F3       		.byte	0xf3
 7580 0117 01       		.uleb128 0x1
 7581 0118 52       		.byte	0x52
 7582 0119 9F       		.byte	0x9f
 7583 011a E4000000 		.4byte	.LVL28
 7584 011e F8000000 		.4byte	.LVL32
 7585 0122 0100     		.2byte	0x1
 7586 0124 52       		.byte	0x52
 7587 0125 F8000000 		.4byte	.LVL32
 7588 0129 40010000 		.4byte	.LFE41
 7589 012d 0400     		.2byte	0x4
 7590 012f F3       		.byte	0xf3
 7591 0130 01       		.uleb128 0x1
 7592 0131 52       		.byte	0x52
 7593 0132 9F       		.byte	0x9f
 7594 0133 00000000 		.4byte	0
 7595 0137 00000000 		.4byte	0
 7596              	.LLST5:
 7597 013b 00000000 		.4byte	.LVL9
 7598 013f E6000000 		.4byte	.LVL29
 7599 0143 0100     		.2byte	0x1
 7600 0145 53       		.byte	0x53
 7601 0146 E6000000 		.4byte	.LVL29
 7602 014a 40010000 		.4byte	.LFE41
 7603 014e 0400     		.2byte	0x4
 7604 0150 F3       		.byte	0xf3
 7605 0151 01       		.uleb128 0x1
 7606 0152 53       		.byte	0x53
 7607 0153 9F       		.byte	0x9f
 7608 0154 00000000 		.4byte	0
 7609 0158 00000000 		.4byte	0
 7610              	.LLST6:
ARM GAS  C:\Users\User\AppData\Local\Temp\ccQ45nMh.s 			page 148


 7611 015c 00000000 		.4byte	.LVL9
 7612 0160 08000000 		.4byte	.LVL10
 7613 0164 0200     		.2byte	0x2
 7614 0166 91       		.byte	0x91
 7615 0167 00       		.sleb128 0
 7616 0168 08000000 		.4byte	.LVL10
 7617 016c 10000000 		.4byte	.LVL11
 7618 0170 0200     		.2byte	0x2
 7619 0172 74       		.byte	0x74
 7620 0173 00       		.sleb128 0
 7621 0174 10000000 		.4byte	.LVL11
 7622 0178 E4000000 		.4byte	.LVL28
 7623 017c 0200     		.2byte	0x2
 7624 017e 91       		.byte	0x91
 7625 017f 00       		.sleb128 0
 7626 0180 E4000000 		.4byte	.LVL28
 7627 0184 F0000000 		.4byte	.LVL30
 7628 0188 0200     		.2byte	0x2
 7629 018a 74       		.byte	0x74
 7630 018b 00       		.sleb128 0
 7631 018c F0000000 		.4byte	.LVL30
 7632 0190 40010000 		.4byte	.LFE41
 7633 0194 0200     		.2byte	0x2
 7634 0196 91       		.byte	0x91
 7635 0197 00       		.sleb128 0
 7636 0198 00000000 		.4byte	0
 7637 019c 00000000 		.4byte	0
 7638              	.LLST7:
 7639 01a0 20000000 		.4byte	.LVL13
 7640 01a4 E4000000 		.4byte	.LVL28
 7641 01a8 0100     		.2byte	0x1
 7642 01aa 50       		.byte	0x50
 7643 01ab 00000000 		.4byte	0
 7644 01af 00000000 		.4byte	0
 7645              	.LLST8:
 7646 01b3 2E000000 		.4byte	.LVL15
 7647 01b7 E4000000 		.4byte	.LVL28
 7648 01bb 0100     		.2byte	0x1
 7649 01bd 52       		.byte	0x52
 7650 01be 00000000 		.4byte	0
 7651 01c2 00000000 		.4byte	0
 7652              	.LLST9:
 7653 01c6 2E000000 		.4byte	.LVL15
 7654 01ca 32000000 		.4byte	.LVL16
 7655 01ce 0100     		.2byte	0x1
 7656 01d0 50       		.byte	0x50
 7657 01d1 32000000 		.4byte	.LVL16
 7658 01d5 E4000000 		.4byte	.LVL28
 7659 01d9 0100     		.2byte	0x1
 7660 01db 54       		.byte	0x54
 7661 01dc 00000000 		.4byte	0
 7662 01e0 00000000 		.4byte	0
 7663              	.LLST10:
 7664 01e4 32000000 		.4byte	.LVL16
 7665 01e8 38000000 		.4byte	.LVL17
 7666 01ec 0100     		.2byte	0x1
 7667 01ee 56       		.byte	0x56
ARM GAS  C:\Users\User\AppData\Local\Temp\ccQ45nMh.s 			page 149


 7668 01ef 6C000000 		.4byte	.LVL23
 7669 01f3 74000000 		.4byte	.LVL25
 7670 01f7 0100     		.2byte	0x1
 7671 01f9 56       		.byte	0x56
 7672 01fa 8E000000 		.4byte	.LVL26
 7673 01fe E4000000 		.4byte	.LVL28
 7674 0202 0100     		.2byte	0x1
 7675 0204 56       		.byte	0x56
 7676 0205 00000000 		.4byte	0
 7677 0209 00000000 		.4byte	0
 7678              	.LLST11:
 7679 020d 4A000000 		.4byte	.LVL18
 7680 0211 58000000 		.4byte	.LVL21
 7681 0215 0100     		.2byte	0x1
 7682 0217 56       		.byte	0x56
 7683 0218 58000000 		.4byte	.LVL21
 7684 021c 6E000000 		.4byte	.LVL24
 7685 0220 0100     		.2byte	0x1
 7686 0222 58       		.byte	0x58
 7687 0223 00000000 		.4byte	0
 7688 0227 00000000 		.4byte	0
 7689              	.LLST12:
 7690 022b 50000000 		.4byte	.LVL19
 7691 022f 5A000000 		.4byte	.LVL22
 7692 0233 0100     		.2byte	0x1
 7693 0235 57       		.byte	0x57
 7694 0236 00000000 		.4byte	0
 7695 023a 00000000 		.4byte	0
 7696              	.LLST13:
 7697 023e F6000000 		.4byte	.LVL31
 7698 0242 08010000 		.4byte	.LVL37
 7699 0246 0100     		.2byte	0x1
 7700 0248 53       		.byte	0x53
 7701 0249 00000000 		.4byte	0
 7702 024d 00000000 		.4byte	0
 7703              	.LLST14:
 7704 0251 FA000000 		.4byte	.LVL33
 7705 0255 32010000 		.4byte	.LVL39
 7706 0259 0100     		.2byte	0x1
 7707 025b 52       		.byte	0x52
 7708 025c 00000000 		.4byte	0
 7709 0260 00000000 		.4byte	0
 7710              	.LLST15:
 7711 0264 06010000 		.4byte	.LVL36
 7712 0268 32010000 		.4byte	.LVL39
 7713 026c 0100     		.2byte	0x1
 7714 026e 54       		.byte	0x54
 7715 026f 00000000 		.4byte	0
 7716 0273 00000000 		.4byte	0
 7717              	.LLST16:
 7718 0277 06010000 		.4byte	.LVL36
 7719 027b 32010000 		.4byte	.LVL39
 7720 027f 0100     		.2byte	0x1
 7721 0281 53       		.byte	0x53
 7722 0282 00000000 		.4byte	0
 7723 0286 00000000 		.4byte	0
 7724              	.LLST17:
ARM GAS  C:\Users\User\AppData\Local\Temp\ccQ45nMh.s 			page 150


 7725 028a 04000000 		.4byte	.LVL41
 7726 028e 1E000000 		.4byte	.LVL42
 7727 0292 0100     		.2byte	0x1
 7728 0294 52       		.byte	0x52
 7729 0295 24000000 		.4byte	.LVL43
 7730 0299 26000000 		.4byte	.LVL44
 7731 029d 0100     		.2byte	0x1
 7732 029f 52       		.byte	0x52
 7733 02a0 26000000 		.4byte	.LVL44
 7734 02a4 30000000 		.4byte	.LVL45
 7735 02a8 0200     		.2byte	0x2
 7736 02aa 71       		.byte	0x71
 7737 02ab 00       		.sleb128 0
 7738 02ac 3E000000 		.4byte	.LVL46
 7739 02b0 4C000000 		.4byte	.LVL47
 7740 02b4 0100     		.2byte	0x1
 7741 02b6 52       		.byte	0x52
 7742 02b7 00000000 		.4byte	0
 7743 02bb 00000000 		.4byte	0
 7744              	.LLST18:
 7745 02bf 00000000 		.4byte	.LVL48
 7746 02c3 2A000000 		.4byte	.LVL55
 7747 02c7 0100     		.2byte	0x1
 7748 02c9 50       		.byte	0x50
 7749 02ca 2A000000 		.4byte	.LVL55
 7750 02ce D2000000 		.4byte	.LVL66
 7751 02d2 0200     		.2byte	0x2
 7752 02d4 91       		.byte	0x91
 7753 02d5 6E       		.sleb128 -18
 7754 02d6 D2000000 		.4byte	.LVL66
 7755 02da D4000000 		.4byte	.LVL67
 7756 02de 0800     		.2byte	0x8
 7757 02e0 76       		.byte	0x76
 7758 02e1 00       		.sleb128 0
 7759 02e2 91       		.byte	0x91
 7760 02e3 00       		.sleb128 0
 7761 02e4 22       		.byte	0x22
 7762 02e5 08       		.byte	0x8
 7763 02e6 20       		.byte	0x20
 7764 02e7 1C       		.byte	0x1c
 7765 02e8 D4000000 		.4byte	.LVL67
 7766 02ec 1E010000 		.4byte	.LVL83
 7767 02f0 0200     		.2byte	0x2
 7768 02f2 91       		.byte	0x91
 7769 02f3 6E       		.sleb128 -18
 7770 02f4 1E010000 		.4byte	.LVL83
 7771 02f8 20010000 		.4byte	.LVL84
 7772 02fc 0800     		.2byte	0x8
 7773 02fe 71       		.byte	0x71
 7774 02ff 00       		.sleb128 0
 7775 0300 91       		.byte	0x91
 7776 0301 00       		.sleb128 0
 7777 0302 22       		.byte	0x22
 7778 0303 08       		.byte	0x8
 7779 0304 20       		.byte	0x20
 7780 0305 1C       		.byte	0x1c
 7781 0306 20010000 		.4byte	.LVL84
ARM GAS  C:\Users\User\AppData\Local\Temp\ccQ45nMh.s 			page 151


 7782 030a 36010000 		.4byte	.LVL91
 7783 030e 0200     		.2byte	0x2
 7784 0310 91       		.byte	0x91
 7785 0311 6E       		.sleb128 -18
 7786 0312 36010000 		.4byte	.LVL91
 7787 0316 38010000 		.4byte	.LVL92
 7788 031a 0800     		.2byte	0x8
 7789 031c 73       		.byte	0x73
 7790 031d 00       		.sleb128 0
 7791 031e 91       		.byte	0x91
 7792 031f 00       		.sleb128 0
 7793 0320 22       		.byte	0x22
 7794 0321 08       		.byte	0x8
 7795 0322 20       		.byte	0x20
 7796 0323 1C       		.byte	0x1c
 7797 0324 38010000 		.4byte	.LVL92
 7798 0328 68010000 		.4byte	.LFE56
 7799 032c 0200     		.2byte	0x2
 7800 032e 91       		.byte	0x91
 7801 032f 6E       		.sleb128 -18
 7802 0330 00000000 		.4byte	0
 7803 0334 00000000 		.4byte	0
 7804              	.LLST19:
 7805 0338 00000000 		.4byte	.LVL48
 7806 033c 14000000 		.4byte	.LVL51
 7807 0340 0100     		.2byte	0x1
 7808 0342 51       		.byte	0x51
 7809 0343 14000000 		.4byte	.LVL51
 7810 0347 30000000 		.4byte	.LVL57
 7811 034b 0200     		.2byte	0x2
 7812 034d 74       		.byte	0x74
 7813 034e 00       		.sleb128 0
 7814 034f 30000000 		.4byte	.LVL57
 7815 0353 68000000 		.4byte	.LVL58
 7816 0357 0200     		.2byte	0x2
 7817 0359 91       		.byte	0x91
 7818 035a 6C       		.sleb128 -20
 7819 035b 68000000 		.4byte	.LVL58
 7820 035f 6A000000 		.4byte	.LVL59
 7821 0363 0200     		.2byte	0x2
 7822 0365 73       		.byte	0x73
 7823 0366 00       		.sleb128 0
 7824 0367 6A000000 		.4byte	.LVL59
 7825 036b 90000000 		.4byte	.LVL62
 7826 036f 0200     		.2byte	0x2
 7827 0371 91       		.byte	0x91
 7828 0372 6C       		.sleb128 -20
 7829 0373 90000000 		.4byte	.LVL62
 7830 0377 92000000 		.4byte	.LVL63
 7831 037b 0200     		.2byte	0x2
 7832 037d 72       		.byte	0x72
 7833 037e 00       		.sleb128 0
 7834 037f 92000000 		.4byte	.LVL63
 7835 0383 D8000000 		.4byte	.LVL68
 7836 0387 0200     		.2byte	0x2
 7837 0389 91       		.byte	0x91
 7838 038a 6C       		.sleb128 -20
ARM GAS  C:\Users\User\AppData\Local\Temp\ccQ45nMh.s 			page 152


 7839 038b D8000000 		.4byte	.LVL68
 7840 038f DB000000 		.4byte	.LVL69-1
 7841 0393 0200     		.2byte	0x2
 7842 0395 71       		.byte	0x71
 7843 0396 00       		.sleb128 0
 7844 0397 DB000000 		.4byte	.LVL69-1
 7845 039b FC000000 		.4byte	.LVL76
 7846 039f 0200     		.2byte	0x2
 7847 03a1 91       		.byte	0x91
 7848 03a2 6C       		.sleb128 -20
 7849 03a3 FC000000 		.4byte	.LVL76
 7850 03a7 00010000 		.4byte	.LVL77
 7851 03ab 0200     		.2byte	0x2
 7852 03ad 71       		.byte	0x71
 7853 03ae 00       		.sleb128 0
 7854 03af 00010000 		.4byte	.LVL77
 7855 03b3 06010000 		.4byte	.LVL78
 7856 03b7 0200     		.2byte	0x2
 7857 03b9 91       		.byte	0x91
 7858 03ba 6C       		.sleb128 -20
 7859 03bb 06010000 		.4byte	.LVL78
 7860 03bf 0A010000 		.4byte	.LVL79
 7861 03c3 0200     		.2byte	0x2
 7862 03c5 71       		.byte	0x71
 7863 03c6 00       		.sleb128 0
 7864 03c7 0A010000 		.4byte	.LVL79
 7865 03cb 2A010000 		.4byte	.LVL87
 7866 03cf 0200     		.2byte	0x2
 7867 03d1 91       		.byte	0x91
 7868 03d2 6C       		.sleb128 -20
 7869 03d3 2A010000 		.4byte	.LVL87
 7870 03d7 34010000 		.4byte	.LVL90
 7871 03db 0200     		.2byte	0x2
 7872 03dd 72       		.byte	0x72
 7873 03de 00       		.sleb128 0
 7874 03df 34010000 		.4byte	.LVL90
 7875 03e3 3E010000 		.4byte	.LVL93
 7876 03e7 0200     		.2byte	0x2
 7877 03e9 91       		.byte	0x91
 7878 03ea 6C       		.sleb128 -20
 7879 03eb 3E010000 		.4byte	.LVL93
 7880 03ef 42010000 		.4byte	.LVL94
 7881 03f3 0200     		.2byte	0x2
 7882 03f5 73       		.byte	0x73
 7883 03f6 00       		.sleb128 0
 7884 03f7 42010000 		.4byte	.LVL94
 7885 03fb 68010000 		.4byte	.LFE56
 7886 03ff 0200     		.2byte	0x2
 7887 0401 91       		.byte	0x91
 7888 0402 6C       		.sleb128 -20
 7889 0403 00000000 		.4byte	0
 7890 0407 00000000 		.4byte	0
 7891              	.LLST20:
 7892 040b 00000000 		.4byte	.LVL48
 7893 040f 26000000 		.4byte	.LVL54
 7894 0413 0100     		.2byte	0x1
 7895 0415 52       		.byte	0x52
ARM GAS  C:\Users\User\AppData\Local\Temp\ccQ45nMh.s 			page 153


 7896 0416 26000000 		.4byte	.LVL54
 7897 041a DE000000 		.4byte	.LVL70
 7898 041e 0200     		.2byte	0x2
 7899 0420 91       		.byte	0x91
 7900 0421 6A       		.sleb128 -22
 7901 0422 DE000000 		.4byte	.LVL70
 7902 0426 E0000000 		.4byte	.LVL71
 7903 042a 0800     		.2byte	0x8
 7904 042c 74       		.byte	0x74
 7905 042d 00       		.sleb128 0
 7906 042e 91       		.byte	0x91
 7907 042f 00       		.sleb128 0
 7908 0430 22       		.byte	0x22
 7909 0431 08       		.byte	0x8
 7910 0432 20       		.byte	0x20
 7911 0433 1C       		.byte	0x1c
 7912 0434 E0000000 		.4byte	.LVL71
 7913 0438 24010000 		.4byte	.LVL85
 7914 043c 0200     		.2byte	0x2
 7915 043e 91       		.byte	0x91
 7916 043f 6A       		.sleb128 -22
 7917 0440 24010000 		.4byte	.LVL85
 7918 0444 26010000 		.4byte	.LVL86
 7919 0448 0800     		.2byte	0x8
 7920 044a 72       		.byte	0x72
 7921 044b 00       		.sleb128 0
 7922 044c 91       		.byte	0x91
 7923 044d 00       		.sleb128 0
 7924 044e 22       		.byte	0x22
 7925 044f 08       		.byte	0x8
 7926 0450 20       		.byte	0x20
 7927 0451 1C       		.byte	0x1c
 7928 0452 26010000 		.4byte	.LVL86
 7929 0456 44010000 		.4byte	.LVL95
 7930 045a 0200     		.2byte	0x2
 7931 045c 91       		.byte	0x91
 7932 045d 6A       		.sleb128 -22
 7933 045e 44010000 		.4byte	.LVL95
 7934 0462 46010000 		.4byte	.LVL96
 7935 0466 0800     		.2byte	0x8
 7936 0468 73       		.byte	0x73
 7937 0469 00       		.sleb128 0
 7938 046a 91       		.byte	0x91
 7939 046b 00       		.sleb128 0
 7940 046c 22       		.byte	0x22
 7941 046d 08       		.byte	0x8
 7942 046e 20       		.byte	0x20
 7943 046f 1C       		.byte	0x1c
 7944 0470 46010000 		.4byte	.LVL96
 7945 0474 68010000 		.4byte	.LFE56
 7946 0478 0200     		.2byte	0x2
 7947 047a 91       		.byte	0x91
 7948 047b 6A       		.sleb128 -22
 7949 047c 00000000 		.4byte	0
 7950 0480 00000000 		.4byte	0
 7951              	.LLST21:
 7952 0484 00000000 		.4byte	.LVL48
ARM GAS  C:\Users\User\AppData\Local\Temp\ccQ45nMh.s 			page 154


 7953 0488 1E000000 		.4byte	.LVL52
 7954 048c 0100     		.2byte	0x1
 7955 048e 53       		.byte	0x53
 7956 048f 1E000000 		.4byte	.LVL52
 7957 0493 20000000 		.4byte	.LVL53
 7958 0497 0200     		.2byte	0x2
 7959 0499 71       		.byte	0x71
 7960 049a 00       		.sleb128 0
 7961 049b 20000000 		.4byte	.LVL53
 7962 049f 2C000000 		.4byte	.LVL56
 7963 04a3 0200     		.2byte	0x2
 7964 04a5 91       		.byte	0x91
 7965 04a6 68       		.sleb128 -24
 7966 04a7 2C000000 		.4byte	.LVL56
 7967 04ab 30000000 		.4byte	.LVL57
 7968 04af 0200     		.2byte	0x2
 7969 04b1 72       		.byte	0x72
 7970 04b2 00       		.sleb128 0
 7971 04b3 30000000 		.4byte	.LVL57
 7972 04b7 7E000000 		.4byte	.LVL60
 7973 04bb 0200     		.2byte	0x2
 7974 04bd 91       		.byte	0x91
 7975 04be 68       		.sleb128 -24
 7976 04bf 7E000000 		.4byte	.LVL60
 7977 04c3 80000000 		.4byte	.LVL61
 7978 04c7 0200     		.2byte	0x2
 7979 04c9 73       		.byte	0x73
 7980 04ca 00       		.sleb128 0
 7981 04cb 80000000 		.4byte	.LVL61
 7982 04cf A6000000 		.4byte	.LVL64
 7983 04d3 0200     		.2byte	0x2
 7984 04d5 91       		.byte	0x91
 7985 04d6 68       		.sleb128 -24
 7986 04d7 A6000000 		.4byte	.LVL64
 7987 04db A8000000 		.4byte	.LVL65
 7988 04df 0200     		.2byte	0x2
 7989 04e1 72       		.byte	0x72
 7990 04e2 00       		.sleb128 0
 7991 04e3 A8000000 		.4byte	.LVL65
 7992 04e7 E4000000 		.4byte	.LVL72
 7993 04eb 0200     		.2byte	0x2
 7994 04ed 91       		.byte	0x91
 7995 04ee 68       		.sleb128 -24
 7996 04ef E4000000 		.4byte	.LVL72
 7997 04f3 E7000000 		.4byte	.LVL73-1
 7998 04f7 0200     		.2byte	0x2
 7999 04f9 71       		.byte	0x71
 8000 04fa 00       		.sleb128 0
 8001 04fb E7000000 		.4byte	.LVL73-1
 8002 04ff F6000000 		.4byte	.LVL74
 8003 0503 0200     		.2byte	0x2
 8004 0505 91       		.byte	0x91
 8005 0506 68       		.sleb128 -24
 8006 0507 F6000000 		.4byte	.LVL74
 8007 050b FA000000 		.4byte	.LVL75
 8008 050f 0200     		.2byte	0x2
 8009 0511 71       		.byte	0x71
ARM GAS  C:\Users\User\AppData\Local\Temp\ccQ45nMh.s 			page 155


 8010 0512 00       		.sleb128 0
 8011 0513 FA000000 		.4byte	.LVL75
 8012 0517 0C010000 		.4byte	.LVL80
 8013 051b 0200     		.2byte	0x2
 8014 051d 91       		.byte	0x91
 8015 051e 68       		.sleb128 -24
 8016 051f 0C010000 		.4byte	.LVL80
 8017 0523 10010000 		.4byte	.LVL81
 8018 0527 0200     		.2byte	0x2
 8019 0529 71       		.byte	0x71
 8020 052a 00       		.sleb128 0
 8021 052b 10010000 		.4byte	.LVL81
 8022 052f 2E010000 		.4byte	.LVL89
 8023 0533 0200     		.2byte	0x2
 8024 0535 91       		.byte	0x91
 8025 0536 68       		.sleb128 -24
 8026 0537 2E010000 		.4byte	.LVL89
 8027 053b 34010000 		.4byte	.LVL90
 8028 053f 0200     		.2byte	0x2
 8029 0541 73       		.byte	0x73
 8030 0542 00       		.sleb128 0
 8031 0543 34010000 		.4byte	.LVL90
 8032 0547 4C010000 		.4byte	.LVL97
 8033 054b 0200     		.2byte	0x2
 8034 054d 91       		.byte	0x91
 8035 054e 68       		.sleb128 -24
 8036 054f 4C010000 		.4byte	.LVL97
 8037 0553 50010000 		.4byte	.LVL98
 8038 0557 0200     		.2byte	0x2
 8039 0559 73       		.byte	0x73
 8040 055a 00       		.sleb128 0
 8041 055b 50010000 		.4byte	.LVL98
 8042 055f 68010000 		.4byte	.LFE56
 8043 0563 0200     		.2byte	0x2
 8044 0565 91       		.byte	0x91
 8045 0566 68       		.sleb128 -24
 8046 0567 00000000 		.4byte	0
 8047 056b 00000000 		.4byte	0
 8048              	.LLST22:
 8049 056f 00000000 		.4byte	.LVL48
 8050 0573 06000000 		.4byte	.LVL49
 8051 0577 0200     		.2byte	0x2
 8052 0579 91       		.byte	0x91
 8053 057a 00       		.sleb128 0
 8054 057b 06000000 		.4byte	.LVL49
 8055 057f 0A000000 		.4byte	.LVL50
 8056 0583 0200     		.2byte	0x2
 8057 0585 74       		.byte	0x74
 8058 0586 00       		.sleb128 0
 8059 0587 0A000000 		.4byte	.LVL50
 8060 058b 68010000 		.4byte	.LFE56
 8061 058f 0200     		.2byte	0x2
 8062 0591 91       		.byte	0x91
 8063 0592 00       		.sleb128 0
 8064 0593 00000000 		.4byte	0
 8065 0597 00000000 		.4byte	0
 8066              	.LLST23:
ARM GAS  C:\Users\User\AppData\Local\Temp\ccQ45nMh.s 			page 156


 8067 059b 1C010000 		.4byte	.LVL82
 8068 059f 2C010000 		.4byte	.LVL88
 8069 05a3 0100     		.2byte	0x1
 8070 05a5 53       		.byte	0x53
 8071 05a6 2C010000 		.4byte	.LVL88
 8072 05aa 34010000 		.4byte	.LVL90
 8073 05ae 0100     		.2byte	0x1
 8074 05b0 51       		.byte	0x51
 8075 05b1 00000000 		.4byte	0
 8076 05b5 00000000 		.4byte	0
 8077              	.LLST24:
 8078 05b9 00000000 		.4byte	.LVL100
 8079 05bd 0A000000 		.4byte	.LVL102
 8080 05c1 0100     		.2byte	0x1
 8081 05c3 50       		.byte	0x50
 8082 05c4 0A000000 		.4byte	.LVL102
 8083 05c8 10000000 		.4byte	.LVL104
 8084 05cc 0100     		.2byte	0x1
 8085 05ce 53       		.byte	0x53
 8086 05cf 10000000 		.4byte	.LVL104
 8087 05d3 13000000 		.4byte	.LVL105-1
 8088 05d7 0100     		.2byte	0x1
 8089 05d9 51       		.byte	0x51
 8090 05da 13000000 		.4byte	.LVL105-1
 8091 05de 44000000 		.4byte	.LFE35
 8092 05e2 0400     		.2byte	0x4
 8093 05e4 F3       		.byte	0xf3
 8094 05e5 01       		.uleb128 0x1
 8095 05e6 50       		.byte	0x50
 8096 05e7 9F       		.byte	0x9f
 8097 05e8 00000000 		.4byte	0
 8098 05ec 00000000 		.4byte	0
 8099              	.LLST25:
 8100 05f0 00000000 		.4byte	.LVL100
 8101 05f4 0C000000 		.4byte	.LVL103
 8102 05f8 0100     		.2byte	0x1
 8103 05fa 51       		.byte	0x51
 8104 05fb 0C000000 		.4byte	.LVL103
 8105 05ff 44000000 		.4byte	.LFE35
 8106 0603 0400     		.2byte	0x4
 8107 0605 F3       		.byte	0xf3
 8108 0606 01       		.uleb128 0x1
 8109 0607 51       		.byte	0x51
 8110 0608 9F       		.byte	0x9f
 8111 0609 00000000 		.4byte	0
 8112 060d 00000000 		.4byte	0
 8113              	.LLST26:
 8114 0611 06000000 		.4byte	.LVL101
 8115 0615 36000000 		.4byte	.LVL109
 8116 0619 0300     		.2byte	0x3
 8117 061b 08       		.byte	0x8
 8118 061c FF       		.byte	0xff
 8119 061d 9F       		.byte	0x9f
 8120 061e 36000000 		.4byte	.LVL109
 8121 0622 3C000000 		.4byte	.LVL111
 8122 0626 0100     		.2byte	0x1
 8123 0628 54       		.byte	0x54
ARM GAS  C:\Users\User\AppData\Local\Temp\ccQ45nMh.s 			page 157


 8124 0629 3C000000 		.4byte	.LVL111
 8125 062d 44000000 		.4byte	.LFE35
 8126 0631 0100     		.2byte	0x1
 8127 0633 50       		.byte	0x50
 8128 0634 00000000 		.4byte	0
 8129 0638 00000000 		.4byte	0
 8130              	.LLST27:
 8131 063c 00000000 		.4byte	.LVL113
 8132 0640 12000000 		.4byte	.LVL114
 8133 0644 0100     		.2byte	0x1
 8134 0646 50       		.byte	0x50
 8135 0647 12000000 		.4byte	.LVL114
 8136 064b 17000000 		.4byte	.LVL115-1
 8137 064f 0200     		.2byte	0x2
 8138 0651 70       		.byte	0x70
 8139 0652 02       		.sleb128 2
 8140 0653 17000000 		.4byte	.LVL115-1
 8141 0657 1C000000 		.4byte	.LFE38
 8142 065b 0400     		.2byte	0x4
 8143 065d F3       		.byte	0xf3
 8144 065e 01       		.uleb128 0x1
 8145 065f 50       		.byte	0x50
 8146 0660 9F       		.byte	0x9f
 8147 0661 00000000 		.4byte	0
 8148 0665 00000000 		.4byte	0
 8149              	.LLST28:
 8150 0669 00000000 		.4byte	.LVL116
 8151 066d 16000000 		.4byte	.LVL117
 8152 0671 0100     		.2byte	0x1
 8153 0673 50       		.byte	0x50
 8154 0674 16000000 		.4byte	.LVL117
 8155 0678 22000000 		.4byte	.LFE39
 8156 067c 0400     		.2byte	0x4
 8157 067e F3       		.byte	0xf3
 8158 067f 01       		.uleb128 0x1
 8159 0680 50       		.byte	0x50
 8160 0681 9F       		.byte	0x9f
 8161 0682 00000000 		.4byte	0
 8162 0686 00000000 		.4byte	0
 8163              	.LLST29:
 8164 068a 00000000 		.4byte	.LVL123
 8165 068e 20000000 		.4byte	.LVL125
 8166 0692 0100     		.2byte	0x1
 8167 0694 50       		.byte	0x50
 8168 0695 20000000 		.4byte	.LVL125
 8169 0699 25000000 		.4byte	.LVL127-1
 8170 069d 0200     		.2byte	0x2
 8171 069f 74       		.byte	0x74
 8172 06a0 03       		.sleb128 3
 8173 06a1 25000000 		.4byte	.LVL127-1
 8174 06a5 2A000000 		.4byte	.LFE43
 8175 06a9 0400     		.2byte	0x4
 8176 06ab F3       		.byte	0xf3
 8177 06ac 01       		.uleb128 0x1
 8178 06ad 50       		.byte	0x50
 8179 06ae 9F       		.byte	0x9f
 8180 06af 00000000 		.4byte	0
ARM GAS  C:\Users\User\AppData\Local\Temp\ccQ45nMh.s 			page 158


 8181 06b3 00000000 		.4byte	0
 8182              	.LLST30:
 8183 06b7 00000000 		.4byte	.LVL123
 8184 06bb 22000000 		.4byte	.LVL126
 8185 06bf 0100     		.2byte	0x1
 8186 06c1 51       		.byte	0x51
 8187 06c2 22000000 		.4byte	.LVL126
 8188 06c6 25000000 		.4byte	.LVL127-1
 8189 06ca 0200     		.2byte	0x2
 8190 06cc 74       		.byte	0x74
 8191 06cd 05       		.sleb128 5
 8192 06ce 25000000 		.4byte	.LVL127-1
 8193 06d2 2A000000 		.4byte	.LFE43
 8194 06d6 0400     		.2byte	0x4
 8195 06d8 F3       		.byte	0xf3
 8196 06d9 01       		.uleb128 0x1
 8197 06da 51       		.byte	0x51
 8198 06db 9F       		.byte	0x9f
 8199 06dc 00000000 		.4byte	0
 8200 06e0 00000000 		.4byte	0
 8201              	.LLST31:
 8202 06e4 00000000 		.4byte	.LVL123
 8203 06e8 25000000 		.4byte	.LVL127-1
 8204 06ec 0100     		.2byte	0x1
 8205 06ee 52       		.byte	0x52
 8206 06ef 25000000 		.4byte	.LVL127-1
 8207 06f3 2A000000 		.4byte	.LFE43
 8208 06f7 0400     		.2byte	0x4
 8209 06f9 F3       		.byte	0xf3
 8210 06fa 01       		.uleb128 0x1
 8211 06fb 52       		.byte	0x52
 8212 06fc 9F       		.byte	0x9f
 8213 06fd 00000000 		.4byte	0
 8214 0701 00000000 		.4byte	0
 8215              	.LLST32:
 8216 0705 00000000 		.4byte	.LVL123
 8217 0709 18000000 		.4byte	.LVL124
 8218 070d 0100     		.2byte	0x1
 8219 070f 53       		.byte	0x53
 8220 0710 18000000 		.4byte	.LVL124
 8221 0714 25000000 		.4byte	.LVL127-1
 8222 0718 0200     		.2byte	0x2
 8223 071a 74       		.byte	0x74
 8224 071b 04       		.sleb128 4
 8225 071c 25000000 		.4byte	.LVL127-1
 8226 0720 2A000000 		.4byte	.LFE43
 8227 0724 0400     		.2byte	0x4
 8228 0726 F3       		.byte	0xf3
 8229 0727 01       		.uleb128 0x1
 8230 0728 53       		.byte	0x53
 8231 0729 9F       		.byte	0x9f
 8232 072a 00000000 		.4byte	0
 8233 072e 00000000 		.4byte	0
 8234              	.LLST33:
 8235 0732 00000000 		.4byte	.LVL128
 8236 0736 12000000 		.4byte	.LVL129
 8237 073a 0100     		.2byte	0x1
ARM GAS  C:\Users\User\AppData\Local\Temp\ccQ45nMh.s 			page 159


 8238 073c 51       		.byte	0x51
 8239 073d 12000000 		.4byte	.LVL129
 8240 0741 40000000 		.4byte	.LFE44
 8241 0745 0500     		.2byte	0x5
 8242 0747 03       		.byte	0x3
 8243 0748 00000000 		.4byte	HEIGHT
 8244 074c 00000000 		.4byte	0
 8245 0750 00000000 		.4byte	0
 8246              	.LLST34:
 8247 0754 00000000 		.4byte	.LVL130
 8248 0758 0A000000 		.4byte	.LVL131
 8249 075c 0100     		.2byte	0x1
 8250 075e 50       		.byte	0x50
 8251 075f 0A000000 		.4byte	.LVL131
 8252 0763 0F000000 		.4byte	.LVL132-1
 8253 0767 0500     		.2byte	0x5
 8254 0769 03       		.byte	0x3
 8255 076a 00000000 		.4byte	_i2caddr
 8256 076e 0F000000 		.4byte	.LVL132-1
 8257 0772 30000000 		.4byte	.LFE34
 8258 0776 0400     		.2byte	0x4
 8259 0778 F3       		.byte	0xf3
 8260 0779 01       		.uleb128 0x1
 8261 077a 50       		.byte	0x50
 8262 077b 9F       		.byte	0x9f
 8263 077c 00000000 		.4byte	0
 8264 0780 00000000 		.4byte	0
 8265              	.LLST35:
 8266 0784 00000000 		.4byte	.LVL136
 8267 0788 06000000 		.4byte	.LVL137
 8268 078c 0100     		.2byte	0x1
 8269 078e 50       		.byte	0x50
 8270 078f 06000000 		.4byte	.LVL137
 8271 0793 10000000 		.4byte	.LFE49
 8272 0797 0400     		.2byte	0x4
 8273 0799 F3       		.byte	0xf3
 8274 079a 01       		.uleb128 0x1
 8275 079b 50       		.byte	0x50
 8276 079c 9F       		.byte	0x9f
 8277 079d 00000000 		.4byte	0
 8278 07a1 00000000 		.4byte	0
 8279              	.LLST36:
 8280 07a5 00000000 		.4byte	.LVL141
 8281 07a9 04000000 		.4byte	.LVL142
 8282 07ad 0100     		.2byte	0x1
 8283 07af 50       		.byte	0x50
 8284 07b0 04000000 		.4byte	.LVL142
 8285 07b4 4C000000 		.4byte	.LFE53
 8286 07b8 0400     		.2byte	0x4
 8287 07ba F3       		.byte	0xf3
 8288 07bb 01       		.uleb128 0x1
 8289 07bc 50       		.byte	0x50
 8290 07bd 9F       		.byte	0x9f
 8291 07be 00000000 		.4byte	0
 8292 07c2 00000000 		.4byte	0
 8293              	.LLST37:
 8294 07c6 00000000 		.4byte	.LVL143
ARM GAS  C:\Users\User\AppData\Local\Temp\ccQ45nMh.s 			page 160


 8295 07ca 3E000000 		.4byte	.LVL149
 8296 07ce 0100     		.2byte	0x1
 8297 07d0 50       		.byte	0x50
 8298 07d1 3E000000 		.4byte	.LVL149
 8299 07d5 43000000 		.4byte	.LVL150-1
 8300 07d9 0200     		.2byte	0x2
 8301 07db 70       		.byte	0x70
 8302 07dc 00       		.sleb128 0
 8303 07dd 43000000 		.4byte	.LVL150-1
 8304 07e1 52000000 		.4byte	.LVL151
 8305 07e5 0200     		.2byte	0x2
 8306 07e7 76       		.byte	0x76
 8307 07e8 00       		.sleb128 0
 8308 07e9 52000000 		.4byte	.LVL151
 8309 07ed 54000000 		.4byte	.LVL152
 8310 07f1 0200     		.2byte	0x2
 8311 07f3 7D       		.byte	0x7d
 8312 07f4 06       		.sleb128 6
 8313 07f5 54000000 		.4byte	.LVL152
 8314 07f9 5C000000 		.4byte	.LFE55
 8315 07fd 0200     		.2byte	0x2
 8316 07ff 91       		.byte	0x91
 8317 0800 6E       		.sleb128 -18
 8318 0801 00000000 		.4byte	0
 8319 0805 00000000 		.4byte	0
 8320              	.LLST38:
 8321 0809 00000000 		.4byte	.LVL143
 8322 080d 1C000000 		.4byte	.LVL145
 8323 0811 0100     		.2byte	0x1
 8324 0813 51       		.byte	0x51
 8325 0814 1C000000 		.4byte	.LVL145
 8326 0818 22000000 		.4byte	.LVL146
 8327 081c 0200     		.2byte	0x2
 8328 081e 91       		.byte	0x91
 8329 081f 6C       		.sleb128 -20
 8330 0820 22000000 		.4byte	.LVL146
 8331 0824 24000000 		.4byte	.LVL147
 8332 0828 0200     		.2byte	0x2
 8333 082a 73       		.byte	0x73
 8334 082b 00       		.sleb128 0
 8335 082c 24000000 		.4byte	.LVL147
 8336 0830 3C000000 		.4byte	.LVL148
 8337 0834 0200     		.2byte	0x2
 8338 0836 91       		.byte	0x91
 8339 0837 6C       		.sleb128 -20
 8340 0838 3C000000 		.4byte	.LVL148
 8341 083c 52000000 		.4byte	.LVL151
 8342 0840 0200     		.2byte	0x2
 8343 0842 75       		.byte	0x75
 8344 0843 00       		.sleb128 0
 8345 0844 52000000 		.4byte	.LVL151
 8346 0848 5C000000 		.4byte	.LFE55
 8347 084c 0200     		.2byte	0x2
 8348 084e 91       		.byte	0x91
 8349 084f 6C       		.sleb128 -20
 8350 0850 00000000 		.4byte	0
 8351 0854 00000000 		.4byte	0
ARM GAS  C:\Users\User\AppData\Local\Temp\ccQ45nMh.s 			page 161


 8352              	.LLST39:
 8353 0858 00000000 		.4byte	.LVL143
 8354 085c 18000000 		.4byte	.LVL144
 8355 0860 0100     		.2byte	0x1
 8356 0862 52       		.byte	0x52
 8357 0863 18000000 		.4byte	.LVL144
 8358 0867 5C000000 		.4byte	.LFE55
 8359 086b 0400     		.2byte	0x4
 8360 086d F3       		.byte	0xf3
 8361 086e 01       		.uleb128 0x1
 8362 086f 52       		.byte	0x52
 8363 0870 9F       		.byte	0x9f
 8364 0871 00000000 		.4byte	0
 8365 0875 00000000 		.4byte	0
 8366              	.LLST40:
 8367 0879 00000000 		.4byte	.LVL153
 8368 087d 28000000 		.4byte	.LVL156
 8369 0881 0100     		.2byte	0x1
 8370 0883 50       		.byte	0x50
 8371 0884 28000000 		.4byte	.LVL156
 8372 0888 32000000 		.4byte	.LVL159
 8373 088c 0400     		.2byte	0x4
 8374 088e F3       		.byte	0xf3
 8375 088f 01       		.uleb128 0x1
 8376 0890 50       		.byte	0x50
 8377 0891 9F       		.byte	0x9f
 8378 0892 32000000 		.4byte	.LVL159
 8379 0896 34000000 		.4byte	.LVL160
 8380 089a 0100     		.2byte	0x1
 8381 089c 50       		.byte	0x50
 8382 089d 34000000 		.4byte	.LVL160
 8383 08a1 60000000 		.4byte	.LVL165
 8384 08a5 0400     		.2byte	0x4
 8385 08a7 F3       		.byte	0xf3
 8386 08a8 01       		.uleb128 0x1
 8387 08a9 50       		.byte	0x50
 8388 08aa 9F       		.byte	0x9f
 8389 08ab 60000000 		.4byte	.LVL165
 8390 08af 6E000000 		.4byte	.LVL168
 8391 08b3 0100     		.2byte	0x1
 8392 08b5 54       		.byte	0x54
 8393 08b6 70000000 		.4byte	.LVL169
 8394 08ba D0000000 		.4byte	.LVL186
 8395 08be 0100     		.2byte	0x1
 8396 08c0 54       		.byte	0x54
 8397 08c1 D2000000 		.4byte	.LVL187
 8398 08c5 D6000000 		.4byte	.LVL188
 8399 08c9 0100     		.2byte	0x1
 8400 08cb 54       		.byte	0x54
 8401 08cc 00000000 		.4byte	0
 8402 08d0 00000000 		.4byte	0
 8403              	.LLST41:
 8404 08d4 00000000 		.4byte	.LVL153
 8405 08d8 2A000000 		.4byte	.LVL157
 8406 08dc 0100     		.2byte	0x1
 8407 08de 51       		.byte	0x51
 8408 08df 2A000000 		.4byte	.LVL157
ARM GAS  C:\Users\User\AppData\Local\Temp\ccQ45nMh.s 			page 162


 8409 08e3 32000000 		.4byte	.LVL159
 8410 08e7 0400     		.2byte	0x4
 8411 08e9 F3       		.byte	0xf3
 8412 08ea 01       		.uleb128 0x1
 8413 08eb 51       		.byte	0x51
 8414 08ec 9F       		.byte	0x9f
 8415 08ed 32000000 		.4byte	.LVL159
 8416 08f1 3C000000 		.4byte	.LVL161
 8417 08f5 0100     		.2byte	0x1
 8418 08f7 51       		.byte	0x51
 8419 08f8 3C000000 		.4byte	.LVL161
 8420 08fc 60000000 		.4byte	.LVL165
 8421 0900 0400     		.2byte	0x4
 8422 0902 F3       		.byte	0xf3
 8423 0903 01       		.uleb128 0x1
 8424 0904 51       		.byte	0x51
 8425 0905 9F       		.byte	0x9f
 8426 0906 60000000 		.4byte	.LVL165
 8427 090a 68000000 		.4byte	.LVL166
 8428 090e 0100     		.2byte	0x1
 8429 0910 56       		.byte	0x56
 8430 0911 70000000 		.4byte	.LVL169
 8431 0915 C8000000 		.4byte	.LVL183
 8432 0919 0100     		.2byte	0x1
 8433 091b 56       		.byte	0x56
 8434 091c CA000000 		.4byte	.LVL184
 8435 0920 D6000000 		.4byte	.LVL188
 8436 0924 0100     		.2byte	0x1
 8437 0926 56       		.byte	0x56
 8438 0927 00000000 		.4byte	0
 8439 092b 00000000 		.4byte	0
 8440              	.LLST42:
 8441 092f 00000000 		.4byte	.LVL153
 8442 0933 16000000 		.4byte	.LVL154
 8443 0937 0100     		.2byte	0x1
 8444 0939 52       		.byte	0x52
 8445 093a 16000000 		.4byte	.LVL154
 8446 093e 60000000 		.4byte	.LVL165
 8447 0942 0400     		.2byte	0x4
 8448 0944 F3       		.byte	0xf3
 8449 0945 01       		.uleb128 0x1
 8450 0946 52       		.byte	0x52
 8451 0947 9F       		.byte	0x9f
 8452 0948 60000000 		.4byte	.LVL165
 8453 094c D6000000 		.4byte	.LVL188
 8454 0950 0100     		.2byte	0x1
 8455 0952 57       		.byte	0x57
 8456 0953 00000000 		.4byte	0
 8457 0957 00000000 		.4byte	0
 8458              	.LLST43:
 8459 095b 00000000 		.4byte	.LVL153
 8460 095f 2F000000 		.4byte	.LVL158-1
 8461 0963 0100     		.2byte	0x1
 8462 0965 53       		.byte	0x53
 8463 0966 2F000000 		.4byte	.LVL158-1
 8464 096a 32000000 		.4byte	.LVL159
 8465 096e 0400     		.2byte	0x4
ARM GAS  C:\Users\User\AppData\Local\Temp\ccQ45nMh.s 			page 163


 8466 0970 F3       		.byte	0xf3
 8467 0971 01       		.uleb128 0x1
 8468 0972 53       		.byte	0x53
 8469 0973 9F       		.byte	0x9f
 8470 0974 32000000 		.4byte	.LVL159
 8471 0978 5A000000 		.4byte	.LVL164
 8472 097c 0100     		.2byte	0x1
 8473 097e 53       		.byte	0x53
 8474 097f 5A000000 		.4byte	.LVL164
 8475 0983 60000000 		.4byte	.LVL165
 8476 0987 0400     		.2byte	0x4
 8477 0989 F3       		.byte	0xf3
 8478 098a 01       		.uleb128 0x1
 8479 098b 53       		.byte	0x53
 8480 098c 9F       		.byte	0x9f
 8481 098d 60000000 		.4byte	.LVL165
 8482 0991 6A000000 		.4byte	.LVL167
 8483 0995 0100     		.2byte	0x1
 8484 0997 53       		.byte	0x53
 8485 0998 70000000 		.4byte	.LVL169
 8486 099c 92000000 		.4byte	.LVL173
 8487 09a0 0100     		.2byte	0x1
 8488 09a2 53       		.byte	0x53
 8489 09a3 96000000 		.4byte	.LVL174
 8490 09a7 98000000 		.4byte	.LVL175
 8491 09ab 0100     		.2byte	0x1
 8492 09ad 53       		.byte	0x53
 8493 09ae 00000000 		.4byte	0
 8494 09b2 00000000 		.4byte	0
 8495              	.LLST44:
 8496 09b6 00000000 		.4byte	.LVL153
 8497 09ba 16000000 		.4byte	.LVL154
 8498 09be 0200     		.2byte	0x2
 8499 09c0 91       		.byte	0x91
 8500 09c1 00       		.sleb128 0
 8501 09c2 16000000 		.4byte	.LVL154
 8502 09c6 18000000 		.4byte	.LVL155
 8503 09ca 0200     		.2byte	0x2
 8504 09cc 72       		.byte	0x72
 8505 09cd 00       		.sleb128 0
 8506 09ce 18000000 		.4byte	.LVL155
 8507 09d2 E8000000 		.4byte	.LFE57
 8508 09d6 0200     		.2byte	0x2
 8509 09d8 91       		.byte	0x91
 8510 09d9 00       		.sleb128 0
 8511 09da 00000000 		.4byte	0
 8512 09de 00000000 		.4byte	0
 8513              	.LLST45:
 8514 09e2 50000000 		.4byte	.LVL162
 8515 09e6 56000000 		.4byte	.LVL163
 8516 09ea 0100     		.2byte	0x1
 8517 09ec 52       		.byte	0x52
 8518 09ed 56000000 		.4byte	.LVL163
 8519 09f1 A2000000 		.4byte	.LVL177
 8520 09f5 0100     		.2byte	0x1
 8521 09f7 58       		.byte	0x58
 8522 09f8 A2000000 		.4byte	.LVL177
ARM GAS  C:\Users\User\AppData\Local\Temp\ccQ45nMh.s 			page 164


 8523 09fc AB000000 		.4byte	.LVL178-1
 8524 0a00 0100     		.2byte	0x1
 8525 0a02 53       		.byte	0x53
 8526 0a03 AB000000 		.4byte	.LVL178-1
 8527 0a07 AE000000 		.4byte	.LVL179
 8528 0a0b 0100     		.2byte	0x1
 8529 0a0d 58       		.byte	0x58
 8530 0a0e AE000000 		.4byte	.LVL179
 8531 0a12 B7000000 		.4byte	.LVL180-1
 8532 0a16 0100     		.2byte	0x1
 8533 0a18 53       		.byte	0x53
 8534 0a19 B7000000 		.4byte	.LVL180-1
 8535 0a1d D6000000 		.4byte	.LVL188
 8536 0a21 0100     		.2byte	0x1
 8537 0a23 58       		.byte	0x58
 8538 0a24 00000000 		.4byte	0
 8539 0a28 00000000 		.4byte	0
 8540              	.LLST46:
 8541 0a2c 76000000 		.4byte	.LVL170
 8542 0a30 D6000000 		.4byte	.LVL188
 8543 0a34 0100     		.2byte	0x1
 8544 0a36 5A       		.byte	0x5a
 8545 0a37 00000000 		.4byte	0
 8546 0a3b 00000000 		.4byte	0
 8547              	.LLST47:
 8548 0a3f 80000000 		.4byte	.LVL171
 8549 0a43 D6000000 		.4byte	.LVL188
 8550 0a47 0100     		.2byte	0x1
 8551 0a49 59       		.byte	0x59
 8552 0a4a 00000000 		.4byte	0
 8553 0a4e 00000000 		.4byte	0
 8554              	.LLST48:
 8555 0a52 8C000000 		.4byte	.LVL172
 8556 0a56 BC000000 		.4byte	.LVL181
 8557 0a5a 0100     		.2byte	0x1
 8558 0a5c 55       		.byte	0x55
 8559 0a5d C0000000 		.4byte	.LVL182
 8560 0a61 D6000000 		.4byte	.LVL188
 8561 0a65 0100     		.2byte	0x1
 8562 0a67 55       		.byte	0x55
 8563 0a68 00000000 		.4byte	0
 8564 0a6c 00000000 		.4byte	0
 8565              	.LLST49:
 8566 0a70 9C000000 		.4byte	.LVL176
 8567 0a74 D6000000 		.4byte	.LVL188
 8568 0a78 0100     		.2byte	0x1
 8569 0a7a 5B       		.byte	0x5b
 8570 0a7b 00000000 		.4byte	0
 8571 0a7f 00000000 		.4byte	0
 8572              	.LLST50:
 8573 0a83 00000000 		.4byte	.LVL189
 8574 0a87 1D000000 		.4byte	.LVL193-1
 8575 0a8b 0100     		.2byte	0x1
 8576 0a8d 50       		.byte	0x50
 8577 0a8e 1D000000 		.4byte	.LVL193-1
 8578 0a92 56000000 		.4byte	.LFE58
 8579 0a96 0400     		.2byte	0x4
ARM GAS  C:\Users\User\AppData\Local\Temp\ccQ45nMh.s 			page 165


 8580 0a98 F3       		.byte	0xf3
 8581 0a99 01       		.uleb128 0x1
 8582 0a9a 50       		.byte	0x50
 8583 0a9b 9F       		.byte	0x9f
 8584 0a9c 00000000 		.4byte	0
 8585 0aa0 00000000 		.4byte	0
 8586              	.LLST51:
 8587 0aa4 00000000 		.4byte	.LVL189
 8588 0aa8 1D000000 		.4byte	.LVL193-1
 8589 0aac 0100     		.2byte	0x1
 8590 0aae 51       		.byte	0x51
 8591 0aaf 1D000000 		.4byte	.LVL193-1
 8592 0ab3 56000000 		.4byte	.LFE58
 8593 0ab7 0400     		.2byte	0x4
 8594 0ab9 F3       		.byte	0xf3
 8595 0aba 01       		.uleb128 0x1
 8596 0abb 51       		.byte	0x51
 8597 0abc 9F       		.byte	0x9f
 8598 0abd 00000000 		.4byte	0
 8599 0ac1 00000000 		.4byte	0
 8600              	.LLST52:
 8601 0ac5 00000000 		.4byte	.LVL189
 8602 0ac9 18000000 		.4byte	.LVL192
 8603 0acd 0100     		.2byte	0x1
 8604 0acf 52       		.byte	0x52
 8605 0ad0 18000000 		.4byte	.LVL192
 8606 0ad4 56000000 		.4byte	.LFE58
 8607 0ad8 0400     		.2byte	0x4
 8608 0ada F3       		.byte	0xf3
 8609 0adb 01       		.uleb128 0x1
 8610 0adc 52       		.byte	0x52
 8611 0add 9F       		.byte	0x9f
 8612 0ade 00000000 		.4byte	0
 8613 0ae2 00000000 		.4byte	0
 8614              	.LLST53:
 8615 0ae6 00000000 		.4byte	.LVL189
 8616 0aea 0A000000 		.4byte	.LVL190
 8617 0aee 0100     		.2byte	0x1
 8618 0af0 53       		.byte	0x53
 8619 0af1 0A000000 		.4byte	.LVL190
 8620 0af5 56000000 		.4byte	.LFE58
 8621 0af9 0400     		.2byte	0x4
 8622 0afb F3       		.byte	0xf3
 8623 0afc 01       		.uleb128 0x1
 8624 0afd 53       		.byte	0x53
 8625 0afe 9F       		.byte	0x9f
 8626 0aff 00000000 		.4byte	0
 8627 0b03 00000000 		.4byte	0
 8628              	.LLST54:
 8629 0b07 00000000 		.4byte	.LVL189
 8630 0b0b 0A000000 		.4byte	.LVL190
 8631 0b0f 0200     		.2byte	0x2
 8632 0b11 91       		.byte	0x91
 8633 0b12 00       		.sleb128 0
 8634 0b13 0A000000 		.4byte	.LVL190
 8635 0b17 16000000 		.4byte	.LVL191
 8636 0b1b 0200     		.2byte	0x2
ARM GAS  C:\Users\User\AppData\Local\Temp\ccQ45nMh.s 			page 166


 8637 0b1d 73       		.byte	0x73
 8638 0b1e 00       		.sleb128 0
 8639 0b1f 16000000 		.4byte	.LVL191
 8640 0b23 56000000 		.4byte	.LFE58
 8641 0b27 0200     		.2byte	0x2
 8642 0b29 91       		.byte	0x91
 8643 0b2a 00       		.sleb128 0
 8644 0b2b 00000000 		.4byte	0
 8645 0b2f 00000000 		.4byte	0
 8646              	.LLST55:
 8647 0b33 00000000 		.4byte	.LVL197
 8648 0b37 20000000 		.4byte	.LVL201
 8649 0b3b 0100     		.2byte	0x1
 8650 0b3d 50       		.byte	0x50
 8651 0b3e 20000000 		.4byte	.LVL201
 8652 0b42 3C000000 		.4byte	.LVL205
 8653 0b46 0400     		.2byte	0x4
 8654 0b48 F3       		.byte	0xf3
 8655 0b49 01       		.uleb128 0x1
 8656 0b4a 50       		.byte	0x50
 8657 0b4b 9F       		.byte	0x9f
 8658 0b4c 3C000000 		.4byte	.LVL205
 8659 0b50 3E000000 		.4byte	.LVL206
 8660 0b54 0100     		.2byte	0x1
 8661 0b56 50       		.byte	0x50
 8662 0b57 3E000000 		.4byte	.LVL206
 8663 0b5b 70000000 		.4byte	.LFE59
 8664 0b5f 0400     		.2byte	0x4
 8665 0b61 F3       		.byte	0xf3
 8666 0b62 01       		.uleb128 0x1
 8667 0b63 50       		.byte	0x50
 8668 0b64 9F       		.byte	0x9f
 8669 0b65 00000000 		.4byte	0
 8670 0b69 00000000 		.4byte	0
 8671              	.LLST56:
 8672 0b6d 00000000 		.4byte	.LVL197
 8673 0b71 20000000 		.4byte	.LVL201
 8674 0b75 0100     		.2byte	0x1
 8675 0b77 51       		.byte	0x51
 8676 0b78 20000000 		.4byte	.LVL201
 8677 0b7c 3C000000 		.4byte	.LVL205
 8678 0b80 0400     		.2byte	0x4
 8679 0b82 F3       		.byte	0xf3
 8680 0b83 01       		.uleb128 0x1
 8681 0b84 51       		.byte	0x51
 8682 0b85 9F       		.byte	0x9f
 8683 0b86 3C000000 		.4byte	.LVL205
 8684 0b8a 3E000000 		.4byte	.LVL206
 8685 0b8e 0100     		.2byte	0x1
 8686 0b90 51       		.byte	0x51
 8687 0b91 3E000000 		.4byte	.LVL206
 8688 0b95 70000000 		.4byte	.LFE59
 8689 0b99 0400     		.2byte	0x4
 8690 0b9b F3       		.byte	0xf3
 8691 0b9c 01       		.uleb128 0x1
 8692 0b9d 51       		.byte	0x51
 8693 0b9e 9F       		.byte	0x9f
ARM GAS  C:\Users\User\AppData\Local\Temp\ccQ45nMh.s 			page 167


 8694 0b9f 00000000 		.4byte	0
 8695 0ba3 00000000 		.4byte	0
 8696              	.LLST57:
 8697 0ba7 00000000 		.4byte	.LVL197
 8698 0bab 20000000 		.4byte	.LVL201
 8699 0baf 0100     		.2byte	0x1
 8700 0bb1 52       		.byte	0x52
 8701 0bb2 20000000 		.4byte	.LVL201
 8702 0bb6 3C000000 		.4byte	.LVL205
 8703 0bba 0400     		.2byte	0x4
 8704 0bbc F3       		.byte	0xf3
 8705 0bbd 01       		.uleb128 0x1
 8706 0bbe 52       		.byte	0x52
 8707 0bbf 9F       		.byte	0x9f
 8708 0bc0 3C000000 		.4byte	.LVL205
 8709 0bc4 3E000000 		.4byte	.LVL206
 8710 0bc8 0100     		.2byte	0x1
 8711 0bca 52       		.byte	0x52
 8712 0bcb 3E000000 		.4byte	.LVL206
 8713 0bcf 70000000 		.4byte	.LFE59
 8714 0bd3 0400     		.2byte	0x4
 8715 0bd5 F3       		.byte	0xf3
 8716 0bd6 01       		.uleb128 0x1
 8717 0bd7 52       		.byte	0x52
 8718 0bd8 9F       		.byte	0x9f
 8719 0bd9 00000000 		.4byte	0
 8720 0bdd 00000000 		.4byte	0
 8721              	.LLST58:
 8722 0be1 00000000 		.4byte	.LVL197
 8723 0be5 14000000 		.4byte	.LVL198
 8724 0be9 0100     		.2byte	0x1
 8725 0beb 53       		.byte	0x53
 8726 0bec 14000000 		.4byte	.LVL198
 8727 0bf0 70000000 		.4byte	.LFE59
 8728 0bf4 0400     		.2byte	0x4
 8729 0bf6 F3       		.byte	0xf3
 8730 0bf7 01       		.uleb128 0x1
 8731 0bf8 53       		.byte	0x53
 8732 0bf9 9F       		.byte	0x9f
 8733 0bfa 00000000 		.4byte	0
 8734 0bfe 00000000 		.4byte	0
 8735              	.LLST59:
 8736 0c02 00000000 		.4byte	.LVL197
 8737 0c06 14000000 		.4byte	.LVL198
 8738 0c0a 0200     		.2byte	0x2
 8739 0c0c 91       		.byte	0x91
 8740 0c0d 00       		.sleb128 0
 8741 0c0e 14000000 		.4byte	.LVL198
 8742 0c12 16000000 		.4byte	.LVL199
 8743 0c16 0200     		.2byte	0x2
 8744 0c18 73       		.byte	0x73
 8745 0c19 00       		.sleb128 0
 8746 0c1a 16000000 		.4byte	.LVL199
 8747 0c1e 70000000 		.4byte	.LFE59
 8748 0c22 0200     		.2byte	0x2
 8749 0c24 91       		.byte	0x91
 8750 0c25 00       		.sleb128 0
ARM GAS  C:\Users\User\AppData\Local\Temp\ccQ45nMh.s 			page 168


 8751 0c26 00000000 		.4byte	0
 8752 0c2a 00000000 		.4byte	0
 8753              	.LLST60:
 8754 0c2e 18000000 		.4byte	.LVL200
 8755 0c32 20000000 		.4byte	.LVL201
 8756 0c36 0200     		.2byte	0x2
 8757 0c38 30       		.byte	0x30
 8758 0c39 9F       		.byte	0x9f
 8759 0c3a 20000000 		.4byte	.LVL201
 8760 0c3e 38000000 		.4byte	.LVL203
 8761 0c42 0100     		.2byte	0x1
 8762 0c44 54       		.byte	0x54
 8763 0c45 3A000000 		.4byte	.LVL204
 8764 0c49 3C000000 		.4byte	.LVL205
 8765 0c4d 0100     		.2byte	0x1
 8766 0c4f 54       		.byte	0x54
 8767 0c50 3C000000 		.4byte	.LVL205
 8768 0c54 3E000000 		.4byte	.LVL206
 8769 0c58 0200     		.2byte	0x2
 8770 0c5a 30       		.byte	0x30
 8771 0c5b 9F       		.byte	0x9f
 8772 0c5c 3E000000 		.4byte	.LVL206
 8773 0c60 5C000000 		.4byte	.LVL208
 8774 0c64 0100     		.2byte	0x1
 8775 0c66 54       		.byte	0x54
 8776 0c67 5E000000 		.4byte	.LVL209
 8777 0c6b 68000000 		.4byte	.LVL210
 8778 0c6f 0100     		.2byte	0x1
 8779 0c71 54       		.byte	0x54
 8780 0c72 00000000 		.4byte	0
 8781 0c76 00000000 		.4byte	0
 8782              	.LLST61:
 8783 0c7a 00000000 		.4byte	.LVL211
 8784 0c7e 39000000 		.4byte	.LVL217-1
 8785 0c82 0100     		.2byte	0x1
 8786 0c84 50       		.byte	0x50
 8787 0c85 39000000 		.4byte	.LVL217-1
 8788 0c89 50010000 		.4byte	.LFE60
 8789 0c8d 0400     		.2byte	0x4
 8790 0c8f F3       		.byte	0xf3
 8791 0c90 01       		.uleb128 0x1
 8792 0c91 50       		.byte	0x50
 8793 0c92 9F       		.byte	0x9f
 8794 0c93 00000000 		.4byte	0
 8795 0c97 00000000 		.4byte	0
 8796              	.LLST62:
 8797 0c9b 00000000 		.4byte	.LVL211
 8798 0c9f 32000000 		.4byte	.LVL216
 8799 0ca3 0100     		.2byte	0x1
 8800 0ca5 51       		.byte	0x51
 8801 0ca6 32000000 		.4byte	.LVL216
 8802 0caa 39000000 		.4byte	.LVL217-1
 8803 0cae 0100     		.2byte	0x1
 8804 0cb0 53       		.byte	0x53
 8805 0cb1 39000000 		.4byte	.LVL217-1
 8806 0cb5 44010000 		.4byte	.LVL237
 8807 0cb9 0100     		.2byte	0x1
ARM GAS  C:\Users\User\AppData\Local\Temp\ccQ45nMh.s 			page 169


 8808 0cbb 5A       		.byte	0x5a
 8809 0cbc 44010000 		.4byte	.LVL237
 8810 0cc0 50010000 		.4byte	.LFE60
 8811 0cc4 0400     		.2byte	0x4
 8812 0cc6 F3       		.byte	0xf3
 8813 0cc7 01       		.uleb128 0x1
 8814 0cc8 51       		.byte	0x51
 8815 0cc9 9F       		.byte	0x9f
 8816 0cca 00000000 		.4byte	0
 8817 0cce 00000000 		.4byte	0
 8818              	.LLST63:
 8819 0cd2 00000000 		.4byte	.LVL211
 8820 0cd6 28000000 		.4byte	.LVL214
 8821 0cda 0100     		.2byte	0x1
 8822 0cdc 52       		.byte	0x52
 8823 0cdd 28000000 		.4byte	.LVL214
 8824 0ce1 70000000 		.4byte	.LVL221
 8825 0ce5 0100     		.2byte	0x1
 8826 0ce7 56       		.byte	0x56
 8827 0ce8 70000000 		.4byte	.LVL221
 8828 0cec 50010000 		.4byte	.LFE60
 8829 0cf0 0400     		.2byte	0x4
 8830 0cf2 F3       		.byte	0xf3
 8831 0cf3 01       		.uleb128 0x1
 8832 0cf4 52       		.byte	0x52
 8833 0cf5 9F       		.byte	0x9f
 8834 0cf6 00000000 		.4byte	0
 8835 0cfa 00000000 		.4byte	0
 8836              	.LLST64:
 8837 0cfe 00000000 		.4byte	.LVL211
 8838 0d02 1C000000 		.4byte	.LVL212
 8839 0d06 0100     		.2byte	0x1
 8840 0d08 53       		.byte	0x53
 8841 0d09 1C000000 		.4byte	.LVL212
 8842 0d0d 50010000 		.4byte	.LFE60
 8843 0d11 0400     		.2byte	0x4
 8844 0d13 F3       		.byte	0xf3
 8845 0d14 01       		.uleb128 0x1
 8846 0d15 53       		.byte	0x53
 8847 0d16 9F       		.byte	0x9f
 8848 0d17 00000000 		.4byte	0
 8849 0d1b 00000000 		.4byte	0
 8850              	.LLST65:
 8851 0d1f 22000000 		.4byte	.LVL213
 8852 0d23 44010000 		.4byte	.LVL238
 8853 0d27 0100     		.2byte	0x1
 8854 0d29 5B       		.byte	0x5b
 8855 0d2a 00000000 		.4byte	0
 8856 0d2e 00000000 		.4byte	0
 8857              	.LLST66:
 8858 0d32 22000000 		.4byte	.LVL213
 8859 0d36 70000000 		.4byte	.LVL221
 8860 0d3a 0200     		.2byte	0x2
 8861 0d3c 31       		.byte	0x31
 8862 0d3d 9F       		.byte	0x9f
 8863 0d3e 70000000 		.4byte	.LVL221
 8864 0d42 44010000 		.4byte	.LVL236
ARM GAS  C:\Users\User\AppData\Local\Temp\ccQ45nMh.s 			page 170


 8865 0d46 0100     		.2byte	0x1
 8866 0d48 58       		.byte	0x58
 8867 0d49 00000000 		.4byte	0
 8868 0d4d 00000000 		.4byte	0
 8869              	.LLST67:
 8870 0d51 2C000000 		.4byte	.LVL215
 8871 0d55 70000000 		.4byte	.LVL221
 8872 0d59 0200     		.2byte	0x2
 8873 0d5b 30       		.byte	0x30
 8874 0d5c 9F       		.byte	0x9f
 8875 0d5d 70000000 		.4byte	.LVL221
 8876 0d61 50010000 		.4byte	.LFE60
 8877 0d65 0200     		.2byte	0x2
 8878 0d67 91       		.byte	0x91
 8879 0d68 4C       		.sleb128 -52
 8880 0d69 00000000 		.4byte	0
 8881 0d6d 00000000 		.4byte	0
 8882              	.LLST68:
 8883 0d71 00000000 		.4byte	.LVL239
 8884 0d75 25000000 		.4byte	.LVL245-1
 8885 0d79 0100     		.2byte	0x1
 8886 0d7b 50       		.byte	0x50
 8887 0d7c 25000000 		.4byte	.LVL245-1
 8888 0d80 46000000 		.4byte	.LFE61
 8889 0d84 0400     		.2byte	0x4
 8890 0d86 F3       		.byte	0xf3
 8891 0d87 01       		.uleb128 0x1
 8892 0d88 50       		.byte	0x50
 8893 0d89 9F       		.byte	0x9f
 8894 0d8a 00000000 		.4byte	0
 8895 0d8e 00000000 		.4byte	0
 8896              	.LLST69:
 8897 0d92 00000000 		.4byte	.LVL239
 8898 0d96 25000000 		.4byte	.LVL245-1
 8899 0d9a 0100     		.2byte	0x1
 8900 0d9c 51       		.byte	0x51
 8901 0d9d 25000000 		.4byte	.LVL245-1
 8902 0da1 46000000 		.4byte	.LFE61
 8903 0da5 0400     		.2byte	0x4
 8904 0da7 F3       		.byte	0xf3
 8905 0da8 01       		.uleb128 0x1
 8906 0da9 51       		.byte	0x51
 8907 0daa 9F       		.byte	0x9f
 8908 0dab 00000000 		.4byte	0
 8909 0daf 00000000 		.4byte	0
 8910              	.LLST70:
 8911 0db3 00000000 		.4byte	.LVL239
 8912 0db7 0E000000 		.4byte	.LVL241
 8913 0dbb 0100     		.2byte	0x1
 8914 0dbd 52       		.byte	0x52
 8915 0dbe 0E000000 		.4byte	.LVL241
 8916 0dc2 46000000 		.4byte	.LFE61
 8917 0dc6 0400     		.2byte	0x4
 8918 0dc8 F3       		.byte	0xf3
 8919 0dc9 01       		.uleb128 0x1
 8920 0dca 52       		.byte	0x52
 8921 0dcb 9F       		.byte	0x9f
ARM GAS  C:\Users\User\AppData\Local\Temp\ccQ45nMh.s 			page 171


 8922 0dcc 00000000 		.4byte	0
 8923 0dd0 00000000 		.4byte	0
 8924              	.LLST71:
 8925 0dd4 00000000 		.4byte	.LVL239
 8926 0dd8 0A000000 		.4byte	.LVL240
 8927 0ddc 0100     		.2byte	0x1
 8928 0dde 53       		.byte	0x53
 8929 0ddf 0A000000 		.4byte	.LVL240
 8930 0de3 46000000 		.4byte	.LFE61
 8931 0de7 0400     		.2byte	0x4
 8932 0de9 F3       		.byte	0xf3
 8933 0dea 01       		.uleb128 0x1
 8934 0deb 53       		.byte	0x53
 8935 0dec 9F       		.byte	0x9f
 8936 0ded 00000000 		.4byte	0
 8937 0df1 00000000 		.4byte	0
 8938              	.LLST72:
 8939 0df5 00000000 		.4byte	.LVL239
 8940 0df9 0A000000 		.4byte	.LVL240
 8941 0dfd 0200     		.2byte	0x2
 8942 0dff 91       		.byte	0x91
 8943 0e00 00       		.sleb128 0
 8944 0e01 0A000000 		.4byte	.LVL240
 8945 0e05 10000000 		.4byte	.LVL242
 8946 0e09 0200     		.2byte	0x2
 8947 0e0b 73       		.byte	0x73
 8948 0e0c 00       		.sleb128 0
 8949 0e0d 10000000 		.4byte	.LVL242
 8950 0e11 46000000 		.4byte	.LFE61
 8951 0e15 0200     		.2byte	0x2
 8952 0e17 91       		.byte	0x91
 8953 0e18 00       		.sleb128 0
 8954 0e19 00000000 		.4byte	0
 8955 0e1d 00000000 		.4byte	0
 8956              	.LLST73:
 8957 0e21 00000000 		.4byte	.LVL239
 8958 0e25 0A000000 		.4byte	.LVL240
 8959 0e29 0200     		.2byte	0x2
 8960 0e2b 91       		.byte	0x91
 8961 0e2c 04       		.sleb128 4
 8962 0e2d 0A000000 		.4byte	.LVL240
 8963 0e31 10000000 		.4byte	.LVL242
 8964 0e35 0200     		.2byte	0x2
 8965 0e37 73       		.byte	0x73
 8966 0e38 04       		.sleb128 4
 8967 0e39 10000000 		.4byte	.LVL242
 8968 0e3d 16000000 		.4byte	.LVL243
 8969 0e41 0200     		.2byte	0x2
 8970 0e43 73       		.byte	0x73
 8971 0e44 00       		.sleb128 0
 8972 0e45 16000000 		.4byte	.LVL243
 8973 0e49 46000000 		.4byte	.LFE61
 8974 0e4d 0200     		.2byte	0x2
 8975 0e4f 91       		.byte	0x91
 8976 0e50 04       		.sleb128 4
 8977 0e51 00000000 		.4byte	0
 8978 0e55 00000000 		.4byte	0
ARM GAS  C:\Users\User\AppData\Local\Temp\ccQ45nMh.s 			page 172


 8979              	.LLST74:
 8980 0e59 00000000 		.4byte	.LVL239
 8981 0e5d 0A000000 		.4byte	.LVL240
 8982 0e61 0200     		.2byte	0x2
 8983 0e63 91       		.byte	0x91
 8984 0e64 08       		.sleb128 8
 8985 0e65 0A000000 		.4byte	.LVL240
 8986 0e69 10000000 		.4byte	.LVL242
 8987 0e6d 0200     		.2byte	0x2
 8988 0e6f 73       		.byte	0x73
 8989 0e70 08       		.sleb128 8
 8990 0e71 10000000 		.4byte	.LVL242
 8991 0e75 16000000 		.4byte	.LVL243
 8992 0e79 0200     		.2byte	0x2
 8993 0e7b 91       		.byte	0x91
 8994 0e7c 08       		.sleb128 8
 8995 0e7d 16000000 		.4byte	.LVL243
 8996 0e81 22000000 		.4byte	.LVL244
 8997 0e85 0200     		.2byte	0x2
 8998 0e87 73       		.byte	0x73
 8999 0e88 00       		.sleb128 0
 9000 0e89 22000000 		.4byte	.LVL244
 9001 0e8d 46000000 		.4byte	.LFE61
 9002 0e91 0200     		.2byte	0x2
 9003 0e93 91       		.byte	0x91
 9004 0e94 08       		.sleb128 8
 9005 0e95 00000000 		.4byte	0
 9006 0e99 00000000 		.4byte	0
 9007              	.LLST75:
 9008 0e9d 00000000 		.4byte	.LVL248
 9009 0ea1 4C000000 		.4byte	.LVL253
 9010 0ea5 0100     		.2byte	0x1
 9011 0ea7 50       		.byte	0x50
 9012 0ea8 4C000000 		.4byte	.LVL253
 9013 0eac 0C010000 		.4byte	.LFE62
 9014 0eb0 0400     		.2byte	0x4
 9015 0eb2 F3       		.byte	0xf3
 9016 0eb3 01       		.uleb128 0x1
 9017 0eb4 50       		.byte	0x50
 9018 0eb5 9F       		.byte	0x9f
 9019 0eb6 00000000 		.4byte	0
 9020 0eba 00000000 		.4byte	0
 9021              	.LLST76:
 9022 0ebe 00000000 		.4byte	.LVL248
 9023 0ec2 4C000000 		.4byte	.LVL253
 9024 0ec6 0100     		.2byte	0x1
 9025 0ec8 51       		.byte	0x51
 9026 0ec9 4C000000 		.4byte	.LVL253
 9027 0ecd 0C010000 		.4byte	.LFE62
 9028 0ed1 0400     		.2byte	0x4
 9029 0ed3 F3       		.byte	0xf3
 9030 0ed4 01       		.uleb128 0x1
 9031 0ed5 51       		.byte	0x51
 9032 0ed6 9F       		.byte	0x9f
 9033 0ed7 00000000 		.4byte	0
 9034 0edb 00000000 		.4byte	0
 9035              	.LLST77:
ARM GAS  C:\Users\User\AppData\Local\Temp\ccQ45nMh.s 			page 173


 9036 0edf 00000000 		.4byte	.LVL248
 9037 0ee3 4C000000 		.4byte	.LVL253
 9038 0ee7 0100     		.2byte	0x1
 9039 0ee9 52       		.byte	0x52
 9040 0eea 4C000000 		.4byte	.LVL253
 9041 0eee 0C010000 		.4byte	.LFE62
 9042 0ef2 0400     		.2byte	0x4
 9043 0ef4 F3       		.byte	0xf3
 9044 0ef5 01       		.uleb128 0x1
 9045 0ef6 52       		.byte	0x52
 9046 0ef7 9F       		.byte	0x9f
 9047 0ef8 00000000 		.4byte	0
 9048 0efc 00000000 		.4byte	0
 9049              	.LLST78:
 9050 0f00 00000000 		.4byte	.LVL248
 9051 0f04 4C000000 		.4byte	.LVL253
 9052 0f08 0100     		.2byte	0x1
 9053 0f0a 53       		.byte	0x53
 9054 0f0b 4C000000 		.4byte	.LVL253
 9055 0f0f 0C010000 		.4byte	.LFE62
 9056 0f13 0400     		.2byte	0x4
 9057 0f15 F3       		.byte	0xf3
 9058 0f16 01       		.uleb128 0x1
 9059 0f17 53       		.byte	0x53
 9060 0f18 9F       		.byte	0x9f
 9061 0f19 00000000 		.4byte	0
 9062 0f1d 00000000 		.4byte	0
 9063              	.LLST79:
 9064 0f21 00000000 		.4byte	.LVL248
 9065 0f25 10000000 		.4byte	.LVL249
 9066 0f29 0200     		.2byte	0x2
 9067 0f2b 91       		.byte	0x91
 9068 0f2c 00       		.sleb128 0
 9069 0f2d 10000000 		.4byte	.LVL249
 9070 0f31 12000000 		.4byte	.LVL250
 9071 0f35 0200     		.2byte	0x2
 9072 0f37 74       		.byte	0x74
 9073 0f38 00       		.sleb128 0
 9074 0f39 12000000 		.4byte	.LVL250
 9075 0f3d 0C010000 		.4byte	.LFE62
 9076 0f41 0200     		.2byte	0x2
 9077 0f43 91       		.byte	0x91
 9078 0f44 00       		.sleb128 0
 9079 0f45 00000000 		.4byte	0
 9080 0f49 00000000 		.4byte	0
 9081              	.LLST80:
 9082 0f4d 00000000 		.4byte	.LVL248
 9083 0f51 10000000 		.4byte	.LVL249
 9084 0f55 0200     		.2byte	0x2
 9085 0f57 91       		.byte	0x91
 9086 0f58 04       		.sleb128 4
 9087 0f59 10000000 		.4byte	.LVL249
 9088 0f5d 12000000 		.4byte	.LVL250
 9089 0f61 0200     		.2byte	0x2
 9090 0f63 74       		.byte	0x74
 9091 0f64 04       		.sleb128 4
 9092 0f65 12000000 		.4byte	.LVL250
ARM GAS  C:\Users\User\AppData\Local\Temp\ccQ45nMh.s 			page 174


 9093 0f69 16000000 		.4byte	.LVL251
 9094 0f6d 0200     		.2byte	0x2
 9095 0f6f 91       		.byte	0x91
 9096 0f70 04       		.sleb128 4
 9097 0f71 16000000 		.4byte	.LVL251
 9098 0f75 1A000000 		.4byte	.LVL252
 9099 0f79 0200     		.2byte	0x2
 9100 0f7b 74       		.byte	0x74
 9101 0f7c 00       		.sleb128 0
 9102 0f7d 1A000000 		.4byte	.LVL252
 9103 0f81 0C010000 		.4byte	.LFE62
 9104 0f85 0200     		.2byte	0x2
 9105 0f87 91       		.byte	0x91
 9106 0f88 04       		.sleb128 4
 9107 0f89 00000000 		.4byte	0
 9108 0f8d 00000000 		.4byte	0
 9109              	.LLST81:
 9110 0f91 4C000000 		.4byte	.LVL253
 9111 0f95 EC000000 		.4byte	.LVL264
 9112 0f99 0100     		.2byte	0x1
 9113 0f9b 56       		.byte	0x56
 9114 0f9c EE000000 		.4byte	.LVL265
 9115 0fa0 F4000000 		.4byte	.LVL266
 9116 0fa4 0100     		.2byte	0x1
 9117 0fa6 56       		.byte	0x56
 9118 0fa7 00000000 		.4byte	0
 9119 0fab 00000000 		.4byte	0
 9120              	.LLST82:
 9121 0faf 60000000 		.4byte	.LVL254
 9122 0fb3 62000000 		.4byte	.LVL255
 9123 0fb7 0100     		.2byte	0x1
 9124 0fb9 55       		.byte	0x55
 9125 0fba 68000000 		.4byte	.LVL256
 9126 0fbe EE000000 		.4byte	.LVL265
 9127 0fc2 0100     		.2byte	0x1
 9128 0fc4 55       		.byte	0x55
 9129 0fc5 00000000 		.4byte	0
 9130 0fc9 00000000 		.4byte	0
 9131              	.LLST83:
 9132 0fcd 68000000 		.4byte	.LVL256
 9133 0fd1 E2000000 		.4byte	.LVL262
 9134 0fd5 0100     		.2byte	0x1
 9135 0fd7 54       		.byte	0x54
 9136 0fd8 E4000000 		.4byte	.LVL263
 9137 0fdc EE000000 		.4byte	.LVL265
 9138 0fe0 0100     		.2byte	0x1
 9139 0fe2 54       		.byte	0x54
 9140 0fe3 00000000 		.4byte	0
 9141 0fe7 00000000 		.4byte	0
 9142              	.LLST84:
 9143 0feb 00000000 		.4byte	.LVL267
 9144 0fef 26000000 		.4byte	.LVL268
 9145 0ff3 0100     		.2byte	0x1
 9146 0ff5 50       		.byte	0x50
 9147 0ff6 26000000 		.4byte	.LVL268
 9148 0ffa 80000000 		.4byte	.LFE63
 9149 0ffe 0400     		.2byte	0x4
ARM GAS  C:\Users\User\AppData\Local\Temp\ccQ45nMh.s 			page 175


 9150 1000 F3       		.byte	0xf3
 9151 1001 01       		.uleb128 0x1
 9152 1002 50       		.byte	0x50
 9153 1003 9F       		.byte	0x9f
 9154 1004 00000000 		.4byte	0
 9155 1008 00000000 		.4byte	0
 9156              	.LLST85:
 9157 100c 00000000 		.4byte	.LVL270
 9158 1010 07000000 		.4byte	.LVL271-1
 9159 1014 0100     		.2byte	0x1
 9160 1016 50       		.byte	0x50
 9161 1017 07000000 		.4byte	.LVL271-1
 9162 101b 1A000000 		.4byte	.LVL278
 9163 101f 0100     		.2byte	0x1
 9164 1021 56       		.byte	0x56
 9165 1022 1A000000 		.4byte	.LVL278
 9166 1026 1C000000 		.4byte	.LFE64
 9167 102a 0400     		.2byte	0x4
 9168 102c F3       		.byte	0xf3
 9169 102d 01       		.uleb128 0x1
 9170 102e 50       		.byte	0x50
 9171 102f 9F       		.byte	0x9f
 9172 1030 00000000 		.4byte	0
 9173 1034 00000000 		.4byte	0
 9174              	.LLST86:
 9175 1038 0A000000 		.4byte	.LVL272
 9176 103c 0E000000 		.4byte	.LVL273
 9177 1040 0100     		.2byte	0x1
 9178 1042 50       		.byte	0x50
 9179 1043 0E000000 		.4byte	.LVL273
 9180 1047 1A000000 		.4byte	.LVL277
 9181 104b 0100     		.2byte	0x1
 9182 104d 55       		.byte	0x55
 9183 104e 00000000 		.4byte	0
 9184 1052 00000000 		.4byte	0
 9185              	.LLST87:
 9186 1056 0A000000 		.4byte	.LVL272
 9187 105a 0E000000 		.4byte	.LVL273
 9188 105e 0200     		.2byte	0x2
 9189 1060 30       		.byte	0x30
 9190 1061 9F       		.byte	0x9f
 9191 1062 0E000000 		.4byte	.LVL273
 9192 1066 1A000000 		.4byte	.LVL276
 9193 106a 0100     		.2byte	0x1
 9194 106c 54       		.byte	0x54
 9195 106d 00000000 		.4byte	0
 9196 1071 00000000 		.4byte	0
 9197              	.LLST88:
 9198 1075 00000000 		.4byte	.LVL279
 9199 1079 05000000 		.4byte	.LVL280-1
 9200 107d 0100     		.2byte	0x1
 9201 107f 50       		.byte	0x50
 9202 1080 05000000 		.4byte	.LVL280-1
 9203 1084 0E000000 		.4byte	.LFE65
 9204 1088 0400     		.2byte	0x4
 9205 108a F3       		.byte	0xf3
 9206 108b 01       		.uleb128 0x1
ARM GAS  C:\Users\User\AppData\Local\Temp\ccQ45nMh.s 			page 176


 9207 108c 50       		.byte	0x50
 9208 108d 9F       		.byte	0x9f
 9209 108e 00000000 		.4byte	0
 9210 1092 00000000 		.4byte	0
 9211              		.section	.debug_aranges,"",%progbits
 9212 0000 14010000 		.4byte	0x114
 9213 0004 0200     		.2byte	0x2
 9214 0006 00000000 		.4byte	.Ldebug_info0
 9215 000a 04       		.byte	0x4
 9216 000b 00       		.byte	0
 9217 000c 0000     		.2byte	0
 9218 000e 0000     		.2byte	0
 9219 0010 00000000 		.4byte	.LFB36
 9220 0014 8C000000 		.4byte	.LFE36-.LFB36
 9221 0018 00000000 		.4byte	.LFB41
 9222 001c 40010000 		.4byte	.LFE41-.LFB41
 9223 0020 00000000 		.4byte	.LFB54
 9224 0024 5C000000 		.4byte	.LFE54-.LFB54
 9225 0028 00000000 		.4byte	.LFB56
 9226 002c 68010000 		.4byte	.LFE56-.LFB56
 9227 0030 00000000 		.4byte	.LFB35
 9228 0034 44000000 		.4byte	.LFE35-.LFB35
 9229 0038 00000000 		.4byte	.LFB37
 9230 003c 1C000000 		.4byte	.LFE37-.LFB37
 9231 0040 00000000 		.4byte	.LFB38
 9232 0044 1C000000 		.4byte	.LFE38-.LFB38
 9233 0048 00000000 		.4byte	.LFB39
 9234 004c 22000000 		.4byte	.LFE39-.LFB39
 9235 0050 00000000 		.4byte	.LFB40
 9236 0054 30000000 		.4byte	.LFE40-.LFB40
 9237 0058 00000000 		.4byte	.LFB42
 9238 005c 18000000 		.4byte	.LFE42-.LFB42
 9239 0060 00000000 		.4byte	.LFB43
 9240 0064 2A000000 		.4byte	.LFE43-.LFB43
 9241 0068 00000000 		.4byte	.LFB44
 9242 006c 40000000 		.4byte	.LFE44-.LFB44
 9243 0070 00000000 		.4byte	.LFB34
 9244 0074 30000000 		.4byte	.LFE34-.LFB34
 9245 0078 00000000 		.4byte	.LFB45
 9246 007c 0C000000 		.4byte	.LFE45-.LFB45
 9247 0080 00000000 		.4byte	.LFB46
 9248 0084 0C000000 		.4byte	.LFE46-.LFB46
 9249 0088 00000000 		.4byte	.LFB47
 9250 008c 0C000000 		.4byte	.LFE47-.LFB47
 9251 0090 00000000 		.4byte	.LFB48
 9252 0094 0C000000 		.4byte	.LFE48-.LFB48
 9253 0098 00000000 		.4byte	.LFB49
 9254 009c 10000000 		.4byte	.LFE49-.LFB49
 9255 00a0 00000000 		.4byte	.LFB50
 9256 00a4 0C000000 		.4byte	.LFE50-.LFB50
 9257 00a8 00000000 		.4byte	.LFB51
 9258 00ac 0C000000 		.4byte	.LFE51-.LFB51
 9259 00b0 00000000 		.4byte	.LFB52
 9260 00b4 0C000000 		.4byte	.LFE52-.LFB52
 9261 00b8 00000000 		.4byte	.LFB53
 9262 00bc 4C000000 		.4byte	.LFE53-.LFB53
 9263 00c0 00000000 		.4byte	.LFB55
ARM GAS  C:\Users\User\AppData\Local\Temp\ccQ45nMh.s 			page 177


 9264 00c4 5C000000 		.4byte	.LFE55-.LFB55
 9265 00c8 00000000 		.4byte	.LFB57
 9266 00cc E8000000 		.4byte	.LFE57-.LFB57
 9267 00d0 00000000 		.4byte	.LFB58
 9268 00d4 56000000 		.4byte	.LFE58-.LFB58
 9269 00d8 00000000 		.4byte	.LFB59
 9270 00dc 70000000 		.4byte	.LFE59-.LFB59
 9271 00e0 00000000 		.4byte	.LFB60
 9272 00e4 50010000 		.4byte	.LFE60-.LFB60
 9273 00e8 00000000 		.4byte	.LFB61
 9274 00ec 46000000 		.4byte	.LFE61-.LFB61
 9275 00f0 00000000 		.4byte	.LFB62
 9276 00f4 0C010000 		.4byte	.LFE62-.LFB62
 9277 00f8 00000000 		.4byte	.LFB63
 9278 00fc 80000000 		.4byte	.LFE63-.LFB63
 9279 0100 00000000 		.4byte	.LFB64
 9280 0104 1C000000 		.4byte	.LFE64-.LFB64
 9281 0108 00000000 		.4byte	.LFB65
 9282 010c 0E000000 		.4byte	.LFE65-.LFB65
 9283 0110 00000000 		.4byte	0
 9284 0114 00000000 		.4byte	0
 9285              		.section	.debug_ranges,"",%progbits
 9286              	.Ldebug_ranges0:
 9287 0000 00000000 		.4byte	.LFB36
 9288 0004 8C000000 		.4byte	.LFE36
 9289 0008 00000000 		.4byte	.LFB41
 9290 000c 40010000 		.4byte	.LFE41
 9291 0010 00000000 		.4byte	.LFB54
 9292 0014 5C000000 		.4byte	.LFE54
 9293 0018 00000000 		.4byte	.LFB56
 9294 001c 68010000 		.4byte	.LFE56
 9295 0020 00000000 		.4byte	.LFB35
 9296 0024 44000000 		.4byte	.LFE35
 9297 0028 00000000 		.4byte	.LFB37
 9298 002c 1C000000 		.4byte	.LFE37
 9299 0030 00000000 		.4byte	.LFB38
 9300 0034 1C000000 		.4byte	.LFE38
 9301 0038 00000000 		.4byte	.LFB39
 9302 003c 22000000 		.4byte	.LFE39
 9303 0040 00000000 		.4byte	.LFB40
 9304 0044 30000000 		.4byte	.LFE40
 9305 0048 00000000 		.4byte	.LFB42
 9306 004c 18000000 		.4byte	.LFE42
 9307 0050 00000000 		.4byte	.LFB43
 9308 0054 2A000000 		.4byte	.LFE43
 9309 0058 00000000 		.4byte	.LFB44
 9310 005c 40000000 		.4byte	.LFE44
 9311 0060 00000000 		.4byte	.LFB34
 9312 0064 30000000 		.4byte	.LFE34
 9313 0068 00000000 		.4byte	.LFB45
 9314 006c 0C000000 		.4byte	.LFE45
 9315 0070 00000000 		.4byte	.LFB46
 9316 0074 0C000000 		.4byte	.LFE46
 9317 0078 00000000 		.4byte	.LFB47
 9318 007c 0C000000 		.4byte	.LFE47
 9319 0080 00000000 		.4byte	.LFB48
 9320 0084 0C000000 		.4byte	.LFE48
ARM GAS  C:\Users\User\AppData\Local\Temp\ccQ45nMh.s 			page 178


 9321 0088 00000000 		.4byte	.LFB49
 9322 008c 10000000 		.4byte	.LFE49
 9323 0090 00000000 		.4byte	.LFB50
 9324 0094 0C000000 		.4byte	.LFE50
 9325 0098 00000000 		.4byte	.LFB51
 9326 009c 0C000000 		.4byte	.LFE51
 9327 00a0 00000000 		.4byte	.LFB52
 9328 00a4 0C000000 		.4byte	.LFE52
 9329 00a8 00000000 		.4byte	.LFB53
 9330 00ac 4C000000 		.4byte	.LFE53
 9331 00b0 00000000 		.4byte	.LFB55
 9332 00b4 5C000000 		.4byte	.LFE55
 9333 00b8 00000000 		.4byte	.LFB57
 9334 00bc E8000000 		.4byte	.LFE57
 9335 00c0 00000000 		.4byte	.LFB58
 9336 00c4 56000000 		.4byte	.LFE58
 9337 00c8 00000000 		.4byte	.LFB59
 9338 00cc 70000000 		.4byte	.LFE59
 9339 00d0 00000000 		.4byte	.LFB60
 9340 00d4 50010000 		.4byte	.LFE60
 9341 00d8 00000000 		.4byte	.LFB61
 9342 00dc 46000000 		.4byte	.LFE61
 9343 00e0 00000000 		.4byte	.LFB62
 9344 00e4 0C010000 		.4byte	.LFE62
 9345 00e8 00000000 		.4byte	.LFB63
 9346 00ec 80000000 		.4byte	.LFE63
 9347 00f0 00000000 		.4byte	.LFB64
 9348 00f4 1C000000 		.4byte	.LFE64
 9349 00f8 00000000 		.4byte	.LFB65
 9350 00fc 0E000000 		.4byte	.LFE65
 9351 0100 00000000 		.4byte	0
 9352 0104 00000000 		.4byte	0
 9353              		.section	.debug_line,"",%progbits
 9354              	.Ldebug_line0:
 9355 0000 E6050000 		.section	.debug_str,"MS",%progbits,1
 9355      0200BC01 
 9355      00000201 
 9355      FB0E0D00 
 9355      01010101 
 9356              	.LASF84:
 9357 0000 6766785F 		.ascii	"gfx_drawPixel\000"
 9357      64726177 
 9357      50697865 
 9357      6C00
 9358              	.LASF120:
 9359 000e 7374726C 		.ascii	"strlen\000"
 9359      656E00
 9360              	.LASF70:
 9361 0015 6766785F 		.ascii	"gfx_init\000"
 9361      696E6974 
 9361      00
 9362              	.LASF77:
 9363 001e 6766785F 		.ascii	"gfx_rotation\000"
 9363      726F7461 
 9363      74696F6E 
 9363      00
 9364              	.LASF12:
ARM GAS  C:\Users\User\AppData\Local\Temp\ccQ45nMh.s 			page 179


 9365 002b 756E7369 		.ascii	"unsigned int\000"
 9365      676E6564 
 9365      20696E74 
 9365      00
 9366              	.LASF81:
 9367 0038 6766785F 		.ascii	"gfx_setTextBg\000"
 9367      73657454 
 9367      65787442 
 9367      6700
 9368              	.LASF74:
 9369 0046 69326361 		.ascii	"i2caddr\000"
 9369      64647200 
 9370              	.LASF83:
 9371 004e 6766785F 		.ascii	"gfx_setRotation\000"
 9371      73657452 
 9371      6F746174 
 9371      696F6E00 
 9372              	.LASF48:
 9373 005e 64697370 		.ascii	"display_line\000"
 9373      6C61795F 
 9373      6C696E65 
 9373      00
 9374              	.LASF56:
 9375 006b 6766785F 		.ascii	"gfx_hvLine\000"
 9375      68764C69 
 9375      6E6500
 9376              	.LASF27:
 9377 0076 5343524F 		.ascii	"SCROLL_DIR\000"
 9377      4C4C5F44 
 9377      495200
 9378              	.LASF113:
 9379 0081 726F7461 		.ascii	"rotation\000"
 9379      74696F6E 
 9379      00
 9380              	.LASF69:
 9381 008a 73706565 		.ascii	"speed\000"
 9381      6400
 9382              	.LASF73:
 9383 0090 64697370 		.ascii	"display_init\000"
 9383      6C61795F 
 9383      696E6974 
 9383      00
 9384              	.LASF28:
 9385 009d 5343524F 		.ascii	"SCROLL_SPEED_0\000"
 9385      4C4C5F53 
 9385      50454544 
 9385      5F3000
 9386              	.LASF29:
 9387 00ac 5343524F 		.ascii	"SCROLL_SPEED_1\000"
 9387      4C4C5F53 
 9387      50454544 
 9387      5F3100
 9388              	.LASF30:
 9389 00bb 5343524F 		.ascii	"SCROLL_SPEED_2\000"
 9389      4C4C5F53 
 9389      50454544 
 9389      5F3200
ARM GAS  C:\Users\User\AppData\Local\Temp\ccQ45nMh.s 			page 180


 9390              	.LASF31:
 9391 00ca 5343524F 		.ascii	"SCROLL_SPEED_3\000"
 9391      4C4C5F53 
 9391      50454544 
 9391      5F3300
 9392              	.LASF32:
 9393 00d9 5343524F 		.ascii	"SCROLL_SPEED_4\000"
 9393      4C4C5F53 
 9393      50454544 
 9393      5F3400
 9394              	.LASF33:
 9395 00e8 5343524F 		.ascii	"SCROLL_SPEED_5\000"
 9395      4C4C5F53 
 9395      50454544 
 9395      5F3500
 9396              	.LASF34:
 9397 00f7 5343524F 		.ascii	"SCROLL_SPEED_6\000"
 9397      4C4C5F53 
 9397      50454544 
 9397      5F3600
 9398              	.LASF35:
 9399 0106 5343524F 		.ascii	"SCROLL_SPEED_7\000"
 9399      4C4C5F53 
 9399      50454544 
 9399      5F3700
 9400              	.LASF112:
 9401 0115 48454947 		.ascii	"HEIGHT\000"
 9401      485400
 9402              	.LASF13:
 9403 011c 696E7438 		.ascii	"int8_t\000"
 9403      5F7400
 9404              	.LASF57:
 9405 0123 73697A65 		.ascii	"size\000"
 9405      00
 9406              	.LASF20:
 9407 0128 666C6F61 		.ascii	"float\000"
 9407      7400
 9408              	.LASF49:
 9409 012e 70737461 		.ascii	"pstart\000"
 9409      727400
 9410              	.LASF106:
 9411 0135 63757273 		.ascii	"cursor_x\000"
 9411      6F725F78 
 9411      00
 9412              	.LASF107:
 9413 013e 63757273 		.ascii	"cursor_y\000"
 9413      6F725F79 
 9413      00
 9414              	.LASF93:
 9415 0147 6766785F 		.ascii	"gfx_drawTriangle\000"
 9415      64726177 
 9415      54726961 
 9415      6E676C65 
 9415      00
 9416              	.LASF110:
 9417 0158 74657874 		.ascii	"textsize\000"
 9417      73697A65 
ARM GAS  C:\Users\User\AppData\Local\Temp\ccQ45nMh.s 			page 181


 9417      00
 9418              	.LASF15:
 9419 0161 696E7431 		.ascii	"int16_t\000"
 9419      365F7400 
 9420              	.LASF11:
 9421 0169 6C6F6E67 		.ascii	"long long unsigned int\000"
 9421      206C6F6E 
 9421      6720756E 
 9421      7369676E 
 9421      65642069 
 9422              	.LASF6:
 9423 0180 5F5F7569 		.ascii	"__uint16_t\000"
 9423      6E743136 
 9423      5F7400
 9424              	.LASF123:
 9425 018b 433A5C55 		.ascii	"C:\\Users\\User\\Documents\\PSoC Creator\\FFT\\FFT."
 9425      73657273 
 9425      5C557365 
 9425      725C446F 
 9425      63756D65 
 9426 01b8 63796473 		.ascii	"cydsn\000"
 9426      6E00
 9427              	.LASF55:
 9428 01be 6766785F 		.ascii	"gfx_rotation_adjust\000"
 9428      726F7461 
 9428      74696F6E 
 9428      5F61646A 
 9428      75737400 
 9429              	.LASF111:
 9430 01d2 57494454 		.ascii	"WIDTH\000"
 9430      4800
 9431              	.LASF90:
 9432 01d8 6766785F 		.ascii	"gfx_drawCircle\000"
 9432      64726177 
 9432      43697263 
 9432      6C6500
 9433              	.LASF23:
 9434 01e7 73697A65 		.ascii	"size_t\000"
 9434      5F7400
 9435              	.LASF71:
 9436 01ee 77696474 		.ascii	"width\000"
 9436      6800
 9437              	.LASF122:
 9438 01f4 2E5C7373 		.ascii	".\\ssd1306.c\000"
 9438      64313330 
 9438      362E6300 
 9439              	.LASF47:
 9440 0200 64697370 		.ascii	"display_setPixel\000"
 9440      6C61795F 
 9440      73657450 
 9440      6978656C 
 9440      00
 9441              	.LASF37:
 9442 0211 5343524F 		.ascii	"SCROLL_PAGE_0\000"
 9442      4C4C5F50 
 9442      4147455F 
 9442      3000
ARM GAS  C:\Users\User\AppData\Local\Temp\ccQ45nMh.s 			page 182


 9443              	.LASF38:
 9444 021f 5343524F 		.ascii	"SCROLL_PAGE_1\000"
 9444      4C4C5F50 
 9444      4147455F 
 9444      3100
 9445              	.LASF39:
 9446 022d 5343524F 		.ascii	"SCROLL_PAGE_2\000"
 9446      4C4C5F50 
 9446      4147455F 
 9446      3200
 9447              	.LASF40:
 9448 023b 5343524F 		.ascii	"SCROLL_PAGE_3\000"
 9448      4C4C5F50 
 9448      4147455F 
 9448      3300
 9449              	.LASF41:
 9450 0249 5343524F 		.ascii	"SCROLL_PAGE_4\000"
 9450      4C4C5F50 
 9450      4147455F 
 9450      3400
 9451              	.LASF42:
 9452 0257 5343524F 		.ascii	"SCROLL_PAGE_5\000"
 9452      4C4C5F50 
 9452      4147455F 
 9452      3500
 9453              	.LASF43:
 9454 0265 5343524F 		.ascii	"SCROLL_PAGE_6\000"
 9454      4C4C5F50 
 9454      4147455F 
 9454      3600
 9455              	.LASF44:
 9456 0273 5343524F 		.ascii	"SCROLL_PAGE_7\000"
 9456      4C4C5F50 
 9456      4147455F 
 9456      3700
 9457              	.LASF125:
 9458 0281 4932434F 		.ascii	"I2COLED_I2CMasterWriteBuf\000"
 9458      4C45445F 
 9458      4932434D 
 9458      61737465 
 9458      72577269 
 9459              	.LASF101:
 9460 029b 53534431 		.ascii	"SSD1306_buffer\000"
 9460      3330365F 
 9460      62756666 
 9460      657200
 9461              	.LASF115:
 9462 02aa 4932434F 		.ascii	"I2COLED_I2CMasterStatus\000"
 9462      4C45445F 
 9462      4932434D 
 9462      61737465 
 9462      72537461 
 9463              	.LASF85:
 9464 02c2 6766785F 		.ascii	"gfx_drawLine\000"
 9464      64726177 
 9464      4C696E65 
 9464      00
ARM GAS  C:\Users\User\AppData\Local\Temp\ccQ45nMh.s 			page 183


 9465              	.LASF65:
 9466 02cf 64697370 		.ascii	"display_update\000"
 9466      6C61795F 
 9466      75706461 
 9466      746500
 9467              	.LASF22:
 9468 02de 63686172 		.ascii	"char\000"
 9468      00
 9469              	.LASF18:
 9470 02e3 75696E74 		.ascii	"uint16\000"
 9470      313600
 9471              	.LASF64:
 9472 02ea 696E7665 		.ascii	"invert\000"
 9472      727400
 9473              	.LASF14:
 9474 02f1 75696E74 		.ascii	"uint8_t\000"
 9474      385F7400 
 9475              	.LASF58:
 9476 02f9 73746174 		.ascii	"status\000"
 9476      757300
 9477              	.LASF88:
 9478 0300 6766785F 		.ascii	"gfx_drawRect\000"
 9478      64726177 
 9478      52656374 
 9478      00
 9479              	.LASF104:
 9480 030d 5F776964 		.ascii	"_width\000"
 9480      746800
 9481              	.LASF86:
 9482 0314 73746565 		.ascii	"steep\000"
 9482      7000
 9483              	.LASF10:
 9484 031a 6C6F6E67 		.ascii	"long long int\000"
 9484      206C6F6E 
 9484      6720696E 
 9484      7400
 9485              	.LASF61:
 9486 0328 636F6E74 		.ascii	"contrast\000"
 9486      72617374 
 9486      00
 9487              	.LASF36:
 9488 0331 5343524F 		.ascii	"SCROLL_SPEED\000"
 9488      4C4C5F53 
 9488      50454544 
 9488      00
 9489              	.LASF45:
 9490 033e 5343524F 		.ascii	"SCROLL_AREA\000"
 9490      4C4C5F41 
 9490      52454100 
 9491              	.LASF75:
 9492 034a 6766785F 		.ascii	"gfx_width\000"
 9492      77696474 
 9492      6800
 9493              	.LASF4:
 9494 0354 5F5F696E 		.ascii	"__int16_t\000"
 9494      7431365F 
 9494      7400
ARM GAS  C:\Users\User\AppData\Local\Temp\ccQ45nMh.s 			page 184


 9495              	.LASF105:
 9496 035e 5F686569 		.ascii	"_height\000"
 9496      67687400 
 9497              	.LASF118:
 9498 0366 6D656D73 		.ascii	"memset\000"
 9498      657400
 9499              	.LASF50:
 9500 036d 70656E64 		.ascii	"pend\000"
 9500      00
 9501              	.LASF103:
 9502 0372 5F646973 		.ascii	"_displaybuf_size\000"
 9502      706C6179 
 9502      6275665F 
 9502      73697A65 
 9502      00
 9503              	.LASF19:
 9504 0383 75696E74 		.ascii	"uint32\000"
 9504      333200
 9505              	.LASF124:
 9506 038a 64697370 		.ascii	"display_write_buf\000"
 9506      6C61795F 
 9506      77726974 
 9506      655F6275 
 9506      6600
 9507              	.LASF51:
 9508 039c 6D61736B 		.ascii	"mask\000"
 9508      00
 9509              	.LASF100:
 9510 03a1 5F693263 		.ascii	"_i2caddr\000"
 9510      61646472 
 9510      00
 9511              	.LASF72:
 9512 03aa 68656967 		.ascii	"height\000"
 9512      687400
 9513              	.LASF80:
 9514 03b1 6766785F 		.ascii	"gfx_setTextColor\000"
 9514      73657454 
 9514      65787443 
 9514      6F6C6F72 
 9514      00
 9515              	.LASF0:
 9516 03c2 5F5F696E 		.ascii	"__int8_t\000"
 9516      74385F74 
 9516      00
 9517              	.LASF76:
 9518 03cb 6766785F 		.ascii	"gfx_height\000"
 9518      68656967 
 9518      687400
 9519              	.LASF16:
 9520 03d6 75696E74 		.ascii	"uint16_t\000"
 9520      31365F74 
 9520      00
 9521              	.LASF89:
 9522 03df 6766785F 		.ascii	"gfx_fillRect\000"
 9522      66696C6C 
 9522      52656374 
 9522      00
ARM GAS  C:\Users\User\AppData\Local\Temp\ccQ45nMh.s 			page 185


 9523              	.LASF5:
 9524 03ec 73686F72 		.ascii	"short int\000"
 9524      7420696E 
 9524      7400
 9525              	.LASF54:
 9526 03f6 7069786D 		.ascii	"pixmask\000"
 9526      61736B00 
 9527              	.LASF8:
 9528 03fe 6C6F6E67 		.ascii	"long int\000"
 9528      20696E74 
 9528      00
 9529              	.LASF98:
 9530 0407 6766785F 		.ascii	"gfx_println\000"
 9530      7072696E 
 9530      746C6E00 
 9531              	.LASF96:
 9532 0413 6766785F 		.ascii	"gfx_write\000"
 9532      77726974 
 9532      6500
 9533              	.LASF63:
 9534 041d 64697370 		.ascii	"display_invert\000"
 9534      6C61795F 
 9534      696E7665 
 9534      727400
 9535              	.LASF46:
 9536 042c 636F6C6F 		.ascii	"color\000"
 9536      7200
 9537              	.LASF121:
 9538 0432 474E5520 		.ascii	"GNU C 4.9.3 20150303 (release) [ARM/embedded-4_9-br"
 9538      4320342E 
 9538      392E3320 
 9538      32303135 
 9538      30333033 
 9539 0465 616E6368 		.ascii	"anch revision 221220] -mcpu=cortex-m0 -mthumb -g -O"
 9539      20726576 
 9539      6973696F 
 9539      6E203232 
 9539      31323230 
 9540 0498 67202D66 		.ascii	"g -ffunction-sections -ffat-lto-objects\000"
 9540      66756E63 
 9540      74696F6E 
 9540      2D736563 
 9540      74696F6E 
 9541              	.LASF79:
 9542 04c0 6766785F 		.ascii	"gfx_setTextSize\000"
 9542      73657454 
 9542      65787453 
 9542      697A6500 
 9543              	.LASF1:
 9544 04d0 5F5F7569 		.ascii	"__uint8_t\000"
 9544      6E74385F 
 9544      7400
 9545              	.LASF52:
 9546 04da 6C626974 		.ascii	"lbit\000"
 9546      00
 9547              	.LASF68:
 9548 04df 73746172 		.ascii	"start\000"
ARM GAS  C:\Users\User\AppData\Local\Temp\ccQ45nMh.s 			page 186


 9548      7400
 9549              	.LASF97:
 9550 04e5 6766785F 		.ascii	"gfx_print\000"
 9550      7072696E 
 9550      7400
 9551              	.LASF87:
 9552 04ef 79737465 		.ascii	"ystep\000"
 9552      7000
 9553              	.LASF99:
 9554 04f5 666F6E74 		.ascii	"font\000"
 9554      00
 9555              	.LASF24:
 9556 04fa 73697A65 		.ascii	"sizetype\000"
 9556      74797065 
 9556      00
 9557              	.LASF62:
 9558 0503 636D6462 		.ascii	"cmdbuf\000"
 9558      756600
 9559              	.LASF9:
 9560 050a 6C6F6E67 		.ascii	"long unsigned int\000"
 9560      20756E73 
 9560      69676E65 
 9560      6420696E 
 9560      7400
 9561              	.LASF26:
 9562 051c 5343524F 		.ascii	"SCROLL_LEFT\000"
 9562      4C4C5F4C 
 9562      45465400 
 9563              	.LASF59:
 9564 0528 64697370 		.ascii	"display_clear\000"
 9564      6C61795F 
 9564      636C6561 
 9564      7200
 9565              	.LASF114:
 9566 0536 77726170 		.ascii	"wrap\000"
 9566      00
 9567              	.LASF25:
 9568 053b 5343524F 		.ascii	"SCROLL_RIGHT\000"
 9568      4C4C5F52 
 9568      49474854 
 9568      00
 9569              	.LASF3:
 9570 0548 756E7369 		.ascii	"unsigned char\000"
 9570      676E6564 
 9570      20636861 
 9570      7200
 9571              	.LASF53:
 9572 0556 75626974 		.ascii	"ubit\000"
 9572      00
 9573              	.LASF95:
 9574 055b 6C696E65 		.ascii	"line\000"
 9574      00
 9575              	.LASF94:
 9576 0560 6766785F 		.ascii	"gfx_drawChar\000"
 9576      64726177 
 9576      43686172 
 9576      00
ARM GAS  C:\Users\User\AppData\Local\Temp\ccQ45nMh.s 			page 187


 9577              	.LASF67:
 9578 056d 64697370 		.ascii	"display_scroll\000"
 9578      6C61795F 
 9578      7363726F 
 9578      6C6C00
 9579              	.LASF102:
 9580 057c 5F646973 		.ascii	"_displaybuf\000"
 9580      706C6179 
 9580      62756600 
 9581              	.LASF60:
 9582 0588 64697370 		.ascii	"display_contrast\000"
 9582      6C61795F 
 9582      636F6E74 
 9582      72617374 
 9582      00
 9583              	.LASF91:
 9584 0599 6464465F 		.ascii	"ddF_x\000"
 9584      7800
 9585              	.LASF92:
 9586 059f 6464465F 		.ascii	"ddF_y\000"
 9586      7900
 9587              	.LASF2:
 9588 05a5 7369676E 		.ascii	"signed char\000"
 9588      65642063 
 9588      68617200 
 9589              	.LASF7:
 9590 05b1 73686F72 		.ascii	"short unsigned int\000"
 9590      7420756E 
 9590      7369676E 
 9590      65642069 
 9590      6E7400
 9591              	.LASF119:
 9592 05c4 6D656D63 		.ascii	"memcpy\000"
 9592      707900
 9593              	.LASF66:
 9594 05cb 64697370 		.ascii	"display_stopscroll\000"
 9594      6C61795F 
 9594      73746F70 
 9594      7363726F 
 9594      6C6C00
 9595              	.LASF17:
 9596 05de 75696E74 		.ascii	"uint8\000"
 9596      3800
 9597              	.LASF21:
 9598 05e4 646F7562 		.ascii	"double\000"
 9598      6C6500
 9599              	.LASF117:
 9600 05eb 4932434F 		.ascii	"I2COLED_I2CMasterClearStatus\000"
 9600      4C45445F 
 9600      4932434D 
 9600      61737465 
 9600      72436C65 
 9601              	.LASF108:
 9602 0608 74657874 		.ascii	"textcolor\000"
 9602      636F6C6F 
 9602      7200
 9603              	.LASF109:
ARM GAS  C:\Users\User\AppData\Local\Temp\ccQ45nMh.s 			page 188


 9604 0612 74657874 		.ascii	"textbgcolor\000"
 9604      6267636F 
 9604      6C6F7200 
 9605              	.LASF78:
 9606 061e 6766785F 		.ascii	"gfx_setCursor\000"
 9606      73657443 
 9606      7572736F 
 9606      7200
 9607              	.LASF82:
 9608 062c 6766785F 		.ascii	"gfx_setTextWrap\000"
 9608      73657454 
 9608      65787457 
 9608      72617000 
 9609              	.LASF116:
 9610 063c 4932434F 		.ascii	"I2COLED_I2CMasterGetWriteBufSize\000"
 9610      4C45445F 
 9610      4932434D 
 9610      61737465 
 9610      72476574 
 9611              		.ident	"GCC: (GNU Tools for ARM Embedded Processors) 4.9.3 20150303 (release) [ARM/embedded-4_9-br
