ARM GAS  C:\Users\User\AppData\Local\Temp\ccQ45nMh.s 			page 1


   1              		.cpu cortex-m0
   2              		.fpu softvfp
   3              		.eabi_attribute 20, 1
   4              		.eabi_attribute 21, 1
   5              		.eabi_attribute 23, 3
   6              		.eabi_attribute 24, 1
   7              		.eabi_attribute 25, 1
   8              		.eabi_attribute 26, 1
   9              		.eabi_attribute 30, 1
  10              		.eabi_attribute 34, 0
  11              		.eabi_attribute 18, 4
  12              		.code	16
  13              		.file	"ssd1306.c"
  14              		.text
  15              	.Ltext0:
  16              		.cfi_sections	.debug_frame
  17              		.section	.text.display_setPixel,"ax",%progbits
  18              		.align	2
  19              		.code	16
  20              		.thumb_func
  21              		.type	display_setPixel, %function
  22              	display_setPixel:
  23              	.LFB36:
  24              		.file 1 ".\\ssd1306.c"
   1:.\ssd1306.c   **** /*
   2:.\ssd1306.c   **** 
   3:.\ssd1306.c   **** SSD1306 OLED - I2C driver
   4:.\ssd1306.c   **** 
   5:.\ssd1306.c   **** Derk Steggewentz, 3/2015 
   6:.\ssd1306.c   **** 
   7:.\ssd1306.c   **** This is a I2C driver for SSD1306 OLED displays including graphics library.
   8:.\ssd1306.c   **** 
   9:.\ssd1306.c   **** 
  10:.\ssd1306.c   **** The graphics library part (gfx_ functions) is based on the Adafruit graphics library.
  11:.\ssd1306.c   **** 
  12:.\ssd1306.c   **** 
  13:.\ssd1306.c   **** No license restrictions on my part, do whatever you want as long as you follow the inherited
  14:.\ssd1306.c   **** license requirements (applying to the Adafruit graphics library part).
  15:.\ssd1306.c   **** 
  16:.\ssd1306.c   **** 
  17:.\ssd1306.c   **** ===== derived license (for graphics library) ======
  18:.\ssd1306.c   **** 
  19:.\ssd1306.c   **** Copyright (c) 2013 Adafruit Industries. All rights reserved.
  20:.\ssd1306.c   **** 
  21:.\ssd1306.c   **** Redistribution and use in source and binary forms, with or without
  22:.\ssd1306.c   **** modification, are permitted provided that the following conditions are met:
  23:.\ssd1306.c   **** - Redistributions of source code must retain the above copyright notice,
  24:.\ssd1306.c   **** this list of conditions and the following disclaimer.
  25:.\ssd1306.c   **** - Redistributions in binary form must reproduce the above copyright notice,
  26:.\ssd1306.c   **** this list of conditions and the following disclaimer in the documentation
  27:.\ssd1306.c   **** and/or other materials provided with the distribution.
  28:.\ssd1306.c   **** THIS SOFTWARE IS PROVIDED BY THE COPYRIGHT HOLDERS AND CONTRIBUTORS "AS IS"
  29:.\ssd1306.c   **** AND ANY EXPRESS OR IMPLIED WARRANTIES, INCLUDING, BUT NOT LIMITED TO, THE
  30:.\ssd1306.c   **** IMPLIED WARRANTIES OF MERCHANTABILITY AND FITNESS FOR A PARTICULAR PURPOSE
  31:.\ssd1306.c   **** ARE DISCLAIMED. IN NO EVENT SHALL THE COPYRIGHT HOLDER OR CONTRIBUTORS BE
  32:.\ssd1306.c   **** LIABLE FOR ANY DIRECT, INDIRECT, INCIDENTAL, SPECIAL, EXEMPLARY, OR
  33:.\ssd1306.c   **** CONSEQUENTIAL DAMAGES (INCLUDING, BUT NOT LIMITED TO, PROCUREMENT OF
ARM GAS  C:\Users\User\AppData\Local\Temp\ccQ45nMh.s 			page 2


  34:.\ssd1306.c   **** SUBSTITUTE GOODS OR SERVICES; LOSS OF USE, DATA, OR PROFITS; OR BUSINESS
  35:.\ssd1306.c   **** INTERRUPTION) HOWEVER CAUSED AND ON ANY THEORY OF LIABILITY, WHETHER IN
  36:.\ssd1306.c   **** CONTRACT, STRICT LIABILITY, OR TORT (INCLUDING NEGLIGENCE OR OTHERWISE)
  37:.\ssd1306.c   **** ARISING IN ANY WAY OUT OF THE USE OF THIS SOFTWARE, EVEN IF ADVISED OF THE
  38:.\ssd1306.c   **** POSSIBILITY OF SUCH DAMAGE.
  39:.\ssd1306.c   **** 
  40:.\ssd1306.c   **** */
  41:.\ssd1306.c   **** 
  42:.\ssd1306.c   **** 
  43:.\ssd1306.c   **** #include <project.h>
  44:.\ssd1306.c   **** #include <stdlib.h>
  45:.\ssd1306.c   **** 
  46:.\ssd1306.c   **** #include "font.h"
  47:.\ssd1306.c   **** #include "ssd1306.h"
  48:.\ssd1306.c   **** 
  49:.\ssd1306.c   **** 
  50:.\ssd1306.c   **** #define DISPLAYWIDTH 128
  51:.\ssd1306.c   **** #define DISPLAYHEIGHT 64
  52:.\ssd1306.c   ****     
  53:.\ssd1306.c   **** #define SSD1306_SETCONTRAST 0x81
  54:.\ssd1306.c   **** #define SSD1306_DISPLAYALLON_RESUME 0xA4
  55:.\ssd1306.c   **** #define SSD1306_DISPLAYALLON 0xA5
  56:.\ssd1306.c   **** #define SSD1306_NORMALDISPLAY 0xA6
  57:.\ssd1306.c   **** #define SSD1306_INVERTDISPLAY 0xA7
  58:.\ssd1306.c   **** #define SSD1306_DISPLAYOFF 0xAE
  59:.\ssd1306.c   **** #define SSD1306_DISPLAYON 0xAF
  60:.\ssd1306.c   **** #define SSD1306_SETDISPLAYOFFSET 0xD3
  61:.\ssd1306.c   **** #define SSD1306_SETCOMPINS 0xDA
  62:.\ssd1306.c   **** #define SSD1306_SETVCOMDETECT 0xDB
  63:.\ssd1306.c   **** #define SSD1306_SETDISPLAYCLOCKDIV 0xD5
  64:.\ssd1306.c   **** #define SSD1306_SETPRECHARGE 0xD9
  65:.\ssd1306.c   **** #define SSD1306_SETMULTIPLEX 0xA8
  66:.\ssd1306.c   **** #define SSD1306_SETLOWCOLUMN 0x00
  67:.\ssd1306.c   **** #define SSD1306_SETHIGHCOLUMN 0x10
  68:.\ssd1306.c   **** #define SSD1306_SETSTARTLINE 0x40
  69:.\ssd1306.c   **** #define SSD1306_MEMORYMODE 0x20
  70:.\ssd1306.c   **** #define SSD1306_COLUMNADDR 0x21
  71:.\ssd1306.c   **** #define SSD1306_PAGEADDR 0x22
  72:.\ssd1306.c   **** #define SSD1306_COMSCANINC 0xC0
  73:.\ssd1306.c   **** #define SSD1306_COMSCANDEC 0xC8
  74:.\ssd1306.c   **** #define SSD1306_SEGREMAP 0xA0
  75:.\ssd1306.c   **** #define SSD1306_CHARGEPUMP 0x8D
  76:.\ssd1306.c   **** #define SSD1306_EXTERNALVCC 0x1
  77:.\ssd1306.c   **** #define SSD1306_SWITCHCAPVCC 0x2
  78:.\ssd1306.c   **** #define SSD1306_ACTIVATE_SCROLL 0x2F
  79:.\ssd1306.c   **** #define SSD1306_DEACTIVATE_SCROLL 0x2E
  80:.\ssd1306.c   **** 
  81:.\ssd1306.c   **** 
  82:.\ssd1306.c   **** // I2C result status
  83:.\ssd1306.c   **** #define TRANSFER_CMPLT    (0x00u)
  84:.\ssd1306.c   **** #define TRANSFER_ERROR    (0xFFu)
  85:.\ssd1306.c   **** 
  86:.\ssd1306.c   **** 
  87:.\ssd1306.c   **** static uint32 display_write_buf( uint8* buf, uint16_t size );
  88:.\ssd1306.c   **** 
  89:.\ssd1306.c   **** void gfx_init( int16_t width, int16_t height );
  90:.\ssd1306.c   **** 
ARM GAS  C:\Users\User\AppData\Local\Temp\ccQ45nMh.s 			page 3


  91:.\ssd1306.c   **** static uint8 _i2caddr;
  92:.\ssd1306.c   **** 
  93:.\ssd1306.c   **** // display memory buffer ( === MUST INCLUDE === the preceding I2C 0x40 control byte for the display
  94:.\ssd1306.c   **** static uint8_t SSD1306_buffer[DISPLAYHEIGHT * DISPLAYWIDTH / 8 + 1] = { 0x40 };
  95:.\ssd1306.c   **** // pointer to actual display memory buffer
  96:.\ssd1306.c   **** static uint8_t* _displaybuf = SSD1306_buffer+1;
  97:.\ssd1306.c   **** static uint16_t _displaybuf_size = sizeof(SSD1306_buffer) - 1;
  98:.\ssd1306.c   **** 
  99:.\ssd1306.c   **** // see data sheet page 25 for Graphic Display Data RAM organization
 100:.\ssd1306.c   **** // 8 pages, each page a row of DISPLAYWIDTH bytes
 101:.\ssd1306.c   **** // start address of of row: y/8*DISPLAYWIDTH
 102:.\ssd1306.c   **** // x pos in row: == x 
 103:.\ssd1306.c   **** #define GDDRAM_ADDRESS(X,Y) ((_displaybuf)+((Y)/8)*(DISPLAYWIDTH)+(X))
 104:.\ssd1306.c   **** 
 105:.\ssd1306.c   **** // lower 3 bit of y determine vertical pixel position (pos 0...7) in GDDRAM byte
 106:.\ssd1306.c   **** // (y&0x07) == position of pixel on row (page). LSB is top, MSB bottom
 107:.\ssd1306.c   **** #define GDDRAM_PIXMASK(Y) (1 << ((Y)&0x07))
 108:.\ssd1306.c   **** 
 109:.\ssd1306.c   **** #define PIXEL_ON(X,Y) (*GDDRAM_ADDRESS(x,y) |= GDDRAM_PIXMASK(y))
 110:.\ssd1306.c   **** #define PIXEL_OFF(X,Y) (*GDDRAM_ADDRESS(x,y) &= ~GDDRAM_PIXMASK(y))
 111:.\ssd1306.c   **** #define PIXEL_TOGGLE(X,Y) (*GDDRAM_ADDRESS(x,y) ^= GDDRAM_PIXMASK(y)) 
 112:.\ssd1306.c   **** 
 113:.\ssd1306.c   **** 
 114:.\ssd1306.c   **** 
 115:.\ssd1306.c   **** // call before first use of other functions
 116:.\ssd1306.c   **** void display_init( uint8 i2caddr ){
 117:.\ssd1306.c   ****     
 118:.\ssd1306.c   ****     _i2caddr = i2caddr;
 119:.\ssd1306.c   ****     gfx_init( DISPLAYWIDTH, DISPLAYHEIGHT );
 120:.\ssd1306.c   ****     
 121:.\ssd1306.c   ****     uint8 cmdbuf[] = {
 122:.\ssd1306.c   ****         0x00,
 123:.\ssd1306.c   ****         SSD1306_DISPLAYOFF,
 124:.\ssd1306.c   ****         SSD1306_SETDISPLAYCLOCKDIV,
 125:.\ssd1306.c   ****         0x80,
 126:.\ssd1306.c   ****         SSD1306_SETMULTIPLEX,
 127:.\ssd1306.c   ****         0x3f,
 128:.\ssd1306.c   ****         SSD1306_SETDISPLAYOFFSET,
 129:.\ssd1306.c   ****         0x00,
 130:.\ssd1306.c   ****         SSD1306_SETSTARTLINE | 0x0,
 131:.\ssd1306.c   ****         SSD1306_CHARGEPUMP,
 132:.\ssd1306.c   ****         0x14,
 133:.\ssd1306.c   ****         SSD1306_MEMORYMODE,
 134:.\ssd1306.c   ****         0x00,
 135:.\ssd1306.c   ****         SSD1306_SEGREMAP | 0x1,
 136:.\ssd1306.c   ****         SSD1306_COMSCANDEC,
 137:.\ssd1306.c   ****         SSD1306_SETCOMPINS,
 138:.\ssd1306.c   ****         0x12,
 139:.\ssd1306.c   ****         SSD1306_SETCONTRAST,
 140:.\ssd1306.c   ****         0xcf,
 141:.\ssd1306.c   ****         SSD1306_SETPRECHARGE,
 142:.\ssd1306.c   ****         0xf1,
 143:.\ssd1306.c   ****         SSD1306_SETVCOMDETECT,
 144:.\ssd1306.c   ****         0x40,
 145:.\ssd1306.c   ****         SSD1306_DISPLAYALLON_RESUME,
 146:.\ssd1306.c   ****         SSD1306_NORMALDISPLAY,
 147:.\ssd1306.c   ****         SSD1306_DISPLAYON
ARM GAS  C:\Users\User\AppData\Local\Temp\ccQ45nMh.s 			page 4


 148:.\ssd1306.c   ****     };
 149:.\ssd1306.c   ****     
 150:.\ssd1306.c   ****     display_write_buf( cmdbuf, sizeof(cmdbuf) ); 
 151:.\ssd1306.c   **** }
 152:.\ssd1306.c   **** 
 153:.\ssd1306.c   **** 
 154:.\ssd1306.c   **** // for submitting command sequences:
 155:.\ssd1306.c   **** //  buf[0] must be 0x00
 156:.\ssd1306.c   **** // for submitting bulk data (writing to display RAM):
 157:.\ssd1306.c   **** //  buf[0] must be 0x40
 158:.\ssd1306.c   **** static uint32 display_write_buf( uint8* buf, uint16_t size ){
 159:.\ssd1306.c   **** 
 160:.\ssd1306.c   ****     uint32 status = TRANSFER_ERROR;
 161:.\ssd1306.c   **** 
 162:.\ssd1306.c   ****     I2COLED_I2CMasterWriteBuf(_i2caddr, buf, size, I2COLED_I2C_MODE_COMPLETE_XFER);
 163:.\ssd1306.c   ****     while( 0u == (I2COLED_I2CMasterStatus() & I2COLED_I2C_MSTAT_WR_CMPLT) );
 164:.\ssd1306.c   **** 
 165:.\ssd1306.c   ****     if( 0u == (I2COLED_I2C_MSTAT_ERR_XFER & I2COLED_I2CMasterStatus()) ){
 166:.\ssd1306.c   ****         // Check if all bytes was written 
 167:.\ssd1306.c   ****         if( I2COLED_I2CMasterGetWriteBufSize() == size ){
 168:.\ssd1306.c   ****             status = TRANSFER_CMPLT;
 169:.\ssd1306.c   ****         }
 170:.\ssd1306.c   ****     }
 171:.\ssd1306.c   ****     I2COLED_I2CMasterClearStatus();
 172:.\ssd1306.c   **** 
 173:.\ssd1306.c   ****     return status;
 174:.\ssd1306.c   **** }
 175:.\ssd1306.c   **** 
 176:.\ssd1306.c   **** 
 177:.\ssd1306.c   **** // used by gfx_ functions. Needs to be implemented by display_
 178:.\ssd1306.c   **** static void display_setPixel( int16_t x, int16_t y, uint16_t color ){
  25              		.loc 1 178 0
  26              		.cfi_startproc
  27              	.LVL0:
 179:.\ssd1306.c   ****     
 180:.\ssd1306.c   ****     if( (x < 0) || (x >= DISPLAYWIDTH) || (y < 0) || (y >= DISPLAYHEIGHT) )
  28              		.loc 1 180 0
  29 0000 83B2     		uxth	r3, r0
  30 0002 7F2B     		cmp	r3, #127
  31 0004 3FD8     		bhi	.L1
  32              		.loc 1 180 0 is_stmt 0 discriminator 1
  33 0006 0029     		cmp	r1, #0
  34 0008 3DDB     		blt	.L1
  35              		.loc 1 180 0 discriminator 2
  36 000a 3F29     		cmp	r1, #63
  37 000c 3BDC     		bgt	.L1
 181:.\ssd1306.c   ****         return;
 182:.\ssd1306.c   **** 
 183:.\ssd1306.c   ****     switch( color ){
  38              		.loc 1 183 0 is_stmt 1
  39 000e 012A     		cmp	r2, #1
  40 0010 04D0     		beq	.L3
  41 0012 002A     		cmp	r2, #0
  42 0014 14D0     		beq	.L4
  43 0016 022A     		cmp	r2, #2
  44 0018 24D0     		beq	.L5
  45 001a 34E0     		b	.L1
ARM GAS  C:\Users\User\AppData\Local\Temp\ccQ45nMh.s 			page 5


  46              	.L3:
 184:.\ssd1306.c   ****         case WHITE: 
 185:.\ssd1306.c   ****             PIXEL_ON(x,y);
  47              		.loc 1 185 0
  48 001c CB17     		asr	r3, r1, #31
  49 001e 5B0F     		lsr	r3, r3, #29
  50 0020 5B18     		add	r3, r3, r1
  51 0022 DB10     		asr	r3, r3, #3
  52 0024 DB01     		lsl	r3, r3, #7
  53 0026 1B18     		add	r3, r3, r0
  54 0028 1748     		ldr	r0, .L6
  55              	.LVL1:
  56 002a 0130     		add	r0, r0, #1
  57 002c C018     		add	r0, r0, r3
  58 002e 0723     		mov	r3, #7
  59 0030 1940     		and	r1, r3
  60              	.LVL2:
  61 0032 063B     		sub	r3, r3, #6
  62 0034 8B40     		lsl	r3, r3, r1
  63 0036 191C     		mov	r1, r3
  64 0038 0378     		ldrb	r3, [r0]
  65 003a 1943     		orr	r1, r3
  66 003c 0170     		strb	r1, [r0]
 186:.\ssd1306.c   ****             break;
  67              		.loc 1 186 0
  68 003e 22E0     		b	.L1
  69              	.LVL3:
  70              	.L4:
 187:.\ssd1306.c   ****         case BLACK:
 188:.\ssd1306.c   ****             PIXEL_OFF(x,y);
  71              		.loc 1 188 0
  72 0040 CB17     		asr	r3, r1, #31
  73 0042 5B0F     		lsr	r3, r3, #29
  74 0044 5B18     		add	r3, r3, r1
  75 0046 DB10     		asr	r3, r3, #3
  76 0048 DB01     		lsl	r3, r3, #7
  77 004a 1B18     		add	r3, r3, r0
  78 004c 0E48     		ldr	r0, .L6
  79              	.LVL4:
  80 004e 0130     		add	r0, r0, #1
  81 0050 C018     		add	r0, r0, r3
  82 0052 0723     		mov	r3, #7
  83 0054 1940     		and	r1, r3
  84              	.LVL5:
  85 0056 063B     		sub	r3, r3, #6
  86 0058 8B40     		lsl	r3, r3, r1
  87 005a 191C     		mov	r1, r3
  88 005c 0378     		ldrb	r3, [r0]
  89 005e 8B43     		bic	r3, r1
  90 0060 0370     		strb	r3, [r0]
 189:.\ssd1306.c   ****             break;
  91              		.loc 1 189 0
  92 0062 10E0     		b	.L1
  93              	.LVL6:
  94              	.L5:
 190:.\ssd1306.c   ****         case INVERSE: 
 191:.\ssd1306.c   ****             PIXEL_TOGGLE(x,y);
ARM GAS  C:\Users\User\AppData\Local\Temp\ccQ45nMh.s 			page 6


  95              		.loc 1 191 0
  96 0064 CB17     		asr	r3, r1, #31
  97 0066 5B0F     		lsr	r3, r3, #29
  98 0068 5B18     		add	r3, r3, r1
  99 006a DB10     		asr	r3, r3, #3
 100 006c DB01     		lsl	r3, r3, #7
 101 006e 1B18     		add	r3, r3, r0
 102 0070 0548     		ldr	r0, .L6
 103              	.LVL7:
 104 0072 0130     		add	r0, r0, #1
 105 0074 C018     		add	r0, r0, r3
 106 0076 0723     		mov	r3, #7
 107 0078 1940     		and	r1, r3
 108              	.LVL8:
 109 007a 063B     		sub	r3, r3, #6
 110 007c 8B40     		lsl	r3, r3, r1
 111 007e 191C     		mov	r1, r3
 112 0080 0378     		ldrb	r3, [r0]
 113 0082 5940     		eor	r1, r3
 114 0084 0170     		strb	r1, [r0]
 115              	.L1:
 192:.\ssd1306.c   ****             break;
 193:.\ssd1306.c   ****     }
 194:.\ssd1306.c   **** }
 116              		.loc 1 194 0
 117              		@ sp needed
 118 0086 7047     		bx	lr
 119              	.L7:
 120              		.align	2
 121              	.L6:
 122 0088 00000000 		.word	.LANCHOR0
 123              		.cfi_endproc
 124              	.LFE36:
 125              		.size	display_setPixel, .-display_setPixel
 126              		.section	.text.display_line,"ax",%progbits
 127              		.align	2
 128              		.code	16
 129              		.thumb_func
 130              		.type	display_line, %function
 131              	display_line:
 132              	.LFB41:
 195:.\ssd1306.c   **** 
 196:.\ssd1306.c   **** 
 197:.\ssd1306.c   **** void display_clear(void){
 198:.\ssd1306.c   ****     memset( _displaybuf, 0, _displaybuf_size );
 199:.\ssd1306.c   ****     SSD1306_buffer[0] = 0x40; // to be sure its there
 200:.\ssd1306.c   **** }
 201:.\ssd1306.c   **** 
 202:.\ssd1306.c   **** 
 203:.\ssd1306.c   **** // contrast: 0 ...255
 204:.\ssd1306.c   **** void display_contrast( uint8_t contrast ){
 205:.\ssd1306.c   ****         
 206:.\ssd1306.c   ****     uint8 cmdbuf[] = {
 207:.\ssd1306.c   ****         0x00,  
 208:.\ssd1306.c   ****         SSD1306_SETCONTRAST,
 209:.\ssd1306.c   ****         contrast
 210:.\ssd1306.c   ****     };
ARM GAS  C:\Users\User\AppData\Local\Temp\ccQ45nMh.s 			page 7


 211:.\ssd1306.c   ****     display_write_buf( cmdbuf, sizeof(cmdbuf) ); 
 212:.\ssd1306.c   **** }
 213:.\ssd1306.c   **** 
 214:.\ssd1306.c   **** 
 215:.\ssd1306.c   **** // invert <> 0 for inverse display, invert == 0 for normal display
 216:.\ssd1306.c   **** void display_invert( uint8_t invert ){
 217:.\ssd1306.c   **** 
 218:.\ssd1306.c   ****     uint8 cmdbuf[] = {
 219:.\ssd1306.c   ****         0x00,  
 220:.\ssd1306.c   ****         0
 221:.\ssd1306.c   ****     };
 222:.\ssd1306.c   ****     cmdbuf[1] = invert ? SSD1306_INVERTDISPLAY : SSD1306_NORMALDISPLAY;
 223:.\ssd1306.c   ****     display_write_buf( cmdbuf, sizeof(cmdbuf) ); 
 224:.\ssd1306.c   **** }
 225:.\ssd1306.c   **** 
 226:.\ssd1306.c   **** 
 227:.\ssd1306.c   **** void display_update(void) {
 228:.\ssd1306.c   ****       
 229:.\ssd1306.c   ****     uint8 cmdbuf[] = {
 230:.\ssd1306.c   ****         0x00,
 231:.\ssd1306.c   ****         SSD1306_COLUMNADDR,
 232:.\ssd1306.c   ****         0,                      // start
 233:.\ssd1306.c   ****         DISPLAYWIDTH-1, // end
 234:.\ssd1306.c   ****         SSD1306_PAGEADDR,
 235:.\ssd1306.c   ****         0,                      // start
 236:.\ssd1306.c   ****         7                       // end
 237:.\ssd1306.c   ****     };
 238:.\ssd1306.c   ****     display_write_buf( cmdbuf, sizeof(cmdbuf) ); 
 239:.\ssd1306.c   ****     display_write_buf( SSD1306_buffer, sizeof(SSD1306_buffer) );
 240:.\ssd1306.c   **** }
 241:.\ssd1306.c   **** 
 242:.\ssd1306.c   **** 
 243:.\ssd1306.c   **** // draws horizontal or vertical line
 244:.\ssd1306.c   **** // Note: no check for valid coords, this needs to be done by caller
 245:.\ssd1306.c   **** // should only be called from gfx_hvline which is doing all validity checking
 246:.\ssd1306.c   **** static void display_line( int16_t x1, int16_t y1, int16_t x2, int16_t y2, uint16_t color ){
 133              		.loc 1 246 0
 134              		.cfi_startproc
 135              	.LVL9:
 136 0000 F0B5     		push	{r4, r5, r6, r7, lr}
 137              		.cfi_def_cfa_offset 20
 138              		.cfi_offset 4, -20
 139              		.cfi_offset 5, -16
 140              		.cfi_offset 6, -12
 141              		.cfi_offset 7, -8
 142              		.cfi_offset 14, -4
 143 0002 4746     		mov	r7, r8
 144 0004 80B4     		push	{r7}
 145              		.cfi_def_cfa_offset 24
 146              		.cfi_offset 8, -24
 147 0006 06AC     		add	r4, sp, #24
 148              	.LVL10:
 149 0008 2588     		ldrh	r5, [r4]
 247:.\ssd1306.c   **** 
 248:.\ssd1306.c   ****     if( x1 == x2 ){
 150              		.loc 1 248 0
 151 000a 9042     		cmp	r0, r2
ARM GAS  C:\Users\User\AppData\Local\Temp\ccQ45nMh.s 			page 8


 152 000c 6AD1     		bne	.L9
 153              	.LBB2:
 249:.\ssd1306.c   ****         // vertical
 250:.\ssd1306.c   ****         uint8_t* pstart = GDDRAM_ADDRESS(x1,y1);
 154              		.loc 1 250 0
 155 000e CC17     		asr	r4, r1, #31
 156              	.LVL11:
 157 0010 640F     		lsr	r4, r4, #29
 158 0012 6418     		add	r4, r4, r1
 159 0014 E410     		asr	r4, r4, #3
 160 0016 E401     		lsl	r4, r4, #7
 161 0018 2018     		add	r0, r4, r0
 162              	.LVL12:
 163 001a 474F     		ldr	r7, .L34
 164 001c 0137     		add	r7, r7, #1
 165 001e 3818     		add	r0, r7, r0
 166              	.LVL13:
 251:.\ssd1306.c   ****         uint8_t* pend = GDDRAM_ADDRESS(x2,y2);       
 167              		.loc 1 251 0
 168 0020 DC17     		asr	r4, r3, #31
 169 0022 640F     		lsr	r4, r4, #29
 170 0024 E418     		add	r4, r4, r3
 171 0026 E410     		asr	r4, r4, #3
 172 0028 E401     		lsl	r4, r4, #7
 173 002a A218     		add	r2, r4, r2
 174              	.LVL14:
 175 002c BA18     		add	r2, r7, r2
 176              	.LVL15:
 252:.\ssd1306.c   ****         uint8_t* ptr = pstart;             
 177              		.loc 1 252 0
 178 002e 041C     		mov	r4, r0
 253:.\ssd1306.c   ****         
 254:.\ssd1306.c   ****         while( ptr <= pend ){
 179              		.loc 1 254 0
 180 0030 55E0     		b	.L10
 181              	.LVL16:
 182              	.L25:
 183              	.LBB3:
 255:.\ssd1306.c   ****             
 256:.\ssd1306.c   ****             uint8_t mask;
 257:.\ssd1306.c   ****             if( ptr == pstart ){
 184              		.loc 1 257 0
 185 0032 8442     		cmp	r4, r0
 186 0034 1BD1     		bne	.L11
 187              	.LBB4:
 258:.\ssd1306.c   ****                 // top
 259:.\ssd1306.c   ****                 uint8_t lbit = y1 % 8;
 188              		.loc 1 259 0
 189 0036 414E     		ldr	r6, .L34+4
 190              	.LVL17:
 191 0038 0E40     		and	r6, r1
 192 003a 04D5     		bpl	.L12
 193 003c 013E     		sub	r6, r6, #1
 194 003e 0827     		mov	r7, #8
 195 0040 7F42     		neg	r7, r7
 196 0042 3E43     		orr	r6, r7
 197 0044 0136     		add	r6, r6, #1
ARM GAS  C:\Users\User\AppData\Local\Temp\ccQ45nMh.s 			page 9


 198              	.L12:
 199 0046 F6B2     		uxtb	r6, r6
 200 0048 B046     		mov	r8, r6
 201              	.LVL18:
 260:.\ssd1306.c   ****                 // bottom (line can be very short, all inside this one byte)
 261:.\ssd1306.c   ****                 uint8_t ubit = lbit + y2 - y1;
 202              		.loc 1 261 0
 203 004a F718     		add	r7, r6, r3
 204 004c 7F1A     		sub	r7, r7, r1
 205 004e FFB2     		uxtb	r7, r7
 206              	.LVL19:
 262:.\ssd1306.c   ****                 if( ubit >= 7 )
 207              		.loc 1 262 0
 208 0050 062F     		cmp	r7, #6
 209 0052 00D9     		bls	.L13
 263:.\ssd1306.c   ****                     ubit = 7;
 210              		.loc 1 263 0
 211 0054 0727     		mov	r7, #7
 212              	.LVL20:
 213              	.L13:
 264:.\ssd1306.c   ****                 mask = ((1 << (ubit-lbit+1)) - 1) << lbit;    
 214              		.loc 1 264 0
 215 0056 4646     		mov	r6, r8
 216              	.LVL21:
 217 0058 BF1B     		sub	r7, r7, r6
 218              	.LVL22:
 219 005a 0137     		add	r7, r7, #1
 220 005c 0126     		mov	r6, #1
 221 005e BE40     		lsl	r6, r6, r7
 222 0060 371C     		mov	r7, r6
 223 0062 013F     		sub	r7, r7, #1
 224 0064 3E1C     		mov	r6, r7
 225 0066 4746     		mov	r7, r8
 226 0068 BE40     		lsl	r6, r6, r7
 227 006a F6B2     		uxtb	r6, r6
 228              	.LVL23:
 229              	.LBE4:
 230 006c 0FE0     		b	.L14
 231              	.LVL24:
 232              	.L11:
 265:.\ssd1306.c   ****             }else if( ptr == pend ){
 233              		.loc 1 265 0
 234 006e 9442     		cmp	r4, r2
 235 0070 0DD1     		bne	.L14
 266:.\ssd1306.c   ****                 // top is always bit 0, that makes it easy
 267:.\ssd1306.c   ****                 // bottom
 268:.\ssd1306.c   ****                 mask = (1 << (y2 % 8)) - 1;    
 236              		.loc 1 268 0
 237 0072 324E     		ldr	r6, .L34+4
 238              	.LVL25:
 239 0074 1E40     		and	r6, r3
 240 0076 04D5     		bpl	.L15
 241 0078 013E     		sub	r6, r6, #1
 242 007a 0827     		mov	r7, #8
 243 007c 7F42     		neg	r7, r7
 244 007e 3E43     		orr	r6, r7
 245 0080 0136     		add	r6, r6, #1
ARM GAS  C:\Users\User\AppData\Local\Temp\ccQ45nMh.s 			page 10


 246              	.L15:
 247 0082 36B2     		sxth	r6, r6
 248 0084 0127     		mov	r7, #1
 249 0086 B740     		lsl	r7, r7, r6
 250 0088 3E1C     		mov	r6, r7
 251 008a 013E     		sub	r6, r6, #1
 252 008c F6B2     		uxtb	r6, r6
 253              	.LVL26:
 254              	.L14:
 269:.\ssd1306.c   ****             }
 270:.\ssd1306.c   **** 
 271:.\ssd1306.c   ****             if( ptr == pstart || ptr == pend ){
 255              		.loc 1 271 0
 256 008e 8442     		cmp	r4, r0
 257 0090 01D0     		beq	.L16
 258              		.loc 1 271 0 is_stmt 0 discriminator 1
 259 0092 9442     		cmp	r4, r2
 260 0094 12D1     		bne	.L17
 261              	.L16:
 272:.\ssd1306.c   ****                 switch( color ){
 262              		.loc 1 272 0 is_stmt 1
 263 0096 012D     		cmp	r5, #1
 264 0098 04D0     		beq	.L19
 265 009a 002D     		cmp	r5, #0
 266 009c 06D0     		beq	.L20
 267 009e 022D     		cmp	r5, #2
 268 00a0 08D0     		beq	.L21
 269 00a2 1BE0     		b	.L18
 270              	.L19:
 273:.\ssd1306.c   ****                     case WHITE:     *ptr |= mask; break;
 271              		.loc 1 273 0
 272 00a4 2778     		ldrb	r7, [r4]
 273 00a6 3743     		orr	r7, r6
 274 00a8 2770     		strb	r7, [r4]
 275 00aa 17E0     		b	.L18
 276              	.L20:
 274:.\ssd1306.c   ****                     case BLACK:     *ptr &= ~mask; break;
 277              		.loc 1 274 0
 278 00ac 2778     		ldrb	r7, [r4]
 279 00ae B743     		bic	r7, r6
 280 00b0 2770     		strb	r7, [r4]
 281 00b2 13E0     		b	.L18
 282              	.L21:
 275:.\ssd1306.c   ****                     case INVERSE:   *ptr ^= mask; break;
 283              		.loc 1 275 0
 284 00b4 2778     		ldrb	r7, [r4]
 285 00b6 7740     		eor	r7, r6
 286 00b8 2770     		strb	r7, [r4]
 287 00ba 0FE0     		b	.L18
 288              	.L17:
 276:.\ssd1306.c   ****                 };  
 277:.\ssd1306.c   ****             }else{
 278:.\ssd1306.c   ****                 switch( color ){
 289              		.loc 1 278 0
 290 00bc 012D     		cmp	r5, #1
 291 00be 04D0     		beq	.L22
 292 00c0 002D     		cmp	r5, #0
ARM GAS  C:\Users\User\AppData\Local\Temp\ccQ45nMh.s 			page 11


 293 00c2 05D0     		beq	.L23
 294 00c4 022D     		cmp	r5, #2
 295 00c6 06D0     		beq	.L24
 296 00c8 08E0     		b	.L18
 297              	.L22:
 279:.\ssd1306.c   ****                     case WHITE:     *ptr = 0xff; break;
 298              		.loc 1 279 0
 299 00ca FF27     		mov	r7, #255
 300 00cc 2770     		strb	r7, [r4]
 301 00ce 05E0     		b	.L18
 302              	.L23:
 280:.\ssd1306.c   ****                     case BLACK:     *ptr = 0x00; break;
 303              		.loc 1 280 0
 304 00d0 0027     		mov	r7, #0
 305 00d2 2770     		strb	r7, [r4]
 306 00d4 02E0     		b	.L18
 307              	.L24:
 281:.\ssd1306.c   ****                     case INVERSE:   *ptr ^= 0xff; break;
 308              		.loc 1 281 0
 309 00d6 2778     		ldrb	r7, [r4]
 310 00d8 FF43     		mvn	r7, r7
 311 00da 2770     		strb	r7, [r4]
 312              	.L18:
 282:.\ssd1306.c   ****                 };  
 283:.\ssd1306.c   ****             }
 284:.\ssd1306.c   ****             
 285:.\ssd1306.c   ****             ptr += DISPLAYWIDTH;
 313              		.loc 1 285 0
 314 00dc 8034     		add	r4, r4, #128
 315              	.LVL27:
 316              	.L10:
 317              	.LBE3:
 254:.\ssd1306.c   ****             
 318              		.loc 1 254 0
 319 00de 9442     		cmp	r4, r2
 320 00e0 A7D9     		bls	.L25
 321 00e2 26E0     		b	.L8
 322              	.LVL28:
 323              	.L9:
 324              	.LBE2:
 325              	.LBB5:
 286:.\ssd1306.c   ****         }
 287:.\ssd1306.c   ****     }else{
 288:.\ssd1306.c   ****         // horizontal
 289:.\ssd1306.c   ****         uint8_t* pstart = GDDRAM_ADDRESS(x1,y1);
 326              		.loc 1 289 0
 327 00e4 CB17     		asr	r3, r1, #31
 328              	.LVL29:
 329 00e6 5B0F     		lsr	r3, r3, #29
 330 00e8 5B18     		add	r3, r3, r1
 331 00ea DB10     		asr	r3, r3, #3
 332 00ec DB01     		lsl	r3, r3, #7
 333 00ee 1C18     		add	r4, r3, r0
 334              	.LVL30:
 335 00f0 114B     		ldr	r3, .L34
 336 00f2 0133     		add	r3, r3, #1
 337 00f4 1B19     		add	r3, r3, r4
ARM GAS  C:\Users\User\AppData\Local\Temp\ccQ45nMh.s 			page 12


 338              	.LVL31:
 290:.\ssd1306.c   ****         uint8_t* pend = pstart + x2 - x1;
 339              		.loc 1 290 0
 340 00f6 121A     		sub	r2, r2, r0
 341              	.LVL32:
 342 00f8 9A18     		add	r2, r3, r2
 343              	.LVL33:
 291:.\ssd1306.c   ****         uint8_t pixmask = GDDRAM_PIXMASK(y1);    
 344              		.loc 1 291 0
 345 00fa 0720     		mov	r0, #7
 346              	.LVL34:
 347 00fc 0140     		and	r1, r0
 348              	.LVL35:
 349 00fe 0638     		sub	r0, r0, #6
 350 0100 8840     		lsl	r0, r0, r1
 351 0102 011C     		mov	r1, r0
 352 0104 C4B2     		uxtb	r4, r0
 353              	.LVL36:
 292:.\ssd1306.c   **** 
 293:.\ssd1306.c   ****         uint8_t* ptr = pstart;
 294:.\ssd1306.c   ****         while( ptr <= pend ){
 354              		.loc 1 294 0
 355 0106 12E0     		b	.L27
 356              	.LVL37:
 357              	.L32:
 295:.\ssd1306.c   ****             switch( color ){
 358              		.loc 1 295 0
 359 0108 012D     		cmp	r5, #1
 360 010a 04D0     		beq	.L29
 361 010c 002D     		cmp	r5, #0
 362 010e 06D0     		beq	.L30
 363 0110 022D     		cmp	r5, #2
 364 0112 08D0     		beq	.L31
 365 0114 0AE0     		b	.L28
 366              	.L29:
 296:.\ssd1306.c   ****                 case WHITE:     *ptr |= pixmask; break;
 367              		.loc 1 296 0
 368 0116 1878     		ldrb	r0, [r3]
 369 0118 2043     		orr	r0, r4
 370 011a 1870     		strb	r0, [r3]
 371 011c 06E0     		b	.L28
 372              	.L30:
 297:.\ssd1306.c   ****                 case BLACK:     *ptr &= ~pixmask; break;
 373              		.loc 1 297 0
 374 011e 1878     		ldrb	r0, [r3]
 375 0120 8843     		bic	r0, r1
 376 0122 1870     		strb	r0, [r3]
 377 0124 02E0     		b	.L28
 378              	.L31:
 298:.\ssd1306.c   ****                 case INVERSE:   *ptr ^= pixmask; break;
 379              		.loc 1 298 0
 380 0126 1878     		ldrb	r0, [r3]
 381 0128 6040     		eor	r0, r4
 382 012a 1870     		strb	r0, [r3]
 383              	.L28:
 299:.\ssd1306.c   ****             };
 300:.\ssd1306.c   ****             ptr++;
ARM GAS  C:\Users\User\AppData\Local\Temp\ccQ45nMh.s 			page 13


 384              		.loc 1 300 0
 385 012c 0133     		add	r3, r3, #1
 386              	.LVL38:
 387              	.L27:
 294:.\ssd1306.c   ****             switch( color ){
 388              		.loc 1 294 0
 389 012e 9342     		cmp	r3, r2
 390 0130 EAD9     		bls	.L32
 391              	.LVL39:
 392              	.L8:
 393              	.LBE5:
 301:.\ssd1306.c   ****         }
 302:.\ssd1306.c   ****     }
 303:.\ssd1306.c   **** }
 394              		.loc 1 303 0
 395              		@ sp needed
 396 0132 04BC     		pop	{r2}
 397 0134 9046     		mov	r8, r2
 398 0136 F0BD     		pop	{r4, r5, r6, r7, pc}
 399              	.L35:
 400              		.align	2
 401              	.L34:
 402 0138 00000000 		.word	.LANCHOR0
 403 013c 07000080 		.word	-2147483641
 404              		.cfi_endproc
 405              	.LFE41:
 406              		.size	display_line, .-display_line
 407              		.section	.text.gfx_rotation_adjust,"ax",%progbits
 408              		.align	2
 409              		.code	16
 410              		.thumb_func
 411              		.type	gfx_rotation_adjust, %function
 412              	gfx_rotation_adjust:
 413              	.LFB54:
 304:.\ssd1306.c   **** 
 305:.\ssd1306.c   **** 
 306:.\ssd1306.c   **** 
 307:.\ssd1306.c   **** void display_stopscroll(void){
 308:.\ssd1306.c   **** 
 309:.\ssd1306.c   ****     uint8 cmdbuf[] = {
 310:.\ssd1306.c   ****         0x00,
 311:.\ssd1306.c   ****         SSD1306_DEACTIVATE_SCROLL
 312:.\ssd1306.c   ****     };
 313:.\ssd1306.c   ****     display_write_buf( cmdbuf, sizeof(cmdbuf) ); 
 314:.\ssd1306.c   **** }
 315:.\ssd1306.c   **** 
 316:.\ssd1306.c   **** void display_scroll( SCROLL_AREA start, SCROLL_AREA end, SCROLL_DIR dir, SCROLL_SPEED speed ){
 317:.\ssd1306.c   ****    
 318:.\ssd1306.c   ****     uint8 cmdbuf[] = {
 319:.\ssd1306.c   ****         0x00,
 320:.\ssd1306.c   ****         dir,                    // 0x26 or 0x2a
 321:.\ssd1306.c   ****         0x00,                   // dummy byte
 322:.\ssd1306.c   ****         start,                  // start page
 323:.\ssd1306.c   ****         speed,                  // scroll step interval in terms of frame frequency 
 324:.\ssd1306.c   ****         end,                    // end page
 325:.\ssd1306.c   ****         0x00,                   // dummy byte
 326:.\ssd1306.c   ****         0xFF,                   // dummy byte
ARM GAS  C:\Users\User\AppData\Local\Temp\ccQ45nMh.s 			page 14


 327:.\ssd1306.c   ****         SSD1306_ACTIVATE_SCROLL // 0x2F
 328:.\ssd1306.c   ****     };
 329:.\ssd1306.c   ****     display_write_buf( cmdbuf, sizeof(cmdbuf) ); 
 330:.\ssd1306.c   **** }
 331:.\ssd1306.c   **** 
 332:.\ssd1306.c   **** 
 333:.\ssd1306.c   **** 
 334:.\ssd1306.c   **** // ============================================================
 335:.\ssd1306.c   **** // graphics library stuff
 336:.\ssd1306.c   **** 
 337:.\ssd1306.c   **** int16_t WIDTH, HEIGHT; // This is the 'raw' display w/h - never changes
 338:.\ssd1306.c   **** static int16_t _width, _height; // Display w/h as modified by current rotation
 339:.\ssd1306.c   **** static int16_t cursor_x, cursor_y;
 340:.\ssd1306.c   **** static uint16_t textcolor, textbgcolor;
 341:.\ssd1306.c   **** static uint8_t textsize;
 342:.\ssd1306.c   **** uint8_t rotation;
 343:.\ssd1306.c   **** uint8_t wrap; // If set, 'wrap' text at right edge of display
 344:.\ssd1306.c   **** 
 345:.\ssd1306.c   **** 
 346:.\ssd1306.c   **** 
 347:.\ssd1306.c   **** void gfx_init( int16_t width, int16_t height ){
 348:.\ssd1306.c   ****     WIDTH = width;
 349:.\ssd1306.c   ****     HEIGHT = height;
 350:.\ssd1306.c   ****     _width = WIDTH;
 351:.\ssd1306.c   ****     _height = HEIGHT;
 352:.\ssd1306.c   ****     
 353:.\ssd1306.c   ****     rotation = 0;
 354:.\ssd1306.c   ****     cursor_y = cursor_x = 0;
 355:.\ssd1306.c   ****     textsize = 1;
 356:.\ssd1306.c   ****     textcolor = textbgcolor = 0xFFFF;
 357:.\ssd1306.c   ****     wrap = 1;
 358:.\ssd1306.c   **** }
 359:.\ssd1306.c   **** 
 360:.\ssd1306.c   **** // Return the size of the display (per current rotation)
 361:.\ssd1306.c   **** int16_t gfx_width(void){
 362:.\ssd1306.c   ****     return _width;
 363:.\ssd1306.c   **** }
 364:.\ssd1306.c   **** 
 365:.\ssd1306.c   **** int16_t gfx_height(void){
 366:.\ssd1306.c   ****     return _height;
 367:.\ssd1306.c   **** }
 368:.\ssd1306.c   **** 
 369:.\ssd1306.c   **** uint8_t gfx_rotation(void){
 370:.\ssd1306.c   ****     return rotation;
 371:.\ssd1306.c   **** }
 372:.\ssd1306.c   **** 
 373:.\ssd1306.c   **** void gfx_setCursor( int16_t x, int16_t y ){
 374:.\ssd1306.c   ****     cursor_x = x;
 375:.\ssd1306.c   ****     cursor_y = y;
 376:.\ssd1306.c   **** }
 377:.\ssd1306.c   **** 
 378:.\ssd1306.c   **** void gfx_setTextSize( uint8_t size ){
 379:.\ssd1306.c   ****     textsize = (size > 0) ? size : 1;
 380:.\ssd1306.c   **** }
 381:.\ssd1306.c   **** 
 382:.\ssd1306.c   **** void gfx_setTextColor( uint16_t color ){
 383:.\ssd1306.c   ****     // For 'transparent' background, we'll set the bg
ARM GAS  C:\Users\User\AppData\Local\Temp\ccQ45nMh.s 			page 15


 384:.\ssd1306.c   ****     // to the same as fg instead of using a flag
 385:.\ssd1306.c   ****     textcolor = textbgcolor = color;
 386:.\ssd1306.c   **** }
 387:.\ssd1306.c   **** 
 388:.\ssd1306.c   **** void gfx_setTextBg( uint16_t color ){
 389:.\ssd1306.c   ****     textbgcolor = color;
 390:.\ssd1306.c   **** }
 391:.\ssd1306.c   **** 
 392:.\ssd1306.c   **** void gfx_setTextWrap( uint8 w ){
 393:.\ssd1306.c   ****     wrap = w;
 394:.\ssd1306.c   **** }
 395:.\ssd1306.c   **** 
 396:.\ssd1306.c   **** void gfx_setRotation( uint8_t x ){
 397:.\ssd1306.c   ****     
 398:.\ssd1306.c   ****     rotation = (x & 3);
 399:.\ssd1306.c   ****     switch( rotation ){
 400:.\ssd1306.c   ****         case 0:
 401:.\ssd1306.c   ****         case 2:
 402:.\ssd1306.c   ****             _width = WIDTH;
 403:.\ssd1306.c   ****             _height = HEIGHT;
 404:.\ssd1306.c   ****             break;
 405:.\ssd1306.c   ****         case 1:
 406:.\ssd1306.c   ****         case 3:
 407:.\ssd1306.c   ****             _width = HEIGHT;
 408:.\ssd1306.c   ****             _height = WIDTH;
 409:.\ssd1306.c   ****         break;
 410:.\ssd1306.c   ****     }
 411:.\ssd1306.c   **** }
 412:.\ssd1306.c   **** 
 413:.\ssd1306.c   **** static void gfx_rotation_adjust( int16_t* px, int16_t* py ){
 414              		.loc 1 413 0
 415              		.cfi_startproc
 416              	.LVL40:
 417 0000 10B5     		push	{r4, lr}
 418              		.cfi_def_cfa_offset 8
 419              		.cfi_offset 4, -8
 420              		.cfi_offset 14, -4
 414:.\ssd1306.c   **** 
 415:.\ssd1306.c   ****     int16_t y0 = *py;
 421              		.loc 1 415 0
 422 0002 0A88     		ldrh	r2, [r1]
 423              	.LVL41:
 416:.\ssd1306.c   ****     
 417:.\ssd1306.c   ****     switch( rotation ){
 424              		.loc 1 417 0
 425 0004 124B     		ldr	r3, .L41
 426 0006 1B78     		ldrb	r3, [r3]
 427 0008 022B     		cmp	r3, #2
 428 000a 0BD0     		beq	.L38
 429 000c 032B     		cmp	r3, #3
 430 000e 16D0     		beq	.L39
 431 0010 012B     		cmp	r3, #1
 432 0012 1BD1     		bne	.L36
 418:.\ssd1306.c   ****         case 1:
 419:.\ssd1306.c   ****             *py = *px;
 433              		.loc 1 419 0
 434 0014 0388     		ldrh	r3, [r0]
ARM GAS  C:\Users\User\AppData\Local\Temp\ccQ45nMh.s 			page 16


 435 0016 0B80     		strh	r3, [r1]
 420:.\ssd1306.c   ****             *px = WIDTH - y0 - 1;
 436              		.loc 1 420 0
 437 0018 0E4B     		ldr	r3, .L41+4
 438 001a 1B88     		ldrh	r3, [r3]
 439 001c 9A1A     		sub	r2, r3, r2
 440              	.LVL42:
 441 001e 013A     		sub	r2, r2, #1
 442 0020 0280     		strh	r2, [r0]
 421:.\ssd1306.c   ****             break;
 443              		.loc 1 421 0
 444 0022 13E0     		b	.L36
 445              	.LVL43:
 446              	.L38:
 422:.\ssd1306.c   ****         case 2:
 423:.\ssd1306.c   ****             *px = WIDTH - *px - 1;
 447              		.loc 1 423 0
 448 0024 0288     		ldrh	r2, [r0]
 449              	.LVL44:
 450 0026 0B4B     		ldr	r3, .L41+4
 451 0028 1B88     		ldrh	r3, [r3]
 452 002a 9B1A     		sub	r3, r3, r2
 453 002c 013B     		sub	r3, r3, #1
 454 002e 0380     		strh	r3, [r0]
 455              	.LVL45:
 424:.\ssd1306.c   ****             *py = HEIGHT - *py - 1;
 456              		.loc 1 424 0
 457 0030 0A88     		ldrh	r2, [r1]
 458 0032 094B     		ldr	r3, .L41+8
 459 0034 1B88     		ldrh	r3, [r3]
 460 0036 9B1A     		sub	r3, r3, r2
 461 0038 013B     		sub	r3, r3, #1
 462 003a 0B80     		strh	r3, [r1]
 425:.\ssd1306.c   ****             break;
 463              		.loc 1 425 0
 464 003c 06E0     		b	.L36
 465              	.LVL46:
 466              	.L39:
 426:.\ssd1306.c   ****         case 3:
 427:.\ssd1306.c   ****             *py = HEIGHT - *px - 1;
 467              		.loc 1 427 0
 468 003e 0488     		ldrh	r4, [r0]
 469 0040 054B     		ldr	r3, .L41+8
 470 0042 1B88     		ldrh	r3, [r3]
 471 0044 1B1B     		sub	r3, r3, r4
 472 0046 013B     		sub	r3, r3, #1
 473 0048 0B80     		strh	r3, [r1]
 428:.\ssd1306.c   ****             *px = y0;
 474              		.loc 1 428 0
 475 004a 0280     		strh	r2, [r0]
 476              	.LVL47:
 477              	.L36:
 429:.\ssd1306.c   ****             break;
 430:.\ssd1306.c   ****     }
 431:.\ssd1306.c   **** }
 478              		.loc 1 431 0
 479              		@ sp needed
ARM GAS  C:\Users\User\AppData\Local\Temp\ccQ45nMh.s 			page 17


 480 004c 10BD     		pop	{r4, pc}
 481              	.L42:
 482 004e C046     		.align	2
 483              	.L41:
 484 0050 00000000 		.word	rotation
 485 0054 00000000 		.word	WIDTH
 486 0058 00000000 		.word	HEIGHT
 487              		.cfi_endproc
 488              	.LFE54:
 489              		.size	gfx_rotation_adjust, .-gfx_rotation_adjust
 490              		.section	.text.gfx_hvLine,"ax",%progbits
 491              		.align	2
 492              		.code	16
 493              		.thumb_func
 494              		.type	gfx_hvLine, %function
 495              	gfx_hvLine:
 496              	.LFB56:
 432:.\ssd1306.c   **** 
 433:.\ssd1306.c   **** void gfx_drawPixel( int16_t x, int16_t y, uint16_t color ){
 434:.\ssd1306.c   ****     
 435:.\ssd1306.c   ****     if( (x < 0) || (x >= _width) || (y < 0) || (y >= _height) )
 436:.\ssd1306.c   ****         return;
 437:.\ssd1306.c   ****     
 438:.\ssd1306.c   ****     gfx_rotation_adjust( &x, &y );
 439:.\ssd1306.c   **** 
 440:.\ssd1306.c   ****     display_setPixel(x,y,color);
 441:.\ssd1306.c   **** }
 442:.\ssd1306.c   **** 
 443:.\ssd1306.c   **** // helper function for gfx_drawLine, handles special cases of horizontal and vertical lines
 444:.\ssd1306.c   **** static void gfx_hvLine( int16_t x1, int16_t y1, int16_t x2, int16_t y2, uint16_t color ){
 497              		.loc 1 444 0
 498              		.cfi_startproc
 499              	.LVL48:
 500 0000 70B5     		push	{r4, r5, r6, lr}
 501              		.cfi_def_cfa_offset 16
 502              		.cfi_offset 4, -16
 503              		.cfi_offset 5, -12
 504              		.cfi_offset 6, -8
 505              		.cfi_offset 14, -4
 506 0002 84B0     		sub	sp, sp, #16
 507              		.cfi_def_cfa_offset 32
 508 0004 08AC     		add	r4, sp, #32
 509              	.LVL49:
 510 0006 2588     		ldrh	r5, [r4]
 511 0008 0E24     		mov	r4, #14
 512              	.LVL50:
 513 000a 6C44     		add	r4, r4, sp
 514 000c 2080     		strh	r0, [r4]
 515 000e 03AC     		add	r4, sp, #12
 516 0010 2180     		strh	r1, [r4]
 517 0012 0A21     		mov	r1, #10
 518              	.LVL51:
 519 0014 6944     		add	r1, r1, sp
 520 0016 0A80     		strh	r2, [r1]
 521 0018 02A9     		add	r1, sp, #8
 522 001a 0B80     		strh	r3, [r1]
 445:.\ssd1306.c   ****     
ARM GAS  C:\Users\User\AppData\Local\Temp\ccQ45nMh.s 			page 18


 446:.\ssd1306.c   ****     if( x1 != x2 && y1 != y2 ){
 523              		.loc 1 446 0
 524 001c 83B2     		uxth	r3, r0
 525              	.LVL52:
 526 001e 91B2     		uxth	r1, r2
 527              	.LVL53:
 528 0020 8242     		cmp	r2, r0
 529 0022 08D0     		beq	.L44
 530              		.loc 1 446 0 is_stmt 0 discriminator 1
 531 0024 221C     		mov	r2, r4
 532              	.LVL54:
 533 0026 0020     		mov	r0, #0
 534 0028 105E     		ldrsh	r0, [r2, r0]
 535              	.LVL55:
 536 002a 02AA     		add	r2, sp, #8
 537              	.LVL56:
 538 002c 0024     		mov	r4, #0
 539 002e 125F     		ldrsh	r2, [r2, r4]
 540              	.LVL57:
 541 0030 9042     		cmp	r0, r2
 542 0032 00D0     		beq	.LCB584
 543 0034 8FE0     		b	.L43	@long jump
 544              	.LCB584:
 545              	.L44:
 447:.\ssd1306.c   ****         // neither vertical nor horizontal
 448:.\ssd1306.c   ****         return;
 449:.\ssd1306.c   ****     }    
 450:.\ssd1306.c   ****     
 451:.\ssd1306.c   ****     // bounds check
 452:.\ssd1306.c   ****     if( rotation == 1 || rotation == 3 ){
 546              		.loc 1 452 0 is_stmt 1
 547 0036 494A     		ldr	r2, .L52
 548 0038 1278     		ldrb	r2, [r2]
 549 003a 012A     		cmp	r2, #1
 550 003c 01D0     		beq	.L46
 551              		.loc 1 452 0 is_stmt 0 discriminator 1
 552 003e 032A     		cmp	r2, #3
 553 0040 25D1     		bne	.L47
 554              	.L46:
 453:.\ssd1306.c   ****         if( x1 < 0 || x1 >= HEIGHT || x2 < 0 || x2 >= HEIGHT )
 555              		.loc 1 453 0 is_stmt 1
 556 0042 1AB2     		sxth	r2, r3
 557 0044 002A     		cmp	r2, #0
 558 0046 00DA     		bge	.LCB595
 559 0048 85E0     		b	.L43	@long jump
 560              	.LCB595:
 561              		.loc 1 453 0 is_stmt 0 discriminator 1
 562 004a 454A     		ldr	r2, .L52+4
 563 004c 1288     		ldrh	r2, [r2]
 564 004e 1BB2     		sxth	r3, r3
 565 0050 10B2     		sxth	r0, r2
 566 0052 8342     		cmp	r3, r0
 567 0054 00DB     		blt	.LCB601
 568 0056 7EE0     		b	.L43	@long jump
 569              	.LCB601:
 570              		.loc 1 453 0 discriminator 2
 571 0058 0BB2     		sxth	r3, r1
ARM GAS  C:\Users\User\AppData\Local\Temp\ccQ45nMh.s 			page 19


 572 005a 002B     		cmp	r3, #0
 573 005c 00DA     		bge	.LCB604
 574 005e 7AE0     		b	.L43	@long jump
 575              	.LCB604:
 576              		.loc 1 453 0 discriminator 3
 577 0060 8342     		cmp	r3, r0
 578 0062 00DB     		blt	.LCB606
 579 0064 77E0     		b	.L43	@long jump
 580              	.LCB606:
 454:.\ssd1306.c   ****             return;
 455:.\ssd1306.c   ****         if( y1 < 0 || y1 >= WIDTH || y2 < 0 || y2 >= WIDTH )
 581              		.loc 1 455 0 is_stmt 1
 582 0066 03AB     		add	r3, sp, #12
 583              	.LVL58:
 584 0068 1B88     		ldrh	r3, [r3]
 585              	.LVL59:
 586 006a 1AB2     		sxth	r2, r3
 587 006c 002A     		cmp	r2, #0
 588 006e 72DB     		blt	.L43
 589              		.loc 1 455 0 is_stmt 0 discriminator 1
 590 0070 3C4A     		ldr	r2, .L52+8
 591 0072 1288     		ldrh	r2, [r2]
 592 0074 1BB2     		sxth	r3, r3
 593 0076 11B2     		sxth	r1, r2
 594 0078 8B42     		cmp	r3, r1
 595 007a 6CDA     		bge	.L43
 596              		.loc 1 455 0 discriminator 2
 597 007c 02AB     		add	r3, sp, #8
 598              	.LVL60:
 599 007e 1B88     		ldrh	r3, [r3]
 600              	.LVL61:
 601 0080 19B2     		sxth	r1, r3
 602 0082 0029     		cmp	r1, #0
 603 0084 67DB     		blt	.L43
 604              		.loc 1 455 0 discriminator 3
 605 0086 12B2     		sxth	r2, r2
 606 0088 8A42     		cmp	r2, r1
 607 008a 21DC     		bgt	.L48
 608 008c 63E0     		b	.L43
 609              	.L47:
 456:.\ssd1306.c   ****             return;
 457:.\ssd1306.c   ****     }else{
 458:.\ssd1306.c   ****         if( y1 < 0 || y1 >= HEIGHT || y2 < 0 || y2 >= HEIGHT )
 610              		.loc 1 458 0 is_stmt 1
 611 008e 03AA     		add	r2, sp, #12
 612              	.LVL62:
 613 0090 1288     		ldrh	r2, [r2]
 614              	.LVL63:
 615 0092 10B2     		sxth	r0, r2
 616 0094 0028     		cmp	r0, #0
 617 0096 5EDB     		blt	.L43
 618              		.loc 1 458 0 is_stmt 0 discriminator 1
 619 0098 3148     		ldr	r0, .L52+4
 620 009a 0088     		ldrh	r0, [r0]
 621 009c 12B2     		sxth	r2, r2
 622 009e 04B2     		sxth	r4, r0
 623 00a0 A242     		cmp	r2, r4
ARM GAS  C:\Users\User\AppData\Local\Temp\ccQ45nMh.s 			page 20


 624 00a2 58DA     		bge	.L43
 625              		.loc 1 458 0 discriminator 2
 626 00a4 02AA     		add	r2, sp, #8
 627              	.LVL64:
 628 00a6 1288     		ldrh	r2, [r2]
 629              	.LVL65:
 630 00a8 14B2     		sxth	r4, r2
 631 00aa 002C     		cmp	r4, #0
 632 00ac 53DB     		blt	.L43
 633              		.loc 1 458 0 discriminator 3
 634 00ae 00B2     		sxth	r0, r0
 635 00b0 A042     		cmp	r0, r4
 636 00b2 50DD     		ble	.L43
 459:.\ssd1306.c   ****             return;
 460:.\ssd1306.c   ****         if( x1 < 0 || x1 >= WIDTH || x2 < 0 || x2 >= WIDTH )
 637              		.loc 1 460 0 is_stmt 1
 638 00b4 1AB2     		sxth	r2, r3
 639 00b6 002A     		cmp	r2, #0
 640 00b8 4DDB     		blt	.L43
 641              		.loc 1 460 0 is_stmt 0 discriminator 1
 642 00ba 2A4A     		ldr	r2, .L52+8
 643 00bc 1288     		ldrh	r2, [r2]
 644 00be 1BB2     		sxth	r3, r3
 645 00c0 10B2     		sxth	r0, r2
 646 00c2 8342     		cmp	r3, r0
 647 00c4 47DA     		bge	.L43
 648              		.loc 1 460 0 discriminator 2
 649 00c6 0BB2     		sxth	r3, r1
 650 00c8 002B     		cmp	r3, #0
 651 00ca 44DB     		blt	.L43
 652              		.loc 1 460 0 discriminator 3
 653 00cc 8342     		cmp	r3, r0
 654 00ce 42DA     		bge	.L43
 655              	.L48:
 461:.\ssd1306.c   ****             return;
 462:.\ssd1306.c   ****     }
 463:.\ssd1306.c   ****     
 464:.\ssd1306.c   ****     gfx_rotation_adjust( &x1, &y1 );
 656              		.loc 1 464 0 is_stmt 1
 657 00d0 0E26     		mov	r6, #14
 658              	.LVL66:
 659 00d2 6E44     		add	r6, r6, sp
 660              	.LVL67:
 661 00d4 301C     		mov	r0, r6
 662 00d6 03A9     		add	r1, sp, #12
 663              	.LVL68:
 664 00d8 FFF7FEFF 		bl	gfx_rotation_adjust
 665              	.LVL69:
 465:.\ssd1306.c   ****     gfx_rotation_adjust( &x2, &y2 );
 666              		.loc 1 465 0
 667 00dc 0A24     		mov	r4, #10
 668              	.LVL70:
 669 00de 6C44     		add	r4, r4, sp
 670              	.LVL71:
 671 00e0 201C     		mov	r0, r4
 672 00e2 02A9     		add	r1, sp, #8
 673              	.LVL72:
ARM GAS  C:\Users\User\AppData\Local\Temp\ccQ45nMh.s 			page 21


 674 00e4 FFF7FEFF 		bl	gfx_rotation_adjust
 675              	.LVL73:
 466:.\ssd1306.c   ****     
 467:.\ssd1306.c   ****     // ensure coords are from left to right and top to bottom
 468:.\ssd1306.c   ****     if( (x1 == x2 && y2 < y1) || (y1 == y2 && x2 < x1) ){
 676              		.loc 1 468 0
 677 00e8 3388     		ldrh	r3, [r6]
 678 00ea 2288     		ldrh	r2, [r4]
 679 00ec 18B2     		sxth	r0, r3
 680 00ee 11B2     		sxth	r1, r2
 681 00f0 8842     		cmp	r0, r1
 682 00f2 07D1     		bne	.L49
 683              		.loc 1 468 0 is_stmt 0 discriminator 1
 684 00f4 02A9     		add	r1, sp, #8
 685              	.LVL74:
 686 00f6 0020     		mov	r0, #0
 687 00f8 085E     		ldrsh	r0, [r1, r0]
 688              	.LVL75:
 689 00fa 03A9     		add	r1, sp, #12
 690              	.LVL76:
 691 00fc 0024     		mov	r4, #0
 692 00fe 095F     		ldrsh	r1, [r1, r4]
 693              	.LVL77:
 694 0100 8842     		cmp	r0, r1
 695 0102 0BDB     		blt	.L50
 696              	.L49:
 697              		.loc 1 468 0 discriminator 3
 698 0104 03A9     		add	r1, sp, #12
 699              	.LVL78:
 700 0106 0020     		mov	r0, #0
 701 0108 085E     		ldrsh	r0, [r1, r0]
 702              	.LVL79:
 703 010a 02A9     		add	r1, sp, #8
 704              	.LVL80:
 705 010c 0024     		mov	r4, #0
 706 010e 095F     		ldrsh	r1, [r1, r4]
 707              	.LVL81:
 708 0110 8842     		cmp	r0, r1
 709 0112 0FD1     		bne	.L51
 710              		.loc 1 468 0 discriminator 4
 711 0114 19B2     		sxth	r1, r3
 712 0116 10B2     		sxth	r0, r2
 713 0118 8142     		cmp	r1, r0
 714 011a 0BDD     		ble	.L51
 715              	.L50:
 716              	.LVL82:
 717              	.LBB6:
 469:.\ssd1306.c   ****         // swap as needed
 470:.\ssd1306.c   ****         int16_t t = x1; x1 = x2; x2 = t;
 718              		.loc 1 470 0 is_stmt 1
 719 011c 0E21     		mov	r1, #14
 720              	.LVL83:
 721 011e 6944     		add	r1, r1, sp
 722              	.LVL84:
 723 0120 0A80     		strh	r2, [r1]
 724 0122 0A22     		mov	r2, #10
 725              	.LVL85:
ARM GAS  C:\Users\User\AppData\Local\Temp\ccQ45nMh.s 			page 22


 726 0124 6A44     		add	r2, r2, sp
 727              	.LVL86:
 728 0126 1380     		strh	r3, [r2]
 471:.\ssd1306.c   ****         t = y1; y1 = y2; y2 = t;
 729              		.loc 1 471 0
 730 0128 03AA     		add	r2, sp, #12
 731              	.LVL87:
 732 012a 1188     		ldrh	r1, [r2]
 733              	.LVL88:
 734 012c 02AB     		add	r3, sp, #8
 735              	.LVL89:
 736 012e 1888     		ldrh	r0, [r3]
 737 0130 1080     		strh	r0, [r2]
 738 0132 1980     		strh	r1, [r3]
 739              	.LVL90:
 740              	.L51:
 741              	.LBE6:
 472:.\ssd1306.c   ****     }
 473:.\ssd1306.c   ****     
 474:.\ssd1306.c   ****     display_line( x1, y1, x2, y2, color );
 742              		.loc 1 474 0
 743 0134 0E23     		mov	r3, #14
 744              	.LVL91:
 745 0136 6B44     		add	r3, r3, sp
 746              	.LVL92:
 747 0138 0020     		mov	r0, #0
 748 013a 185E     		ldrsh	r0, [r3, r0]
 749 013c 03AB     		add	r3, sp, #12
 750              	.LVL93:
 751 013e 0021     		mov	r1, #0
 752 0140 595E     		ldrsh	r1, [r3, r1]
 753              	.LVL94:
 754 0142 0A23     		mov	r3, #10
 755              	.LVL95:
 756 0144 6B44     		add	r3, r3, sp
 757              	.LVL96:
 758 0146 0022     		mov	r2, #0
 759 0148 9A5E     		ldrsh	r2, [r3, r2]
 760 014a 02AB     		add	r3, sp, #8
 761              	.LVL97:
 762 014c 0024     		mov	r4, #0
 763 014e 1B5F     		ldrsh	r3, [r3, r4]
 764              	.LVL98:
 765 0150 0095     		str	r5, [sp]
 766 0152 FFF7FEFF 		bl	display_line
 767              	.LVL99:
 768              	.L43:
 475:.\ssd1306.c   **** }
 769              		.loc 1 475 0
 770 0156 04B0     		add	sp, sp, #16
 771              		@ sp needed
 772 0158 70BD     		pop	{r4, r5, r6, pc}
 773              	.L53:
 774 015a C046     		.align	2
 775              	.L52:
 776 015c 00000000 		.word	rotation
 777 0160 00000000 		.word	HEIGHT
ARM GAS  C:\Users\User\AppData\Local\Temp\ccQ45nMh.s 			page 23


 778 0164 00000000 		.word	WIDTH
 779              		.cfi_endproc
 780              	.LFE56:
 781              		.size	gfx_hvLine, .-gfx_hvLine
 782              		.section	.text.display_write_buf,"ax",%progbits
 783              		.align	2
 784              		.code	16
 785              		.thumb_func
 786              		.type	display_write_buf, %function
 787              	display_write_buf:
 788              	.LFB35:
 158:.\ssd1306.c   **** 
 789              		.loc 1 158 0
 790              		.cfi_startproc
 791              	.LVL100:
 792 0000 10B5     		push	{r4, lr}
 793              		.cfi_def_cfa_offset 8
 794              		.cfi_offset 4, -8
 795              		.cfi_offset 14, -4
 796 0002 031C     		mov	r3, r0
 797 0004 0C1C     		mov	r4, r1
 798              	.LVL101:
 162:.\ssd1306.c   ****     while( 0u == (I2COLED_I2CMasterStatus() & I2COLED_I2C_MSTAT_WR_CMPLT) );
 799              		.loc 1 162 0
 800 0006 0E4A     		ldr	r2, .L59
 801 0008 1078     		ldrb	r0, [r2]
 802              	.LVL102:
 803 000a 191C     		mov	r1, r3
 804              	.LVL103:
 805 000c 221C     		mov	r2, r4
 806 000e 0023     		mov	r3, #0
 807              	.LVL104:
 808 0010 FFF7FEFF 		bl	I2COLED_I2CMasterWriteBuf
 809              	.LVL105:
 810              	.L55:
 163:.\ssd1306.c   **** 
 811              		.loc 1 163 0 discriminator 1
 812 0014 FFF7FEFF 		bl	I2COLED_I2CMasterStatus
 813              	.LVL106:
 814 0018 8307     		lsl	r3, r0, #30
 815 001a FBD5     		bpl	.L55
 165:.\ssd1306.c   ****         // Check if all bytes was written 
 816              		.loc 1 165 0
 817 001c FFF7FEFF 		bl	I2COLED_I2CMasterStatus
 818              	.LVL107:
 819 0020 8305     		lsl	r3, r0, #22
 820 0022 05D4     		bmi	.L57
 167:.\ssd1306.c   ****             status = TRANSFER_CMPLT;
 821              		.loc 1 167 0
 822 0024 FFF7FEFF 		bl	I2COLED_I2CMasterGetWriteBufSize
 823              	.LVL108:
 824 0028 8442     		cmp	r4, r0
 825 002a 03D0     		beq	.L58
 160:.\ssd1306.c   **** 
 826              		.loc 1 160 0
 827 002c FF24     		mov	r4, #255
 828 002e 02E0     		b	.L56
ARM GAS  C:\Users\User\AppData\Local\Temp\ccQ45nMh.s 			page 24


 829              	.L57:
 830 0030 FF24     		mov	r4, #255
 831 0032 00E0     		b	.L56
 832              	.L58:
 168:.\ssd1306.c   ****         }
 833              		.loc 1 168 0
 834 0034 0024     		mov	r4, #0
 835              	.L56:
 836              	.LVL109:
 171:.\ssd1306.c   **** 
 837              		.loc 1 171 0
 838 0036 FFF7FEFF 		bl	I2COLED_I2CMasterClearStatus
 839              	.LVL110:
 174:.\ssd1306.c   **** 
 840              		.loc 1 174 0
 841 003a 201C     		mov	r0, r4
 842              		@ sp needed
 843              	.LVL111:
 844 003c 10BD     		pop	{r4, pc}
 845              	.L60:
 846 003e C046     		.align	2
 847              	.L59:
 848 0040 00000000 		.word	.LANCHOR1
 849              		.cfi_endproc
 850              	.LFE35:
 851              		.size	display_write_buf, .-display_write_buf
 852              		.section	.text.display_clear,"ax",%progbits
 853              		.align	2
 854              		.global	display_clear
 855              		.code	16
 856              		.thumb_func
 857              		.type	display_clear, %function
 858              	display_clear:
 859              	.LFB37:
 197:.\ssd1306.c   ****     memset( _displaybuf, 0, _displaybuf_size );
 860              		.loc 1 197 0
 861              		.cfi_startproc
 862 0000 10B5     		push	{r4, lr}
 863              		.cfi_def_cfa_offset 8
 864              		.cfi_offset 4, -8
 865              		.cfi_offset 14, -4
 198:.\ssd1306.c   ****     SSD1306_buffer[0] = 0x40; // to be sure its there
 866              		.loc 1 198 0
 867 0002 054C     		ldr	r4, .L62
 868 0004 601C     		add	r0, r4, #1
 869 0006 0021     		mov	r1, #0
 870 0008 8022     		mov	r2, #128
 871 000a D200     		lsl	r2, r2, #3
 872 000c FFF7FEFF 		bl	memset
 873              	.LVL112:
 199:.\ssd1306.c   **** }
 874              		.loc 1 199 0
 875 0010 4023     		mov	r3, #64
 876 0012 2370     		strb	r3, [r4]
 200:.\ssd1306.c   **** 
 877              		.loc 1 200 0
 878              		@ sp needed
ARM GAS  C:\Users\User\AppData\Local\Temp\ccQ45nMh.s 			page 25


 879 0014 10BD     		pop	{r4, pc}
 880              	.L63:
 881 0016 C046     		.align	2
 882              	.L62:
 883 0018 00000000 		.word	.LANCHOR0
 884              		.cfi_endproc
 885              	.LFE37:
 886              		.size	display_clear, .-display_clear
 887              		.section	.text.display_contrast,"ax",%progbits
 888              		.align	2
 889              		.global	display_contrast
 890              		.code	16
 891              		.thumb_func
 892              		.type	display_contrast, %function
 893              	display_contrast:
 894              	.LFB38:
 204:.\ssd1306.c   ****         
 895              		.loc 1 204 0
 896              		.cfi_startproc
 897              	.LVL113:
 898 0000 00B5     		push	{lr}
 899              		.cfi_def_cfa_offset 4
 900              		.cfi_offset 14, -4
 901 0002 83B0     		sub	sp, sp, #12
 902              		.cfi_def_cfa_offset 16
 206:.\ssd1306.c   ****         0x00,  
 903              		.loc 1 206 0
 904 0004 01AB     		add	r3, sp, #4
 905 0006 0022     		mov	r2, #0
 906 0008 1A70     		strb	r2, [r3]
 907 000a 8132     		add	r2, r2, #129
 908 000c 5A70     		strb	r2, [r3, #1]
 909 000e 9870     		strb	r0, [r3, #2]
 211:.\ssd1306.c   **** }
 910              		.loc 1 211 0
 911 0010 181C     		mov	r0, r3
 912              	.LVL114:
 913 0012 0321     		mov	r1, #3
 914 0014 FFF7FEFF 		bl	display_write_buf
 915              	.LVL115:
 212:.\ssd1306.c   **** 
 916              		.loc 1 212 0
 917 0018 03B0     		add	sp, sp, #12
 918              		@ sp needed
 919 001a 00BD     		pop	{pc}
 920              		.cfi_endproc
 921              	.LFE38:
 922              		.size	display_contrast, .-display_contrast
 923              		.section	.text.display_invert,"ax",%progbits
 924              		.align	2
 925              		.global	display_invert
 926              		.code	16
 927              		.thumb_func
 928              		.type	display_invert, %function
 929              	display_invert:
 930              	.LFB39:
 216:.\ssd1306.c   **** 
ARM GAS  C:\Users\User\AppData\Local\Temp\ccQ45nMh.s 			page 26


 931              		.loc 1 216 0
 932              		.cfi_startproc
 933              	.LVL116:
 934 0000 00B5     		push	{lr}
 935              		.cfi_def_cfa_offset 4
 936              		.cfi_offset 14, -4
 937 0002 83B0     		sub	sp, sp, #12
 938              		.cfi_def_cfa_offset 16
 218:.\ssd1306.c   ****         0x00,  
 939              		.loc 1 218 0
 940 0004 0022     		mov	r2, #0
 941 0006 01AB     		add	r3, sp, #4
 942 0008 1A70     		strb	r2, [r3]
 222:.\ssd1306.c   ****     display_write_buf( cmdbuf, sizeof(cmdbuf) ); 
 943              		.loc 1 222 0
 944 000a 0028     		cmp	r0, #0
 945 000c 01D0     		beq	.L67
 946 000e A723     		mov	r3, #167
 947 0010 00E0     		b	.L66
 948              	.L67:
 949 0012 A623     		mov	r3, #166
 950              	.L66:
 222:.\ssd1306.c   ****     display_write_buf( cmdbuf, sizeof(cmdbuf) ); 
 951              		.loc 1 222 0 is_stmt 0 discriminator 4
 952 0014 01A8     		add	r0, sp, #4
 953              	.LVL117:
 954 0016 4370     		strb	r3, [r0, #1]
 223:.\ssd1306.c   **** }
 955              		.loc 1 223 0 is_stmt 1 discriminator 4
 956 0018 0221     		mov	r1, #2
 957 001a FFF7FEFF 		bl	display_write_buf
 958              	.LVL118:
 224:.\ssd1306.c   **** 
 959              		.loc 1 224 0 discriminator 4
 960 001e 03B0     		add	sp, sp, #12
 961              		@ sp needed
 962 0020 00BD     		pop	{pc}
 963              		.cfi_endproc
 964              	.LFE39:
 965              		.size	display_invert, .-display_invert
 966 0022 C046     		.section	.text.display_update,"ax",%progbits
 967              		.align	2
 968              		.global	display_update
 969              		.code	16
 970              		.thumb_func
 971              		.type	display_update, %function
 972              	display_update:
 973              	.LFB40:
 227:.\ssd1306.c   ****       
 974              		.loc 1 227 0
 975              		.cfi_startproc
 976 0000 00B5     		push	{lr}
 977              		.cfi_def_cfa_offset 4
 978              		.cfi_offset 14, -4
 979 0002 83B0     		sub	sp, sp, #12
 980              		.cfi_def_cfa_offset 16
 229:.\ssd1306.c   ****         0x00,
ARM GAS  C:\Users\User\AppData\Local\Temp\ccQ45nMh.s 			page 27


 981              		.loc 1 229 0
 982 0004 6846     		mov	r0, sp
 983 0006 0749     		ldr	r1, .L69
 984 0008 0722     		mov	r2, #7
 985 000a FFF7FEFF 		bl	memcpy
 986              	.LVL119:
 238:.\ssd1306.c   ****     display_write_buf( SSD1306_buffer, sizeof(SSD1306_buffer) );
 987              		.loc 1 238 0
 988 000e 6846     		mov	r0, sp
 989 0010 0721     		mov	r1, #7
 990 0012 FFF7FEFF 		bl	display_write_buf
 991              	.LVL120:
 239:.\ssd1306.c   **** }
 992              		.loc 1 239 0
 993 0016 0448     		ldr	r0, .L69+4
 994 0018 0449     		ldr	r1, .L69+8
 995 001a FFF7FEFF 		bl	display_write_buf
 996              	.LVL121:
 240:.\ssd1306.c   **** 
 997              		.loc 1 240 0
 998 001e 03B0     		add	sp, sp, #12
 999              		@ sp needed
 1000 0020 00BD     		pop	{pc}
 1001              	.L70:
 1002 0022 C046     		.align	2
 1003              	.L69:
 1004 0024 00000000 		.word	.LANCHOR2
 1005 0028 00000000 		.word	.LANCHOR0
 1006 002c 01040000 		.word	1025
 1007              		.cfi_endproc
 1008              	.LFE40:
 1009              		.size	display_update, .-display_update
 1010              		.section	.text.display_stopscroll,"ax",%progbits
 1011              		.align	2
 1012              		.global	display_stopscroll
 1013              		.code	16
 1014              		.thumb_func
 1015              		.type	display_stopscroll, %function
 1016              	display_stopscroll:
 1017              	.LFB42:
 307:.\ssd1306.c   **** 
 1018              		.loc 1 307 0
 1019              		.cfi_startproc
 1020 0000 00B5     		push	{lr}
 1021              		.cfi_def_cfa_offset 4
 1022              		.cfi_offset 14, -4
 1023 0002 83B0     		sub	sp, sp, #12
 1024              		.cfi_def_cfa_offset 16
 309:.\ssd1306.c   ****         0x00,
 1025              		.loc 1 309 0
 1026 0004 01A8     		add	r0, sp, #4
 1027 0006 0023     		mov	r3, #0
 1028 0008 0370     		strb	r3, [r0]
 1029 000a 2E33     		add	r3, r3, #46
 1030 000c 4370     		strb	r3, [r0, #1]
 313:.\ssd1306.c   **** }
 1031              		.loc 1 313 0
ARM GAS  C:\Users\User\AppData\Local\Temp\ccQ45nMh.s 			page 28


 1032 000e 0221     		mov	r1, #2
 1033 0010 FFF7FEFF 		bl	display_write_buf
 1034              	.LVL122:
 314:.\ssd1306.c   **** 
 1035              		.loc 1 314 0
 1036 0014 03B0     		add	sp, sp, #12
 1037              		@ sp needed
 1038 0016 00BD     		pop	{pc}
 1039              		.cfi_endproc
 1040              	.LFE42:
 1041              		.size	display_stopscroll, .-display_stopscroll
 1042              		.section	.text.display_scroll,"ax",%progbits
 1043              		.align	2
 1044              		.global	display_scroll
 1045              		.code	16
 1046              		.thumb_func
 1047              		.type	display_scroll, %function
 1048              	display_scroll:
 1049              	.LFB43:
 316:.\ssd1306.c   ****    
 1050              		.loc 1 316 0
 1051              		.cfi_startproc
 1052              	.LVL123:
 1053 0000 30B5     		push	{r4, r5, lr}
 1054              		.cfi_def_cfa_offset 12
 1055              		.cfi_offset 4, -12
 1056              		.cfi_offset 5, -8
 1057              		.cfi_offset 14, -4
 1058 0002 85B0     		sub	sp, sp, #20
 1059              		.cfi_def_cfa_offset 32
 318:.\ssd1306.c   ****         0x00,
 1060              		.loc 1 318 0
 1061 0004 01AC     		add	r4, sp, #4
 1062 0006 0025     		mov	r5, #0
 1063 0008 2570     		strb	r5, [r4]
 1064 000a 6270     		strb	r2, [r4, #1]
 1065 000c A570     		strb	r5, [r4, #2]
 1066 000e E070     		strb	r0, [r4, #3]
 1067 0010 2371     		strb	r3, [r4, #4]
 1068 0012 6171     		strb	r1, [r4, #5]
 1069 0014 A571     		strb	r5, [r4, #6]
 1070 0016 FF23     		mov	r3, #255
 1071              	.LVL124:
 1072 0018 E371     		strb	r3, [r4, #7]
 1073 001a D03B     		sub	r3, r3, #208
 1074 001c 2372     		strb	r3, [r4, #8]
 329:.\ssd1306.c   **** }
 1075              		.loc 1 329 0
 1076 001e 201C     		mov	r0, r4
 1077              	.LVL125:
 1078 0020 0921     		mov	r1, #9
 1079              	.LVL126:
 1080 0022 FFF7FEFF 		bl	display_write_buf
 1081              	.LVL127:
 330:.\ssd1306.c   **** 
 1082              		.loc 1 330 0
 1083 0026 05B0     		add	sp, sp, #20
ARM GAS  C:\Users\User\AppData\Local\Temp\ccQ45nMh.s 			page 29


 1084              		@ sp needed
 1085 0028 30BD     		pop	{r4, r5, pc}
 1086              		.cfi_endproc
 1087              	.LFE43:
 1088              		.size	display_scroll, .-display_scroll
 1089 002a C046     		.section	.text.gfx_init,"ax",%progbits
 1090              		.align	2
 1091              		.global	gfx_init
 1092              		.code	16
 1093              		.thumb_func
 1094              		.type	gfx_init, %function
 1095              	gfx_init:
 1096              	.LFB44:
 347:.\ssd1306.c   ****     WIDTH = width;
 1097              		.loc 1 347 0
 1098              		.cfi_startproc
 1099              	.LVL128:
 348:.\ssd1306.c   ****     HEIGHT = height;
 1100              		.loc 1 348 0
 1101 0000 0A4B     		ldr	r3, .L74
 1102 0002 1880     		strh	r0, [r3]
 349:.\ssd1306.c   ****     _width = WIDTH;
 1103              		.loc 1 349 0
 1104 0004 0A4B     		ldr	r3, .L74+4
 1105 0006 1980     		strh	r1, [r3]
 350:.\ssd1306.c   ****     _height = HEIGHT;
 1106              		.loc 1 350 0
 1107 0008 0A4B     		ldr	r3, .L74+8
 1108 000a 5880     		strh	r0, [r3, #2]
 351:.\ssd1306.c   ****     
 1109              		.loc 1 351 0
 1110 000c 9980     		strh	r1, [r3, #4]
 353:.\ssd1306.c   ****     cursor_y = cursor_x = 0;
 1111              		.loc 1 353 0
 1112 000e 0022     		mov	r2, #0
 1113 0010 0949     		ldr	r1, .L74+12
 1114              	.LVL129:
 1115 0012 0A70     		strb	r2, [r1]
 354:.\ssd1306.c   ****     textsize = 1;
 1116              		.loc 1 354 0
 1117 0014 DA80     		strh	r2, [r3, #6]
 1118 0016 1A81     		strh	r2, [r3, #8]
 355:.\ssd1306.c   ****     textcolor = textbgcolor = 0xFFFF;
 1119              		.loc 1 355 0
 1120 0018 0132     		add	r2, r2, #1
 1121 001a 9A72     		strb	r2, [r3, #10]
 356:.\ssd1306.c   ****     wrap = 1;
 1122              		.loc 1 356 0
 1123 001c 0121     		mov	r1, #1
 1124 001e 4942     		neg	r1, r1
 1125 0020 9981     		strh	r1, [r3, #12]
 1126 0022 D981     		strh	r1, [r3, #14]
 357:.\ssd1306.c   **** }
 1127              		.loc 1 357 0
 1128 0024 054B     		ldr	r3, .L74+16
 1129 0026 1A70     		strb	r2, [r3]
 358:.\ssd1306.c   **** 
ARM GAS  C:\Users\User\AppData\Local\Temp\ccQ45nMh.s 			page 30


 1130              		.loc 1 358 0
 1131              		@ sp needed
 1132 0028 7047     		bx	lr
 1133              	.L75:
 1134 002a C046     		.align	2
 1135              	.L74:
 1136 002c 00000000 		.word	WIDTH
 1137 0030 00000000 		.word	HEIGHT
 1138 0034 00000000 		.word	.LANCHOR1
 1139 0038 00000000 		.word	rotation
 1140 003c 00000000 		.word	wrap
 1141              		.cfi_endproc
 1142              	.LFE44:
 1143              		.size	gfx_init, .-gfx_init
 1144              		.section	.text.display_init,"ax",%progbits
 1145              		.align	2
 1146              		.global	display_init
 1147              		.code	16
 1148              		.thumb_func
 1149              		.type	display_init, %function
 1150              	display_init:
 1151              	.LFB34:
 116:.\ssd1306.c   ****     
 1152              		.loc 1 116 0
 1153              		.cfi_startproc
 1154              	.LVL130:
 1155 0000 00B5     		push	{lr}
 1156              		.cfi_def_cfa_offset 4
 1157              		.cfi_offset 14, -4
 1158 0002 89B0     		sub	sp, sp, #36
 1159              		.cfi_def_cfa_offset 40
 118:.\ssd1306.c   ****     gfx_init( DISPLAYWIDTH, DISPLAYHEIGHT );
 1160              		.loc 1 118 0
 1161 0004 084B     		ldr	r3, .L77
 1162 0006 1870     		strb	r0, [r3]
 119:.\ssd1306.c   ****     
 1163              		.loc 1 119 0
 1164 0008 8020     		mov	r0, #128
 1165              	.LVL131:
 1166 000a 4021     		mov	r1, #64
 1167 000c FFF7FEFF 		bl	gfx_init
 1168              	.LVL132:
 121:.\ssd1306.c   ****         0x00,
 1169              		.loc 1 121 0
 1170 0010 01A8     		add	r0, sp, #4
 1171 0012 0649     		ldr	r1, .L77+4
 1172 0014 0831     		add	r1, r1, #8
 1173 0016 1A22     		mov	r2, #26
 1174 0018 FFF7FEFF 		bl	memcpy
 1175              	.LVL133:
 150:.\ssd1306.c   **** }
 1176              		.loc 1 150 0
 1177 001c 01A8     		add	r0, sp, #4
 1178 001e 1A21     		mov	r1, #26
 1179 0020 FFF7FEFF 		bl	display_write_buf
 1180              	.LVL134:
 151:.\ssd1306.c   **** 
ARM GAS  C:\Users\User\AppData\Local\Temp\ccQ45nMh.s 			page 31


 1181              		.loc 1 151 0
 1182 0024 09B0     		add	sp, sp, #36
 1183              		@ sp needed
 1184 0026 00BD     		pop	{pc}
 1185              	.L78:
 1186              		.align	2
 1187              	.L77:
 1188 0028 00000000 		.word	.LANCHOR1
 1189 002c 00000000 		.word	.LANCHOR2
 1190              		.cfi_endproc
 1191              	.LFE34:
 1192              		.size	display_init, .-display_init
 1193              		.section	.text.gfx_width,"ax",%progbits
 1194              		.align	2
 1195              		.global	gfx_width
 1196              		.code	16
 1197              		.thumb_func
 1198              		.type	gfx_width, %function
 1199              	gfx_width:
 1200              	.LFB45:
 361:.\ssd1306.c   ****     return _width;
 1201              		.loc 1 361 0
 1202              		.cfi_startproc
 362:.\ssd1306.c   **** }
 1203              		.loc 1 362 0
 1204 0000 014B     		ldr	r3, .L80
 1205 0002 0220     		mov	r0, #2
 1206 0004 185E     		ldrsh	r0, [r3, r0]
 363:.\ssd1306.c   **** 
 1207              		.loc 1 363 0
 1208              		@ sp needed
 1209 0006 7047     		bx	lr
 1210              	.L81:
 1211              		.align	2
 1212              	.L80:
 1213 0008 00000000 		.word	.LANCHOR1
 1214              		.cfi_endproc
 1215              	.LFE45:
 1216              		.size	gfx_width, .-gfx_width
 1217              		.section	.text.gfx_height,"ax",%progbits
 1218              		.align	2
 1219              		.global	gfx_height
 1220              		.code	16
 1221              		.thumb_func
 1222              		.type	gfx_height, %function
 1223              	gfx_height:
 1224              	.LFB46:
 365:.\ssd1306.c   ****     return _height;
 1225              		.loc 1 365 0
 1226              		.cfi_startproc
 366:.\ssd1306.c   **** }
 1227              		.loc 1 366 0
 1228 0000 014B     		ldr	r3, .L83
 1229 0002 0420     		mov	r0, #4
 1230 0004 185E     		ldrsh	r0, [r3, r0]
 367:.\ssd1306.c   **** 
 1231              		.loc 1 367 0
ARM GAS  C:\Users\User\AppData\Local\Temp\ccQ45nMh.s 			page 32


 1232              		@ sp needed
 1233 0006 7047     		bx	lr
 1234              	.L84:
 1235              		.align	2
 1236              	.L83:
 1237 0008 00000000 		.word	.LANCHOR1
 1238              		.cfi_endproc
 1239              	.LFE46:
 1240              		.size	gfx_height, .-gfx_height
 1241              		.section	.text.gfx_rotation,"ax",%progbits
 1242              		.align	2
 1243              		.global	gfx_rotation
 1244              		.code	16
 1245              		.thumb_func
 1246              		.type	gfx_rotation, %function
 1247              	gfx_rotation:
 1248              	.LFB47:
 369:.\ssd1306.c   ****     return rotation;
 1249              		.loc 1 369 0
 1250              		.cfi_startproc
 370:.\ssd1306.c   **** }
 1251              		.loc 1 370 0
 1252 0000 014B     		ldr	r3, .L86
 1253 0002 1878     		ldrb	r0, [r3]
 371:.\ssd1306.c   **** 
 1254              		.loc 1 371 0
 1255              		@ sp needed
 1256 0004 7047     		bx	lr
 1257              	.L87:
 1258 0006 C046     		.align	2
 1259              	.L86:
 1260 0008 00000000 		.word	rotation
 1261              		.cfi_endproc
 1262              	.LFE47:
 1263              		.size	gfx_rotation, .-gfx_rotation
 1264              		.section	.text.gfx_setCursor,"ax",%progbits
 1265              		.align	2
 1266              		.global	gfx_setCursor
 1267              		.code	16
 1268              		.thumb_func
 1269              		.type	gfx_setCursor, %function
 1270              	gfx_setCursor:
 1271              	.LFB48:
 373:.\ssd1306.c   ****     cursor_x = x;
 1272              		.loc 1 373 0
 1273              		.cfi_startproc
 1274              	.LVL135:
 374:.\ssd1306.c   ****     cursor_y = y;
 1275              		.loc 1 374 0
 1276 0000 014B     		ldr	r3, .L89
 1277 0002 D880     		strh	r0, [r3, #6]
 375:.\ssd1306.c   **** }
 1278              		.loc 1 375 0
 1279 0004 1981     		strh	r1, [r3, #8]
 376:.\ssd1306.c   **** 
 1280              		.loc 1 376 0
 1281              		@ sp needed
ARM GAS  C:\Users\User\AppData\Local\Temp\ccQ45nMh.s 			page 33


 1282 0006 7047     		bx	lr
 1283              	.L90:
 1284              		.align	2
 1285              	.L89:
 1286 0008 00000000 		.word	.LANCHOR1
 1287              		.cfi_endproc
 1288              	.LFE48:
 1289              		.size	gfx_setCursor, .-gfx_setCursor
 1290              		.section	.text.gfx_setTextSize,"ax",%progbits
 1291              		.align	2
 1292              		.global	gfx_setTextSize
 1293              		.code	16
 1294              		.thumb_func
 1295              		.type	gfx_setTextSize, %function
 1296              	gfx_setTextSize:
 1297              	.LFB49:
 378:.\ssd1306.c   ****     textsize = (size > 0) ? size : 1;
 1298              		.loc 1 378 0
 1299              		.cfi_startproc
 1300              	.LVL136:
 379:.\ssd1306.c   **** }
 1301              		.loc 1 379 0
 1302 0000 0028     		cmp	r0, #0
 1303 0002 00D1     		bne	.L92
 1304 0004 0130     		add	r0, r0, #1
 1305              	.LVL137:
 1306              	.L92:
 379:.\ssd1306.c   **** }
 1307              		.loc 1 379 0 is_stmt 0 discriminator 4
 1308 0006 014B     		ldr	r3, .L94
 1309 0008 9872     		strb	r0, [r3, #10]
 380:.\ssd1306.c   **** 
 1310              		.loc 1 380 0 is_stmt 1 discriminator 4
 1311              		@ sp needed
 1312 000a 7047     		bx	lr
 1313              	.L95:
 1314              		.align	2
 1315              	.L94:
 1316 000c 00000000 		.word	.LANCHOR1
 1317              		.cfi_endproc
 1318              	.LFE49:
 1319              		.size	gfx_setTextSize, .-gfx_setTextSize
 1320              		.section	.text.gfx_setTextColor,"ax",%progbits
 1321              		.align	2
 1322              		.global	gfx_setTextColor
 1323              		.code	16
 1324              		.thumb_func
 1325              		.type	gfx_setTextColor, %function
 1326              	gfx_setTextColor:
 1327              	.LFB50:
 382:.\ssd1306.c   ****     // For 'transparent' background, we'll set the bg
 1328              		.loc 1 382 0
 1329              		.cfi_startproc
 1330              	.LVL138:
 385:.\ssd1306.c   **** }
 1331              		.loc 1 385 0
 1332 0000 014B     		ldr	r3, .L97
ARM GAS  C:\Users\User\AppData\Local\Temp\ccQ45nMh.s 			page 34


 1333 0002 9881     		strh	r0, [r3, #12]
 1334 0004 D881     		strh	r0, [r3, #14]
 386:.\ssd1306.c   **** 
 1335              		.loc 1 386 0
 1336              		@ sp needed
 1337 0006 7047     		bx	lr
 1338              	.L98:
 1339              		.align	2
 1340              	.L97:
 1341 0008 00000000 		.word	.LANCHOR1
 1342              		.cfi_endproc
 1343              	.LFE50:
 1344              		.size	gfx_setTextColor, .-gfx_setTextColor
 1345              		.section	.text.gfx_setTextBg,"ax",%progbits
 1346              		.align	2
 1347              		.global	gfx_setTextBg
 1348              		.code	16
 1349              		.thumb_func
 1350              		.type	gfx_setTextBg, %function
 1351              	gfx_setTextBg:
 1352              	.LFB51:
 388:.\ssd1306.c   ****     textbgcolor = color;
 1353              		.loc 1 388 0
 1354              		.cfi_startproc
 1355              	.LVL139:
 389:.\ssd1306.c   **** }
 1356              		.loc 1 389 0
 1357 0000 014B     		ldr	r3, .L100
 1358 0002 9881     		strh	r0, [r3, #12]
 390:.\ssd1306.c   **** 
 1359              		.loc 1 390 0
 1360              		@ sp needed
 1361 0004 7047     		bx	lr
 1362              	.L101:
 1363 0006 C046     		.align	2
 1364              	.L100:
 1365 0008 00000000 		.word	.LANCHOR1
 1366              		.cfi_endproc
 1367              	.LFE51:
 1368              		.size	gfx_setTextBg, .-gfx_setTextBg
 1369              		.section	.text.gfx_setTextWrap,"ax",%progbits
 1370              		.align	2
 1371              		.global	gfx_setTextWrap
 1372              		.code	16
 1373              		.thumb_func
 1374              		.type	gfx_setTextWrap, %function
 1375              	gfx_setTextWrap:
 1376              	.LFB52:
 392:.\ssd1306.c   ****     wrap = w;
 1377              		.loc 1 392 0
 1378              		.cfi_startproc
 1379              	.LVL140:
 393:.\ssd1306.c   **** }
 1380              		.loc 1 393 0
 1381 0000 014B     		ldr	r3, .L103
 1382 0002 1870     		strb	r0, [r3]
 394:.\ssd1306.c   **** 
ARM GAS  C:\Users\User\AppData\Local\Temp\ccQ45nMh.s 			page 35


 1383              		.loc 1 394 0
 1384              		@ sp needed
 1385 0004 7047     		bx	lr
 1386              	.L104:
 1387 0006 C046     		.align	2
 1388              	.L103:
 1389 0008 00000000 		.word	wrap
 1390              		.cfi_endproc
 1391              	.LFE52:
 1392              		.size	gfx_setTextWrap, .-gfx_setTextWrap
 1393              		.section	.text.gfx_setRotation,"ax",%progbits
 1394              		.align	2
 1395              		.global	gfx_setRotation
 1396              		.code	16
 1397              		.thumb_func
 1398              		.type	gfx_setRotation, %function
 1399              	gfx_setRotation:
 1400              	.LFB53:
 396:.\ssd1306.c   ****     
 1401              		.loc 1 396 0
 1402              		.cfi_startproc
 1403              	.LVL141:
 398:.\ssd1306.c   ****     switch( rotation ){
 1404              		.loc 1 398 0
 1405 0000 0323     		mov	r3, #3
 1406 0002 1840     		and	r0, r3
 1407              	.LVL142:
 1408 0004 0D4B     		ldr	r3, .L109
 1409 0006 1870     		strb	r0, [r3]
 399:.\ssd1306.c   ****         case 0:
 1410              		.loc 1 399 0
 1411 0008 0128     		cmp	r0, #1
 1412 000a 0ED0     		beq	.L107
 1413 000c 0028     		cmp	r0, #0
 1414 000e 04D0     		beq	.L108
 1415 0010 0228     		cmp	r0, #2
 1416 0012 02D0     		beq	.L108
 1417 0014 0328     		cmp	r0, #3
 1418 0016 0FD1     		bne	.L105
 1419 0018 07E0     		b	.L107
 1420              	.L108:
 402:.\ssd1306.c   ****             _height = HEIGHT;
 1421              		.loc 1 402 0
 1422 001a 094B     		ldr	r3, .L109+4
 1423 001c 094A     		ldr	r2, .L109+8
 1424 001e 1288     		ldrh	r2, [r2]
 1425 0020 5A80     		strh	r2, [r3, #2]
 403:.\ssd1306.c   ****             break;
 1426              		.loc 1 403 0
 1427 0022 094A     		ldr	r2, .L109+12
 1428 0024 1288     		ldrh	r2, [r2]
 1429 0026 9A80     		strh	r2, [r3, #4]
 404:.\ssd1306.c   ****         case 1:
 1430              		.loc 1 404 0
 1431 0028 06E0     		b	.L105
 1432              	.L107:
 407:.\ssd1306.c   ****             _height = WIDTH;
ARM GAS  C:\Users\User\AppData\Local\Temp\ccQ45nMh.s 			page 36


 1433              		.loc 1 407 0
 1434 002a 054B     		ldr	r3, .L109+4
 1435 002c 064A     		ldr	r2, .L109+12
 1436 002e 1288     		ldrh	r2, [r2]
 1437 0030 5A80     		strh	r2, [r3, #2]
 408:.\ssd1306.c   ****         break;
 1438              		.loc 1 408 0
 1439 0032 044A     		ldr	r2, .L109+8
 1440 0034 1288     		ldrh	r2, [r2]
 1441 0036 9A80     		strh	r2, [r3, #4]
 1442              	.L105:
 411:.\ssd1306.c   **** 
 1443              		.loc 1 411 0
 1444              		@ sp needed
 1445 0038 7047     		bx	lr
 1446              	.L110:
 1447 003a C046     		.align	2
 1448              	.L109:
 1449 003c 00000000 		.word	rotation
 1450 0040 00000000 		.word	.LANCHOR1
 1451 0044 00000000 		.word	WIDTH
 1452 0048 00000000 		.word	HEIGHT
 1453              		.cfi_endproc
 1454              	.LFE53:
 1455              		.size	gfx_setRotation, .-gfx_setRotation
 1456              		.section	.text.gfx_drawPixel,"ax",%progbits
 1457              		.align	2
 1458              		.global	gfx_drawPixel
 1459              		.code	16
 1460              		.thumb_func
 1461              		.type	gfx_drawPixel, %function
 1462              	gfx_drawPixel:
 1463              	.LFB55:
 433:.\ssd1306.c   ****     
 1464              		.loc 1 433 0
 1465              		.cfi_startproc
 1466              	.LVL143:
 1467 0000 70B5     		push	{r4, r5, r6, lr}
 1468              		.cfi_def_cfa_offset 16
 1469              		.cfi_offset 4, -16
 1470              		.cfi_offset 5, -12
 1471              		.cfi_offset 6, -8
 1472              		.cfi_offset 14, -4
 1473 0002 82B0     		sub	sp, sp, #8
 1474              		.cfi_def_cfa_offset 24
 1475 0004 141C     		mov	r4, r2
 1476 0006 6B46     		mov	r3, sp
 1477 0008 D880     		strh	r0, [r3, #6]
 1478 000a 01AB     		add	r3, sp, #4
 1479 000c 1980     		strh	r1, [r3]
 435:.\ssd1306.c   ****         return;
 1480              		.loc 1 435 0
 1481 000e 83B2     		uxth	r3, r0
 1482 0010 0028     		cmp	r0, #0
 1483 0012 1EDB     		blt	.L111
 435:.\ssd1306.c   ****         return;
 1484              		.loc 1 435 0 is_stmt 0 discriminator 1
ARM GAS  C:\Users\User\AppData\Local\Temp\ccQ45nMh.s 			page 37


 1485 0014 1BB2     		sxth	r3, r3
 1486 0016 104A     		ldr	r2, .L113
 1487              	.LVL144:
 1488 0018 0221     		mov	r1, #2
 1489 001a 525E     		ldrsh	r2, [r2, r1]
 1490              	.LVL145:
 1491 001c 9342     		cmp	r3, r2
 1492 001e 18DA     		bge	.L111
 435:.\ssd1306.c   ****         return;
 1493              		.loc 1 435 0 discriminator 2
 1494 0020 01AB     		add	r3, sp, #4
 1495              	.LVL146:
 1496 0022 1B88     		ldrh	r3, [r3]
 1497              	.LVL147:
 1498 0024 1AB2     		sxth	r2, r3
 1499 0026 002A     		cmp	r2, #0
 1500 0028 13DB     		blt	.L111
 435:.\ssd1306.c   ****         return;
 1501              		.loc 1 435 0 discriminator 3
 1502 002a 131C     		mov	r3, r2
 1503 002c 0A4A     		ldr	r2, .L113
 1504 002e 0421     		mov	r1, #4
 1505 0030 525E     		ldrsh	r2, [r2, r1]
 1506 0032 9342     		cmp	r3, r2
 1507 0034 0DDA     		bge	.L111
 438:.\ssd1306.c   **** 
 1508              		.loc 1 438 0 is_stmt 1
 1509 0036 6B46     		mov	r3, sp
 1510 0038 9E1D     		add	r6, r3, #6
 1511 003a 01AD     		add	r5, sp, #4
 1512              	.LVL148:
 1513 003c 301C     		mov	r0, r6
 1514              	.LVL149:
 1515 003e 291C     		mov	r1, r5
 1516 0040 FFF7FEFF 		bl	gfx_rotation_adjust
 1517              	.LVL150:
 440:.\ssd1306.c   **** }
 1518              		.loc 1 440 0
 1519 0044 0023     		mov	r3, #0
 1520 0046 F05E     		ldrsh	r0, [r6, r3]
 1521 0048 0023     		mov	r3, #0
 1522 004a E95E     		ldrsh	r1, [r5, r3]
 1523 004c 221C     		mov	r2, r4
 1524 004e FFF7FEFF 		bl	display_setPixel
 1525              	.LVL151:
 1526              	.L111:
 441:.\ssd1306.c   **** 
 1527              		.loc 1 441 0
 1528 0052 02B0     		add	sp, sp, #8
 1529              	.LVL152:
 1530              		@ sp needed
 1531 0054 70BD     		pop	{r4, r5, r6, pc}
 1532              	.L114:
 1533 0056 C046     		.align	2
 1534              	.L113:
 1535 0058 00000000 		.word	.LANCHOR1
 1536              		.cfi_endproc
ARM GAS  C:\Users\User\AppData\Local\Temp\ccQ45nMh.s 			page 38


 1537              	.LFE55:
 1538              		.size	gfx_drawPixel, .-gfx_drawPixel
 1539              		.section	.text.gfx_drawLine,"ax",%progbits
 1540              		.align	2
 1541              		.global	gfx_drawLine
 1542              		.code	16
 1543              		.thumb_func
 1544              		.type	gfx_drawLine, %function
 1545              	gfx_drawLine:
 1546              	.LFB57:
 476:.\ssd1306.c   **** 
 477:.\ssd1306.c   **** // always use this function for line drawing
 478:.\ssd1306.c   **** void gfx_drawLine( int16_t x0, int16_t y0, int16_t x1, int16_t y1, uint16_t color ){
 1547              		.loc 1 478 0
 1548              		.cfi_startproc
 1549              	.LVL153:
 1550 0000 F0B5     		push	{r4, r5, r6, r7, lr}
 1551              		.cfi_def_cfa_offset 20
 1552              		.cfi_offset 4, -20
 1553              		.cfi_offset 5, -16
 1554              		.cfi_offset 6, -12
 1555              		.cfi_offset 7, -8
 1556              		.cfi_offset 14, -4
 1557 0002 5F46     		mov	r7, fp
 1558 0004 5646     		mov	r6, r10
 1559 0006 4D46     		mov	r5, r9
 1560 0008 4446     		mov	r4, r8
 1561 000a F0B4     		push	{r4, r5, r6, r7}
 1562              		.cfi_def_cfa_offset 36
 1563              		.cfi_offset 8, -36
 1564              		.cfi_offset 9, -32
 1565              		.cfi_offset 10, -28
 1566              		.cfi_offset 11, -24
 1567 000c 85B0     		sub	sp, sp, #20
 1568              		.cfi_def_cfa_offset 56
 1569 000e 041C     		mov	r4, r0
 1570 0010 0E1C     		mov	r6, r1
 1571 0012 171C     		mov	r7, r2
 1572 0014 0EAA     		add	r2, sp, #56
 1573              	.LVL154:
 1574 0016 1288     		ldrh	r2, [r2]
 1575              	.LVL155:
 1576 0018 0392     		str	r2, [sp, #12]
 479:.\ssd1306.c   ****  
 480:.\ssd1306.c   ****     if( x0 == x1 || y0 == y1 ){
 1577              		.loc 1 480 0
 1578 001a B842     		cmp	r0, r7
 1579 001c 01D0     		beq	.L116
 1580              		.loc 1 480 0 is_stmt 0 discriminator 1
 1581 001e 9942     		cmp	r1, r3
 1582 0020 07D1     		bne	.L117
 1583              	.L116:
 481:.\ssd1306.c   ****         // vertical and horizontal lines can be drawn faster
 482:.\ssd1306.c   ****         gfx_hvLine( x0, y0, x1, y1, color );
 1584              		.loc 1 482 0 is_stmt 1
 1585 0022 039A     		ldr	r2, [sp, #12]
 1586 0024 0092     		str	r2, [sp]
ARM GAS  C:\Users\User\AppData\Local\Temp\ccQ45nMh.s 			page 39


 1587 0026 201C     		mov	r0, r4
 1588              	.LVL156:
 1589 0028 311C     		mov	r1, r6
 1590              	.LVL157:
 1591 002a 3A1C     		mov	r2, r7
 1592 002c FFF7FEFF 		bl	gfx_hvLine
 1593              	.LVL158:
 483:.\ssd1306.c   ****         return;
 1594              		.loc 1 483 0
 1595 0030 51E0     		b	.L115
 1596              	.LVL159:
 1597              	.L117:
 484:.\ssd1306.c   ****     }
 485:.\ssd1306.c   ****     
 486:.\ssd1306.c   ****     int16_t t;
 487:.\ssd1306.c   ****     
 488:.\ssd1306.c   ****     int16_t steep = abs(y1 - y0) > abs(x1 - x0);
 1598              		.loc 1 488 0
 1599 0032 581A     		sub	r0, r3, r1
 1600              	.LVL160:
 1601 0034 C217     		asr	r2, r0, #31
 1602 0036 8018     		add	r0, r0, r2
 1603 0038 5040     		eor	r0, r2
 1604 003a 391B     		sub	r1, r7, r4
 1605              	.LVL161:
 1606 003c CA17     		asr	r2, r1, #31
 1607 003e 8918     		add	r1, r1, r2
 1608 0040 5140     		eor	r1, r2
 1609 0042 0122     		mov	r2, #1
 1610 0044 8842     		cmp	r0, r1
 1611 0046 00DC     		bgt	.L119
 1612 0048 0022     		mov	r2, #0
 1613              	.L119:
 1614 004a D2B2     		uxtb	r2, r2
 1615 004c 92B2     		uxth	r2, r2
 1616 004e 9046     		mov	r8, r2
 1617              	.LVL162:
 489:.\ssd1306.c   ****     if( steep ){
 1618              		.loc 1 489 0
 1619 0050 002A     		cmp	r2, #0
 1620 0052 05D0     		beq	.L120
 1621 0054 3A1C     		mov	r2, r7
 1622              	.LVL163:
 490:.\ssd1306.c   ****         t = x0; x0 = y0; y0 = t;
 491:.\ssd1306.c   ****         t = x1; x1 = y1; y1 = t;
 1623              		.loc 1 491 0
 1624 0056 1F1C     		mov	r7, r3
 1625 0058 131C     		mov	r3, r2
 1626              	.LVL164:
 1627 005a 221C     		mov	r2, r4
 490:.\ssd1306.c   ****         t = x0; x0 = y0; y0 = t;
 1628              		.loc 1 490 0
 1629 005c 341C     		mov	r4, r6
 1630 005e 161C     		mov	r6, r2
 1631              	.L120:
 1632              	.LVL165:
 492:.\ssd1306.c   ****     }
ARM GAS  C:\Users\User\AppData\Local\Temp\ccQ45nMh.s 			page 40


 493:.\ssd1306.c   ****     if( x0 > x1 ){
 1633              		.loc 1 493 0
 1634 0060 BC42     		cmp	r4, r7
 1635 0062 05DD     		ble	.L121
 1636 0064 321C     		mov	r2, r6
 494:.\ssd1306.c   ****         t = x0; x0 = x1; x1 = t;
 495:.\ssd1306.c   ****         t = y0; y0 = y1; y1 = t;
 1637              		.loc 1 495 0
 1638 0066 1E1C     		mov	r6, r3
 1639              	.LVL166:
 1640 0068 131C     		mov	r3, r2
 1641              	.LVL167:
 1642 006a 221C     		mov	r2, r4
 494:.\ssd1306.c   ****         t = x0; x0 = x1; x1 = t;
 1643              		.loc 1 494 0
 1644 006c 3C1C     		mov	r4, r7
 1645              	.LVL168:
 1646 006e 171C     		mov	r7, r2
 1647              	.LVL169:
 1648              	.L121:
 496:.\ssd1306.c   ****     }
 497:.\ssd1306.c   ****     int16_t dx, dy;
 498:.\ssd1306.c   ****     dx = x1 - x0;
 1649              		.loc 1 498 0
 1650 0070 3A1B     		sub	r2, r7, r4
 1651 0072 92B2     		uxth	r2, r2
 1652 0074 9246     		mov	r10, r2
 1653              	.LVL170:
 499:.\ssd1306.c   ****     dy = abs(y1 - y0);
 1654              		.loc 1 499 0
 1655 0076 9A1B     		sub	r2, r3, r6
 1656 0078 D117     		asr	r1, r2, #31
 1657 007a 5218     		add	r2, r2, r1
 1658 007c 4A40     		eor	r2, r1
 1659 007e 9146     		mov	r9, r2
 1660              	.LVL171:
 500:.\ssd1306.c   ****     int16_t err = dx / 2;
 1661              		.loc 1 500 0
 1662 0080 5246     		mov	r2, r10
 1663 0082 12B2     		sxth	r2, r2
 1664 0084 D50F     		lsr	r5, r2, #31
 1665 0086 AA18     		add	r2, r5, r2
 1666 0088 5210     		asr	r2, r2, #1
 1667 008a 95B2     		uxth	r5, r2
 1668              	.LVL172:
 501:.\ssd1306.c   ****     int16_t ystep;
 502:.\ssd1306.c   ****     if( y0 < y1 ){
 1669              		.loc 1 502 0
 1670 008c 9E42     		cmp	r6, r3
 1671 008e 02DA     		bge	.L130
 503:.\ssd1306.c   ****         ystep = 1;
 1672              		.loc 1 503 0
 1673 0090 0123     		mov	r3, #1
 1674              	.LVL173:
 1675 0092 9B46     		mov	fp, r3
 1676 0094 1DE0     		b	.L123
 1677              	.LVL174:
ARM GAS  C:\Users\User\AppData\Local\Temp\ccQ45nMh.s 			page 41


 1678              	.L130:
 504:.\ssd1306.c   ****     }else{
 505:.\ssd1306.c   ****         ystep = -1;
 1679              		.loc 1 505 0
 1680 0096 134B     		ldr	r3, .L131
 1681              	.LVL175:
 1682 0098 9B46     		mov	fp, r3
 1683 009a 1AE0     		b	.L123
 1684              	.LVL176:
 1685              	.L127:
 506:.\ssd1306.c   ****     }
 507:.\ssd1306.c   ****     for( ; x0<=x1; x0++ ){
 508:.\ssd1306.c   ****         if( steep ){
 1686              		.loc 1 508 0
 1687 009c 4346     		mov	r3, r8
 1688 009e 002B     		cmp	r3, #0
 1689 00a0 05D0     		beq	.L124
 1690              	.LVL177:
 509:.\ssd1306.c   ****             gfx_drawPixel( y0, x0, color );
 1691              		.loc 1 509 0
 1692 00a2 301C     		mov	r0, r6
 1693 00a4 211C     		mov	r1, r4
 1694 00a6 039A     		ldr	r2, [sp, #12]
 1695 00a8 FFF7FEFF 		bl	gfx_drawPixel
 1696              	.LVL178:
 1697 00ac 04E0     		b	.L125
 1698              	.LVL179:
 1699              	.L124:
 510:.\ssd1306.c   ****         }else{
 511:.\ssd1306.c   ****             gfx_drawPixel( x0, y0, color );
 1700              		.loc 1 511 0
 1701 00ae 201C     		mov	r0, r4
 1702 00b0 311C     		mov	r1, r6
 1703 00b2 039A     		ldr	r2, [sp, #12]
 1704 00b4 FFF7FEFF 		bl	gfx_drawPixel
 1705              	.LVL180:
 1706              	.L125:
 512:.\ssd1306.c   ****         }
 513:.\ssd1306.c   ****         err -= dy;
 1707              		.loc 1 513 0
 1708 00b8 4B46     		mov	r3, r9
 1709 00ba ED1A     		sub	r5, r5, r3
 1710              	.LVL181:
 1711 00bc ABB2     		uxth	r3, r5
 1712 00be 9DB2     		uxth	r5, r3
 1713              	.LVL182:
 514:.\ssd1306.c   ****         if( err < 0 ){
 1714              		.loc 1 514 0
 1715 00c0 2AB2     		sxth	r2, r5
 1716 00c2 002A     		cmp	r2, #0
 1717 00c4 03DA     		bge	.L126
 515:.\ssd1306.c   ****             y0 += ystep;
 1718              		.loc 1 515 0
 1719 00c6 5E44     		add	r6, r6, fp
 1720              	.LVL183:
 1721 00c8 36B2     		sxth	r6, r6
 1722              	.LVL184:
ARM GAS  C:\Users\User\AppData\Local\Temp\ccQ45nMh.s 			page 42


 516:.\ssd1306.c   ****             err += dx;
 1723              		.loc 1 516 0
 1724 00ca 5344     		add	r3, r3, r10
 1725 00cc 9DB2     		uxth	r5, r3
 1726              	.LVL185:
 1727              	.L126:
 507:.\ssd1306.c   ****         if( steep ){
 1728              		.loc 1 507 0
 1729 00ce 0134     		add	r4, r4, #1
 1730              	.LVL186:
 1731 00d0 24B2     		sxth	r4, r4
 1732              	.LVL187:
 1733              	.L123:
 507:.\ssd1306.c   ****         if( steep ){
 1734              		.loc 1 507 0 is_stmt 0 discriminator 1
 1735 00d2 BC42     		cmp	r4, r7
 1736 00d4 E2DD     		ble	.L127
 1737              	.LVL188:
 1738              	.L115:
 517:.\ssd1306.c   ****         }
 518:.\ssd1306.c   ****     }
 519:.\ssd1306.c   **** }
 1739              		.loc 1 519 0 is_stmt 1
 1740 00d6 05B0     		add	sp, sp, #20
 1741              		@ sp needed
 1742 00d8 3CBC     		pop	{r2, r3, r4, r5}
 1743 00da 9046     		mov	r8, r2
 1744 00dc 9946     		mov	r9, r3
 1745 00de A246     		mov	r10, r4
 1746 00e0 AB46     		mov	fp, r5
 1747 00e2 F0BD     		pop	{r4, r5, r6, r7, pc}
 1748              	.L132:
 1749              		.align	2
 1750              	.L131:
 1751 00e4 FFFF0000 		.word	65535
 1752              		.cfi_endproc
 1753              	.LFE57:
 1754              		.size	gfx_drawLine, .-gfx_drawLine
 1755              		.section	.text.gfx_drawRect,"ax",%progbits
 1756              		.align	2
 1757              		.global	gfx_drawRect
 1758              		.code	16
 1759              		.thumb_func
 1760              		.type	gfx_drawRect, %function
 1761              	gfx_drawRect:
 1762              	.LFB58:
 520:.\ssd1306.c   **** 
 521:.\ssd1306.c   **** void gfx_drawRect( int16_t x, int16_t y, int16_t w, int16_t h, uint16_t color ){
 1763              		.loc 1 521 0
 1764              		.cfi_startproc
 1765              	.LVL189:
 1766 0000 F0B5     		push	{r4, r5, r6, r7, lr}
 1767              		.cfi_def_cfa_offset 20
 1768              		.cfi_offset 4, -20
 1769              		.cfi_offset 5, -16
 1770              		.cfi_offset 6, -12
 1771              		.cfi_offset 7, -8
ARM GAS  C:\Users\User\AppData\Local\Temp\ccQ45nMh.s 			page 43


 1772              		.cfi_offset 14, -4
 1773 0002 85B0     		sub	sp, sp, #20
 1774              		.cfi_def_cfa_offset 40
 1775 0004 071C     		mov	r7, r0
 1776 0006 1C1C     		mov	r4, r3
 1777 0008 0AAB     		add	r3, sp, #40
 1778              	.LVL190:
 1779 000a 1E88     		ldrh	r6, [r3]
 522:.\ssd1306.c   ****     
 523:.\ssd1306.c   ****     gfx_drawLine( x, y, x+w-1, y, color );
 1780              		.loc 1 523 0
 1781 000c 8518     		add	r5, r0, r2
 1782 000e 013D     		sub	r5, r5, #1
 1783 0010 2DB2     		sxth	r5, r5
 1784 0012 0096     		str	r6, [sp]
 1785 0014 0B1C     		mov	r3, r1
 1786              	.LVL191:
 1787 0016 2A1C     		mov	r2, r5
 1788              	.LVL192:
 1789 0018 0393     		str	r3, [sp, #12]
 1790 001a FFF7FEFF 		bl	gfx_drawLine
 1791              	.LVL193:
 524:.\ssd1306.c   ****     gfx_drawLine( x, y+h-1, x+w-1, y+h-1, color );
 1792              		.loc 1 524 0
 1793 001e 039B     		ldr	r3, [sp, #12]
 1794 0020 9C46     		mov	ip, r3
 1795 0022 6444     		add	r4, r4, ip
 1796 0024 013C     		sub	r4, r4, #1
 1797 0026 24B2     		sxth	r4, r4
 1798 0028 0096     		str	r6, [sp]
 1799 002a 381C     		mov	r0, r7
 1800 002c 211C     		mov	r1, r4
 1801 002e 2A1C     		mov	r2, r5
 1802 0030 231C     		mov	r3, r4
 1803 0032 FFF7FEFF 		bl	gfx_drawLine
 1804              	.LVL194:
 525:.\ssd1306.c   ****     gfx_drawLine( x, y, x, y+h-1, color );
 1805              		.loc 1 525 0
 1806 0036 0096     		str	r6, [sp]
 1807 0038 381C     		mov	r0, r7
 1808 003a 0399     		ldr	r1, [sp, #12]
 1809 003c 3A1C     		mov	r2, r7
 1810 003e 231C     		mov	r3, r4
 1811 0040 FFF7FEFF 		bl	gfx_drawLine
 1812              	.LVL195:
 526:.\ssd1306.c   ****     gfx_drawLine( x+w-1, y, x+w-1, y+h-1, color );
 1813              		.loc 1 526 0
 1814 0044 0096     		str	r6, [sp]
 1815 0046 281C     		mov	r0, r5
 1816 0048 0399     		ldr	r1, [sp, #12]
 1817 004a 2A1C     		mov	r2, r5
 1818 004c 231C     		mov	r3, r4
 1819 004e FFF7FEFF 		bl	gfx_drawLine
 1820              	.LVL196:
 527:.\ssd1306.c   **** }
 1821              		.loc 1 527 0
 1822 0052 05B0     		add	sp, sp, #20
ARM GAS  C:\Users\User\AppData\Local\Temp\ccQ45nMh.s 			page 44


 1823              		@ sp needed
 1824 0054 F0BD     		pop	{r4, r5, r6, r7, pc}
 1825              		.cfi_endproc
 1826              	.LFE58:
 1827              		.size	gfx_drawRect, .-gfx_drawRect
 1828 0056 C046     		.section	.text.gfx_fillRect,"ax",%progbits
 1829              		.align	2
 1830              		.global	gfx_fillRect
 1831              		.code	16
 1832              		.thumb_func
 1833              		.type	gfx_fillRect, %function
 1834              	gfx_fillRect:
 1835              	.LFB59:
 528:.\ssd1306.c   **** 
 529:.\ssd1306.c   **** void gfx_fillRect( int16_t x, int16_t y, int16_t w, int16_t h, uint16_t color ){
 1836              		.loc 1 529 0
 1837              		.cfi_startproc
 1838              	.LVL197:
 1839 0000 F0B5     		push	{r4, r5, r6, r7, lr}
 1840              		.cfi_def_cfa_offset 20
 1841              		.cfi_offset 4, -20
 1842              		.cfi_offset 5, -16
 1843              		.cfi_offset 6, -12
 1844              		.cfi_offset 7, -8
 1845              		.cfi_offset 14, -4
 1846 0002 4F46     		mov	r7, r9
 1847 0004 4646     		mov	r6, r8
 1848 0006 C0B4     		push	{r6, r7}
 1849              		.cfi_def_cfa_offset 28
 1850              		.cfi_offset 8, -28
 1851              		.cfi_offset 9, -24
 1852 0008 83B0     		sub	sp, sp, #12
 1853              		.cfi_def_cfa_offset 40
 1854 000a 051C     		mov	r5, r0
 1855 000c 0E1C     		mov	r6, r1
 1856 000e 171C     		mov	r7, r2
 1857 0010 9846     		mov	r8, r3
 1858 0012 0AAB     		add	r3, sp, #40
 1859              	.LVL198:
 1860 0014 1B88     		ldrh	r3, [r3]
 1861              	.LVL199:
 1862 0016 9946     		mov	r9, r3
 1863              	.LVL200:
 530:.\ssd1306.c   ****     int16_t i = 0;
 531:.\ssd1306.c   ****     if( h > w ){
 1864              		.loc 1 531 0
 1865 0018 9045     		cmp	r8, r2
 1866 001a 0FDC     		bgt	.L140
 1867 001c 0C1C     		mov	r4, r1
 1868 001e 1EE0     		b	.L136
 1869              	.LVL201:
 1870              	.L137:
 532:.\ssd1306.c   ****         for( i = x ; i < x+w ; i++ ){
 533:.\ssd1306.c   ****             gfx_drawLine( i, y, i, y+h-1, color );
 1871              		.loc 1 533 0 discriminator 3
 1872 0020 4346     		mov	r3, r8
 1873 0022 F318     		add	r3, r6, r3
ARM GAS  C:\Users\User\AppData\Local\Temp\ccQ45nMh.s 			page 45


 1874 0024 013B     		sub	r3, r3, #1
 1875 0026 1BB2     		sxth	r3, r3
 1876 0028 4A46     		mov	r2, r9
 1877 002a 0092     		str	r2, [sp]
 1878 002c 201C     		mov	r0, r4
 1879 002e 311C     		mov	r1, r6
 1880 0030 221C     		mov	r2, r4
 1881 0032 FFF7FEFF 		bl	gfx_drawLine
 1882              	.LVL202:
 532:.\ssd1306.c   ****         for( i = x ; i < x+w ; i++ ){
 1883              		.loc 1 532 0 discriminator 3
 1884 0036 0134     		add	r4, r4, #1
 1885              	.LVL203:
 1886 0038 24B2     		sxth	r4, r4
 1887              	.LVL204:
 1888 003a 00E0     		b	.L135
 1889              	.LVL205:
 1890              	.L140:
 1891 003c 041C     		mov	r4, r0
 1892              	.LVL206:
 1893              	.L135:
 532:.\ssd1306.c   ****         for( i = x ; i < x+w ; i++ ){
 1894              		.loc 1 532 0 is_stmt 0 discriminator 1
 1895 003e EB19     		add	r3, r5, r7
 1896 0040 9C42     		cmp	r4, r3
 1897 0042 EDDB     		blt	.L137
 1898 0044 0FE0     		b	.L134
 1899              	.L139:
 534:.\ssd1306.c   ****         }
 535:.\ssd1306.c   ****     }else{
 536:.\ssd1306.c   ****         for( i = y ; i < y+h ; i++ ){
 537:.\ssd1306.c   ****             gfx_drawLine( x, i, x+w-1, i, color );
 1900              		.loc 1 537 0 is_stmt 1 discriminator 3
 1901 0046 EA19     		add	r2, r5, r7
 1902 0048 013A     		sub	r2, r2, #1
 1903 004a 12B2     		sxth	r2, r2
 1904 004c 4B46     		mov	r3, r9
 1905 004e 0093     		str	r3, [sp]
 1906 0050 281C     		mov	r0, r5
 1907 0052 211C     		mov	r1, r4
 1908 0054 231C     		mov	r3, r4
 1909 0056 FFF7FEFF 		bl	gfx_drawLine
 1910              	.LVL207:
 536:.\ssd1306.c   ****             gfx_drawLine( x, i, x+w-1, i, color );
 1911              		.loc 1 536 0 discriminator 3
 1912 005a 0134     		add	r4, r4, #1
 1913              	.LVL208:
 1914 005c 24B2     		sxth	r4, r4
 1915              	.LVL209:
 1916              	.L136:
 536:.\ssd1306.c   ****             gfx_drawLine( x, i, x+w-1, i, color );
 1917              		.loc 1 536 0 is_stmt 0 discriminator 1
 1918 005e 4346     		mov	r3, r8
 1919 0060 F318     		add	r3, r6, r3
 1920 0062 9C42     		cmp	r4, r3
 1921 0064 EFDB     		blt	.L139
 1922              	.L134:
ARM GAS  C:\Users\User\AppData\Local\Temp\ccQ45nMh.s 			page 46


 538:.\ssd1306.c   ****         }
 539:.\ssd1306.c   ****     }
 540:.\ssd1306.c   **** }
 1923              		.loc 1 540 0 is_stmt 1
 1924 0066 03B0     		add	sp, sp, #12
 1925              		@ sp needed
 1926              	.LVL210:
 1927 0068 0CBC     		pop	{r2, r3}
 1928 006a 9046     		mov	r8, r2
 1929 006c 9946     		mov	r9, r3
 1930 006e F0BD     		pop	{r4, r5, r6, r7, pc}
 1931              		.cfi_endproc
 1932              	.LFE59:
 1933              		.size	gfx_fillRect, .-gfx_fillRect
 1934              		.section	.text.gfx_drawCircle,"ax",%progbits
 1935              		.align	2
 1936              		.global	gfx_drawCircle
 1937              		.code	16
 1938              		.thumb_func
 1939              		.type	gfx_drawCircle, %function
 1940              	gfx_drawCircle:
 1941              	.LFB60:
 541:.\ssd1306.c   **** 
 542:.\ssd1306.c   **** 
 543:.\ssd1306.c   **** // circle outline
 544:.\ssd1306.c   **** void gfx_drawCircle( int16_t x0, int16_t y0, int16_t r,uint16_t color ){
 1942              		.loc 1 544 0
 1943              		.cfi_startproc
 1944              	.LVL211:
 1945 0000 F0B5     		push	{r4, r5, r6, r7, lr}
 1946              		.cfi_def_cfa_offset 20
 1947              		.cfi_offset 4, -20
 1948              		.cfi_offset 5, -16
 1949              		.cfi_offset 6, -12
 1950              		.cfi_offset 7, -8
 1951              		.cfi_offset 14, -4
 1952 0002 5F46     		mov	r7, fp
 1953 0004 5646     		mov	r6, r10
 1954 0006 4D46     		mov	r5, r9
 1955 0008 4446     		mov	r4, r8
 1956 000a F0B4     		push	{r4, r5, r6, r7}
 1957              		.cfi_def_cfa_offset 36
 1958              		.cfi_offset 8, -36
 1959              		.cfi_offset 9, -32
 1960              		.cfi_offset 10, -28
 1961              		.cfi_offset 11, -24
 1962 000c 87B0     		sub	sp, sp, #28
 1963              		.cfi_def_cfa_offset 64
 1964 000e 051C     		mov	r5, r0
 1965 0010 0C1C     		mov	r4, r1
 1966 0012 0292     		str	r2, [sp, #8]
 1967 0014 1F1C     		mov	r7, r3
 1968 0016 0193     		str	r3, [sp, #4]
 545:.\ssd1306.c   **** 
 546:.\ssd1306.c   ****     int16_t f = 1 - r;
 1969              		.loc 1 546 0
 1970 0018 96B2     		uxth	r6, r2
ARM GAS  C:\Users\User\AppData\Local\Temp\ccQ45nMh.s 			page 47


 1971 001a 0123     		mov	r3, #1
 1972              	.LVL212:
 1973 001c 9B1B     		sub	r3, r3, r6
 1974 001e 9BB2     		uxth	r3, r3
 1975 0020 9B46     		mov	fp, r3
 1976              	.LVL213:
 547:.\ssd1306.c   ****     int16_t ddF_x = 1;
 548:.\ssd1306.c   ****     int16_t ddF_y = -2 * r;
 1977              		.loc 1 548 0
 1978 0022 F303     		lsl	r3, r6, #15
 1979 0024 9B1B     		sub	r3, r3, r6
 1980 0026 5A00     		lsl	r2, r3, #1
 1981              	.LVL214:
 1982 0028 93B2     		uxth	r3, r2
 1983 002a 0593     		str	r3, [sp, #20]
 1984              	.LVL215:
 549:.\ssd1306.c   ****     int16_t x = 0;
 550:.\ssd1306.c   ****     int16_t y = r;
 551:.\ssd1306.c   ****     gfx_drawPixel( x0 , y0+r, color );
 1985              		.loc 1 551 0
 1986 002c 8BB2     		uxth	r3, r1
 1987 002e 9A46     		mov	r10, r3
 1988 0030 F118     		add	r1, r6, r3
 1989              	.LVL216:
 1990 0032 09B2     		sxth	r1, r1
 1991 0034 3A1C     		mov	r2, r7
 1992 0036 FFF7FEFF 		bl	gfx_drawPixel
 1993              	.LVL217:
 552:.\ssd1306.c   ****     gfx_drawPixel( x0 , y0-r, color );
 1994              		.loc 1 552 0
 1995 003a 5346     		mov	r3, r10
 1996 003c 991B     		sub	r1, r3, r6
 1997 003e 09B2     		sxth	r1, r1
 1998 0040 281C     		mov	r0, r5
 1999 0042 3A1C     		mov	r2, r7
 2000 0044 FFF7FEFF 		bl	gfx_drawPixel
 2001              	.LVL218:
 553:.\ssd1306.c   ****     gfx_drawPixel( x0+r, y0 , color );
 2002              		.loc 1 553 0
 2003 0048 ABB2     		uxth	r3, r5
 2004 004a 9946     		mov	r9, r3
 2005 004c F018     		add	r0, r6, r3
 2006 004e 00B2     		sxth	r0, r0
 2007 0050 211C     		mov	r1, r4
 2008 0052 3A1C     		mov	r2, r7
 2009 0054 FFF7FEFF 		bl	gfx_drawPixel
 2010              	.LVL219:
 554:.\ssd1306.c   ****     gfx_drawPixel( x0-r, y0 , color );
 2011              		.loc 1 554 0
 2012 0058 4B46     		mov	r3, r9
 2013 005a 981B     		sub	r0, r3, r6
 2014 005c 00B2     		sxth	r0, r0
 2015 005e 211C     		mov	r1, r4
 2016 0060 3A1C     		mov	r2, r7
 2017 0062 FFF7FEFF 		bl	gfx_drawPixel
 2018              	.LVL220:
 549:.\ssd1306.c   ****     int16_t y = r;
ARM GAS  C:\Users\User\AppData\Local\Temp\ccQ45nMh.s 			page 48


 2019              		.loc 1 549 0
 2020 0066 0023     		mov	r3, #0
 2021 0068 0393     		str	r3, [sp, #12]
 547:.\ssd1306.c   ****     int16_t ddF_y = -2 * r;
 2022              		.loc 1 547 0
 2023 006a 0133     		add	r3, r3, #1
 2024 006c 9846     		mov	r8, r3
 555:.\ssd1306.c   ****     while( x < y ){
 2025              		.loc 1 555 0
 2026 006e 62E0     		b	.L142
 2027              	.LVL221:
 2028              	.L144:
 556:.\ssd1306.c   ****         if( f >= 0 ){
 2029              		.loc 1 556 0
 2030 0070 5B46     		mov	r3, fp
 2031 0072 1BB2     		sxth	r3, r3
 2032 0074 002B     		cmp	r3, #0
 2033 0076 0BDB     		blt	.L143
 557:.\ssd1306.c   ****             y--;
 2034              		.loc 1 557 0
 2035 0078 029B     		ldr	r3, [sp, #8]
 2036 007a 013B     		sub	r3, r3, #1
 2037 007c 1BB2     		sxth	r3, r3
 2038 007e 0293     		str	r3, [sp, #8]
 2039              	.LVL222:
 558:.\ssd1306.c   ****             ddF_y += 2;
 2040              		.loc 1 558 0
 2041 0080 059B     		ldr	r3, [sp, #20]
 2042 0082 0233     		add	r3, r3, #2
 2043 0084 9BB2     		uxth	r3, r3
 2044 0086 9AB2     		uxth	r2, r3
 2045 0088 0592     		str	r2, [sp, #20]
 2046              	.LVL223:
 559:.\ssd1306.c   ****             f += ddF_y;
 2047              		.loc 1 559 0
 2048 008a 5B44     		add	r3, r3, fp
 2049 008c 9BB2     		uxth	r3, r3
 2050 008e 9B46     		mov	fp, r3
 2051              	.LVL224:
 2052              	.L143:
 560:.\ssd1306.c   ****         }
 561:.\ssd1306.c   ****         x++;
 2053              		.loc 1 561 0
 2054 0090 039C     		ldr	r4, [sp, #12]
 2055 0092 0134     		add	r4, r4, #1
 2056 0094 A4B2     		uxth	r4, r4
 2057 0096 A3B2     		uxth	r3, r4
 2058 0098 0393     		str	r3, [sp, #12]
 2059              	.LVL225:
 562:.\ssd1306.c   ****         ddF_x += 2;
 2060              		.loc 1 562 0
 2061 009a 4346     		mov	r3, r8
 2062 009c 0233     		add	r3, r3, #2
 2063 009e 9BB2     		uxth	r3, r3
 2064 00a0 9AB2     		uxth	r2, r3
 2065 00a2 9046     		mov	r8, r2
 2066              	.LVL226:
ARM GAS  C:\Users\User\AppData\Local\Temp\ccQ45nMh.s 			page 49


 563:.\ssd1306.c   ****         f += ddF_x;
 2067              		.loc 1 563 0
 2068 00a4 5B44     		add	r3, r3, fp
 2069 00a6 9BB2     		uxth	r3, r3
 2070 00a8 9B46     		mov	fp, r3
 2071              	.LVL227:
 564:.\ssd1306.c   ****         gfx_drawPixel( x0 + x, y0 + y, color );
 2072              		.loc 1 564 0
 2073 00aa 4B46     		mov	r3, r9
 2074 00ac 1F19     		add	r7, r3, r4
 2075 00ae 6B46     		mov	r3, sp
 2076 00b0 1D89     		ldrh	r5, [r3, #8]
 2077 00b2 5346     		mov	r3, r10
 2078 00b4 5E19     		add	r6, r3, r5
 2079 00b6 3FB2     		sxth	r7, r7
 2080 00b8 36B2     		sxth	r6, r6
 2081 00ba 381C     		mov	r0, r7
 2082 00bc 311C     		mov	r1, r6
 2083 00be 019A     		ldr	r2, [sp, #4]
 2084 00c0 FFF7FEFF 		bl	gfx_drawPixel
 2085              	.LVL228:
 565:.\ssd1306.c   ****         gfx_drawPixel( x0 - x, y0 + y, color );
 2086              		.loc 1 565 0
 2087 00c4 4B46     		mov	r3, r9
 2088 00c6 1B1B     		sub	r3, r3, r4
 2089 00c8 1BB2     		sxth	r3, r3
 2090 00ca 0493     		str	r3, [sp, #16]
 2091 00cc 181C     		mov	r0, r3
 2092 00ce 311C     		mov	r1, r6
 2093 00d0 019A     		ldr	r2, [sp, #4]
 2094 00d2 FFF7FEFF 		bl	gfx_drawPixel
 2095              	.LVL229:
 566:.\ssd1306.c   ****         gfx_drawPixel( x0 + x, y0 - y, color );
 2096              		.loc 1 566 0
 2097 00d6 5246     		mov	r2, r10
 2098 00d8 561B     		sub	r6, r2, r5
 2099 00da 36B2     		sxth	r6, r6
 2100 00dc 381C     		mov	r0, r7
 2101 00de 311C     		mov	r1, r6
 2102 00e0 019F     		ldr	r7, [sp, #4]
 2103 00e2 3A1C     		mov	r2, r7
 2104 00e4 FFF7FEFF 		bl	gfx_drawPixel
 2105              	.LVL230:
 567:.\ssd1306.c   ****         gfx_drawPixel( x0 - x, y0 - y, color );
 2106              		.loc 1 567 0
 2107 00e8 0498     		ldr	r0, [sp, #16]
 2108 00ea 311C     		mov	r1, r6
 2109 00ec 0197     		str	r7, [sp, #4]
 2110 00ee 3A1C     		mov	r2, r7
 2111 00f0 FFF7FEFF 		bl	gfx_drawPixel
 2112              	.LVL231:
 568:.\ssd1306.c   ****         gfx_drawPixel( x0 + y, y0 + x, color );
 2113              		.loc 1 568 0
 2114 00f4 4B46     		mov	r3, r9
 2115 00f6 5E19     		add	r6, r3, r5
 2116 00f8 5346     		mov	r3, r10
 2117 00fa 1F19     		add	r7, r3, r4
ARM GAS  C:\Users\User\AppData\Local\Temp\ccQ45nMh.s 			page 50


 2118 00fc 36B2     		sxth	r6, r6
 2119 00fe 3FB2     		sxth	r7, r7
 2120 0100 301C     		mov	r0, r6
 2121 0102 391C     		mov	r1, r7
 2122 0104 019A     		ldr	r2, [sp, #4]
 2123 0106 FFF7FEFF 		bl	gfx_drawPixel
 2124              	.LVL232:
 569:.\ssd1306.c   ****         gfx_drawPixel( x0 - y, y0 + x, color );
 2125              		.loc 1 569 0
 2126 010a 4B46     		mov	r3, r9
 2127 010c 5D1B     		sub	r5, r3, r5
 2128 010e 2DB2     		sxth	r5, r5
 2129 0110 281C     		mov	r0, r5
 2130 0112 391C     		mov	r1, r7
 2131 0114 019F     		ldr	r7, [sp, #4]
 2132 0116 3A1C     		mov	r2, r7
 2133 0118 FFF7FEFF 		bl	gfx_drawPixel
 2134              	.LVL233:
 570:.\ssd1306.c   ****         gfx_drawPixel( x0 + y, y0 - x, color );
 2135              		.loc 1 570 0
 2136 011c 5346     		mov	r3, r10
 2137 011e 1C1B     		sub	r4, r3, r4
 2138 0120 24B2     		sxth	r4, r4
 2139 0122 301C     		mov	r0, r6
 2140 0124 211C     		mov	r1, r4
 2141 0126 3A1C     		mov	r2, r7
 2142 0128 FFF7FEFF 		bl	gfx_drawPixel
 2143              	.LVL234:
 571:.\ssd1306.c   ****         gfx_drawPixel( x0 - y, y0 - x, color );
 2144              		.loc 1 571 0
 2145 012c 281C     		mov	r0, r5
 2146 012e 211C     		mov	r1, r4
 2147 0130 3A1C     		mov	r2, r7
 2148 0132 FFF7FEFF 		bl	gfx_drawPixel
 2149              	.LVL235:
 2150              	.L142:
 555:.\ssd1306.c   ****         if( f >= 0 ){
 2151              		.loc 1 555 0
 2152 0136 6B46     		mov	r3, sp
 2153 0138 0C22     		mov	r2, #12
 2154 013a 9B5E     		ldrsh	r3, [r3, r2]
 2155 013c 029A     		ldr	r2, [sp, #8]
 2156 013e 9342     		cmp	r3, r2
 2157 0140 96DB     		blt	.L144
 572:.\ssd1306.c   ****     }
 573:.\ssd1306.c   **** }
 2158              		.loc 1 573 0
 2159 0142 07B0     		add	sp, sp, #28
 2160              		@ sp needed
 2161              	.LVL236:
 2162              	.LVL237:
 2163              	.LVL238:
 2164 0144 3CBC     		pop	{r2, r3, r4, r5}
 2165 0146 9046     		mov	r8, r2
 2166 0148 9946     		mov	r9, r3
 2167 014a A246     		mov	r10, r4
 2168 014c AB46     		mov	fp, r5
ARM GAS  C:\Users\User\AppData\Local\Temp\ccQ45nMh.s 			page 51


 2169 014e F0BD     		pop	{r4, r5, r6, r7, pc}
 2170              		.cfi_endproc
 2171              	.LFE60:
 2172              		.size	gfx_drawCircle, .-gfx_drawCircle
 2173              		.section	.text.gfx_drawTriangle,"ax",%progbits
 2174              		.align	2
 2175              		.global	gfx_drawTriangle
 2176              		.code	16
 2177              		.thumb_func
 2178              		.type	gfx_drawTriangle, %function
 2179              	gfx_drawTriangle:
 2180              	.LFB61:
 574:.\ssd1306.c   **** 
 575:.\ssd1306.c   **** void gfx_drawTriangle( int16_t x0, int16_t y0,int16_t x1, int16_t y1, int16_t x2, int16_t y2, uint1
 2181              		.loc 1 575 0
 2182              		.cfi_startproc
 2183              	.LVL239:
 2184 0000 F0B5     		push	{r4, r5, r6, r7, lr}
 2185              		.cfi_def_cfa_offset 20
 2186              		.cfi_offset 4, -20
 2187              		.cfi_offset 5, -16
 2188              		.cfi_offset 6, -12
 2189              		.cfi_offset 7, -8
 2190              		.cfi_offset 14, -4
 2191 0002 87B0     		sub	sp, sp, #28
 2192              		.cfi_def_cfa_offset 48
 2193 0004 171C     		mov	r7, r2
 2194 0006 0393     		str	r3, [sp, #12]
 2195 0008 0CAB     		add	r3, sp, #48
 2196              	.LVL240:
 2197 000a 0022     		mov	r2, #0
 2198 000c 9D5E     		ldrsh	r5, [r3, r2]
 2199              	.LVL241:
 2200 000e 0DAB     		add	r3, sp, #52
 2201              	.LVL242:
 2202 0010 0022     		mov	r2, #0
 2203 0012 9C5E     		ldrsh	r4, [r3, r2]
 2204 0014 0EAB     		add	r3, sp, #56
 2205              	.LVL243:
 2206 0016 1E88     		ldrh	r6, [r3]
 576:.\ssd1306.c   ****     
 577:.\ssd1306.c   ****     gfx_drawLine( x0, y0, x1, y1, color );
 2207              		.loc 1 577 0
 2208 0018 0096     		str	r6, [sp]
 2209 001a 0490     		str	r0, [sp, #16]
 2210 001c 0591     		str	r1, [sp, #20]
 2211 001e 3A1C     		mov	r2, r7
 2212 0020 039B     		ldr	r3, [sp, #12]
 2213              	.LVL244:
 2214 0022 FFF7FEFF 		bl	gfx_drawLine
 2215              	.LVL245:
 578:.\ssd1306.c   ****     gfx_drawLine( x1, y1, x2, y2, color );
 2216              		.loc 1 578 0
 2217 0026 0096     		str	r6, [sp]
 2218 0028 381C     		mov	r0, r7
 2219 002a 0399     		ldr	r1, [sp, #12]
 2220 002c 2A1C     		mov	r2, r5
ARM GAS  C:\Users\User\AppData\Local\Temp\ccQ45nMh.s 			page 52


 2221 002e 231C     		mov	r3, r4
 2222 0030 FFF7FEFF 		bl	gfx_drawLine
 2223              	.LVL246:
 579:.\ssd1306.c   ****     gfx_drawLine( x2, y2, x0, y0, color );
 2224              		.loc 1 579 0
 2225 0034 0096     		str	r6, [sp]
 2226 0036 281C     		mov	r0, r5
 2227 0038 211C     		mov	r1, r4
 2228 003a 049A     		ldr	r2, [sp, #16]
 2229 003c 059B     		ldr	r3, [sp, #20]
 2230 003e FFF7FEFF 		bl	gfx_drawLine
 2231              	.LVL247:
 580:.\ssd1306.c   **** }
 2232              		.loc 1 580 0
 2233 0042 07B0     		add	sp, sp, #28
 2234              		@ sp needed
 2235 0044 F0BD     		pop	{r4, r5, r6, r7, pc}
 2236              		.cfi_endproc
 2237              	.LFE61:
 2238              		.size	gfx_drawTriangle, .-gfx_drawTriangle
 2239 0046 C046     		.section	.text.gfx_drawChar,"ax",%progbits
 2240              		.align	2
 2241              		.global	gfx_drawChar
 2242              		.code	16
 2243              		.thumb_func
 2244              		.type	gfx_drawChar, %function
 2245              	gfx_drawChar:
 2246              	.LFB62:
 581:.\ssd1306.c   **** 
 582:.\ssd1306.c   **** 
 583:.\ssd1306.c   **** // Draw a character
 584:.\ssd1306.c   **** void gfx_drawChar( int16_t x, int16_t y, unsigned char c,uint16_t color, uint16_t bg, uint8_t size)
 2247              		.loc 1 584 0
 2248              		.cfi_startproc
 2249              	.LVL248:
 2250 0000 F0B5     		push	{r4, r5, r6, r7, lr}
 2251              		.cfi_def_cfa_offset 20
 2252              		.cfi_offset 4, -20
 2253              		.cfi_offset 5, -16
 2254              		.cfi_offset 6, -12
 2255              		.cfi_offset 7, -8
 2256              		.cfi_offset 14, -4
 2257 0002 5F46     		mov	r7, fp
 2258 0004 5646     		mov	r6, r10
 2259 0006 4D46     		mov	r5, r9
 2260 0008 4446     		mov	r4, r8
 2261 000a F0B4     		push	{r4, r5, r6, r7}
 2262              		.cfi_def_cfa_offset 36
 2263              		.cfi_offset 8, -36
 2264              		.cfi_offset 9, -32
 2265              		.cfi_offset 10, -28
 2266              		.cfi_offset 11, -24
 2267 000c 85B0     		sub	sp, sp, #20
 2268              		.cfi_def_cfa_offset 56
 2269 000e 0EAC     		add	r4, sp, #56
 2270              	.LVL249:
 2271 0010 2488     		ldrh	r4, [r4]
ARM GAS  C:\Users\User\AppData\Local\Temp\ccQ45nMh.s 			page 53


 2272              	.LVL250:
 2273 0012 A346     		mov	fp, r4
 2274 0014 0FAC     		add	r4, sp, #60
 2275              	.LVL251:
 2276 0016 2778     		ldrb	r7, [r4]
 585:.\ssd1306.c   ****     if( (x >= _width) || // Clip right
 2277              		.loc 1 585 0
 2278 0018 3A4C     		ldr	r4, .L158
 2279              	.LVL252:
 2280 001a 0225     		mov	r5, #2
 2281 001c 645F     		ldrsh	r4, [r4, r5]
 2282 001e A042     		cmp	r0, r4
 2283 0020 68DA     		bge	.L146
 2284              		.loc 1 585 0 is_stmt 0 discriminator 1
 2285 0022 384C     		ldr	r4, .L158
 2286 0024 0425     		mov	r5, #4
 2287 0026 645F     		ldrsh	r4, [r4, r5]
 2288 0028 A142     		cmp	r1, r4
 2289 002a 63DA     		bge	.L146
 586:.\ssd1306.c   ****         (y >= _height) || // Clip bottom
 587:.\ssd1306.c   ****         ((x + 6 * size - 1) < 0) || // Clip left
 2290              		.loc 1 587 0 is_stmt 1
 2291 002c 7C00     		lsl	r4, r7, #1
 2292 002e E419     		add	r4, r4, r7
 2293 0030 6400     		lsl	r4, r4, #1
 2294 0032 0419     		add	r4, r0, r4
 586:.\ssd1306.c   ****         (y >= _height) || // Clip bottom
 2295              		.loc 1 586 0
 2296 0034 012C     		cmp	r4, #1
 2297 0036 5DD4     		bmi	.L146
 588:.\ssd1306.c   ****         ((y + 8 * size - 1) < 0)) // Clip top
 2298              		.loc 1 588 0
 2299 0038 FC00     		lsl	r4, r7, #3
 2300 003a 0C19     		add	r4, r1, r4
 587:.\ssd1306.c   ****         ((y + 8 * size - 1) < 0)) // Clip top
 2301              		.loc 1 587 0
 2302 003c 012C     		cmp	r4, #1
 2303 003e 59D4     		bmi	.L146
 2304 0040 9846     		mov	r8, r3
 2305 0042 0392     		str	r2, [sp, #12]
 2306 0044 8A46     		mov	r10, r1
 2307 0046 8146     		mov	r9, r0
 2308 0048 0026     		mov	r6, #0
 2309 004a 50E0     		b	.L148
 2310              	.LVL253:
 2311              	.L156:
 2312              	.LBB7:
 589:.\ssd1306.c   ****         return;
 590:.\ssd1306.c   **** 
 591:.\ssd1306.c   ****     int8_t i = 0;
 592:.\ssd1306.c   ****     for( i = 0 ; i < 6 ; i++ ){
 593:.\ssd1306.c   ****         uint8_t line;
 594:.\ssd1306.c   ****         if( i == 5 )
 2313              		.loc 1 594 0
 2314 004c 052E     		cmp	r6, #5
 2315 004e 08D0     		beq	.L157
 595:.\ssd1306.c   ****             line = 0x0;
ARM GAS  C:\Users\User\AppData\Local\Temp\ccQ45nMh.s 			page 54


 596:.\ssd1306.c   ****         else
 597:.\ssd1306.c   ****            line = font[(c*5)+i];
 2316              		.loc 1 597 0
 2317 0050 039A     		ldr	r2, [sp, #12]
 2318 0052 9300     		lsl	r3, r2, #2
 2319 0054 9A18     		add	r2, r3, r2
 2320 0056 73B2     		sxtb	r3, r6
 2321 0058 D318     		add	r3, r2, r3
 2322 005a 2B4A     		ldr	r2, .L158+4
 2323 005c 2432     		add	r2, r2, #36
 2324 005e D55C     		ldrb	r5, [r2, r3]
 2325              	.LVL254:
 2326 0060 00E0     		b	.L149
 2327              	.LVL255:
 2328              	.L157:
 595:.\ssd1306.c   ****             line = 0x0;
 2329              		.loc 1 595 0
 2330 0062 0025     		mov	r5, #0
 2331              	.L149:
 595:.\ssd1306.c   ****             line = 0x0;
 2332              		.loc 1 595 0 is_stmt 0 discriminator 1
 2333 0064 0024     		mov	r4, #0
 2334 0066 3DE0     		b	.L150
 2335              	.LVL256:
 2336              	.L155:
 598:.\ssd1306.c   ****         int8_t j = 0;
 599:.\ssd1306.c   ****         for( j = 0; j < 8 ; j++ ){
 600:.\ssd1306.c   ****             if( line & 0x1 ){
 2337              		.loc 1 600 0 is_stmt 1
 2338 0068 EB07     		lsl	r3, r5, #31
 2339 006a 1BD5     		bpl	.L151
 601:.\ssd1306.c   ****                 if( size == 1 ) // default size
 2340              		.loc 1 601 0
 2341 006c 012F     		cmp	r7, #1
 2342 006e 09D1     		bne	.L152
 602:.\ssd1306.c   ****                     gfx_drawPixel( x+i, y+j, color );
 2343              		.loc 1 602 0
 2344 0070 70B2     		sxtb	r0, r6
 2345 0072 4844     		add	r0, r0, r9
 2346 0074 00B2     		sxth	r0, r0
 2347 0076 61B2     		sxtb	r1, r4
 2348 0078 5144     		add	r1, r1, r10
 2349 007a 09B2     		sxth	r1, r1
 2350 007c 4246     		mov	r2, r8
 2351 007e FFF7FEFF 		bl	gfx_drawPixel
 2352              	.LVL257:
 2353 0082 2CE0     		b	.L153
 2354              	.L152:
 603:.\ssd1306.c   ****                 else { // big size
 604:.\ssd1306.c   ****                     gfx_fillRect( x+(i*size), y+(j*size), size, size, color );
 2355              		.loc 1 604 0
 2356 0084 BBB2     		uxth	r3, r7
 2357 0086 70B2     		sxtb	r0, r6
 2358 0088 5843     		mul	r0, r3
 2359 008a 4844     		add	r0, r0, r9
 2360 008c 00B2     		sxth	r0, r0
 2361 008e 61B2     		sxtb	r1, r4
ARM GAS  C:\Users\User\AppData\Local\Temp\ccQ45nMh.s 			page 55


 2362 0090 5943     		mul	r1, r3
 2363 0092 5144     		add	r1, r1, r10
 2364 0094 09B2     		sxth	r1, r1
 2365 0096 1BB2     		sxth	r3, r3
 2366 0098 4246     		mov	r2, r8
 2367 009a 0092     		str	r2, [sp]
 2368 009c 1A1C     		mov	r2, r3
 2369 009e FFF7FEFF 		bl	gfx_fillRect
 2370              	.LVL258:
 2371 00a2 1CE0     		b	.L153
 2372              	.L151:
 605:.\ssd1306.c   ****                 }
 606:.\ssd1306.c   ****             } else if( bg != color ){
 2373              		.loc 1 606 0
 2374 00a4 C345     		cmp	fp, r8
 2375 00a6 1AD0     		beq	.L153
 607:.\ssd1306.c   ****                 if( size == 1 ) // default size
 2376              		.loc 1 607 0
 2377 00a8 012F     		cmp	r7, #1
 2378 00aa 09D1     		bne	.L154
 608:.\ssd1306.c   ****                     gfx_drawPixel( x+i, y+j, bg );
 2379              		.loc 1 608 0
 2380 00ac 70B2     		sxtb	r0, r6
 2381 00ae 4844     		add	r0, r0, r9
 2382 00b0 00B2     		sxth	r0, r0
 2383 00b2 61B2     		sxtb	r1, r4
 2384 00b4 5144     		add	r1, r1, r10
 2385 00b6 09B2     		sxth	r1, r1
 2386 00b8 5A46     		mov	r2, fp
 2387 00ba FFF7FEFF 		bl	gfx_drawPixel
 2388              	.LVL259:
 2389 00be 0EE0     		b	.L153
 2390              	.L154:
 609:.\ssd1306.c   ****                 else { // big size
 610:.\ssd1306.c   ****                     gfx_fillRect( x+i*size, y+j*size, size, size, bg );
 2391              		.loc 1 610 0
 2392 00c0 BBB2     		uxth	r3, r7
 2393 00c2 70B2     		sxtb	r0, r6
 2394 00c4 5843     		mul	r0, r3
 2395 00c6 4844     		add	r0, r0, r9
 2396 00c8 00B2     		sxth	r0, r0
 2397 00ca 61B2     		sxtb	r1, r4
 2398 00cc 5943     		mul	r1, r3
 2399 00ce 5144     		add	r1, r1, r10
 2400 00d0 09B2     		sxth	r1, r1
 2401 00d2 1BB2     		sxth	r3, r3
 2402 00d4 5A46     		mov	r2, fp
 2403 00d6 0092     		str	r2, [sp]
 2404 00d8 1A1C     		mov	r2, r3
 2405 00da FFF7FEFF 		bl	gfx_fillRect
 2406              	.LVL260:
 2407              	.L153:
 611:.\ssd1306.c   ****                 }
 612:.\ssd1306.c   ****             }
 613:.\ssd1306.c   ****             line >>= 1;
 2408              		.loc 1 613 0 discriminator 2
 2409 00de 6D08     		lsr	r5, r5, #1
ARM GAS  C:\Users\User\AppData\Local\Temp\ccQ45nMh.s 			page 56


 2410              	.LVL261:
 599:.\ssd1306.c   ****             if( line & 0x1 ){
 2411              		.loc 1 599 0 discriminator 2
 2412 00e0 0134     		add	r4, r4, #1
 2413              	.LVL262:
 2414 00e2 E4B2     		uxtb	r4, r4
 2415              	.LVL263:
 2416              	.L150:
 599:.\ssd1306.c   ****             if( line & 0x1 ){
 2417              		.loc 1 599 0 is_stmt 0 discriminator 1
 2418 00e4 63B2     		sxtb	r3, r4
 2419 00e6 072B     		cmp	r3, #7
 2420 00e8 BEDD     		ble	.L155
 2421              	.LBE7:
 592:.\ssd1306.c   ****         uint8_t line;
 2422              		.loc 1 592 0 is_stmt 1 discriminator 2
 2423 00ea 0136     		add	r6, r6, #1
 2424              	.LVL264:
 2425 00ec F6B2     		uxtb	r6, r6
 2426              	.LVL265:
 2427              	.L148:
 592:.\ssd1306.c   ****         uint8_t line;
 2428              		.loc 1 592 0 is_stmt 0 discriminator 1
 2429 00ee 73B2     		sxtb	r3, r6
 2430 00f0 052B     		cmp	r3, #5
 2431 00f2 ABDD     		ble	.L156
 2432              	.LVL266:
 2433              	.L146:
 614:.\ssd1306.c   ****         }
 615:.\ssd1306.c   ****     }
 616:.\ssd1306.c   **** }
 2434              		.loc 1 616 0 is_stmt 1
 2435 00f4 05B0     		add	sp, sp, #20
 2436              		@ sp needed
 2437 00f6 3CBC     		pop	{r2, r3, r4, r5}
 2438 00f8 9046     		mov	r8, r2
 2439 00fa 9946     		mov	r9, r3
 2440 00fc A246     		mov	r10, r4
 2441 00fe AB46     		mov	fp, r5
 2442 0100 F0BD     		pop	{r4, r5, r6, r7, pc}
 2443              	.L159:
 2444 0102 C046     		.align	2
 2445              	.L158:
 2446 0104 00000000 		.word	.LANCHOR1
 2447 0108 00000000 		.word	.LANCHOR2
 2448              		.cfi_endproc
 2449              	.LFE62:
 2450              		.size	gfx_drawChar, .-gfx_drawChar
 2451              		.section	.text.gfx_write,"ax",%progbits
 2452              		.align	2
 2453              		.global	gfx_write
 2454              		.code	16
 2455              		.thumb_func
 2456              		.type	gfx_write, %function
 2457              	gfx_write:
 2458              	.LFB63:
 617:.\ssd1306.c   **** 
ARM GAS  C:\Users\User\AppData\Local\Temp\ccQ45nMh.s 			page 57


 618:.\ssd1306.c   **** void gfx_write( uint8_t ch ){
 2459              		.loc 1 618 0
 2460              		.cfi_startproc
 2461              	.LVL267:
 2462 0000 30B5     		push	{r4, r5, lr}
 2463              		.cfi_def_cfa_offset 12
 2464              		.cfi_offset 4, -12
 2465              		.cfi_offset 5, -8
 2466              		.cfi_offset 14, -4
 2467 0002 83B0     		sub	sp, sp, #12
 2468              		.cfi_def_cfa_offset 24
 619:.\ssd1306.c   ****     if( ch == '\n' ){
 2469              		.loc 1 619 0
 2470 0004 0A28     		cmp	r0, #10
 2471 0006 08D1     		bne	.L161
 620:.\ssd1306.c   ****         cursor_y += textsize*8;
 2472              		.loc 1 620 0
 2473 0008 1B4B     		ldr	r3, .L163
 2474 000a 9A7A     		ldrb	r2, [r3, #10]
 2475 000c D200     		lsl	r2, r2, #3
 2476 000e 1989     		ldrh	r1, [r3, #8]
 2477 0010 5218     		add	r2, r2, r1
 2478 0012 1A81     		strh	r2, [r3, #8]
 621:.\ssd1306.c   ****         cursor_x = 0;
 2479              		.loc 1 621 0
 2480 0014 0022     		mov	r2, #0
 2481 0016 DA80     		strh	r2, [r3, #6]
 2482 0018 2CE0     		b	.L160
 2483              	.L161:
 622:.\ssd1306.c   ****     }else if( ch == '\r' ){
 2484              		.loc 1 622 0
 2485 001a 0D28     		cmp	r0, #13
 2486 001c 2AD0     		beq	.L160
 2487 001e 021C     		mov	r2, r0
 623:.\ssd1306.c   ****         // skip em
 624:.\ssd1306.c   ****     }else{
 625:.\ssd1306.c   ****         gfx_drawChar(cursor_x, cursor_y, ch, textcolor, textbgcolor, textsize);
 2488              		.loc 1 625 0
 2489 0020 154C     		ldr	r4, .L163
 2490 0022 0623     		mov	r3, #6
 2491 0024 E05E     		ldrsh	r0, [r4, r3]
 2492              	.LVL268:
 2493 0026 0823     		mov	r3, #8
 2494 0028 E15E     		ldrsh	r1, [r4, r3]
 2495 002a E389     		ldrh	r3, [r4, #14]
 2496 002c A589     		ldrh	r5, [r4, #12]
 2497 002e 0095     		str	r5, [sp]
 2498 0030 A57A     		ldrb	r5, [r4, #10]
 2499 0032 0195     		str	r5, [sp, #4]
 2500 0034 FFF7FEFF 		bl	gfx_drawChar
 2501              	.LVL269:
 626:.\ssd1306.c   ****         cursor_x += textsize*6;
 2502              		.loc 1 626 0
 2503 0038 A27A     		ldrb	r2, [r4, #10]
 2504 003a 90B2     		uxth	r0, r2
 2505 003c 4100     		lsl	r1, r0, #1
 2506 003e 4118     		add	r1, r0, r1
ARM GAS  C:\Users\User\AppData\Local\Temp\ccQ45nMh.s 			page 58


 2507 0040 4D00     		lsl	r5, r1, #1
 2508 0042 E388     		ldrh	r3, [r4, #6]
 2509 0044 EB18     		add	r3, r5, r3
 2510 0046 9BB2     		uxth	r3, r3
 2511 0048 E380     		strh	r3, [r4, #6]
 627:.\ssd1306.c   ****         if( wrap && (cursor_x > (_width - textsize*6)) ){
 2512              		.loc 1 627 0
 2513 004a 0C49     		ldr	r1, .L163+4
 2514 004c 0978     		ldrb	r1, [r1]
 2515 004e 0029     		cmp	r1, #0
 2516 0050 10D0     		beq	.L160
 2517              		.loc 1 627 0 is_stmt 0 discriminator 1
 2518 0052 1BB2     		sxth	r3, r3
 2519 0054 9100     		lsl	r1, r2, #2
 2520 0056 521A     		sub	r2, r2, r1
 2521 0058 5200     		lsl	r2, r2, #1
 2522 005a 0749     		ldr	r1, .L163
 2523 005c 0224     		mov	r4, #2
 2524 005e 095F     		ldrsh	r1, [r1, r4]
 2525 0060 8A18     		add	r2, r1, r2
 2526 0062 9342     		cmp	r3, r2
 2527 0064 06DD     		ble	.L160
 628:.\ssd1306.c   ****             cursor_y += textsize*8;
 2528              		.loc 1 628 0 is_stmt 1
 2529 0066 044B     		ldr	r3, .L163
 2530 0068 C000     		lsl	r0, r0, #3
 2531 006a 1A89     		ldrh	r2, [r3, #8]
 2532 006c 8018     		add	r0, r0, r2
 2533 006e 1881     		strh	r0, [r3, #8]
 629:.\ssd1306.c   ****             cursor_x = 0;
 2534              		.loc 1 629 0
 2535 0070 0022     		mov	r2, #0
 2536 0072 DA80     		strh	r2, [r3, #6]
 2537              	.L160:
 630:.\ssd1306.c   ****         }
 631:.\ssd1306.c   ****     }
 632:.\ssd1306.c   **** }
 2538              		.loc 1 632 0
 2539 0074 03B0     		add	sp, sp, #12
 2540              		@ sp needed
 2541 0076 30BD     		pop	{r4, r5, pc}
 2542              	.L164:
 2543              		.align	2
 2544              	.L163:
 2545 0078 00000000 		.word	.LANCHOR1
 2546 007c 00000000 		.word	wrap
 2547              		.cfi_endproc
 2548              	.LFE63:
 2549              		.size	gfx_write, .-gfx_write
 2550              		.section	.text.gfx_print,"ax",%progbits
 2551              		.align	2
 2552              		.global	gfx_print
 2553              		.code	16
 2554              		.thumb_func
 2555              		.type	gfx_print, %function
 2556              	gfx_print:
 2557              	.LFB64:
ARM GAS  C:\Users\User\AppData\Local\Temp\ccQ45nMh.s 			page 59


 633:.\ssd1306.c   **** 
 634:.\ssd1306.c   **** void gfx_print( const char* s ){
 2558              		.loc 1 634 0
 2559              		.cfi_startproc
 2560              	.LVL270:
 2561 0000 70B5     		push	{r4, r5, r6, lr}
 2562              		.cfi_def_cfa_offset 16
 2563              		.cfi_offset 4, -16
 2564              		.cfi_offset 5, -12
 2565              		.cfi_offset 6, -8
 2566              		.cfi_offset 14, -4
 2567 0002 061C     		mov	r6, r0
 635:.\ssd1306.c   ****     
 636:.\ssd1306.c   ****     unsigned int len = strlen( s );
 2568              		.loc 1 636 0
 2569 0004 FFF7FEFF 		bl	strlen
 2570              	.LVL271:
 2571 0008 051C     		mov	r5, r0
 2572              	.LVL272:
 637:.\ssd1306.c   ****     unsigned int i = 0; 
 638:.\ssd1306.c   ****     for( i = 0 ; i < len ; i++ ){
 2573              		.loc 1 638 0
 2574 000a 0024     		mov	r4, #0
 2575 000c 03E0     		b	.L166
 2576              	.LVL273:
 2577              	.L167:
 639:.\ssd1306.c   ****         gfx_write( s[i] );
 2578              		.loc 1 639 0 discriminator 3
 2579 000e 305D     		ldrb	r0, [r6, r4]
 2580 0010 FFF7FEFF 		bl	gfx_write
 2581              	.LVL274:
 638:.\ssd1306.c   ****         gfx_write( s[i] );
 2582              		.loc 1 638 0 discriminator 3
 2583 0014 0134     		add	r4, r4, #1
 2584              	.LVL275:
 2585              	.L166:
 638:.\ssd1306.c   ****         gfx_write( s[i] );
 2586              		.loc 1 638 0 is_stmt 0 discriminator 1
 2587 0016 AC42     		cmp	r4, r5
 2588 0018 F9D3     		bcc	.L167
 640:.\ssd1306.c   ****     }
 641:.\ssd1306.c   **** }
 2589              		.loc 1 641 0 is_stmt 1
 2590              		@ sp needed
 2591              	.LVL276:
 2592              	.LVL277:
 2593              	.LVL278:
 2594 001a 70BD     		pop	{r4, r5, r6, pc}
 2595              		.cfi_endproc
 2596              	.LFE64:
 2597              		.size	gfx_print, .-gfx_print
 2598              		.section	.text.gfx_println,"ax",%progbits
 2599              		.align	2
 2600              		.global	gfx_println
 2601              		.code	16
 2602              		.thumb_func
 2603              		.type	gfx_println, %function
ARM GAS  C:\Users\User\AppData\Local\Temp\ccQ45nMh.s 			page 60


 2604              	gfx_println:
 2605              	.LFB65:
 642:.\ssd1306.c   **** 
 643:.\ssd1306.c   **** void gfx_println( const char* s ){ 
 2606              		.loc 1 643 0
 2607              		.cfi_startproc
 2608              	.LVL279:
 2609 0000 08B5     		push	{r3, lr}
 2610              		.cfi_def_cfa_offset 8
 2611              		.cfi_offset 3, -8
 2612              		.cfi_offset 14, -4
 644:.\ssd1306.c   ****     gfx_print( s ); 
 2613              		.loc 1 644 0
 2614 0002 FFF7FEFF 		bl	gfx_print
 2615              	.LVL280:
 645:.\ssd1306.c   ****     gfx_write( '\n' );
 2616              		.loc 1 645 0
 2617 0006 0A20     		mov	r0, #10
 2618 0008 FFF7FEFF 		bl	gfx_write
 2619              	.LVL281:
 646:.\ssd1306.c   **** }
 2620              		.loc 1 646 0
 2621              		@ sp needed
 2622 000c 08BD     		pop	{r3, pc}
 2623              		.cfi_endproc
 2624              	.LFE65:
 2625              		.size	gfx_println, .-gfx_println
 2626              		.comm	wrap,1,1
 2627              		.comm	rotation,1,1
 2628              		.comm	HEIGHT,2,2
 2629              		.comm	WIDTH,2,2
 2630 000e C046     		.section	.rodata
 2631              		.align	2
 2632              		.set	.LANCHOR2,. + 0
 2633              	.LC1:
 2634 0000 00       		.byte	0
 2635 0001 21       		.byte	33
 2636 0002 00       		.byte	0
 2637 0003 7F       		.byte	127
 2638 0004 22       		.byte	34
 2639 0005 00       		.byte	0
 2640 0006 07       		.byte	7
 2641 0007 00       		.space	1
 2642              	.LC0:
 2643 0008 00       		.byte	0
 2644 0009 AE       		.byte	-82
 2645 000a D5       		.byte	-43
 2646 000b 80       		.byte	-128
 2647 000c A8       		.byte	-88
 2648 000d 3F       		.byte	63
 2649 000e D3       		.byte	-45
 2650 000f 00       		.byte	0
 2651 0010 40       		.byte	64
 2652 0011 8D       		.byte	-115
 2653 0012 14       		.byte	20
 2654 0013 20       		.byte	32
 2655 0014 00       		.byte	0
ARM GAS  C:\Users\User\AppData\Local\Temp\ccQ45nMh.s 			page 61


 2656 0015 A1       		.byte	-95
 2657 0016 C8       		.byte	-56
 2658 0017 DA       		.byte	-38
 2659 0018 12       		.byte	18
 2660 0019 81       		.byte	-127
 2661 001a CF       		.byte	-49
 2662 001b D9       		.byte	-39
 2663 001c F1       		.byte	-15
 2664 001d DB       		.byte	-37
 2665 001e 40       		.byte	64
 2666 001f A4       		.byte	-92
 2667 0020 A6       		.byte	-90
 2668 0021 AF       		.byte	-81
 2669 0022 0000     		.space	2
 2670              		.type	font, %object
 2671              		.size	font, 1275
 2672              	font:
 2673 0024 00       		.byte	0
 2674 0025 00       		.byte	0
 2675 0026 00       		.byte	0
 2676 0027 00       		.byte	0
 2677 0028 00       		.byte	0
 2678 0029 3E       		.byte	62
 2679 002a 5B       		.byte	91
 2680 002b 4F       		.byte	79
 2681 002c 5B       		.byte	91
 2682 002d 3E       		.byte	62
 2683 002e 3E       		.byte	62
 2684 002f 6B       		.byte	107
 2685 0030 4F       		.byte	79
 2686 0031 6B       		.byte	107
 2687 0032 3E       		.byte	62
 2688 0033 1C       		.byte	28
 2689 0034 3E       		.byte	62
 2690 0035 7C       		.byte	124
 2691 0036 3E       		.byte	62
 2692 0037 1C       		.byte	28
 2693 0038 18       		.byte	24
 2694 0039 3C       		.byte	60
 2695 003a 7E       		.byte	126
 2696 003b 3C       		.byte	60
 2697 003c 18       		.byte	24
 2698 003d 1C       		.byte	28
 2699 003e 57       		.byte	87
 2700 003f 7D       		.byte	125
 2701 0040 57       		.byte	87
 2702 0041 1C       		.byte	28
 2703 0042 1C       		.byte	28
 2704 0043 5E       		.byte	94
 2705 0044 7F       		.byte	127
 2706 0045 5E       		.byte	94
 2707 0046 1C       		.byte	28
 2708 0047 00       		.byte	0
 2709 0048 18       		.byte	24
 2710 0049 3C       		.byte	60
 2711 004a 18       		.byte	24
 2712 004b 00       		.byte	0
ARM GAS  C:\Users\User\AppData\Local\Temp\ccQ45nMh.s 			page 62


 2713 004c FF       		.byte	-1
 2714 004d E7       		.byte	-25
 2715 004e C3       		.byte	-61
 2716 004f E7       		.byte	-25
 2717 0050 FF       		.byte	-1
 2718 0051 00       		.byte	0
 2719 0052 18       		.byte	24
 2720 0053 24       		.byte	36
 2721 0054 18       		.byte	24
 2722 0055 00       		.byte	0
 2723 0056 FF       		.byte	-1
 2724 0057 E7       		.byte	-25
 2725 0058 DB       		.byte	-37
 2726 0059 E7       		.byte	-25
 2727 005a FF       		.byte	-1
 2728 005b 30       		.byte	48
 2729 005c 48       		.byte	72
 2730 005d 3A       		.byte	58
 2731 005e 06       		.byte	6
 2732 005f 0E       		.byte	14
 2733 0060 26       		.byte	38
 2734 0061 29       		.byte	41
 2735 0062 79       		.byte	121
 2736 0063 29       		.byte	41
 2737 0064 26       		.byte	38
 2738 0065 40       		.byte	64
 2739 0066 7F       		.byte	127
 2740 0067 05       		.byte	5
 2741 0068 05       		.byte	5
 2742 0069 07       		.byte	7
 2743 006a 40       		.byte	64
 2744 006b 7F       		.byte	127
 2745 006c 05       		.byte	5
 2746 006d 25       		.byte	37
 2747 006e 3F       		.byte	63
 2748 006f 5A       		.byte	90
 2749 0070 3C       		.byte	60
 2750 0071 E7       		.byte	-25
 2751 0072 3C       		.byte	60
 2752 0073 5A       		.byte	90
 2753 0074 7F       		.byte	127
 2754 0075 3E       		.byte	62
 2755 0076 1C       		.byte	28
 2756 0077 1C       		.byte	28
 2757 0078 08       		.byte	8
 2758 0079 08       		.byte	8
 2759 007a 1C       		.byte	28
 2760 007b 1C       		.byte	28
 2761 007c 3E       		.byte	62
 2762 007d 7F       		.byte	127
 2763 007e 14       		.byte	20
 2764 007f 22       		.byte	34
 2765 0080 7F       		.byte	127
 2766 0081 22       		.byte	34
 2767 0082 14       		.byte	20
 2768 0083 5F       		.byte	95
 2769 0084 5F       		.byte	95
ARM GAS  C:\Users\User\AppData\Local\Temp\ccQ45nMh.s 			page 63


 2770 0085 00       		.byte	0
 2771 0086 5F       		.byte	95
 2772 0087 5F       		.byte	95
 2773 0088 06       		.byte	6
 2774 0089 09       		.byte	9
 2775 008a 7F       		.byte	127
 2776 008b 01       		.byte	1
 2777 008c 7F       		.byte	127
 2778 008d 00       		.byte	0
 2779 008e 66       		.byte	102
 2780 008f 89       		.byte	-119
 2781 0090 95       		.byte	-107
 2782 0091 6A       		.byte	106
 2783 0092 60       		.byte	96
 2784 0093 60       		.byte	96
 2785 0094 60       		.byte	96
 2786 0095 60       		.byte	96
 2787 0096 60       		.byte	96
 2788 0097 94       		.byte	-108
 2789 0098 A2       		.byte	-94
 2790 0099 FF       		.byte	-1
 2791 009a A2       		.byte	-94
 2792 009b 94       		.byte	-108
 2793 009c 08       		.byte	8
 2794 009d 04       		.byte	4
 2795 009e 7E       		.byte	126
 2796 009f 04       		.byte	4
 2797 00a0 08       		.byte	8
 2798 00a1 10       		.byte	16
 2799 00a2 20       		.byte	32
 2800 00a3 7E       		.byte	126
 2801 00a4 20       		.byte	32
 2802 00a5 10       		.byte	16
 2803 00a6 08       		.byte	8
 2804 00a7 08       		.byte	8
 2805 00a8 2A       		.byte	42
 2806 00a9 1C       		.byte	28
 2807 00aa 08       		.byte	8
 2808 00ab 08       		.byte	8
 2809 00ac 1C       		.byte	28
 2810 00ad 2A       		.byte	42
 2811 00ae 08       		.byte	8
 2812 00af 08       		.byte	8
 2813 00b0 1E       		.byte	30
 2814 00b1 10       		.byte	16
 2815 00b2 10       		.byte	16
 2816 00b3 10       		.byte	16
 2817 00b4 10       		.byte	16
 2818 00b5 0C       		.byte	12
 2819 00b6 1E       		.byte	30
 2820 00b7 0C       		.byte	12
 2821 00b8 1E       		.byte	30
 2822 00b9 0C       		.byte	12
 2823 00ba 30       		.byte	48
 2824 00bb 38       		.byte	56
 2825 00bc 3E       		.byte	62
 2826 00bd 38       		.byte	56
ARM GAS  C:\Users\User\AppData\Local\Temp\ccQ45nMh.s 			page 64


 2827 00be 30       		.byte	48
 2828 00bf 06       		.byte	6
 2829 00c0 0E       		.byte	14
 2830 00c1 3E       		.byte	62
 2831 00c2 0E       		.byte	14
 2832 00c3 06       		.byte	6
 2833 00c4 00       		.byte	0
 2834 00c5 00       		.byte	0
 2835 00c6 00       		.byte	0
 2836 00c7 00       		.byte	0
 2837 00c8 00       		.byte	0
 2838 00c9 00       		.byte	0
 2839 00ca 00       		.byte	0
 2840 00cb 5F       		.byte	95
 2841 00cc 00       		.byte	0
 2842 00cd 00       		.byte	0
 2843 00ce 00       		.byte	0
 2844 00cf 07       		.byte	7
 2845 00d0 00       		.byte	0
 2846 00d1 07       		.byte	7
 2847 00d2 00       		.byte	0
 2848 00d3 14       		.byte	20
 2849 00d4 7F       		.byte	127
 2850 00d5 14       		.byte	20
 2851 00d6 7F       		.byte	127
 2852 00d7 14       		.byte	20
 2853 00d8 24       		.byte	36
 2854 00d9 2A       		.byte	42
 2855 00da 7F       		.byte	127
 2856 00db 2A       		.byte	42
 2857 00dc 12       		.byte	18
 2858 00dd 23       		.byte	35
 2859 00de 13       		.byte	19
 2860 00df 08       		.byte	8
 2861 00e0 64       		.byte	100
 2862 00e1 62       		.byte	98
 2863 00e2 36       		.byte	54
 2864 00e3 49       		.byte	73
 2865 00e4 56       		.byte	86
 2866 00e5 20       		.byte	32
 2867 00e6 50       		.byte	80
 2868 00e7 00       		.byte	0
 2869 00e8 08       		.byte	8
 2870 00e9 07       		.byte	7
 2871 00ea 03       		.byte	3
 2872 00eb 00       		.byte	0
 2873 00ec 00       		.byte	0
 2874 00ed 1C       		.byte	28
 2875 00ee 22       		.byte	34
 2876 00ef 41       		.byte	65
 2877 00f0 00       		.byte	0
 2878 00f1 00       		.byte	0
 2879 00f2 41       		.byte	65
 2880 00f3 22       		.byte	34
 2881 00f4 1C       		.byte	28
 2882 00f5 00       		.byte	0
 2883 00f6 2A       		.byte	42
ARM GAS  C:\Users\User\AppData\Local\Temp\ccQ45nMh.s 			page 65


 2884 00f7 1C       		.byte	28
 2885 00f8 7F       		.byte	127
 2886 00f9 1C       		.byte	28
 2887 00fa 2A       		.byte	42
 2888 00fb 08       		.byte	8
 2889 00fc 08       		.byte	8
 2890 00fd 3E       		.byte	62
 2891 00fe 08       		.byte	8
 2892 00ff 08       		.byte	8
 2893 0100 00       		.byte	0
 2894 0101 80       		.byte	-128
 2895 0102 70       		.byte	112
 2896 0103 30       		.byte	48
 2897 0104 00       		.byte	0
 2898 0105 08       		.byte	8
 2899 0106 08       		.byte	8
 2900 0107 08       		.byte	8
 2901 0108 08       		.byte	8
 2902 0109 08       		.byte	8
 2903 010a 00       		.byte	0
 2904 010b 00       		.byte	0
 2905 010c 60       		.byte	96
 2906 010d 60       		.byte	96
 2907 010e 00       		.byte	0
 2908 010f 20       		.byte	32
 2909 0110 10       		.byte	16
 2910 0111 08       		.byte	8
 2911 0112 04       		.byte	4
 2912 0113 02       		.byte	2
 2913 0114 3E       		.byte	62
 2914 0115 51       		.byte	81
 2915 0116 49       		.byte	73
 2916 0117 45       		.byte	69
 2917 0118 3E       		.byte	62
 2918 0119 00       		.byte	0
 2919 011a 42       		.byte	66
 2920 011b 7F       		.byte	127
 2921 011c 40       		.byte	64
 2922 011d 00       		.byte	0
 2923 011e 72       		.byte	114
 2924 011f 49       		.byte	73
 2925 0120 49       		.byte	73
 2926 0121 49       		.byte	73
 2927 0122 46       		.byte	70
 2928 0123 21       		.byte	33
 2929 0124 41       		.byte	65
 2930 0125 49       		.byte	73
 2931 0126 4D       		.byte	77
 2932 0127 33       		.byte	51
 2933 0128 18       		.byte	24
 2934 0129 14       		.byte	20
 2935 012a 12       		.byte	18
 2936 012b 7F       		.byte	127
 2937 012c 10       		.byte	16
 2938 012d 27       		.byte	39
 2939 012e 45       		.byte	69
 2940 012f 45       		.byte	69
ARM GAS  C:\Users\User\AppData\Local\Temp\ccQ45nMh.s 			page 66


 2941 0130 45       		.byte	69
 2942 0131 39       		.byte	57
 2943 0132 3C       		.byte	60
 2944 0133 4A       		.byte	74
 2945 0134 49       		.byte	73
 2946 0135 49       		.byte	73
 2947 0136 31       		.byte	49
 2948 0137 41       		.byte	65
 2949 0138 21       		.byte	33
 2950 0139 11       		.byte	17
 2951 013a 09       		.byte	9
 2952 013b 07       		.byte	7
 2953 013c 36       		.byte	54
 2954 013d 49       		.byte	73
 2955 013e 49       		.byte	73
 2956 013f 49       		.byte	73
 2957 0140 36       		.byte	54
 2958 0141 46       		.byte	70
 2959 0142 49       		.byte	73
 2960 0143 49       		.byte	73
 2961 0144 29       		.byte	41
 2962 0145 1E       		.byte	30
 2963 0146 00       		.byte	0
 2964 0147 00       		.byte	0
 2965 0148 14       		.byte	20
 2966 0149 00       		.byte	0
 2967 014a 00       		.byte	0
 2968 014b 00       		.byte	0
 2969 014c 40       		.byte	64
 2970 014d 34       		.byte	52
 2971 014e 00       		.byte	0
 2972 014f 00       		.byte	0
 2973 0150 00       		.byte	0
 2974 0151 08       		.byte	8
 2975 0152 14       		.byte	20
 2976 0153 22       		.byte	34
 2977 0154 41       		.byte	65
 2978 0155 14       		.byte	20
 2979 0156 14       		.byte	20
 2980 0157 14       		.byte	20
 2981 0158 14       		.byte	20
 2982 0159 14       		.byte	20
 2983 015a 00       		.byte	0
 2984 015b 41       		.byte	65
 2985 015c 22       		.byte	34
 2986 015d 14       		.byte	20
 2987 015e 08       		.byte	8
 2988 015f 02       		.byte	2
 2989 0160 01       		.byte	1
 2990 0161 59       		.byte	89
 2991 0162 09       		.byte	9
 2992 0163 06       		.byte	6
 2993 0164 3E       		.byte	62
 2994 0165 41       		.byte	65
 2995 0166 5D       		.byte	93
 2996 0167 59       		.byte	89
 2997 0168 4E       		.byte	78
ARM GAS  C:\Users\User\AppData\Local\Temp\ccQ45nMh.s 			page 67


 2998 0169 7C       		.byte	124
 2999 016a 12       		.byte	18
 3000 016b 11       		.byte	17
 3001 016c 12       		.byte	18
 3002 016d 7C       		.byte	124
 3003 016e 7F       		.byte	127
 3004 016f 49       		.byte	73
 3005 0170 49       		.byte	73
 3006 0171 49       		.byte	73
 3007 0172 36       		.byte	54
 3008 0173 3E       		.byte	62
 3009 0174 41       		.byte	65
 3010 0175 41       		.byte	65
 3011 0176 41       		.byte	65
 3012 0177 22       		.byte	34
 3013 0178 7F       		.byte	127
 3014 0179 41       		.byte	65
 3015 017a 41       		.byte	65
 3016 017b 41       		.byte	65
 3017 017c 3E       		.byte	62
 3018 017d 7F       		.byte	127
 3019 017e 49       		.byte	73
 3020 017f 49       		.byte	73
 3021 0180 49       		.byte	73
 3022 0181 41       		.byte	65
 3023 0182 7F       		.byte	127
 3024 0183 09       		.byte	9
 3025 0184 09       		.byte	9
 3026 0185 09       		.byte	9
 3027 0186 01       		.byte	1
 3028 0187 3E       		.byte	62
 3029 0188 41       		.byte	65
 3030 0189 41       		.byte	65
 3031 018a 51       		.byte	81
 3032 018b 73       		.byte	115
 3033 018c 7F       		.byte	127
 3034 018d 08       		.byte	8
 3035 018e 08       		.byte	8
 3036 018f 08       		.byte	8
 3037 0190 7F       		.byte	127
 3038 0191 00       		.byte	0
 3039 0192 41       		.byte	65
 3040 0193 7F       		.byte	127
 3041 0194 41       		.byte	65
 3042 0195 00       		.byte	0
 3043 0196 20       		.byte	32
 3044 0197 40       		.byte	64
 3045 0198 41       		.byte	65
 3046 0199 3F       		.byte	63
 3047 019a 01       		.byte	1
 3048 019b 7F       		.byte	127
 3049 019c 08       		.byte	8
 3050 019d 14       		.byte	20
 3051 019e 22       		.byte	34
 3052 019f 41       		.byte	65
 3053 01a0 7F       		.byte	127
 3054 01a1 40       		.byte	64
ARM GAS  C:\Users\User\AppData\Local\Temp\ccQ45nMh.s 			page 68


 3055 01a2 40       		.byte	64
 3056 01a3 40       		.byte	64
 3057 01a4 40       		.byte	64
 3058 01a5 7F       		.byte	127
 3059 01a6 02       		.byte	2
 3060 01a7 1C       		.byte	28
 3061 01a8 02       		.byte	2
 3062 01a9 7F       		.byte	127
 3063 01aa 7F       		.byte	127
 3064 01ab 04       		.byte	4
 3065 01ac 08       		.byte	8
 3066 01ad 10       		.byte	16
 3067 01ae 7F       		.byte	127
 3068 01af 3E       		.byte	62
 3069 01b0 41       		.byte	65
 3070 01b1 41       		.byte	65
 3071 01b2 41       		.byte	65
 3072 01b3 3E       		.byte	62
 3073 01b4 7F       		.byte	127
 3074 01b5 09       		.byte	9
 3075 01b6 09       		.byte	9
 3076 01b7 09       		.byte	9
 3077 01b8 06       		.byte	6
 3078 01b9 3E       		.byte	62
 3079 01ba 41       		.byte	65
 3080 01bb 51       		.byte	81
 3081 01bc 21       		.byte	33
 3082 01bd 5E       		.byte	94
 3083 01be 7F       		.byte	127
 3084 01bf 09       		.byte	9
 3085 01c0 19       		.byte	25
 3086 01c1 29       		.byte	41
 3087 01c2 46       		.byte	70
 3088 01c3 26       		.byte	38
 3089 01c4 49       		.byte	73
 3090 01c5 49       		.byte	73
 3091 01c6 49       		.byte	73
 3092 01c7 32       		.byte	50
 3093 01c8 03       		.byte	3
 3094 01c9 01       		.byte	1
 3095 01ca 7F       		.byte	127
 3096 01cb 01       		.byte	1
 3097 01cc 03       		.byte	3
 3098 01cd 3F       		.byte	63
 3099 01ce 40       		.byte	64
 3100 01cf 40       		.byte	64
 3101 01d0 40       		.byte	64
 3102 01d1 3F       		.byte	63
 3103 01d2 1F       		.byte	31
 3104 01d3 20       		.byte	32
 3105 01d4 40       		.byte	64
 3106 01d5 20       		.byte	32
 3107 01d6 1F       		.byte	31
 3108 01d7 3F       		.byte	63
 3109 01d8 40       		.byte	64
 3110 01d9 38       		.byte	56
 3111 01da 40       		.byte	64
ARM GAS  C:\Users\User\AppData\Local\Temp\ccQ45nMh.s 			page 69


 3112 01db 3F       		.byte	63
 3113 01dc 63       		.byte	99
 3114 01dd 14       		.byte	20
 3115 01de 08       		.byte	8
 3116 01df 14       		.byte	20
 3117 01e0 63       		.byte	99
 3118 01e1 03       		.byte	3
 3119 01e2 04       		.byte	4
 3120 01e3 78       		.byte	120
 3121 01e4 04       		.byte	4
 3122 01e5 03       		.byte	3
 3123 01e6 61       		.byte	97
 3124 01e7 59       		.byte	89
 3125 01e8 49       		.byte	73
 3126 01e9 4D       		.byte	77
 3127 01ea 43       		.byte	67
 3128 01eb 00       		.byte	0
 3129 01ec 7F       		.byte	127
 3130 01ed 41       		.byte	65
 3131 01ee 41       		.byte	65
 3132 01ef 41       		.byte	65
 3133 01f0 02       		.byte	2
 3134 01f1 04       		.byte	4
 3135 01f2 08       		.byte	8
 3136 01f3 10       		.byte	16
 3137 01f4 20       		.byte	32
 3138 01f5 00       		.byte	0
 3139 01f6 41       		.byte	65
 3140 01f7 41       		.byte	65
 3141 01f8 41       		.byte	65
 3142 01f9 7F       		.byte	127
 3143 01fa 04       		.byte	4
 3144 01fb 02       		.byte	2
 3145 01fc 01       		.byte	1
 3146 01fd 02       		.byte	2
 3147 01fe 04       		.byte	4
 3148 01ff 40       		.byte	64
 3149 0200 40       		.byte	64
 3150 0201 40       		.byte	64
 3151 0202 40       		.byte	64
 3152 0203 40       		.byte	64
 3153 0204 00       		.byte	0
 3154 0205 03       		.byte	3
 3155 0206 07       		.byte	7
 3156 0207 08       		.byte	8
 3157 0208 00       		.byte	0
 3158 0209 20       		.byte	32
 3159 020a 54       		.byte	84
 3160 020b 54       		.byte	84
 3161 020c 78       		.byte	120
 3162 020d 40       		.byte	64
 3163 020e 7F       		.byte	127
 3164 020f 28       		.byte	40
 3165 0210 44       		.byte	68
 3166 0211 44       		.byte	68
 3167 0212 38       		.byte	56
 3168 0213 38       		.byte	56
ARM GAS  C:\Users\User\AppData\Local\Temp\ccQ45nMh.s 			page 70


 3169 0214 44       		.byte	68
 3170 0215 44       		.byte	68
 3171 0216 44       		.byte	68
 3172 0217 28       		.byte	40
 3173 0218 38       		.byte	56
 3174 0219 44       		.byte	68
 3175 021a 44       		.byte	68
 3176 021b 28       		.byte	40
 3177 021c 7F       		.byte	127
 3178 021d 38       		.byte	56
 3179 021e 54       		.byte	84
 3180 021f 54       		.byte	84
 3181 0220 54       		.byte	84
 3182 0221 18       		.byte	24
 3183 0222 00       		.byte	0
 3184 0223 08       		.byte	8
 3185 0224 7E       		.byte	126
 3186 0225 09       		.byte	9
 3187 0226 02       		.byte	2
 3188 0227 18       		.byte	24
 3189 0228 A4       		.byte	-92
 3190 0229 A4       		.byte	-92
 3191 022a 9C       		.byte	-100
 3192 022b 78       		.byte	120
 3193 022c 7F       		.byte	127
 3194 022d 08       		.byte	8
 3195 022e 04       		.byte	4
 3196 022f 04       		.byte	4
 3197 0230 78       		.byte	120
 3198 0231 00       		.byte	0
 3199 0232 44       		.byte	68
 3200 0233 7D       		.byte	125
 3201 0234 40       		.byte	64
 3202 0235 00       		.byte	0
 3203 0236 20       		.byte	32
 3204 0237 40       		.byte	64
 3205 0238 40       		.byte	64
 3206 0239 3D       		.byte	61
 3207 023a 00       		.byte	0
 3208 023b 7F       		.byte	127
 3209 023c 10       		.byte	16
 3210 023d 28       		.byte	40
 3211 023e 44       		.byte	68
 3212 023f 00       		.byte	0
 3213 0240 00       		.byte	0
 3214 0241 41       		.byte	65
 3215 0242 7F       		.byte	127
 3216 0243 40       		.byte	64
 3217 0244 00       		.byte	0
 3218 0245 7C       		.byte	124
 3219 0246 04       		.byte	4
 3220 0247 78       		.byte	120
 3221 0248 04       		.byte	4
 3222 0249 78       		.byte	120
 3223 024a 7C       		.byte	124
 3224 024b 08       		.byte	8
 3225 024c 04       		.byte	4
ARM GAS  C:\Users\User\AppData\Local\Temp\ccQ45nMh.s 			page 71


 3226 024d 04       		.byte	4
 3227 024e 78       		.byte	120
 3228 024f 38       		.byte	56
 3229 0250 44       		.byte	68
 3230 0251 44       		.byte	68
 3231 0252 44       		.byte	68
 3232 0253 38       		.byte	56
 3233 0254 FC       		.byte	-4
 3234 0255 18       		.byte	24
 3235 0256 24       		.byte	36
 3236 0257 24       		.byte	36
 3237 0258 18       		.byte	24
 3238 0259 18       		.byte	24
 3239 025a 24       		.byte	36
 3240 025b 24       		.byte	36
 3241 025c 18       		.byte	24
 3242 025d FC       		.byte	-4
 3243 025e 7C       		.byte	124
 3244 025f 08       		.byte	8
 3245 0260 04       		.byte	4
 3246 0261 04       		.byte	4
 3247 0262 08       		.byte	8
 3248 0263 48       		.byte	72
 3249 0264 54       		.byte	84
 3250 0265 54       		.byte	84
 3251 0266 54       		.byte	84
 3252 0267 24       		.byte	36
 3253 0268 04       		.byte	4
 3254 0269 04       		.byte	4
 3255 026a 3F       		.byte	63
 3256 026b 44       		.byte	68
 3257 026c 24       		.byte	36
 3258 026d 3C       		.byte	60
 3259 026e 40       		.byte	64
 3260 026f 40       		.byte	64
 3261 0270 20       		.byte	32
 3262 0271 7C       		.byte	124
 3263 0272 1C       		.byte	28
 3264 0273 20       		.byte	32
 3265 0274 40       		.byte	64
 3266 0275 20       		.byte	32
 3267 0276 1C       		.byte	28
 3268 0277 3C       		.byte	60
 3269 0278 40       		.byte	64
 3270 0279 30       		.byte	48
 3271 027a 40       		.byte	64
 3272 027b 3C       		.byte	60
 3273 027c 44       		.byte	68
 3274 027d 28       		.byte	40
 3275 027e 10       		.byte	16
 3276 027f 28       		.byte	40
 3277 0280 44       		.byte	68
 3278 0281 4C       		.byte	76
 3279 0282 90       		.byte	-112
 3280 0283 90       		.byte	-112
 3281 0284 90       		.byte	-112
 3282 0285 7C       		.byte	124
ARM GAS  C:\Users\User\AppData\Local\Temp\ccQ45nMh.s 			page 72


 3283 0286 44       		.byte	68
 3284 0287 64       		.byte	100
 3285 0288 54       		.byte	84
 3286 0289 4C       		.byte	76
 3287 028a 44       		.byte	68
 3288 028b 00       		.byte	0
 3289 028c 08       		.byte	8
 3290 028d 36       		.byte	54
 3291 028e 41       		.byte	65
 3292 028f 00       		.byte	0
 3293 0290 00       		.byte	0
 3294 0291 00       		.byte	0
 3295 0292 77       		.byte	119
 3296 0293 00       		.byte	0
 3297 0294 00       		.byte	0
 3298 0295 00       		.byte	0
 3299 0296 41       		.byte	65
 3300 0297 36       		.byte	54
 3301 0298 08       		.byte	8
 3302 0299 00       		.byte	0
 3303 029a 02       		.byte	2
 3304 029b 01       		.byte	1
 3305 029c 02       		.byte	2
 3306 029d 04       		.byte	4
 3307 029e 02       		.byte	2
 3308 029f 3C       		.byte	60
 3309 02a0 26       		.byte	38
 3310 02a1 23       		.byte	35
 3311 02a2 26       		.byte	38
 3312 02a3 3C       		.byte	60
 3313 02a4 1E       		.byte	30
 3314 02a5 A1       		.byte	-95
 3315 02a6 A1       		.byte	-95
 3316 02a7 61       		.byte	97
 3317 02a8 12       		.byte	18
 3318 02a9 3A       		.byte	58
 3319 02aa 40       		.byte	64
 3320 02ab 40       		.byte	64
 3321 02ac 20       		.byte	32
 3322 02ad 7A       		.byte	122
 3323 02ae 38       		.byte	56
 3324 02af 54       		.byte	84
 3325 02b0 54       		.byte	84
 3326 02b1 55       		.byte	85
 3327 02b2 59       		.byte	89
 3328 02b3 21       		.byte	33
 3329 02b4 55       		.byte	85
 3330 02b5 55       		.byte	85
 3331 02b6 79       		.byte	121
 3332 02b7 41       		.byte	65
 3333 02b8 22       		.byte	34
 3334 02b9 54       		.byte	84
 3335 02ba 54       		.byte	84
 3336 02bb 78       		.byte	120
 3337 02bc 42       		.byte	66
 3338 02bd 21       		.byte	33
 3339 02be 55       		.byte	85
ARM GAS  C:\Users\User\AppData\Local\Temp\ccQ45nMh.s 			page 73


 3340 02bf 54       		.byte	84
 3341 02c0 78       		.byte	120
 3342 02c1 40       		.byte	64
 3343 02c2 20       		.byte	32
 3344 02c3 54       		.byte	84
 3345 02c4 55       		.byte	85
 3346 02c5 79       		.byte	121
 3347 02c6 40       		.byte	64
 3348 02c7 0C       		.byte	12
 3349 02c8 1E       		.byte	30
 3350 02c9 52       		.byte	82
 3351 02ca 72       		.byte	114
 3352 02cb 12       		.byte	18
 3353 02cc 39       		.byte	57
 3354 02cd 55       		.byte	85
 3355 02ce 55       		.byte	85
 3356 02cf 55       		.byte	85
 3357 02d0 59       		.byte	89
 3358 02d1 39       		.byte	57
 3359 02d2 54       		.byte	84
 3360 02d3 54       		.byte	84
 3361 02d4 54       		.byte	84
 3362 02d5 59       		.byte	89
 3363 02d6 39       		.byte	57
 3364 02d7 55       		.byte	85
 3365 02d8 54       		.byte	84
 3366 02d9 54       		.byte	84
 3367 02da 58       		.byte	88
 3368 02db 00       		.byte	0
 3369 02dc 00       		.byte	0
 3370 02dd 45       		.byte	69
 3371 02de 7C       		.byte	124
 3372 02df 41       		.byte	65
 3373 02e0 00       		.byte	0
 3374 02e1 02       		.byte	2
 3375 02e2 45       		.byte	69
 3376 02e3 7D       		.byte	125
 3377 02e4 42       		.byte	66
 3378 02e5 00       		.byte	0
 3379 02e6 01       		.byte	1
 3380 02e7 45       		.byte	69
 3381 02e8 7C       		.byte	124
 3382 02e9 40       		.byte	64
 3383 02ea 7D       		.byte	125
 3384 02eb 12       		.byte	18
 3385 02ec 11       		.byte	17
 3386 02ed 12       		.byte	18
 3387 02ee 7D       		.byte	125
 3388 02ef F0       		.byte	-16
 3389 02f0 28       		.byte	40
 3390 02f1 25       		.byte	37
 3391 02f2 28       		.byte	40
 3392 02f3 F0       		.byte	-16
 3393 02f4 7C       		.byte	124
 3394 02f5 54       		.byte	84
 3395 02f6 55       		.byte	85
 3396 02f7 45       		.byte	69
ARM GAS  C:\Users\User\AppData\Local\Temp\ccQ45nMh.s 			page 74


 3397 02f8 00       		.byte	0
 3398 02f9 20       		.byte	32
 3399 02fa 54       		.byte	84
 3400 02fb 54       		.byte	84
 3401 02fc 7C       		.byte	124
 3402 02fd 54       		.byte	84
 3403 02fe 7C       		.byte	124
 3404 02ff 0A       		.byte	10
 3405 0300 09       		.byte	9
 3406 0301 7F       		.byte	127
 3407 0302 49       		.byte	73
 3408 0303 32       		.byte	50
 3409 0304 49       		.byte	73
 3410 0305 49       		.byte	73
 3411 0306 49       		.byte	73
 3412 0307 32       		.byte	50
 3413 0308 3A       		.byte	58
 3414 0309 44       		.byte	68
 3415 030a 44       		.byte	68
 3416 030b 44       		.byte	68
 3417 030c 3A       		.byte	58
 3418 030d 32       		.byte	50
 3419 030e 4A       		.byte	74
 3420 030f 48       		.byte	72
 3421 0310 48       		.byte	72
 3422 0311 30       		.byte	48
 3423 0312 3A       		.byte	58
 3424 0313 41       		.byte	65
 3425 0314 41       		.byte	65
 3426 0315 21       		.byte	33
 3427 0316 7A       		.byte	122
 3428 0317 3A       		.byte	58
 3429 0318 42       		.byte	66
 3430 0319 40       		.byte	64
 3431 031a 20       		.byte	32
 3432 031b 78       		.byte	120
 3433 031c 00       		.byte	0
 3434 031d 9D       		.byte	-99
 3435 031e A0       		.byte	-96
 3436 031f A0       		.byte	-96
 3437 0320 7D       		.byte	125
 3438 0321 3D       		.byte	61
 3439 0322 42       		.byte	66
 3440 0323 42       		.byte	66
 3441 0324 42       		.byte	66
 3442 0325 3D       		.byte	61
 3443 0326 3D       		.byte	61
 3444 0327 40       		.byte	64
 3445 0328 40       		.byte	64
 3446 0329 40       		.byte	64
 3447 032a 3D       		.byte	61
 3448 032b 3C       		.byte	60
 3449 032c 24       		.byte	36
 3450 032d FF       		.byte	-1
 3451 032e 24       		.byte	36
 3452 032f 24       		.byte	36
 3453 0330 48       		.byte	72
ARM GAS  C:\Users\User\AppData\Local\Temp\ccQ45nMh.s 			page 75


 3454 0331 7E       		.byte	126
 3455 0332 49       		.byte	73
 3456 0333 43       		.byte	67
 3457 0334 66       		.byte	102
 3458 0335 2B       		.byte	43
 3459 0336 2F       		.byte	47
 3460 0337 FC       		.byte	-4
 3461 0338 2F       		.byte	47
 3462 0339 2B       		.byte	43
 3463 033a FF       		.byte	-1
 3464 033b 09       		.byte	9
 3465 033c 29       		.byte	41
 3466 033d F6       		.byte	-10
 3467 033e 20       		.byte	32
 3468 033f C0       		.byte	-64
 3469 0340 88       		.byte	-120
 3470 0341 7E       		.byte	126
 3471 0342 09       		.byte	9
 3472 0343 03       		.byte	3
 3473 0344 20       		.byte	32
 3474 0345 54       		.byte	84
 3475 0346 54       		.byte	84
 3476 0347 79       		.byte	121
 3477 0348 41       		.byte	65
 3478 0349 00       		.byte	0
 3479 034a 00       		.byte	0
 3480 034b 44       		.byte	68
 3481 034c 7D       		.byte	125
 3482 034d 41       		.byte	65
 3483 034e 30       		.byte	48
 3484 034f 48       		.byte	72
 3485 0350 48       		.byte	72
 3486 0351 4A       		.byte	74
 3487 0352 32       		.byte	50
 3488 0353 38       		.byte	56
 3489 0354 40       		.byte	64
 3490 0355 40       		.byte	64
 3491 0356 22       		.byte	34
 3492 0357 7A       		.byte	122
 3493 0358 00       		.byte	0
 3494 0359 7A       		.byte	122
 3495 035a 0A       		.byte	10
 3496 035b 0A       		.byte	10
 3497 035c 72       		.byte	114
 3498 035d 7D       		.byte	125
 3499 035e 0D       		.byte	13
 3500 035f 19       		.byte	25
 3501 0360 31       		.byte	49
 3502 0361 7D       		.byte	125
 3503 0362 26       		.byte	38
 3504 0363 29       		.byte	41
 3505 0364 29       		.byte	41
 3506 0365 2F       		.byte	47
 3507 0366 28       		.byte	40
 3508 0367 26       		.byte	38
 3509 0368 29       		.byte	41
 3510 0369 29       		.byte	41
ARM GAS  C:\Users\User\AppData\Local\Temp\ccQ45nMh.s 			page 76


 3511 036a 29       		.byte	41
 3512 036b 26       		.byte	38
 3513 036c 30       		.byte	48
 3514 036d 48       		.byte	72
 3515 036e 4D       		.byte	77
 3516 036f 40       		.byte	64
 3517 0370 20       		.byte	32
 3518 0371 38       		.byte	56
 3519 0372 08       		.byte	8
 3520 0373 08       		.byte	8
 3521 0374 08       		.byte	8
 3522 0375 08       		.byte	8
 3523 0376 08       		.byte	8
 3524 0377 08       		.byte	8
 3525 0378 08       		.byte	8
 3526 0379 08       		.byte	8
 3527 037a 38       		.byte	56
 3528 037b 2F       		.byte	47
 3529 037c 10       		.byte	16
 3530 037d C8       		.byte	-56
 3531 037e AC       		.byte	-84
 3532 037f BA       		.byte	-70
 3533 0380 2F       		.byte	47
 3534 0381 10       		.byte	16
 3535 0382 28       		.byte	40
 3536 0383 34       		.byte	52
 3537 0384 FA       		.byte	-6
 3538 0385 00       		.byte	0
 3539 0386 00       		.byte	0
 3540 0387 7B       		.byte	123
 3541 0388 00       		.byte	0
 3542 0389 00       		.byte	0
 3543 038a 08       		.byte	8
 3544 038b 14       		.byte	20
 3545 038c 2A       		.byte	42
 3546 038d 14       		.byte	20
 3547 038e 22       		.byte	34
 3548 038f 22       		.byte	34
 3549 0390 14       		.byte	20
 3550 0391 2A       		.byte	42
 3551 0392 14       		.byte	20
 3552 0393 08       		.byte	8
 3553 0394 AA       		.byte	-86
 3554 0395 00       		.byte	0
 3555 0396 55       		.byte	85
 3556 0397 00       		.byte	0
 3557 0398 AA       		.byte	-86
 3558 0399 AA       		.byte	-86
 3559 039a 55       		.byte	85
 3560 039b AA       		.byte	-86
 3561 039c 55       		.byte	85
 3562 039d AA       		.byte	-86
 3563 039e 00       		.byte	0
 3564 039f 00       		.byte	0
 3565 03a0 00       		.byte	0
 3566 03a1 FF       		.byte	-1
 3567 03a2 00       		.byte	0
ARM GAS  C:\Users\User\AppData\Local\Temp\ccQ45nMh.s 			page 77


 3568 03a3 10       		.byte	16
 3569 03a4 10       		.byte	16
 3570 03a5 10       		.byte	16
 3571 03a6 FF       		.byte	-1
 3572 03a7 00       		.byte	0
 3573 03a8 14       		.byte	20
 3574 03a9 14       		.byte	20
 3575 03aa 14       		.byte	20
 3576 03ab FF       		.byte	-1
 3577 03ac 00       		.byte	0
 3578 03ad 10       		.byte	16
 3579 03ae 10       		.byte	16
 3580 03af FF       		.byte	-1
 3581 03b0 00       		.byte	0
 3582 03b1 FF       		.byte	-1
 3583 03b2 10       		.byte	16
 3584 03b3 10       		.byte	16
 3585 03b4 F0       		.byte	-16
 3586 03b5 10       		.byte	16
 3587 03b6 F0       		.byte	-16
 3588 03b7 14       		.byte	20
 3589 03b8 14       		.byte	20
 3590 03b9 14       		.byte	20
 3591 03ba FC       		.byte	-4
 3592 03bb 00       		.byte	0
 3593 03bc 14       		.byte	20
 3594 03bd 14       		.byte	20
 3595 03be F7       		.byte	-9
 3596 03bf 00       		.byte	0
 3597 03c0 FF       		.byte	-1
 3598 03c1 00       		.byte	0
 3599 03c2 00       		.byte	0
 3600 03c3 FF       		.byte	-1
 3601 03c4 00       		.byte	0
 3602 03c5 FF       		.byte	-1
 3603 03c6 14       		.byte	20
 3604 03c7 14       		.byte	20
 3605 03c8 F4       		.byte	-12
 3606 03c9 04       		.byte	4
 3607 03ca FC       		.byte	-4
 3608 03cb 14       		.byte	20
 3609 03cc 14       		.byte	20
 3610 03cd 17       		.byte	23
 3611 03ce 10       		.byte	16
 3612 03cf 1F       		.byte	31
 3613 03d0 10       		.byte	16
 3614 03d1 10       		.byte	16
 3615 03d2 1F       		.byte	31
 3616 03d3 10       		.byte	16
 3617 03d4 1F       		.byte	31
 3618 03d5 14       		.byte	20
 3619 03d6 14       		.byte	20
 3620 03d7 14       		.byte	20
 3621 03d8 1F       		.byte	31
 3622 03d9 00       		.byte	0
 3623 03da 10       		.byte	16
 3624 03db 10       		.byte	16
ARM GAS  C:\Users\User\AppData\Local\Temp\ccQ45nMh.s 			page 78


 3625 03dc 10       		.byte	16
 3626 03dd F0       		.byte	-16
 3627 03de 00       		.byte	0
 3628 03df 00       		.byte	0
 3629 03e0 00       		.byte	0
 3630 03e1 00       		.byte	0
 3631 03e2 1F       		.byte	31
 3632 03e3 10       		.byte	16
 3633 03e4 10       		.byte	16
 3634 03e5 10       		.byte	16
 3635 03e6 10       		.byte	16
 3636 03e7 1F       		.byte	31
 3637 03e8 10       		.byte	16
 3638 03e9 10       		.byte	16
 3639 03ea 10       		.byte	16
 3640 03eb 10       		.byte	16
 3641 03ec F0       		.byte	-16
 3642 03ed 10       		.byte	16
 3643 03ee 00       		.byte	0
 3644 03ef 00       		.byte	0
 3645 03f0 00       		.byte	0
 3646 03f1 FF       		.byte	-1
 3647 03f2 10       		.byte	16
 3648 03f3 10       		.byte	16
 3649 03f4 10       		.byte	16
 3650 03f5 10       		.byte	16
 3651 03f6 10       		.byte	16
 3652 03f7 10       		.byte	16
 3653 03f8 10       		.byte	16
 3654 03f9 10       		.byte	16
 3655 03fa 10       		.byte	16
 3656 03fb FF       		.byte	-1
 3657 03fc 10       		.byte	16
 3658 03fd 00       		.byte	0
 3659 03fe 00       		.byte	0
 3660 03ff 00       		.byte	0
 3661 0400 FF       		.byte	-1
 3662 0401 14       		.byte	20
 3663 0402 00       		.byte	0
 3664 0403 00       		.byte	0
 3665 0404 FF       		.byte	-1
 3666 0405 00       		.byte	0
 3667 0406 FF       		.byte	-1
 3668 0407 00       		.byte	0
 3669 0408 00       		.byte	0
 3670 0409 1F       		.byte	31
 3671 040a 10       		.byte	16
 3672 040b 17       		.byte	23
 3673 040c 00       		.byte	0
 3674 040d 00       		.byte	0
 3675 040e FC       		.byte	-4
 3676 040f 04       		.byte	4
 3677 0410 F4       		.byte	-12
 3678 0411 14       		.byte	20
 3679 0412 14       		.byte	20
 3680 0413 17       		.byte	23
 3681 0414 10       		.byte	16
ARM GAS  C:\Users\User\AppData\Local\Temp\ccQ45nMh.s 			page 79


 3682 0415 17       		.byte	23
 3683 0416 14       		.byte	20
 3684 0417 14       		.byte	20
 3685 0418 F4       		.byte	-12
 3686 0419 04       		.byte	4
 3687 041a F4       		.byte	-12
 3688 041b 00       		.byte	0
 3689 041c 00       		.byte	0
 3690 041d FF       		.byte	-1
 3691 041e 00       		.byte	0
 3692 041f F7       		.byte	-9
 3693 0420 14       		.byte	20
 3694 0421 14       		.byte	20
 3695 0422 14       		.byte	20
 3696 0423 14       		.byte	20
 3697 0424 14       		.byte	20
 3698 0425 14       		.byte	20
 3699 0426 14       		.byte	20
 3700 0427 F7       		.byte	-9
 3701 0428 00       		.byte	0
 3702 0429 F7       		.byte	-9
 3703 042a 14       		.byte	20
 3704 042b 14       		.byte	20
 3705 042c 14       		.byte	20
 3706 042d 17       		.byte	23
 3707 042e 14       		.byte	20
 3708 042f 10       		.byte	16
 3709 0430 10       		.byte	16
 3710 0431 1F       		.byte	31
 3711 0432 10       		.byte	16
 3712 0433 1F       		.byte	31
 3713 0434 14       		.byte	20
 3714 0435 14       		.byte	20
 3715 0436 14       		.byte	20
 3716 0437 F4       		.byte	-12
 3717 0438 14       		.byte	20
 3718 0439 10       		.byte	16
 3719 043a 10       		.byte	16
 3720 043b F0       		.byte	-16
 3721 043c 10       		.byte	16
 3722 043d F0       		.byte	-16
 3723 043e 00       		.byte	0
 3724 043f 00       		.byte	0
 3725 0440 1F       		.byte	31
 3726 0441 10       		.byte	16
 3727 0442 1F       		.byte	31
 3728 0443 00       		.byte	0
 3729 0444 00       		.byte	0
 3730 0445 00       		.byte	0
 3731 0446 1F       		.byte	31
 3732 0447 14       		.byte	20
 3733 0448 00       		.byte	0
 3734 0449 00       		.byte	0
 3735 044a 00       		.byte	0
 3736 044b FC       		.byte	-4
 3737 044c 14       		.byte	20
 3738 044d 00       		.byte	0
ARM GAS  C:\Users\User\AppData\Local\Temp\ccQ45nMh.s 			page 80


 3739 044e 00       		.byte	0
 3740 044f F0       		.byte	-16
 3741 0450 10       		.byte	16
 3742 0451 F0       		.byte	-16
 3743 0452 10       		.byte	16
 3744 0453 10       		.byte	16
 3745 0454 FF       		.byte	-1
 3746 0455 10       		.byte	16
 3747 0456 FF       		.byte	-1
 3748 0457 14       		.byte	20
 3749 0458 14       		.byte	20
 3750 0459 14       		.byte	20
 3751 045a FF       		.byte	-1
 3752 045b 14       		.byte	20
 3753 045c 10       		.byte	16
 3754 045d 10       		.byte	16
 3755 045e 10       		.byte	16
 3756 045f 1F       		.byte	31
 3757 0460 00       		.byte	0
 3758 0461 00       		.byte	0
 3759 0462 00       		.byte	0
 3760 0463 00       		.byte	0
 3761 0464 F0       		.byte	-16
 3762 0465 10       		.byte	16
 3763 0466 FF       		.byte	-1
 3764 0467 FF       		.byte	-1
 3765 0468 FF       		.byte	-1
 3766 0469 FF       		.byte	-1
 3767 046a FF       		.byte	-1
 3768 046b F0       		.byte	-16
 3769 046c F0       		.byte	-16
 3770 046d F0       		.byte	-16
 3771 046e F0       		.byte	-16
 3772 046f F0       		.byte	-16
 3773 0470 FF       		.byte	-1
 3774 0471 FF       		.byte	-1
 3775 0472 FF       		.byte	-1
 3776 0473 00       		.byte	0
 3777 0474 00       		.byte	0
 3778 0475 00       		.byte	0
 3779 0476 00       		.byte	0
 3780 0477 00       		.byte	0
 3781 0478 FF       		.byte	-1
 3782 0479 FF       		.byte	-1
 3783 047a 0F       		.byte	15
 3784 047b 0F       		.byte	15
 3785 047c 0F       		.byte	15
 3786 047d 0F       		.byte	15
 3787 047e 0F       		.byte	15
 3788 047f 38       		.byte	56
 3789 0480 44       		.byte	68
 3790 0481 44       		.byte	68
 3791 0482 38       		.byte	56
 3792 0483 44       		.byte	68
 3793 0484 FC       		.byte	-4
 3794 0485 4A       		.byte	74
 3795 0486 4A       		.byte	74
ARM GAS  C:\Users\User\AppData\Local\Temp\ccQ45nMh.s 			page 81


 3796 0487 4A       		.byte	74
 3797 0488 34       		.byte	52
 3798 0489 7E       		.byte	126
 3799 048a 02       		.byte	2
 3800 048b 02       		.byte	2
 3801 048c 06       		.byte	6
 3802 048d 06       		.byte	6
 3803 048e 02       		.byte	2
 3804 048f 7E       		.byte	126
 3805 0490 02       		.byte	2
 3806 0491 7E       		.byte	126
 3807 0492 02       		.byte	2
 3808 0493 63       		.byte	99
 3809 0494 55       		.byte	85
 3810 0495 49       		.byte	73
 3811 0496 41       		.byte	65
 3812 0497 63       		.byte	99
 3813 0498 38       		.byte	56
 3814 0499 44       		.byte	68
 3815 049a 44       		.byte	68
 3816 049b 3C       		.byte	60
 3817 049c 04       		.byte	4
 3818 049d 40       		.byte	64
 3819 049e 7E       		.byte	126
 3820 049f 20       		.byte	32
 3821 04a0 1E       		.byte	30
 3822 04a1 20       		.byte	32
 3823 04a2 06       		.byte	6
 3824 04a3 02       		.byte	2
 3825 04a4 7E       		.byte	126
 3826 04a5 02       		.byte	2
 3827 04a6 02       		.byte	2
 3828 04a7 99       		.byte	-103
 3829 04a8 A5       		.byte	-91
 3830 04a9 E7       		.byte	-25
 3831 04aa A5       		.byte	-91
 3832 04ab 99       		.byte	-103
 3833 04ac 1C       		.byte	28
 3834 04ad 2A       		.byte	42
 3835 04ae 49       		.byte	73
 3836 04af 2A       		.byte	42
 3837 04b0 1C       		.byte	28
 3838 04b1 4C       		.byte	76
 3839 04b2 72       		.byte	114
 3840 04b3 01       		.byte	1
 3841 04b4 72       		.byte	114
 3842 04b5 4C       		.byte	76
 3843 04b6 30       		.byte	48
 3844 04b7 4A       		.byte	74
 3845 04b8 4D       		.byte	77
 3846 04b9 4D       		.byte	77
 3847 04ba 30       		.byte	48
 3848 04bb 30       		.byte	48
 3849 04bc 48       		.byte	72
 3850 04bd 78       		.byte	120
 3851 04be 48       		.byte	72
 3852 04bf 30       		.byte	48
ARM GAS  C:\Users\User\AppData\Local\Temp\ccQ45nMh.s 			page 82


 3853 04c0 BC       		.byte	-68
 3854 04c1 62       		.byte	98
 3855 04c2 5A       		.byte	90
 3856 04c3 46       		.byte	70
 3857 04c4 3D       		.byte	61
 3858 04c5 3E       		.byte	62
 3859 04c6 49       		.byte	73
 3860 04c7 49       		.byte	73
 3861 04c8 49       		.byte	73
 3862 04c9 00       		.byte	0
 3863 04ca 7E       		.byte	126
 3864 04cb 01       		.byte	1
 3865 04cc 01       		.byte	1
 3866 04cd 01       		.byte	1
 3867 04ce 7E       		.byte	126
 3868 04cf 2A       		.byte	42
 3869 04d0 2A       		.byte	42
 3870 04d1 2A       		.byte	42
 3871 04d2 2A       		.byte	42
 3872 04d3 2A       		.byte	42
 3873 04d4 44       		.byte	68
 3874 04d5 44       		.byte	68
 3875 04d6 5F       		.byte	95
 3876 04d7 44       		.byte	68
 3877 04d8 44       		.byte	68
 3878 04d9 40       		.byte	64
 3879 04da 51       		.byte	81
 3880 04db 4A       		.byte	74
 3881 04dc 44       		.byte	68
 3882 04dd 40       		.byte	64
 3883 04de 40       		.byte	64
 3884 04df 44       		.byte	68
 3885 04e0 4A       		.byte	74
 3886 04e1 51       		.byte	81
 3887 04e2 40       		.byte	64
 3888 04e3 00       		.byte	0
 3889 04e4 00       		.byte	0
 3890 04e5 FF       		.byte	-1
 3891 04e6 01       		.byte	1
 3892 04e7 03       		.byte	3
 3893 04e8 E0       		.byte	-32
 3894 04e9 80       		.byte	-128
 3895 04ea FF       		.byte	-1
 3896 04eb 00       		.byte	0
 3897 04ec 00       		.byte	0
 3898 04ed 08       		.byte	8
 3899 04ee 08       		.byte	8
 3900 04ef 6B       		.byte	107
 3901 04f0 6B       		.byte	107
 3902 04f1 08       		.byte	8
 3903 04f2 36       		.byte	54
 3904 04f3 12       		.byte	18
 3905 04f4 36       		.byte	54
 3906 04f5 24       		.byte	36
 3907 04f6 36       		.byte	54
 3908 04f7 06       		.byte	6
 3909 04f8 0F       		.byte	15
ARM GAS  C:\Users\User\AppData\Local\Temp\ccQ45nMh.s 			page 83


 3910 04f9 09       		.byte	9
 3911 04fa 0F       		.byte	15
 3912 04fb 06       		.byte	6
 3913 04fc 00       		.byte	0
 3914 04fd 00       		.byte	0
 3915 04fe 18       		.byte	24
 3916 04ff 18       		.byte	24
 3917 0500 00       		.byte	0
 3918 0501 00       		.byte	0
 3919 0502 00       		.byte	0
 3920 0503 10       		.byte	16
 3921 0504 10       		.byte	16
 3922 0505 00       		.byte	0
 3923 0506 30       		.byte	48
 3924 0507 40       		.byte	64
 3925 0508 FF       		.byte	-1
 3926 0509 01       		.byte	1
 3927 050a 01       		.byte	1
 3928 050b 00       		.byte	0
 3929 050c 1F       		.byte	31
 3930 050d 01       		.byte	1
 3931 050e 01       		.byte	1
 3932 050f 1E       		.byte	30
 3933 0510 00       		.byte	0
 3934 0511 19       		.byte	25
 3935 0512 1D       		.byte	29
 3936 0513 17       		.byte	23
 3937 0514 12       		.byte	18
 3938 0515 00       		.byte	0
 3939 0516 3C       		.byte	60
 3940 0517 3C       		.byte	60
 3941 0518 3C       		.byte	60
 3942 0519 3C       		.byte	60
 3943 051a 00       		.byte	0
 3944 051b 00       		.byte	0
 3945 051c 00       		.byte	0
 3946 051d 00       		.byte	0
 3947 051e 00       		.byte	0
 3948 051f 00       		.data
 3949              		.align	2
 3950              		.set	.LANCHOR0,. + 0
 3951              		.type	SSD1306_buffer, %object
 3952              		.size	SSD1306_buffer, 1025
 3953              	SSD1306_buffer:
 3954 0000 40       		.byte	64
 3955 0001 00000000 		.space	1024
 3955      00000000 
 3955      00000000 
 3955      00000000 
 3955      00000000 
 3956 0401 000000   		.bss
 3957              		.align	1
 3958              		.set	.LANCHOR1,. + 0
 3959              		.type	_i2caddr, %object
 3960              		.size	_i2caddr, 1
 3961              	_i2caddr:
 3962 0000 00       		.space	1
ARM GAS  C:\Users\User\AppData\Local\Temp\ccQ45nMh.s 			page 84


 3963 0001 00       		.space	1
 3964              		.type	_width, %object
 3965              		.size	_width, 2
 3966              	_width:
 3967 0002 0000     		.space	2
 3968              		.type	_height, %object
 3969              		.size	_height, 2
 3970              	_height:
 3971 0004 0000     		.space	2
 3972              		.type	cursor_x, %object
 3973              		.size	cursor_x, 2
 3974              	cursor_x:
 3975 0006 0000     		.space	2
 3976              		.type	cursor_y, %object
 3977              		.size	cursor_y, 2
 3978              	cursor_y:
 3979 0008 0000     		.space	2
 3980              		.type	textsize, %object
 3981              		.size	textsize, 1
 3982              	textsize:
 3983 000a 00       		.space	1
 3984 000b 00       		.space	1
 3985              		.type	textbgcolor, %object
 3986              		.size	textbgcolor, 2
 3987              	textbgcolor:
 3988 000c 0000     		.space	2
 3989              		.type	textcolor, %object
 3990              		.size	textcolor, 2
 3991              	textcolor:
 3992 000e 0000     		.space	2
 3993              		.text
 3994              	.Letext0:
 3995              		.file 2 "d:\\cypress\\psoc creator\\3.3\\psoc creator\\import\\gnu\\arm\\4.9.3\\arm-none-eabi\\inc
 3996              		.file 3 "d:\\cypress\\psoc creator\\3.3\\psoc creator\\import\\gnu\\arm\\4.9.3\\arm-none-eabi\\inc
 3997              		.file 4 "Generated_Source\\PSoC4/cytypes.h"
 3998              		.file 5 "d:\\cypress\\psoc creator\\3.3\\psoc creator\\import\\gnu\\arm\\4.9.3\\lib\\gcc\\arm-none
 3999              		.file 6 ".\\ssd1306.h"
 4000              		.file 7 ".\\font.h"
 4001              		.file 8 "Generated_Source\\PSoC4/I2COLED_I2C.h"
 4002              		.file 9 "d:\\cypress\\psoc creator\\3.3\\psoc creator\\import\\gnu\\arm\\4.9.3\\arm-none-eabi\\inc