ARM GAS  C:\Users\sdysart\AppData\Local\Temp\ccp0v3it.s 			page 1


   1              		.syntax unified
   2              		.cpu cortex-m3
   3              		.fpu softvfp
   4              		.eabi_attribute 20, 1
   5              		.eabi_attribute 21, 1
   6              		.eabi_attribute 23, 3
   7              		.eabi_attribute 24, 1
   8              		.eabi_attribute 25, 1
   9              		.eabi_attribute 26, 1
  10              		.eabi_attribute 30, 1
  11              		.eabi_attribute 34, 1
  12              		.eabi_attribute 18, 4
  13              		.thumb
  14              		.syntax unified
  15              		.file	"cyfitter_cfg.c"
  16              		.text
  17              	.Ltext0:
  18              		.cfi_sections	.debug_frame
  19              		.section	.text.CyClockStartupError,"ax",%progbits
  20              		.align	2
  21              		.thumb
  22              		.thumb_func
  23              		.type	CyClockStartupError, %function
  24              	CyClockStartupError:
  25              	.LFB3:
  26              		.file 1 "Generated_Source\\PSoC5\\cyfitter_cfg.c"
   1:Generated_Source\PSoC5/cyfitter_cfg.c **** 
   2:Generated_Source\PSoC5/cyfitter_cfg.c **** /*******************************************************************************
   3:Generated_Source\PSoC5/cyfitter_cfg.c **** * File Name: cyfitter_cfg.c
   4:Generated_Source\PSoC5/cyfitter_cfg.c **** * 
   5:Generated_Source\PSoC5/cyfitter_cfg.c **** * PSoC Creator  4.1 Update 1
   6:Generated_Source\PSoC5/cyfitter_cfg.c **** *
   7:Generated_Source\PSoC5/cyfitter_cfg.c **** * Description:
   8:Generated_Source\PSoC5/cyfitter_cfg.c **** * This file contains device initialization code.
   9:Generated_Source\PSoC5/cyfitter_cfg.c **** * Except for the user defined sections in CyClockStartupError(), this file should not be modified.
  10:Generated_Source\PSoC5/cyfitter_cfg.c **** * This file is automatically generated by PSoC Creator.
  11:Generated_Source\PSoC5/cyfitter_cfg.c **** *
  12:Generated_Source\PSoC5/cyfitter_cfg.c **** ********************************************************************************
  13:Generated_Source\PSoC5/cyfitter_cfg.c **** * Copyright (c) 2007-2017 Cypress Semiconductor.  All rights reserved.
  14:Generated_Source\PSoC5/cyfitter_cfg.c **** * You may use this file only in accordance with the license, terms, conditions, 
  15:Generated_Source\PSoC5/cyfitter_cfg.c **** * disclaimers, and limitations in the end user license agreement accompanying 
  16:Generated_Source\PSoC5/cyfitter_cfg.c **** * the software package with which this file was provided.
  17:Generated_Source\PSoC5/cyfitter_cfg.c **** ********************************************************************************/
  18:Generated_Source\PSoC5/cyfitter_cfg.c **** 
  19:Generated_Source\PSoC5/cyfitter_cfg.c **** #include <string.h>
  20:Generated_Source\PSoC5/cyfitter_cfg.c **** #include "cytypes.h"
  21:Generated_Source\PSoC5/cyfitter_cfg.c **** #include "cydevice_trm.h"
  22:Generated_Source\PSoC5/cyfitter_cfg.c **** #include "cyfitter.h"
  23:Generated_Source\PSoC5/cyfitter_cfg.c **** #include "CyLib.h"
  24:Generated_Source\PSoC5/cyfitter_cfg.c **** #include "cyfitter_cfg.h"
  25:Generated_Source\PSoC5/cyfitter_cfg.c **** #include "cyapicallbacks.h"
  26:Generated_Source\PSoC5/cyfitter_cfg.c **** 
  27:Generated_Source\PSoC5/cyfitter_cfg.c **** #define CY_NEED_CYCLOCKSTARTUPERROR 1
  28:Generated_Source\PSoC5/cyfitter_cfg.c **** 
  29:Generated_Source\PSoC5/cyfitter_cfg.c **** 
  30:Generated_Source\PSoC5/cyfitter_cfg.c **** #if defined(__GNUC__) || defined(__ARMCC_VERSION)
  31:Generated_Source\PSoC5/cyfitter_cfg.c ****     #define CYPACKED 
ARM GAS  C:\Users\sdysart\AppData\Local\Temp\ccp0v3it.s 			page 2


  32:Generated_Source\PSoC5/cyfitter_cfg.c ****     #define CYPACKED_ATTR __attribute__ ((packed))
  33:Generated_Source\PSoC5/cyfitter_cfg.c ****     #define CYALIGNED __attribute__ ((aligned))
  34:Generated_Source\PSoC5/cyfitter_cfg.c ****     #define CY_CFG_UNUSED __attribute__ ((unused))
  35:Generated_Source\PSoC5/cyfitter_cfg.c ****     #ifndef CY_CFG_SECTION
  36:Generated_Source\PSoC5/cyfitter_cfg.c ****         #define CY_CFG_SECTION __attribute__ ((section(".psocinit")))
  37:Generated_Source\PSoC5/cyfitter_cfg.c ****     #endif
  38:Generated_Source\PSoC5/cyfitter_cfg.c ****     
  39:Generated_Source\PSoC5/cyfitter_cfg.c ****     #if defined(__ARMCC_VERSION)
  40:Generated_Source\PSoC5/cyfitter_cfg.c ****         #define CY_CFG_MEMORY_BARRIER() __memory_changed()
  41:Generated_Source\PSoC5/cyfitter_cfg.c ****     #else
  42:Generated_Source\PSoC5/cyfitter_cfg.c ****         #define CY_CFG_MEMORY_BARRIER() __sync_synchronize()
  43:Generated_Source\PSoC5/cyfitter_cfg.c ****     #endif
  44:Generated_Source\PSoC5/cyfitter_cfg.c ****     
  45:Generated_Source\PSoC5/cyfitter_cfg.c **** #elif defined(__ICCARM__)
  46:Generated_Source\PSoC5/cyfitter_cfg.c ****     #include <intrinsics.h>
  47:Generated_Source\PSoC5/cyfitter_cfg.c **** 
  48:Generated_Source\PSoC5/cyfitter_cfg.c ****     #define CYPACKED __packed
  49:Generated_Source\PSoC5/cyfitter_cfg.c ****     #define CYPACKED_ATTR 
  50:Generated_Source\PSoC5/cyfitter_cfg.c ****     #define CYALIGNED _Pragma("data_alignment=4")
  51:Generated_Source\PSoC5/cyfitter_cfg.c ****     #define CY_CFG_UNUSED _Pragma("diag_suppress=Pe177")
  52:Generated_Source\PSoC5/cyfitter_cfg.c ****     #define CY_CFG_SECTION _Pragma("location=\".psocinit\"")
  53:Generated_Source\PSoC5/cyfitter_cfg.c ****     
  54:Generated_Source\PSoC5/cyfitter_cfg.c ****     #define CY_CFG_MEMORY_BARRIER() __DMB()
  55:Generated_Source\PSoC5/cyfitter_cfg.c ****     
  56:Generated_Source\PSoC5/cyfitter_cfg.c **** #else
  57:Generated_Source\PSoC5/cyfitter_cfg.c ****     #error Unsupported toolchain
  58:Generated_Source\PSoC5/cyfitter_cfg.c **** #endif
  59:Generated_Source\PSoC5/cyfitter_cfg.c **** 
  60:Generated_Source\PSoC5/cyfitter_cfg.c **** #ifndef CYCODE
  61:Generated_Source\PSoC5/cyfitter_cfg.c ****     #define CYCODE
  62:Generated_Source\PSoC5/cyfitter_cfg.c **** #endif
  63:Generated_Source\PSoC5/cyfitter_cfg.c **** #ifndef CYDATA
  64:Generated_Source\PSoC5/cyfitter_cfg.c ****     #define CYDATA
  65:Generated_Source\PSoC5/cyfitter_cfg.c **** #endif
  66:Generated_Source\PSoC5/cyfitter_cfg.c **** #ifndef CYFAR
  67:Generated_Source\PSoC5/cyfitter_cfg.c ****     #define CYFAR
  68:Generated_Source\PSoC5/cyfitter_cfg.c **** #endif
  69:Generated_Source\PSoC5/cyfitter_cfg.c **** #ifndef CYXDATA
  70:Generated_Source\PSoC5/cyfitter_cfg.c ****     #define CYXDATA
  71:Generated_Source\PSoC5/cyfitter_cfg.c **** #endif
  72:Generated_Source\PSoC5/cyfitter_cfg.c **** 
  73:Generated_Source\PSoC5/cyfitter_cfg.c **** 
  74:Generated_Source\PSoC5/cyfitter_cfg.c **** CY_CFG_UNUSED
  75:Generated_Source\PSoC5/cyfitter_cfg.c **** static void CYMEMZERO(void *s, size_t n);
  76:Generated_Source\PSoC5/cyfitter_cfg.c **** CY_CFG_UNUSED
  77:Generated_Source\PSoC5/cyfitter_cfg.c **** static void CYMEMZERO(void *s, size_t n)
  78:Generated_Source\PSoC5/cyfitter_cfg.c **** {
  79:Generated_Source\PSoC5/cyfitter_cfg.c **** 	(void)memset(s, 0, n);
  80:Generated_Source\PSoC5/cyfitter_cfg.c **** }
  81:Generated_Source\PSoC5/cyfitter_cfg.c **** CY_CFG_UNUSED
  82:Generated_Source\PSoC5/cyfitter_cfg.c **** static void CYCONFIGCPY(void *dest, const void *src, size_t n);
  83:Generated_Source\PSoC5/cyfitter_cfg.c **** CY_CFG_UNUSED
  84:Generated_Source\PSoC5/cyfitter_cfg.c **** static void CYCONFIGCPY(void *dest, const void *src, size_t n)
  85:Generated_Source\PSoC5/cyfitter_cfg.c **** {
  86:Generated_Source\PSoC5/cyfitter_cfg.c **** 	(void)memcpy(dest, src, n);
  87:Generated_Source\PSoC5/cyfitter_cfg.c **** }
  88:Generated_Source\PSoC5/cyfitter_cfg.c **** CY_CFG_UNUSED
ARM GAS  C:\Users\sdysart\AppData\Local\Temp\ccp0v3it.s 			page 3


  89:Generated_Source\PSoC5/cyfitter_cfg.c **** static void CYCONFIGCPYCODE(void *dest, const void *src, size_t n);
  90:Generated_Source\PSoC5/cyfitter_cfg.c **** CY_CFG_UNUSED
  91:Generated_Source\PSoC5/cyfitter_cfg.c **** static void CYCONFIGCPYCODE(void *dest, const void *src, size_t n)
  92:Generated_Source\PSoC5/cyfitter_cfg.c **** {
  93:Generated_Source\PSoC5/cyfitter_cfg.c **** 	(void)memcpy(dest, src, n);
  94:Generated_Source\PSoC5/cyfitter_cfg.c **** }
  95:Generated_Source\PSoC5/cyfitter_cfg.c **** 
  96:Generated_Source\PSoC5/cyfitter_cfg.c **** 
  97:Generated_Source\PSoC5/cyfitter_cfg.c **** 
  98:Generated_Source\PSoC5/cyfitter_cfg.c **** 
  99:Generated_Source\PSoC5/cyfitter_cfg.c **** /* Clock startup error codes                                                   */
 100:Generated_Source\PSoC5/cyfitter_cfg.c **** #define CYCLOCKSTART_NO_ERROR    0u
 101:Generated_Source\PSoC5/cyfitter_cfg.c **** #define CYCLOCKSTART_XTAL_ERROR  1u
 102:Generated_Source\PSoC5/cyfitter_cfg.c **** #define CYCLOCKSTART_32KHZ_ERROR 2u
 103:Generated_Source\PSoC5/cyfitter_cfg.c **** #define CYCLOCKSTART_PLL_ERROR   3u
 104:Generated_Source\PSoC5/cyfitter_cfg.c **** #define CYCLOCKSTART_FLL_ERROR   4u
 105:Generated_Source\PSoC5/cyfitter_cfg.c **** 
 106:Generated_Source\PSoC5/cyfitter_cfg.c **** 
 107:Generated_Source\PSoC5/cyfitter_cfg.c **** #ifdef CY_NEED_CYCLOCKSTARTUPERROR
 108:Generated_Source\PSoC5/cyfitter_cfg.c **** /*******************************************************************************
 109:Generated_Source\PSoC5/cyfitter_cfg.c **** * Function Name: CyClockStartupError
 110:Generated_Source\PSoC5/cyfitter_cfg.c **** ********************************************************************************
 111:Generated_Source\PSoC5/cyfitter_cfg.c **** * Summary:
 112:Generated_Source\PSoC5/cyfitter_cfg.c **** *  If an error is encountered during clock configuration (crystal startup error,
 113:Generated_Source\PSoC5/cyfitter_cfg.c **** *  PLL lock error, etc.), the system will end up here.  Unless reimplemented by
 114:Generated_Source\PSoC5/cyfitter_cfg.c **** *  the customer, this function will stop in an infinite loop.
 115:Generated_Source\PSoC5/cyfitter_cfg.c **** *
 116:Generated_Source\PSoC5/cyfitter_cfg.c **** * Parameters:
 117:Generated_Source\PSoC5/cyfitter_cfg.c **** *   void
 118:Generated_Source\PSoC5/cyfitter_cfg.c **** *
 119:Generated_Source\PSoC5/cyfitter_cfg.c **** * Return:
 120:Generated_Source\PSoC5/cyfitter_cfg.c **** *   void
 121:Generated_Source\PSoC5/cyfitter_cfg.c **** *
 122:Generated_Source\PSoC5/cyfitter_cfg.c **** *******************************************************************************/
 123:Generated_Source\PSoC5/cyfitter_cfg.c **** CY_CFG_UNUSED
 124:Generated_Source\PSoC5/cyfitter_cfg.c **** static void CyClockStartupError(uint8 errorCode);
 125:Generated_Source\PSoC5/cyfitter_cfg.c **** CY_CFG_UNUSED
 126:Generated_Source\PSoC5/cyfitter_cfg.c **** static void CyClockStartupError(uint8 errorCode)
 127:Generated_Source\PSoC5/cyfitter_cfg.c **** {
  27              		.loc 1 127 0
  28              		.cfi_startproc
  29              		@ Volatile: function does not return.
  30              		@ args = 0, pretend = 0, frame = 0
  31              		@ frame_needed = 0, uses_anonymous_args = 0
  32              		@ link register save eliminated.
  33              	.LVL0:
  34              	.L2:
  35 0000 FEE7     		b	.L2
  36              		.cfi_endproc
  37              	.LFE3:
  38              		.size	CyClockStartupError, .-CyClockStartupError
  39 0002 00BF     		.section	.text.cfg_write_bytes32,"ax",%progbits
  40              		.align	2
  41              		.thumb
  42              		.thumb_func
  43              		.type	cfg_write_bytes32, %function
  44              	cfg_write_bytes32:
ARM GAS  C:\Users\sdysart\AppData\Local\Temp\ccp0v3it.s 			page 4


  45              	.LFB4:
 128:Generated_Source\PSoC5/cyfitter_cfg.c ****     /* To remove the compiler warning if errorCode not used. */
 129:Generated_Source\PSoC5/cyfitter_cfg.c **** #if defined(CY_PSOC3) && (CY_PSOC3)
 130:Generated_Source\PSoC5/cyfitter_cfg.c ****     errorCode = errorCode;
 131:Generated_Source\PSoC5/cyfitter_cfg.c **** #else
 132:Generated_Source\PSoC5/cyfitter_cfg.c ****     (void)errorCode;
 133:Generated_Source\PSoC5/cyfitter_cfg.c **** #endif /* CY_PSOC3 */
 134:Generated_Source\PSoC5/cyfitter_cfg.c **** 
 135:Generated_Source\PSoC5/cyfitter_cfg.c ****     /* If we have a clock startup error (bad MHz crystal, PLL lock, etc.),  */
 136:Generated_Source\PSoC5/cyfitter_cfg.c ****     /* we will end up here to allow the customer to implement something to  */
 137:Generated_Source\PSoC5/cyfitter_cfg.c ****     /* deal with the clock condition.                                       */
 138:Generated_Source\PSoC5/cyfitter_cfg.c **** 
 139:Generated_Source\PSoC5/cyfitter_cfg.c **** #ifdef CY_CFG_CLOCK_STARTUP_ERROR_CALLBACK
 140:Generated_Source\PSoC5/cyfitter_cfg.c ****     CY_CFG_Clock_Startup_ErrorCallback();
 141:Generated_Source\PSoC5/cyfitter_cfg.c **** #else
 142:Generated_Source\PSoC5/cyfitter_cfg.c ****     /*  If not using CY_CFG_CLOCK_STARTUP_ERROR_CALLBACK, place your clock startup code here. */
 143:Generated_Source\PSoC5/cyfitter_cfg.c ****     /* `#START CyClockStartupError` */
 144:Generated_Source\PSoC5/cyfitter_cfg.c **** 
 145:Generated_Source\PSoC5/cyfitter_cfg.c **** 
 146:Generated_Source\PSoC5/cyfitter_cfg.c **** 
 147:Generated_Source\PSoC5/cyfitter_cfg.c ****     /* `#END` */
 148:Generated_Source\PSoC5/cyfitter_cfg.c **** 
 149:Generated_Source\PSoC5/cyfitter_cfg.c ****     while(1) {}
 150:Generated_Source\PSoC5/cyfitter_cfg.c **** #endif /* CY_CFG_CLOCK_STARTUP_ERROR_CALLBACK */
 151:Generated_Source\PSoC5/cyfitter_cfg.c **** }
 152:Generated_Source\PSoC5/cyfitter_cfg.c **** #endif
 153:Generated_Source\PSoC5/cyfitter_cfg.c **** 
 154:Generated_Source\PSoC5/cyfitter_cfg.c **** #define CY_CFG_BASE_ADDR_COUNT 32u
 155:Generated_Source\PSoC5/cyfitter_cfg.c **** CYPACKED typedef struct
 156:Generated_Source\PSoC5/cyfitter_cfg.c **** {
 157:Generated_Source\PSoC5/cyfitter_cfg.c **** 	uint8 offset;
 158:Generated_Source\PSoC5/cyfitter_cfg.c **** 	uint8 value;
 159:Generated_Source\PSoC5/cyfitter_cfg.c **** } CYPACKED_ATTR cy_cfg_addrvalue_t;
 160:Generated_Source\PSoC5/cyfitter_cfg.c **** 
 161:Generated_Source\PSoC5/cyfitter_cfg.c **** #define cy_cfg_addr_table ((const uint32 CYFAR *)0x48000000u)
 162:Generated_Source\PSoC5/cyfitter_cfg.c **** #define cy_cfg_data_table ((const cy_cfg_addrvalue_t CYFAR *)0x48000080u)
 163:Generated_Source\PSoC5/cyfitter_cfg.c **** 
 164:Generated_Source\PSoC5/cyfitter_cfg.c **** /* IOPINS0_0 Address: CYREG_PRT0_DM0 Size (bytes): 8 */
 165:Generated_Source\PSoC5/cyfitter_cfg.c **** #define BS_IOPINS0_0_VAL ((const uint8 CYFAR *)0x480003FCu)
 166:Generated_Source\PSoC5/cyfitter_cfg.c **** 
 167:Generated_Source\PSoC5/cyfitter_cfg.c **** /* IOPINS0_1 Address: CYREG_PRT1_DM0 Size (bytes): 8 */
 168:Generated_Source\PSoC5/cyfitter_cfg.c **** #define BS_IOPINS0_1_VAL ((const uint8 CYFAR *)0x48000404u)
 169:Generated_Source\PSoC5/cyfitter_cfg.c **** 
 170:Generated_Source\PSoC5/cyfitter_cfg.c **** /* IOPINS0_2 Address: CYREG_PRT2_DM0 Size (bytes): 8 */
 171:Generated_Source\PSoC5/cyfitter_cfg.c **** #define BS_IOPINS0_2_VAL ((const uint8 CYFAR *)0x4800040Cu)
 172:Generated_Source\PSoC5/cyfitter_cfg.c **** 
 173:Generated_Source\PSoC5/cyfitter_cfg.c **** /* IOPINS0_3 Address: CYREG_PRT3_DM0 Size (bytes): 8 */
 174:Generated_Source\PSoC5/cyfitter_cfg.c **** #define BS_IOPINS0_3_VAL ((const uint8 CYFAR *)0x48000414u)
 175:Generated_Source\PSoC5/cyfitter_cfg.c **** 
 176:Generated_Source\PSoC5/cyfitter_cfg.c **** 
 177:Generated_Source\PSoC5/cyfitter_cfg.c **** /*******************************************************************************
 178:Generated_Source\PSoC5/cyfitter_cfg.c **** * Function Name: cfg_write_bytes32
 179:Generated_Source\PSoC5/cyfitter_cfg.c **** ********************************************************************************
 180:Generated_Source\PSoC5/cyfitter_cfg.c **** * Summary:
 181:Generated_Source\PSoC5/cyfitter_cfg.c **** *  This function is used for setting up the chip configuration areas that
 182:Generated_Source\PSoC5/cyfitter_cfg.c **** *  contain relatively sparse data.
 183:Generated_Source\PSoC5/cyfitter_cfg.c **** *
ARM GAS  C:\Users\sdysart\AppData\Local\Temp\ccp0v3it.s 			page 5


 184:Generated_Source\PSoC5/cyfitter_cfg.c **** * Parameters:
 185:Generated_Source\PSoC5/cyfitter_cfg.c **** *   void
 186:Generated_Source\PSoC5/cyfitter_cfg.c **** *
 187:Generated_Source\PSoC5/cyfitter_cfg.c **** * Return:
 188:Generated_Source\PSoC5/cyfitter_cfg.c **** *   void
 189:Generated_Source\PSoC5/cyfitter_cfg.c **** *
 190:Generated_Source\PSoC5/cyfitter_cfg.c **** *******************************************************************************/
 191:Generated_Source\PSoC5/cyfitter_cfg.c **** static void cfg_write_bytes32(const uint32 addr_table[], const cy_cfg_addrvalue_t data_table[]);
 192:Generated_Source\PSoC5/cyfitter_cfg.c **** static void cfg_write_bytes32(const uint32 addr_table[], const cy_cfg_addrvalue_t data_table[])
 193:Generated_Source\PSoC5/cyfitter_cfg.c **** {
  46              		.loc 1 193 0
  47              		.cfi_startproc
  48              		@ args = 0, pretend = 0, frame = 0
  49              		@ frame_needed = 0, uses_anonymous_args = 0
  50              		@ link register save eliminated.
  51              	.LVL1:
  52              		.loc 1 193 0
  53 0000 F0B4     		push	{r4, r5, r6, r7}
  54              		.cfi_def_cfa_offset 16
  55              		.cfi_offset 4, -16
  56              		.cfi_offset 5, -12
  57              		.cfi_offset 6, -8
  58              		.cfi_offset 7, -4
  59              	.LVL2:
 194:Generated_Source\PSoC5/cyfitter_cfg.c **** 	/* For 32-bit little-endian architectures */
 195:Generated_Source\PSoC5/cyfitter_cfg.c **** 	uint32 i, j = 0u;
  60              		.loc 1 195 0
  61 0002 0022     		movs	r2, #0
 196:Generated_Source\PSoC5/cyfitter_cfg.c **** 	for (i = 0u; i < CY_CFG_BASE_ADDR_COUNT; i++)
  62              		.loc 1 196 0
  63 0004 1746     		mov	r7, r2
  64 0006 11E0     		b	.L4
  65              	.LVL3:
  66              	.L7:
  67              	.LBB2:
 197:Generated_Source\PSoC5/cyfitter_cfg.c **** 	{
 198:Generated_Source\PSoC5/cyfitter_cfg.c **** 		uint32 baseAddr = addr_table[i];
  68              		.loc 1 198 0
  69 0008 50F82760 		ldr	r6, [r0, r7, lsl #2]
  70              	.LVL4:
 199:Generated_Source\PSoC5/cyfitter_cfg.c **** 		uint8 count = (uint8)baseAddr;
  71              		.loc 1 199 0
  72 000c F3B2     		uxtb	r3, r6
  73              	.LVL5:
 200:Generated_Source\PSoC5/cyfitter_cfg.c **** 		baseAddr &= 0xFFFFFF00u;
  74              		.loc 1 200 0
  75 000e 26F0FF06 		bic	r6, r6, #255
  76              	.LVL6:
 201:Generated_Source\PSoC5/cyfitter_cfg.c **** 		while (count != 0u)
  77              		.loc 1 201 0
  78 0012 08E0     		b	.L5
  79              	.L6:
 202:Generated_Source\PSoC5/cyfitter_cfg.c **** 		{
 203:Generated_Source\PSoC5/cyfitter_cfg.c **** 			CY_SET_REG8((void *)(baseAddr + data_table[j].offset), data_table[j].value);
  80              		.loc 1 203 0
  81 0014 01EB4205 		add	r5, r1, r2, lsl #1
  82 0018 11F81240 		ldrb	r4, [r1, r2, lsl #1]	@ zero_extendqisi2
ARM GAS  C:\Users\sdysart\AppData\Local\Temp\ccp0v3it.s 			page 6


  83 001c 6D78     		ldrb	r5, [r5, #1]	@ zero_extendqisi2
  84 001e A555     		strb	r5, [r4, r6]
 204:Generated_Source\PSoC5/cyfitter_cfg.c **** 			j++;
  85              		.loc 1 204 0
  86 0020 0132     		adds	r2, r2, #1
  87              	.LVL7:
 205:Generated_Source\PSoC5/cyfitter_cfg.c **** 			count--;
  88              		.loc 1 205 0
  89 0022 013B     		subs	r3, r3, #1
  90              	.LVL8:
  91 0024 DBB2     		uxtb	r3, r3
  92              	.LVL9:
  93              	.L5:
 201:Generated_Source\PSoC5/cyfitter_cfg.c **** 		{
  94              		.loc 1 201 0
  95 0026 002B     		cmp	r3, #0
  96 0028 F4D1     		bne	.L6
  97              	.LBE2:
 196:Generated_Source\PSoC5/cyfitter_cfg.c **** 	{
  98              		.loc 1 196 0 discriminator 2
  99 002a 0137     		adds	r7, r7, #1
 100              	.LVL10:
 101              	.L4:
 196:Generated_Source\PSoC5/cyfitter_cfg.c **** 	{
 102              		.loc 1 196 0 is_stmt 0 discriminator 1
 103 002c 1F2F     		cmp	r7, #31
 104 002e EBD9     		bls	.L7
 206:Generated_Source\PSoC5/cyfitter_cfg.c **** 		}
 207:Generated_Source\PSoC5/cyfitter_cfg.c **** 	}
 208:Generated_Source\PSoC5/cyfitter_cfg.c **** }
 105              		.loc 1 208 0 is_stmt 1
 106 0030 F0BC     		pop	{r4, r5, r6, r7}
 107              		.cfi_restore 7
 108              		.cfi_restore 6
 109              		.cfi_restore 5
 110              		.cfi_restore 4
 111              		.cfi_def_cfa_offset 0
 112              	.LVL11:
 113 0032 7047     		bx	lr
 114              		.cfi_endproc
 115              	.LFE4:
 116              		.size	cfg_write_bytes32, .-cfg_write_bytes32
 117              		.section	.text.AnalogSetDefault,"ax",%progbits
 118              		.align	2
 119              		.thumb
 120              		.thumb_func
 121              		.type	AnalogSetDefault, %function
 122              	AnalogSetDefault:
 123              	.LFB6:
 209:Generated_Source\PSoC5/cyfitter_cfg.c **** 
 210:Generated_Source\PSoC5/cyfitter_cfg.c **** /*******************************************************************************
 211:Generated_Source\PSoC5/cyfitter_cfg.c **** * Function Name: ClockSetup
 212:Generated_Source\PSoC5/cyfitter_cfg.c **** ********************************************************************************
 213:Generated_Source\PSoC5/cyfitter_cfg.c **** *
 214:Generated_Source\PSoC5/cyfitter_cfg.c **** * Summary:
 215:Generated_Source\PSoC5/cyfitter_cfg.c **** *  Performs the initialization of all of the clocks in the device based on the
 216:Generated_Source\PSoC5/cyfitter_cfg.c **** *  settings in the Clock tab of the DWR.  This includes enabling the requested
ARM GAS  C:\Users\sdysart\AppData\Local\Temp\ccp0v3it.s 			page 7


 217:Generated_Source\PSoC5/cyfitter_cfg.c **** *  clocks and setting the necessary dividers to produce the desired frequency. 
 218:Generated_Source\PSoC5/cyfitter_cfg.c **** *
 219:Generated_Source\PSoC5/cyfitter_cfg.c **** * Parameters:
 220:Generated_Source\PSoC5/cyfitter_cfg.c **** *  void
 221:Generated_Source\PSoC5/cyfitter_cfg.c **** *
 222:Generated_Source\PSoC5/cyfitter_cfg.c **** * Return:
 223:Generated_Source\PSoC5/cyfitter_cfg.c **** *  void
 224:Generated_Source\PSoC5/cyfitter_cfg.c **** *
 225:Generated_Source\PSoC5/cyfitter_cfg.c **** *******************************************************************************/
 226:Generated_Source\PSoC5/cyfitter_cfg.c **** static void ClockSetup(void);
 227:Generated_Source\PSoC5/cyfitter_cfg.c **** static void ClockSetup(void)
 228:Generated_Source\PSoC5/cyfitter_cfg.c **** {
 229:Generated_Source\PSoC5/cyfitter_cfg.c **** 	uint32 timeout;
 230:Generated_Source\PSoC5/cyfitter_cfg.c **** 	uint8 pllLock;
 231:Generated_Source\PSoC5/cyfitter_cfg.c **** 
 232:Generated_Source\PSoC5/cyfitter_cfg.c **** 
 233:Generated_Source\PSoC5/cyfitter_cfg.c **** 	/* Configure Digital Clocks based on settings from Clock DWR */
 234:Generated_Source\PSoC5/cyfitter_cfg.c **** 	CY_SET_XTND_REG16((void CYFAR *)(CYREG_CLKDIST_DCFG0_CFG0), 0x124Fu);
 235:Generated_Source\PSoC5/cyfitter_cfg.c **** 	CY_SET_XTND_REG8((void CYFAR *)(CYREG_CLKDIST_DCFG0_CFG0 + 0x2u), 0x18u);
 236:Generated_Source\PSoC5/cyfitter_cfg.c **** 	CY_SET_XTND_REG16((void CYFAR *)(CYREG_CLKDIST_DCFG1_CFG0), 0x3390u);
 237:Generated_Source\PSoC5/cyfitter_cfg.c **** 	CY_SET_XTND_REG8((void CYFAR *)(CYREG_CLKDIST_DCFG1_CFG0 + 0x2u), 0x18u);
 238:Generated_Source\PSoC5/cyfitter_cfg.c **** 	CY_SET_XTND_REG16((void CYFAR *)(CYREG_CLKDIST_DCFG2_CFG0), 0x5DBFu);
 239:Generated_Source\PSoC5/cyfitter_cfg.c **** 	CY_SET_XTND_REG8((void CYFAR *)(CYREG_CLKDIST_DCFG2_CFG0 + 0x2u), 0x18u);
 240:Generated_Source\PSoC5/cyfitter_cfg.c **** 	CY_SET_XTND_REG16((void CYFAR *)(CYREG_CLKDIST_DCFG3_CFG0), 0x89A9u);
 241:Generated_Source\PSoC5/cyfitter_cfg.c **** 	CY_SET_XTND_REG8((void CYFAR *)(CYREG_CLKDIST_DCFG3_CFG0 + 0x2u), 0x18u);
 242:Generated_Source\PSoC5/cyfitter_cfg.c **** 
 243:Generated_Source\PSoC5/cyfitter_cfg.c **** 	/* Configure ILO based on settings from Clock DWR */
 244:Generated_Source\PSoC5/cyfitter_cfg.c **** 	CY_SET_XTND_REG8((void CYFAR *)(CYREG_SLOWCLK_ILO_CR0), 0x02u);
 245:Generated_Source\PSoC5/cyfitter_cfg.c **** 	CY_SET_XTND_REG8((void CYFAR *)(CYREG_CLKDIST_CR), 0x08u);
 246:Generated_Source\PSoC5/cyfitter_cfg.c **** 
 247:Generated_Source\PSoC5/cyfitter_cfg.c **** 	/* Configure IMO based on settings from Clock DWR */
 248:Generated_Source\PSoC5/cyfitter_cfg.c **** 	CY_SET_XTND_REG8((void CYFAR *)(CYREG_FASTCLK_IMO_CR), 0x03u);
 249:Generated_Source\PSoC5/cyfitter_cfg.c **** 	CY_SET_XTND_REG8((void CYFAR *)(CYREG_IMO_TR1), (CY_GET_XTND_REG8((void CYFAR *)CYREG_FLSHID_CUST_
 250:Generated_Source\PSoC5/cyfitter_cfg.c **** 
 251:Generated_Source\PSoC5/cyfitter_cfg.c **** 	/* Configure PLL based on settings from Clock DWR */
 252:Generated_Source\PSoC5/cyfitter_cfg.c **** 	CY_SET_XTND_REG16((void CYFAR *)(CYREG_FASTCLK_PLL_P), 0x0008u);
 253:Generated_Source\PSoC5/cyfitter_cfg.c **** 	CY_SET_XTND_REG16((void CYFAR *)(CYREG_FASTCLK_PLL_CFG0), 0x1251u);
 254:Generated_Source\PSoC5/cyfitter_cfg.c **** 	/* Wait up to 250us for the PLL to lock */
 255:Generated_Source\PSoC5/cyfitter_cfg.c **** 	pllLock = 0u;
 256:Generated_Source\PSoC5/cyfitter_cfg.c **** 	for (timeout = 250u / 10u; (timeout > 0u) && (pllLock != 0x03u); timeout--)
 257:Generated_Source\PSoC5/cyfitter_cfg.c **** 	{ 
 258:Generated_Source\PSoC5/cyfitter_cfg.c **** 		pllLock = 0x03u & ((uint8)((uint8)pllLock << 1) | ((CY_GET_XTND_REG8((void CYFAR *)CYREG_FASTCLK_
 259:Generated_Source\PSoC5/cyfitter_cfg.c **** 		CyDelayCycles(10u * 48u); /* Delay 10us based on 48MHz clock */
 260:Generated_Source\PSoC5/cyfitter_cfg.c **** 	}
 261:Generated_Source\PSoC5/cyfitter_cfg.c **** 	/* If we ran out of time the PLL didn't lock so go to the error function */
 262:Generated_Source\PSoC5/cyfitter_cfg.c **** 	if (timeout == 0u)
 263:Generated_Source\PSoC5/cyfitter_cfg.c **** 	{
 264:Generated_Source\PSoC5/cyfitter_cfg.c **** 		CyClockStartupError(CYCLOCKSTART_PLL_ERROR);
 265:Generated_Source\PSoC5/cyfitter_cfg.c **** 	}
 266:Generated_Source\PSoC5/cyfitter_cfg.c **** 
 267:Generated_Source\PSoC5/cyfitter_cfg.c **** 	/* Configure Bus/Master Clock based on settings from Clock DWR */
 268:Generated_Source\PSoC5/cyfitter_cfg.c **** 	CY_SET_XTND_REG16((void CYFAR *)(CYREG_CLKDIST_MSTR0), 0x0100u);
 269:Generated_Source\PSoC5/cyfitter_cfg.c **** 	CY_SET_XTND_REG8((void CYFAR *)(CYREG_CLKDIST_MSTR0), 0x07u);
 270:Generated_Source\PSoC5/cyfitter_cfg.c **** 	CY_SET_XTND_REG8((void CYFAR *)(CYREG_CLKDIST_BCFG0), 0x00u);
 271:Generated_Source\PSoC5/cyfitter_cfg.c **** 	CY_SET_XTND_REG8((void CYFAR *)(CYREG_CLKDIST_BCFG2), 0x48u);
 272:Generated_Source\PSoC5/cyfitter_cfg.c **** 	CY_SET_XTND_REG8((void CYFAR *)(CYREG_CLKDIST_MSTR0), 0x00u);
 273:Generated_Source\PSoC5/cyfitter_cfg.c **** 	CY_SET_XTND_REG8((void CYFAR *)(CYREG_CLKDIST_LD), 0x02u);
ARM GAS  C:\Users\sdysart\AppData\Local\Temp\ccp0v3it.s 			page 8


 274:Generated_Source\PSoC5/cyfitter_cfg.c **** 
 275:Generated_Source\PSoC5/cyfitter_cfg.c **** 	CY_SET_XTND_REG8((void CYFAR *)(CYREG_PM_ACT_CFG2), ((CY_GET_XTND_REG8((void CYFAR *)CYREG_PM_ACT_
 276:Generated_Source\PSoC5/cyfitter_cfg.c **** }
 277:Generated_Source\PSoC5/cyfitter_cfg.c **** 
 278:Generated_Source\PSoC5/cyfitter_cfg.c **** 
 279:Generated_Source\PSoC5/cyfitter_cfg.c **** /* Analog API Functions */
 280:Generated_Source\PSoC5/cyfitter_cfg.c **** 
 281:Generated_Source\PSoC5/cyfitter_cfg.c **** 
 282:Generated_Source\PSoC5/cyfitter_cfg.c **** /*******************************************************************************
 283:Generated_Source\PSoC5/cyfitter_cfg.c **** * Function Name: AnalogSetDefault
 284:Generated_Source\PSoC5/cyfitter_cfg.c **** ********************************************************************************
 285:Generated_Source\PSoC5/cyfitter_cfg.c **** *
 286:Generated_Source\PSoC5/cyfitter_cfg.c **** * Summary:
 287:Generated_Source\PSoC5/cyfitter_cfg.c **** *  Sets up the analog portions of the chip to default values based on chip
 288:Generated_Source\PSoC5/cyfitter_cfg.c **** *  configuration options from the project.
 289:Generated_Source\PSoC5/cyfitter_cfg.c **** *
 290:Generated_Source\PSoC5/cyfitter_cfg.c **** * Parameters:
 291:Generated_Source\PSoC5/cyfitter_cfg.c **** *  void
 292:Generated_Source\PSoC5/cyfitter_cfg.c **** *
 293:Generated_Source\PSoC5/cyfitter_cfg.c **** * Return:
 294:Generated_Source\PSoC5/cyfitter_cfg.c **** *  void
 295:Generated_Source\PSoC5/cyfitter_cfg.c **** *
 296:Generated_Source\PSoC5/cyfitter_cfg.c **** *******************************************************************************/
 297:Generated_Source\PSoC5/cyfitter_cfg.c **** static void AnalogSetDefault(void);
 298:Generated_Source\PSoC5/cyfitter_cfg.c **** static void AnalogSetDefault(void)
 299:Generated_Source\PSoC5/cyfitter_cfg.c **** {
 124              		.loc 1 299 0
 125              		.cfi_startproc
 126              		@ args = 0, pretend = 0, frame = 0
 127              		@ frame_needed = 0, uses_anonymous_args = 0
 128              		@ link register save eliminated.
 129 0000 10B4     		push	{r4}
 130              		.cfi_def_cfa_offset 4
 131              		.cfi_offset 4, -4
 300:Generated_Source\PSoC5/cyfitter_cfg.c **** 	uint8 bg_xover_inl_trim = CY_GET_XTND_REG8((void CYFAR *)(CYREG_FLSHID_MFG_CFG_BG_XOVER_INL_TRIM +
 132              		.loc 1 300 0
 133 0002 244B     		ldr	r3, .L11
 134 0004 1B78     		ldrb	r3, [r3]	@ zero_extendqisi2
 135 0006 DBB2     		uxtb	r3, r3
 136              	.LVL12:
 301:Generated_Source\PSoC5/cyfitter_cfg.c **** 	CY_SET_XTND_REG8((void CYFAR *)(CYREG_BG_DFT0), (bg_xover_inl_trim & 0x07u));
 137              		.loc 1 301 0
 138 0008 03F00701 		and	r1, r3, #7
 139 000c 224A     		ldr	r2, .L11+4
 140 000e 1170     		strb	r1, [r2]
 302:Generated_Source\PSoC5/cyfitter_cfg.c **** 	CY_SET_XTND_REG8((void CYFAR *)(CYREG_BG_DFT1), ((bg_xover_inl_trim >> 4) & 0x0Fu));
 141              		.loc 1 302 0
 142 0010 1B09     		lsrs	r3, r3, #4
 143              	.LVL13:
 144 0012 0132     		adds	r2, r2, #1
 145 0014 1370     		strb	r3, [r2]
 303:Generated_Source\PSoC5/cyfitter_cfg.c **** 	CY_SET_XTND_REG16((void CYFAR *)CYREG_PRT0_AMUX, 0x1005u);
 146              		.loc 1 303 0
 147 0016 41F20502 		movw	r2, #4101
 148 001a 204B     		ldr	r3, .L11+8
 149 001c 1A80     		strh	r2, [r3]	@ movhi
 304:Generated_Source\PSoC5/cyfitter_cfg.c **** 	CY_SET_XTND_REG16((void CYFAR *)CYREG_PRT1_AMUX, 0x1440u);
ARM GAS  C:\Users\sdysart\AppData\Local\Temp\ccp0v3it.s 			page 9


 150              		.loc 1 304 0
 151 001e 4FF4A252 		mov	r2, #5184
 152 0022 1033     		adds	r3, r3, #16
 153 0024 1A80     		strh	r2, [r3]	@ movhi
 305:Generated_Source\PSoC5/cyfitter_cfg.c **** 	CY_SET_XTND_REG8((void CYFAR *)CYREG_PRT3_AG, 0x40u);
 154              		.loc 1 305 0
 155 0026 4023     		movs	r3, #64
 156 0028 1D4A     		ldr	r2, .L11+12
 157 002a 1370     		strb	r3, [r2]
 306:Generated_Source\PSoC5/cyfitter_cfg.c **** 	CY_SET_XTND_REG8((void CYFAR *)CYREG_BG_CR0, 0x0Du);
 158              		.loc 1 306 0
 159 002c 0D21     		movs	r1, #13
 160 002e 02F22F72 		addw	r2, r2, #1839
 161 0032 1170     		strb	r1, [r2]
 307:Generated_Source\PSoC5/cyfitter_cfg.c **** 	CY_SET_XTND_REG8((void CYFAR *)CYREG_SC2_SW0, 0x10u);
 162              		.loc 1 307 0
 163 0034 1021     		movs	r1, #16
 164 0036 02F5DA72 		add	r2, r2, #436
 165 003a 1170     		strb	r1, [r2]
 308:Generated_Source\PSoC5/cyfitter_cfg.c **** 	CY_SET_XTND_REG8((void CYFAR *)CYREG_SC2_SW8, 0x40u);
 166              		.loc 1 308 0
 167 003c 0832     		adds	r2, r2, #8
 168 003e 1370     		strb	r3, [r2]
 309:Generated_Source\PSoC5/cyfitter_cfg.c **** 	CY_SET_XTND_REG8((void CYFAR *)CYREG_SC3_SW0, 0x04u);
 169              		.loc 1 309 0
 170 0040 0421     		movs	r1, #4
 171 0042 0832     		adds	r2, r2, #8
 172 0044 1170     		strb	r1, [r2]
 310:Generated_Source\PSoC5/cyfitter_cfg.c **** 	CY_SET_XTND_REG8((void CYFAR *)CYREG_SC3_SW8, 0x01u);
 173              		.loc 1 310 0
 174 0046 0120     		movs	r0, #1
 175 0048 0832     		adds	r2, r2, #8
 176 004a 1070     		strb	r0, [r2]
 311:Generated_Source\PSoC5/cyfitter_cfg.c **** 	CY_SET_XTND_REG8((void CYFAR *)CYREG_DAC1_SW3, 0x80u);
 177              		.loc 1 311 0
 178 004c 8021     		movs	r1, #128
 179 004e 5332     		adds	r2, r2, #83
 180 0050 1170     		strb	r1, [r2]
 312:Generated_Source\PSoC5/cyfitter_cfg.c **** 	CY_SET_XTND_REG8((void CYFAR *)CYREG_DAC1_SW4, 0x02u);
 181              		.loc 1 312 0
 182 0052 0221     		movs	r1, #2
 183 0054 0132     		adds	r2, r2, #1
 184 0056 1170     		strb	r1, [r2]
 313:Generated_Source\PSoC5/cyfitter_cfg.c **** 	CY_SET_XTND_REG8((void CYFAR *)CYREG_CMP0_SW0, 0x40u);
 185              		.loc 1 313 0
 186 0058 3432     		adds	r2, r2, #52
 187 005a 1370     		strb	r3, [r2]
 314:Generated_Source\PSoC5/cyfitter_cfg.c **** 	CY_SET_XTND_REG8((void CYFAR *)CYREG_CMP0_SW3, 0x40u);
 188              		.loc 1 314 0
 189 005c 0332     		adds	r2, r2, #3
 190 005e 1370     		strb	r3, [r2]
 315:Generated_Source\PSoC5/cyfitter_cfg.c **** 	CY_SET_XTND_REG8((void CYFAR *)CYREG_CMP1_SW3, 0x41u);
 191              		.loc 1 315 0
 192 0060 4122     		movs	r2, #65
 193 0062 104C     		ldr	r4, .L11+16
 194 0064 2270     		strb	r2, [r4]
 316:Generated_Source\PSoC5/cyfitter_cfg.c **** 	CY_SET_XTND_REG8((void CYFAR *)CYREG_CMP2_SW0, 0x01u);
ARM GAS  C:\Users\sdysart\AppData\Local\Temp\ccp0v3it.s 			page 10


 195              		.loc 1 316 0
 196 0066 0534     		adds	r4, r4, #5
 197 0068 2070     		strb	r0, [r4]
 317:Generated_Source\PSoC5/cyfitter_cfg.c **** 	CY_SET_XTND_REG8((void CYFAR *)CYREG_CMP2_SW3, 0x40u);
 198              		.loc 1 317 0
 199 006a 0F48     		ldr	r0, .L11+20
 200 006c 0370     		strb	r3, [r0]
 318:Generated_Source\PSoC5/cyfitter_cfg.c **** 	CY_SET_XTND_REG8((void CYFAR *)CYREG_CMP3_SW0, 0x02u);
 201              		.loc 1 318 0
 202 006e 0530     		adds	r0, r0, #5
 203 0070 0170     		strb	r1, [r0]
 319:Generated_Source\PSoC5/cyfitter_cfg.c **** 	CY_SET_XTND_REG8((void CYFAR *)CYREG_CMP3_SW3, 0x40u);
 204              		.loc 1 319 0
 205 0072 0E49     		ldr	r1, .L11+24
 206 0074 0B70     		strb	r3, [r1]
 320:Generated_Source\PSoC5/cyfitter_cfg.c **** 	CY_SET_XTND_REG16((void CYFAR *)CYREG_OPAMP0_MX, 0x0105u);
 207              		.loc 1 320 0
 208 0076 40F20513 		movw	r3, #261
 209 007a 6531     		adds	r1, r1, #101
 210 007c 0B80     		strh	r3, [r1]	@ movhi
 321:Generated_Source\PSoC5/cyfitter_cfg.c **** 	CY_SET_XTND_REG16((void CYFAR *)CYREG_OPAMP2_MX, 0x0105u);
 211              		.loc 1 321 0
 212 007e 0431     		adds	r1, r1, #4
 213 0080 0B80     		strh	r3, [r1]	@ movhi
 322:Generated_Source\PSoC5/cyfitter_cfg.c **** 	CY_SET_XTND_REG8((void CYFAR *)CYREG_BUS_SW0, 0x41u);
 214              		.loc 1 322 0
 215 0082 0B4B     		ldr	r3, .L11+28
 216 0084 1A70     		strb	r2, [r3]
 323:Generated_Source\PSoC5/cyfitter_cfg.c **** 	CY_SET_XTND_REG8((void CYFAR *)CYREG_PUMP_CR0, 0x44u);
 217              		.loc 1 323 0
 218 0086 4422     		movs	r2, #68
 219 0088 A3F2E223 		subw	r3, r3, #738
 220 008c 1A70     		strb	r2, [r3]
 324:Generated_Source\PSoC5/cyfitter_cfg.c **** }
 221              		.loc 1 324 0
 222 008e 10BC     		pop	{r4}
 223              		.cfi_restore 4
 224              		.cfi_def_cfa_offset 0
 225 0090 7047     		bx	lr
 226              	.L12:
 227 0092 00BF     		.align	2
 228              	.L11:
 229 0094 CF010049 		.word	1224737231
 230 0098 6E580040 		.word	1073764462
 231 009c 0C510040 		.word	1073762572
 232 00a0 3D510040 		.word	1073762621
 233 00a4 CB5A0040 		.word	1073765067
 234 00a8 D35A0040 		.word	1073765075
 235 00ac DB5A0040 		.word	1073765083
 236 00b0 585B0040 		.word	1073765208
 237              		.cfi_endproc
 238              	.LFE6:
 239              		.size	AnalogSetDefault, .-AnalogSetDefault
 240              		.section	.text.CYMEMZERO,"ax",%progbits
 241              		.align	2
 242              		.thumb
 243              		.thumb_func
ARM GAS  C:\Users\sdysart\AppData\Local\Temp\ccp0v3it.s 			page 11


 244              		.type	CYMEMZERO, %function
 245              	CYMEMZERO:
 246              	.LFB0:
  78:Generated_Source\PSoC5/cyfitter_cfg.c **** 	(void)memset(s, 0, n);
 247              		.loc 1 78 0
 248              		.cfi_startproc
 249              		@ args = 0, pretend = 0, frame = 0
 250              		@ frame_needed = 0, uses_anonymous_args = 0
 251              	.LVL14:
 252 0000 08B5     		push	{r3, lr}
 253              		.cfi_def_cfa_offset 8
 254              		.cfi_offset 3, -8
 255              		.cfi_offset 14, -4
  79:Generated_Source\PSoC5/cyfitter_cfg.c **** }
 256              		.loc 1 79 0
 257 0002 0A46     		mov	r2, r1
 258 0004 0021     		movs	r1, #0
 259              	.LVL15:
 260 0006 FFF7FEFF 		bl	memset
 261              	.LVL16:
 262 000a 08BD     		pop	{r3, pc}
 263              		.cfi_endproc
 264              	.LFE0:
 265              		.size	CYMEMZERO, .-CYMEMZERO
 266              		.section	.text.ClockSetup,"ax",%progbits
 267              		.align	2
 268              		.thumb
 269              		.thumb_func
 270              		.type	ClockSetup, %function
 271              	ClockSetup:
 272              	.LFB5:
 228:Generated_Source\PSoC5/cyfitter_cfg.c **** 	uint32 timeout;
 273              		.loc 1 228 0
 274              		.cfi_startproc
 275              		@ args = 0, pretend = 0, frame = 0
 276              		@ frame_needed = 0, uses_anonymous_args = 0
 277 0000 38B5     		push	{r3, r4, r5, lr}
 278              		.cfi_def_cfa_offset 16
 279              		.cfi_offset 3, -16
 280              		.cfi_offset 4, -12
 281              		.cfi_offset 5, -8
 282              		.cfi_offset 14, -4
 234:Generated_Source\PSoC5/cyfitter_cfg.c **** 	CY_SET_XTND_REG8((void CYFAR *)(CYREG_CLKDIST_DCFG0_CFG0 + 0x2u), 0x18u);
 283              		.loc 1 234 0
 284 0002 41F24F22 		movw	r2, #4687
 285 0006 2D4B     		ldr	r3, .L21
 286 0008 1A80     		strh	r2, [r3]	@ movhi
 235:Generated_Source\PSoC5/cyfitter_cfg.c **** 	CY_SET_XTND_REG16((void CYFAR *)(CYREG_CLKDIST_DCFG1_CFG0), 0x3390u);
 287              		.loc 1 235 0
 288 000a 1823     		movs	r3, #24
 289 000c 2C4A     		ldr	r2, .L21+4
 290 000e 1370     		strb	r3, [r2]
 236:Generated_Source\PSoC5/cyfitter_cfg.c **** 	CY_SET_XTND_REG8((void CYFAR *)(CYREG_CLKDIST_DCFG1_CFG0 + 0x2u), 0x18u);
 291              		.loc 1 236 0
 292 0010 43F29031 		movw	r1, #13200
 293 0014 0232     		adds	r2, r2, #2
 294 0016 1180     		strh	r1, [r2]	@ movhi
ARM GAS  C:\Users\sdysart\AppData\Local\Temp\ccp0v3it.s 			page 12


 237:Generated_Source\PSoC5/cyfitter_cfg.c **** 	CY_SET_XTND_REG16((void CYFAR *)(CYREG_CLKDIST_DCFG2_CFG0), 0x5DBFu);
 295              		.loc 1 237 0
 296 0018 0232     		adds	r2, r2, #2
 297 001a 1370     		strb	r3, [r2]
 238:Generated_Source\PSoC5/cyfitter_cfg.c **** 	CY_SET_XTND_REG8((void CYFAR *)(CYREG_CLKDIST_DCFG2_CFG0 + 0x2u), 0x18u);
 298              		.loc 1 238 0
 299 001c 45F6BF51 		movw	r1, #23999
 300 0020 0232     		adds	r2, r2, #2
 301 0022 1180     		strh	r1, [r2]	@ movhi
 239:Generated_Source\PSoC5/cyfitter_cfg.c **** 	CY_SET_XTND_REG16((void CYFAR *)(CYREG_CLKDIST_DCFG3_CFG0), 0x89A9u);
 302              		.loc 1 239 0
 303 0024 0232     		adds	r2, r2, #2
 304 0026 1370     		strb	r3, [r2]
 240:Generated_Source\PSoC5/cyfitter_cfg.c **** 	CY_SET_XTND_REG8((void CYFAR *)(CYREG_CLKDIST_DCFG3_CFG0 + 0x2u), 0x18u);
 305              		.loc 1 240 0
 306 0028 48F6A911 		movw	r1, #35241
 307 002c 0232     		adds	r2, r2, #2
 308 002e 1180     		strh	r1, [r2]	@ movhi
 241:Generated_Source\PSoC5/cyfitter_cfg.c **** 
 309              		.loc 1 241 0
 310 0030 0232     		adds	r2, r2, #2
 311 0032 1370     		strb	r3, [r2]
 244:Generated_Source\PSoC5/cyfitter_cfg.c **** 	CY_SET_XTND_REG8((void CYFAR *)(CYREG_CLKDIST_CR), 0x08u);
 312              		.loc 1 244 0
 313 0034 0222     		movs	r2, #2
 314 0036 234B     		ldr	r3, .L21+8
 315 0038 1A70     		strb	r2, [r3]
 245:Generated_Source\PSoC5/cyfitter_cfg.c **** 
 316              		.loc 1 245 0
 317 003a 0822     		movs	r2, #8
 318 003c 4FF04023 		mov	r3, #1073758208
 319 0040 1A70     		strb	r2, [r3]
 248:Generated_Source\PSoC5/cyfitter_cfg.c **** 	CY_SET_XTND_REG8((void CYFAR *)(CYREG_IMO_TR1), (CY_GET_XTND_REG8((void CYFAR *)CYREG_FLSHID_CUST_
 320              		.loc 1 248 0
 321 0042 0321     		movs	r1, #3
 322 0044 03F50073 		add	r3, r3, #512
 323 0048 1970     		strb	r1, [r3]
 249:Generated_Source\PSoC5/cyfitter_cfg.c **** 
 324              		.loc 1 249 0
 325 004a 1F4B     		ldr	r3, .L21+12
 326 004c 1B78     		ldrb	r3, [r3]	@ zero_extendqisi2
 327 004e DBB2     		uxtb	r3, r3
 328 0050 1E49     		ldr	r1, .L21+16
 329 0052 0B70     		strb	r3, [r1]
 252:Generated_Source\PSoC5/cyfitter_cfg.c **** 	CY_SET_XTND_REG16((void CYFAR *)(CYREG_FASTCLK_PLL_CFG0), 0x1251u);
 330              		.loc 1 252 0
 331 0054 1E4B     		ldr	r3, .L21+20
 332 0056 1A80     		strh	r2, [r3]	@ movhi
 253:Generated_Source\PSoC5/cyfitter_cfg.c **** 	/* Wait up to 250us for the PLL to lock */
 333              		.loc 1 253 0
 334 0058 41F25122 		movw	r2, #4689
 335 005c 023B     		subs	r3, r3, #2
 336 005e 1A80     		strh	r2, [r3]	@ movhi
 337              	.LVL17:
 255:Generated_Source\PSoC5/cyfitter_cfg.c **** 	for (timeout = 250u / 10u; (timeout > 0u) && (pllLock != 0x03u); timeout--)
 338              		.loc 1 255 0
 339 0060 0024     		movs	r4, #0
ARM GAS  C:\Users\sdysart\AppData\Local\Temp\ccp0v3it.s 			page 13


 256:Generated_Source\PSoC5/cyfitter_cfg.c **** 	{ 
 340              		.loc 1 256 0
 341 0062 1925     		movs	r5, #25
 342 0064 0CE0     		b	.L16
 343              	.LVL18:
 344              	.L18:
 258:Generated_Source\PSoC5/cyfitter_cfg.c **** 		CyDelayCycles(10u * 48u); /* Delay 10us based on 48MHz clock */
 345              		.loc 1 258 0 discriminator 4
 346 0066 1B4B     		ldr	r3, .L21+24
 347 0068 1B78     		ldrb	r3, [r3]	@ zero_extendqisi2
 348 006a 03F00103 		and	r3, r3, #1
 349 006e 43EA4404 		orr	r4, r3, r4, lsl #1
 350              	.LVL19:
 351 0072 04F00304 		and	r4, r4, #3
 352              	.LVL20:
 259:Generated_Source\PSoC5/cyfitter_cfg.c **** 	}
 353              		.loc 1 259 0 discriminator 4
 354 0076 4FF4F070 		mov	r0, #480
 355 007a FFF7FEFF 		bl	CyDelayCycles
 356              	.LVL21:
 256:Generated_Source\PSoC5/cyfitter_cfg.c **** 	{ 
 357              		.loc 1 256 0 discriminator 4
 358 007e 013D     		subs	r5, r5, #1
 359              	.LVL22:
 360              	.L16:
 256:Generated_Source\PSoC5/cyfitter_cfg.c **** 	{ 
 361              		.loc 1 256 0 is_stmt 0 discriminator 1
 362 0080 0DB1     		cbz	r5, .L17
 256:Generated_Source\PSoC5/cyfitter_cfg.c **** 	{ 
 363              		.loc 1 256 0 discriminator 3
 364 0082 032C     		cmp	r4, #3
 365 0084 EFD1     		bne	.L18
 366              	.L17:
 262:Generated_Source\PSoC5/cyfitter_cfg.c **** 	{
 367              		.loc 1 262 0 is_stmt 1
 368 0086 15B9     		cbnz	r5, .L19
 264:Generated_Source\PSoC5/cyfitter_cfg.c **** 	}
 369              		.loc 1 264 0
 370 0088 0320     		movs	r0, #3
 371 008a FFF7FEFF 		bl	CyClockStartupError
 372              	.LVL23:
 373              	.L19:
 268:Generated_Source\PSoC5/cyfitter_cfg.c **** 	CY_SET_XTND_REG8((void CYFAR *)(CYREG_CLKDIST_MSTR0), 0x07u);
 374              		.loc 1 268 0
 375 008e 124B     		ldr	r3, .L21+28
 376 0090 4FF48072 		mov	r2, #256
 377 0094 1A80     		strh	r2, [r3]	@ movhi
 269:Generated_Source\PSoC5/cyfitter_cfg.c **** 	CY_SET_XTND_REG8((void CYFAR *)(CYREG_CLKDIST_BCFG0), 0x00u);
 378              		.loc 1 269 0
 379 0096 0722     		movs	r2, #7
 380 0098 1A70     		strb	r2, [r3]
 270:Generated_Source\PSoC5/cyfitter_cfg.c **** 	CY_SET_XTND_REG8((void CYFAR *)(CYREG_CLKDIST_BCFG2), 0x48u);
 381              		.loc 1 270 0
 382 009a 0022     		movs	r2, #0
 383 009c 0F49     		ldr	r1, .L21+32
 384 009e 0A70     		strb	r2, [r1]
 271:Generated_Source\PSoC5/cyfitter_cfg.c **** 	CY_SET_XTND_REG8((void CYFAR *)(CYREG_CLKDIST_MSTR0), 0x00u);
ARM GAS  C:\Users\sdysart\AppData\Local\Temp\ccp0v3it.s 			page 14


 385              		.loc 1 271 0
 386 00a0 4820     		movs	r0, #72
 387 00a2 0231     		adds	r1, r1, #2
 388 00a4 0870     		strb	r0, [r1]
 272:Generated_Source\PSoC5/cyfitter_cfg.c **** 	CY_SET_XTND_REG8((void CYFAR *)(CYREG_CLKDIST_LD), 0x02u);
 389              		.loc 1 272 0
 390 00a6 1A70     		strb	r2, [r3]
 273:Generated_Source\PSoC5/cyfitter_cfg.c **** 
 391              		.loc 1 273 0
 392 00a8 0222     		movs	r2, #2
 393 00aa 033B     		subs	r3, r3, #3
 394 00ac 1A70     		strb	r2, [r3]
 275:Generated_Source\PSoC5/cyfitter_cfg.c **** }
 395              		.loc 1 275 0
 396 00ae 0C4A     		ldr	r2, .L21+36
 397 00b0 1378     		ldrb	r3, [r2]	@ zero_extendqisi2
 398 00b2 43F00F03 		orr	r3, r3, #15
 399 00b6 1370     		strb	r3, [r2]
 400 00b8 38BD     		pop	{r3, r4, r5, pc}
 401              	.LVL24:
 402              	.L22:
 403 00ba 00BF     		.align	2
 404              	.L21:
 405 00bc 80400040 		.word	1073758336
 406 00c0 82400040 		.word	1073758338
 407 00c4 00430040 		.word	1073758976
 408 00c8 08010049 		.word	1224737032
 409 00cc A1460040 		.word	1073759905
 410 00d0 22420040 		.word	1073758754
 411 00d4 25420040 		.word	1073758757
 412 00d8 04400040 		.word	1073758212
 413 00dc 06400040 		.word	1073758214
 414 00e0 A2430040 		.word	1073759138
 415              		.cfi_endproc
 416              	.LFE5:
 417              		.size	ClockSetup, .-ClockSetup
 418              		.section	.text.CYCONFIGCPY,"ax",%progbits
 419              		.align	2
 420              		.thumb
 421              		.thumb_func
 422              		.type	CYCONFIGCPY, %function
 423              	CYCONFIGCPY:
 424              	.LFB1:
  85:Generated_Source\PSoC5/cyfitter_cfg.c **** 	(void)memcpy(dest, src, n);
 425              		.loc 1 85 0
 426              		.cfi_startproc
 427              		@ args = 0, pretend = 0, frame = 0
 428              		@ frame_needed = 0, uses_anonymous_args = 0
 429              	.LVL25:
 430 0000 08B5     		push	{r3, lr}
 431              		.cfi_def_cfa_offset 8
 432              		.cfi_offset 3, -8
 433              		.cfi_offset 14, -4
  86:Generated_Source\PSoC5/cyfitter_cfg.c **** }
 434              		.loc 1 86 0
 435 0002 FFF7FEFF 		bl	memcpy
 436              	.LVL26:
ARM GAS  C:\Users\sdysart\AppData\Local\Temp\ccp0v3it.s 			page 15


 437 0006 08BD     		pop	{r3, pc}
 438              		.cfi_endproc
 439              	.LFE1:
 440              		.size	CYCONFIGCPY, .-CYCONFIGCPY
 441              		.section	.text.SetAnalogRoutingPumps,"ax",%progbits
 442              		.align	2
 443              		.global	SetAnalogRoutingPumps
 444              		.thumb
 445              		.thumb_func
 446              		.type	SetAnalogRoutingPumps, %function
 447              	SetAnalogRoutingPumps:
 448              	.LFB7:
 325:Generated_Source\PSoC5/cyfitter_cfg.c **** 
 326:Generated_Source\PSoC5/cyfitter_cfg.c **** 
 327:Generated_Source\PSoC5/cyfitter_cfg.c **** /*******************************************************************************
 328:Generated_Source\PSoC5/cyfitter_cfg.c **** * Function Name: SetAnalogRoutingPumps
 329:Generated_Source\PSoC5/cyfitter_cfg.c **** ********************************************************************************
 330:Generated_Source\PSoC5/cyfitter_cfg.c **** *
 331:Generated_Source\PSoC5/cyfitter_cfg.c **** * Summary:
 332:Generated_Source\PSoC5/cyfitter_cfg.c **** * Enables or disables the analog pumps feeding analog routing switches.
 333:Generated_Source\PSoC5/cyfitter_cfg.c **** * Intended to be called at startup, based on the Vdda system configuration;
 334:Generated_Source\PSoC5/cyfitter_cfg.c **** * may be called during operation when the user informs us that the Vdda voltage
 335:Generated_Source\PSoC5/cyfitter_cfg.c **** * crossed the pump threshold.
 336:Generated_Source\PSoC5/cyfitter_cfg.c **** *
 337:Generated_Source\PSoC5/cyfitter_cfg.c **** * Parameters:
 338:Generated_Source\PSoC5/cyfitter_cfg.c **** *  enabled - 1 to enable the pumps, 0 to disable the pumps
 339:Generated_Source\PSoC5/cyfitter_cfg.c **** *
 340:Generated_Source\PSoC5/cyfitter_cfg.c **** * Return:
 341:Generated_Source\PSoC5/cyfitter_cfg.c **** *  void
 342:Generated_Source\PSoC5/cyfitter_cfg.c **** *
 343:Generated_Source\PSoC5/cyfitter_cfg.c **** *******************************************************************************/
 344:Generated_Source\PSoC5/cyfitter_cfg.c **** void SetAnalogRoutingPumps(uint8 enabled)
 345:Generated_Source\PSoC5/cyfitter_cfg.c **** {
 449              		.loc 1 345 0
 450              		.cfi_startproc
 451              		@ args = 0, pretend = 0, frame = 0
 452              		@ frame_needed = 0, uses_anonymous_args = 0
 453              		@ link register save eliminated.
 454              	.LVL27:
 346:Generated_Source\PSoC5/cyfitter_cfg.c **** 	uint8 regValue = CY_GET_XTND_REG8((void CYFAR *)CYREG_PUMP_CR0);
 455              		.loc 1 346 0
 456 0000 054B     		ldr	r3, .L28
 457 0002 1B78     		ldrb	r3, [r3]	@ zero_extendqisi2
 458 0004 DBB2     		uxtb	r3, r3
 459              	.LVL28:
 347:Generated_Source\PSoC5/cyfitter_cfg.c **** 	if (enabled != 0u)
 460              		.loc 1 347 0
 461 0006 10B1     		cbz	r0, .L26
 348:Generated_Source\PSoC5/cyfitter_cfg.c **** 	{
 349:Generated_Source\PSoC5/cyfitter_cfg.c **** 		regValue |= 0x22u;
 462              		.loc 1 349 0
 463 0008 43F02203 		orr	r3, r3, #34
 464              	.LVL29:
 465 000c 01E0     		b	.L27
 466              	.L26:
 350:Generated_Source\PSoC5/cyfitter_cfg.c **** 	}
 351:Generated_Source\PSoC5/cyfitter_cfg.c **** 	else
ARM GAS  C:\Users\sdysart\AppData\Local\Temp\ccp0v3it.s 			page 16


 352:Generated_Source\PSoC5/cyfitter_cfg.c **** 	{
 353:Generated_Source\PSoC5/cyfitter_cfg.c **** 		regValue &= (uint8)~0x22u;
 467              		.loc 1 353 0
 468 000e 03F0DD03 		and	r3, r3, #221
 469              	.LVL30:
 470              	.L27:
 354:Generated_Source\PSoC5/cyfitter_cfg.c **** 	}
 355:Generated_Source\PSoC5/cyfitter_cfg.c **** 	CY_SET_XTND_REG8((void CYFAR *)CYREG_PUMP_CR0, regValue);
 471              		.loc 1 355 0
 472 0012 014A     		ldr	r2, .L28
 473 0014 1370     		strb	r3, [r2]
 474 0016 7047     		bx	lr
 475              	.L29:
 476              		.align	2
 477              	.L28:
 478 0018 76580040 		.word	1073764470
 479              		.cfi_endproc
 480              	.LFE7:
 481              		.size	SetAnalogRoutingPumps, .-SetAnalogRoutingPumps
 482              		.section	.text.cyfitter_cfg,"ax",%progbits
 483              		.align	2
 484              		.global	cyfitter_cfg
 485              		.thumb
 486              		.thumb_func
 487              		.type	cyfitter_cfg, %function
 488              	cyfitter_cfg:
 489              	.LFB8:
 356:Generated_Source\PSoC5/cyfitter_cfg.c **** }
 357:Generated_Source\PSoC5/cyfitter_cfg.c **** 
 358:Generated_Source\PSoC5/cyfitter_cfg.c **** 
 359:Generated_Source\PSoC5/cyfitter_cfg.c **** 
 360:Generated_Source\PSoC5/cyfitter_cfg.c **** 
 361:Generated_Source\PSoC5/cyfitter_cfg.c **** /*******************************************************************************
 362:Generated_Source\PSoC5/cyfitter_cfg.c **** * Function Name: cyfitter_cfg
 363:Generated_Source\PSoC5/cyfitter_cfg.c **** ********************************************************************************
 364:Generated_Source\PSoC5/cyfitter_cfg.c **** * Summary:
 365:Generated_Source\PSoC5/cyfitter_cfg.c **** *  This function is called by the start-up code for the selected device. It
 366:Generated_Source\PSoC5/cyfitter_cfg.c **** *  performs all of the necessary device configuration based on the design
 367:Generated_Source\PSoC5/cyfitter_cfg.c **** *  settings.  This includes settings from the Design Wide Resources (DWR) such
 368:Generated_Source\PSoC5/cyfitter_cfg.c **** *  as Clocks and Pins as well as any component configuration that is necessary.
 369:Generated_Source\PSoC5/cyfitter_cfg.c **** *
 370:Generated_Source\PSoC5/cyfitter_cfg.c **** * Parameters:
 371:Generated_Source\PSoC5/cyfitter_cfg.c **** *   void
 372:Generated_Source\PSoC5/cyfitter_cfg.c **** *
 373:Generated_Source\PSoC5/cyfitter_cfg.c **** * Return:
 374:Generated_Source\PSoC5/cyfitter_cfg.c **** *   void
 375:Generated_Source\PSoC5/cyfitter_cfg.c **** *
 376:Generated_Source\PSoC5/cyfitter_cfg.c **** *******************************************************************************/
 377:Generated_Source\PSoC5/cyfitter_cfg.c **** 
 378:Generated_Source\PSoC5/cyfitter_cfg.c **** void cyfitter_cfg(void)
 379:Generated_Source\PSoC5/cyfitter_cfg.c **** {
 490              		.loc 1 379 0
 491              		.cfi_startproc
 492              		@ args = 0, pretend = 0, frame = 0
 493              		@ frame_needed = 0, uses_anonymous_args = 0
 494 0000 38B5     		push	{r3, r4, r5, lr}
 495              		.cfi_def_cfa_offset 16
ARM GAS  C:\Users\sdysart\AppData\Local\Temp\ccp0v3it.s 			page 17


 496              		.cfi_offset 3, -16
 497              		.cfi_offset 4, -12
 498              		.cfi_offset 5, -8
 499              		.cfi_offset 14, -4
 380:Generated_Source\PSoC5/cyfitter_cfg.c **** #ifdef CYGlobalIntDisable
 381:Generated_Source\PSoC5/cyfitter_cfg.c **** 	/* Disable interrupts by default. Let user enable if/when they want. */
 382:Generated_Source\PSoC5/cyfitter_cfg.c **** 	CYGlobalIntDisable
 500              		.loc 1 382 0
 501              		.syntax unified
 502              	@ 382 "Generated_Source\PSoC5\cyfitter_cfg.c" 1
 503 0002 72B6     		CPSID   i
 504              	@ 0 "" 2
 383:Generated_Source\PSoC5/cyfitter_cfg.c **** #endif
 384:Generated_Source\PSoC5/cyfitter_cfg.c **** 
 385:Generated_Source\PSoC5/cyfitter_cfg.c **** 	/* Enable/Disable Debug functionality based on settings from System DWR */
 386:Generated_Source\PSoC5/cyfitter_cfg.c **** 	CY_SET_XTND_REG8((void CYFAR *)CYREG_MLOGIC_DEBUG, (CY_GET_XTND_REG8((void CYFAR *)CYREG_MLOGIC_DE
 505              		.loc 1 386 0
 506              		.thumb
 507              		.syntax unified
 508 0004 354A     		ldr	r2, .L34
 509 0006 1378     		ldrb	r3, [r2]	@ zero_extendqisi2
 510 0008 43F00403 		orr	r3, r3, #4
 511 000c 1370     		strb	r3, [r2]
 512              	.LVL31:
 513              	.LBB3:
 387:Generated_Source\PSoC5/cyfitter_cfg.c **** 
 388:Generated_Source\PSoC5/cyfitter_cfg.c **** 	{
 389:Generated_Source\PSoC5/cyfitter_cfg.c **** 
 390:Generated_Source\PSoC5/cyfitter_cfg.c **** 		CYPACKED typedef struct {
 391:Generated_Source\PSoC5/cyfitter_cfg.c **** 			void CYFAR *address;
 392:Generated_Source\PSoC5/cyfitter_cfg.c **** 			uint16 size;
 393:Generated_Source\PSoC5/cyfitter_cfg.c **** 		} CYPACKED_ATTR cfg_memset_t;
 394:Generated_Source\PSoC5/cyfitter_cfg.c **** 
 395:Generated_Source\PSoC5/cyfitter_cfg.c **** 		static const cfg_memset_t CYCODE cfg_memset_list[] = {
 396:Generated_Source\PSoC5/cyfitter_cfg.c **** 			/* address, size */
 397:Generated_Source\PSoC5/cyfitter_cfg.c **** 			{(void CYFAR *)(CYREG_TMR0_CFG0), 12u},
 398:Generated_Source\PSoC5/cyfitter_cfg.c **** 			{(void CYFAR *)(CYREG_PRT4_DR), 48u},
 399:Generated_Source\PSoC5/cyfitter_cfg.c **** 			{(void CYFAR *)(CYREG_PRT12_DR), 16u},
 400:Generated_Source\PSoC5/cyfitter_cfg.c **** 			{(void CYFAR *)(CYREG_PRT15_DR), 16u},
 401:Generated_Source\PSoC5/cyfitter_cfg.c **** 			{(void CYFAR *)(CYDEV_UCFG_B0_P0_U0_BASE), 4096u},
 402:Generated_Source\PSoC5/cyfitter_cfg.c **** 			{(void CYFAR *)(CYDEV_UCFG_B1_P2_U0_BASE), 2048u},
 403:Generated_Source\PSoC5/cyfitter_cfg.c **** 			{(void CYFAR *)(CYDEV_UCFG_DSI0_BASE), 2560u},
 404:Generated_Source\PSoC5/cyfitter_cfg.c **** 			{(void CYFAR *)(CYDEV_UCFG_DSI12_BASE), 512u},
 405:Generated_Source\PSoC5/cyfitter_cfg.c **** 			{(void CYFAR *)(CYREG_BCTL0_MDCLK_EN), 32u},
 406:Generated_Source\PSoC5/cyfitter_cfg.c **** 		};
 407:Generated_Source\PSoC5/cyfitter_cfg.c **** 
 408:Generated_Source\PSoC5/cyfitter_cfg.c **** 		uint8 CYDATA i;
 409:Generated_Source\PSoC5/cyfitter_cfg.c **** 
 410:Generated_Source\PSoC5/cyfitter_cfg.c **** 		/* Zero out critical memory blocks before beginning configuration */
 411:Generated_Source\PSoC5/cyfitter_cfg.c **** 		for (i = 0u; i < (sizeof(cfg_memset_list)/sizeof(cfg_memset_list[0])); i++)
 514              		.loc 1 411 0
 515 000e 0024     		movs	r4, #0
 516 0010 0CE0     		b	.L31
 517              	.LVL32:
 518              	.L32:
 519              	.LBB4:
 412:Generated_Source\PSoC5/cyfitter_cfg.c **** 		{
ARM GAS  C:\Users\sdysart\AppData\Local\Temp\ccp0v3it.s 			page 18


 413:Generated_Source\PSoC5/cyfitter_cfg.c **** 			const cfg_memset_t CYCODE * CYDATA ms = &cfg_memset_list[i];
 414:Generated_Source\PSoC5/cyfitter_cfg.c **** 			CYMEMZERO(ms->address, (size_t)(uint32)(ms->size));
 520              		.loc 1 414 0 discriminator 3
 521 0012 334D     		ldr	r5, .L34+4
 522 0014 6300     		lsls	r3, r4, #1
 523 0016 1919     		adds	r1, r3, r4
 524 0018 4A00     		lsls	r2, r1, #1
 525 001a 1146     		mov	r1, r2
 526 001c 2A44     		add	r2, r2, r5
 527 001e 0846     		mov	r0, r1
 528 0020 9188     		ldrh	r1, [r2, #4]
 529 0022 2858     		ldr	r0, [r5, r0]	@ unaligned
 530 0024 FFF7FEFF 		bl	CYMEMZERO
 531              	.LVL33:
 532              	.LBE4:
 411:Generated_Source\PSoC5/cyfitter_cfg.c **** 		{
 533              		.loc 1 411 0 discriminator 3
 534 0028 0134     		adds	r4, r4, #1
 535              	.LVL34:
 536 002a E4B2     		uxtb	r4, r4
 537              	.LVL35:
 538              	.L31:
 411:Generated_Source\PSoC5/cyfitter_cfg.c **** 		{
 539              		.loc 1 411 0 is_stmt 0 discriminator 1
 540 002c 082C     		cmp	r4, #8
 541 002e F0D9     		bls	.L32
 415:Generated_Source\PSoC5/cyfitter_cfg.c **** 		}
 416:Generated_Source\PSoC5/cyfitter_cfg.c **** 
 417:Generated_Source\PSoC5/cyfitter_cfg.c **** 		cfg_write_bytes32(cy_cfg_addr_table, cy_cfg_data_table);
 542              		.loc 1 417 0 is_stmt 1
 543 0030 2C49     		ldr	r1, .L34+8
 544 0032 4FF09040 		mov	r0, #1207959552
 545 0036 FFF7FEFF 		bl	cfg_write_bytes32
 546              	.LVL36:
 418:Generated_Source\PSoC5/cyfitter_cfg.c **** 
 419:Generated_Source\PSoC5/cyfitter_cfg.c **** 		/* Perform normal device configuration. Order is not critical for these items. */
 420:Generated_Source\PSoC5/cyfitter_cfg.c **** 		CY_SET_XTND_REG16((void CYFAR *)(CYREG_LUT0_CR), 0x0003u);
 547              		.loc 1 420 0
 548 003a 0322     		movs	r2, #3
 549 003c 2A4B     		ldr	r3, .L34+12
 550 003e 1A80     		strh	r2, [r3]	@ movhi
 421:Generated_Source\PSoC5/cyfitter_cfg.c **** 		CY_SET_XTND_REG16((void CYFAR *)(CYREG_LUT1_CR), 0x0103u);
 551              		.loc 1 421 0
 552 0040 40F20312 		movw	r2, #259
 553 0044 0233     		adds	r3, r3, #2
 554 0046 1A80     		strh	r2, [r3]	@ movhi
 422:Generated_Source\PSoC5/cyfitter_cfg.c **** 		CY_SET_XTND_REG16((void CYFAR *)(CYREG_LUT2_CR), 0x0203u);
 555              		.loc 1 422 0
 556 0048 40F20322 		movw	r2, #515
 557 004c 0233     		adds	r3, r3, #2
 558 004e 1A80     		strh	r2, [r3]	@ movhi
 423:Generated_Source\PSoC5/cyfitter_cfg.c **** 		CY_SET_XTND_REG16((void CYFAR *)(CYREG_LUT3_CR), 0x0303u);
 559              		.loc 1 423 0
 560 0050 40F20332 		movw	r2, #771
 561 0054 0233     		adds	r3, r3, #2
 562 0056 1A80     		strh	r2, [r3]	@ movhi
 424:Generated_Source\PSoC5/cyfitter_cfg.c **** 
ARM GAS  C:\Users\sdysart\AppData\Local\Temp\ccp0v3it.s 			page 19


 425:Generated_Source\PSoC5/cyfitter_cfg.c **** 		/* Enable digital routing */
 426:Generated_Source\PSoC5/cyfitter_cfg.c **** 		CY_SET_XTND_REG8((void CYFAR *)CYREG_BCTL0_BANK_CTL, CY_GET_XTND_REG8((void CYFAR *)CYREG_BCTL0_B
 563              		.loc 1 426 0
 564 0058 244A     		ldr	r2, .L34+16
 565 005a 1378     		ldrb	r3, [r2]	@ zero_extendqisi2
 566 005c 43F00203 		orr	r3, r3, #2
 567 0060 1370     		strb	r3, [r2]
 427:Generated_Source\PSoC5/cyfitter_cfg.c **** 		CY_SET_XTND_REG8((void CYFAR *)CYREG_BCTL1_BANK_CTL, CY_GET_XTND_REG8((void CYFAR *)CYREG_BCTL1_B
 568              		.loc 1 427 0
 569 0062 1032     		adds	r2, r2, #16
 570 0064 1378     		ldrb	r3, [r2]	@ zero_extendqisi2
 571 0066 43F00203 		orr	r3, r3, #2
 572 006a 1370     		strb	r3, [r2]
 428:Generated_Source\PSoC5/cyfitter_cfg.c **** 
 429:Generated_Source\PSoC5/cyfitter_cfg.c **** 		/* Enable UDB array */
 430:Generated_Source\PSoC5/cyfitter_cfg.c **** 		CY_SET_XTND_REG8((void CYFAR *)CYREG_PM_ACT_CFG0, CY_GET_XTND_REG8((void CYFAR *)CYREG_PM_ACT_CFG
 573              		.loc 1 430 0
 574 006c 204C     		ldr	r4, .L34+20
 575              	.LVL37:
 576 006e 2378     		ldrb	r3, [r4]	@ zero_extendqisi2
 577 0070 43F04003 		orr	r3, r3, #64
 578 0074 2370     		strb	r3, [r4]
 431:Generated_Source\PSoC5/cyfitter_cfg.c **** 		CY_SET_XTND_REG8((void CYFAR *)CYREG_PM_AVAIL_CR2, CY_GET_XTND_REG8((void CYFAR *)CYREG_PM_AVAIL_
 579              		.loc 1 431 0
 580 0076 A2F58632 		sub	r2, r2, #68608
 581 007a 513A     		subs	r2, r2, #81
 582 007c 1378     		ldrb	r3, [r2]	@ zero_extendqisi2
 583 007e 43F01003 		orr	r3, r3, #16
 584 0082 1370     		strb	r3, [r2]
 585              	.LBE3:
 432:Generated_Source\PSoC5/cyfitter_cfg.c **** 	}
 433:Generated_Source\PSoC5/cyfitter_cfg.c **** 
 434:Generated_Source\PSoC5/cyfitter_cfg.c **** 
 435:Generated_Source\PSoC5/cyfitter_cfg.c **** 	/* Perform second pass device configuration. These items must be configured in specific order afte
 436:Generated_Source\PSoC5/cyfitter_cfg.c **** 	CYCONFIGCPY((void CYFAR *)(CYREG_PRT0_DM0), (const void CYFAR *)(BS_IOPINS0_0_VAL), 8u);
 586              		.loc 1 436 0
 587 0084 0822     		movs	r2, #8
 588 0086 1B49     		ldr	r1, .L34+24
 589 0088 1B48     		ldr	r0, .L34+28
 590 008a FFF7FEFF 		bl	CYCONFIGCPY
 591              	.LVL38:
 437:Generated_Source\PSoC5/cyfitter_cfg.c **** 	CYCONFIGCPY((void CYFAR *)(CYREG_PRT1_DM0), (const void CYFAR *)(BS_IOPINS0_1_VAL), 8u);
 592              		.loc 1 437 0
 593 008e 0822     		movs	r2, #8
 594 0090 1A49     		ldr	r1, .L34+32
 595 0092 1B48     		ldr	r0, .L34+36
 596 0094 FFF7FEFF 		bl	CYCONFIGCPY
 597              	.LVL39:
 438:Generated_Source\PSoC5/cyfitter_cfg.c **** 	CYCONFIGCPY((void CYFAR *)(CYREG_PRT2_DM0), (const void CYFAR *)(BS_IOPINS0_2_VAL), 8u);
 598              		.loc 1 438 0
 599 0098 0822     		movs	r2, #8
 600 009a 1A49     		ldr	r1, .L34+40
 601 009c 1A48     		ldr	r0, .L34+44
 602 009e FFF7FEFF 		bl	CYCONFIGCPY
 603              	.LVL40:
 439:Generated_Source\PSoC5/cyfitter_cfg.c **** 	CYCONFIGCPY((void CYFAR *)(CYREG_PRT3_DM0), (const void CYFAR *)(BS_IOPINS0_3_VAL), 8u);
 604              		.loc 1 439 0
ARM GAS  C:\Users\sdysart\AppData\Local\Temp\ccp0v3it.s 			page 20


 605 00a2 0822     		movs	r2, #8
 606 00a4 1949     		ldr	r1, .L34+48
 607 00a6 1A48     		ldr	r0, .L34+52
 608 00a8 FFF7FEFF 		bl	CYCONFIGCPY
 609              	.LVL41:
 440:Generated_Source\PSoC5/cyfitter_cfg.c **** 	/* Switch Boost to the precision bandgap reference from its internal reference */
 441:Generated_Source\PSoC5/cyfitter_cfg.c **** 	CY_SET_REG8((void CYXDATA *)CYREG_BOOST_CR2, (CY_GET_REG8((void CYXDATA *)CYREG_BOOST_CR2) | 0x08u
 610              		.loc 1 441 0
 611 00ac 194A     		ldr	r2, .L34+56
 612 00ae 1378     		ldrb	r3, [r2]	@ zero_extendqisi2
 613 00b0 43F00803 		orr	r3, r3, #8
 614 00b4 1370     		strb	r3, [r2]
 442:Generated_Source\PSoC5/cyfitter_cfg.c **** 
 443:Generated_Source\PSoC5/cyfitter_cfg.c **** 	/* Set Flash Cycles based on max possible frequency in case a glitch occurs during ClockSetup(). *
 444:Generated_Source\PSoC5/cyfitter_cfg.c **** 	CY_SET_XTND_REG8((void CYFAR *)(CYREG_CACHE_CC_CTL), (((CYDEV_INSTRUCT_CACHE_ENABLED) != 0) ? 0x61
 615              		.loc 1 444 0
 616 00b6 184D     		ldr	r5, .L34+60
 617 00b8 6123     		movs	r3, #97
 618 00ba 2B70     		strb	r3, [r5]
 445:Generated_Source\PSoC5/cyfitter_cfg.c **** 	/* Setup clocks based on selections from Clock DWR */
 446:Generated_Source\PSoC5/cyfitter_cfg.c **** 	ClockSetup();
 619              		.loc 1 446 0
 620 00bc FFF7FEFF 		bl	ClockSetup
 621              	.LVL42:
 447:Generated_Source\PSoC5/cyfitter_cfg.c **** 	/* Set Flash Cycles based on newly configured 24.00MHz Bus Clock. */
 448:Generated_Source\PSoC5/cyfitter_cfg.c **** 	CY_SET_XTND_REG8((void CYFAR *)(CYREG_CACHE_CC_CTL), (((CYDEV_INSTRUCT_CACHE_ENABLED) != 0) ? 0x81
 622              		.loc 1 448 0
 623 00c0 8123     		movs	r3, #129
 624 00c2 2B70     		strb	r3, [r5]
 449:Generated_Source\PSoC5/cyfitter_cfg.c **** 	CY_SET_XTND_REG8((void CYFAR *)(CYREG_PANTHER_WAITPIPE), 0x01u);
 625              		.loc 1 449 0
 626 00c4 0122     		movs	r2, #1
 627 00c6 154B     		ldr	r3, .L34+64
 628 00c8 1A70     		strb	r2, [r3]
 450:Generated_Source\PSoC5/cyfitter_cfg.c **** 
 451:Generated_Source\PSoC5/cyfitter_cfg.c **** 	/* Perform basic analog initialization to defaults */
 452:Generated_Source\PSoC5/cyfitter_cfg.c **** 	AnalogSetDefault();
 629              		.loc 1 452 0
 630 00ca FFF7FEFF 		bl	AnalogSetDefault
 631              	.LVL43:
 453:Generated_Source\PSoC5/cyfitter_cfg.c **** 
 454:Generated_Source\PSoC5/cyfitter_cfg.c **** 	/* Configure alternate active mode */
 455:Generated_Source\PSoC5/cyfitter_cfg.c **** 	CYCONFIGCPY((void CYFAR *)CYDEV_PM_STBY_BASE, (const void CYFAR *)CYDEV_PM_ACT_BASE, 14u);
 632              		.loc 1 455 0
 633 00ce 0E22     		movs	r2, #14
 634 00d0 2146     		mov	r1, r4
 635 00d2 1348     		ldr	r0, .L34+68
 636 00d4 FFF7FEFF 		bl	CYCONFIGCPY
 637              	.LVL44:
 638 00d8 38BD     		pop	{r3, r4, r5, pc}
 639              	.L35:
 640 00da 00BF     		.align	2
 641              	.L34:
 642 00dc E8460040 		.word	1073759976
 643 00e0 00000000 		.word	.LANCHOR0
 644 00e4 80000048 		.word	1207959680
 645 00e8 48580040 		.word	1073764424
ARM GAS  C:\Users\sdysart\AppData\Local\Temp\ccp0v3it.s 			page 21


 646 00ec 03500140 		.word	1073827843
 647 00f0 A0430040 		.word	1073759136
 648 00f4 FC030048 		.word	1207960572
 649 00f8 02510040 		.word	1073762562
 650 00fc 04040048 		.word	1207960580
 651 0100 12510040 		.word	1073762578
 652 0104 0C040048 		.word	1207960588
 653 0108 22510040 		.word	1073762594
 654 010c 14040048 		.word	1207960596
 655 0110 32510040 		.word	1073762610
 656 0114 22430040 		.word	1073759010
 657 0118 00480040 		.word	1073760256
 658 011c 04000840 		.word	1074266116
 659 0120 B0430040 		.word	1073759152
 660              		.cfi_endproc
 661              	.LFE8:
 662              		.size	cyfitter_cfg, .-cyfitter_cfg
 663              		.section	.rodata
 664              		.align	2
 665              		.set	.LANCHOR0,. + 0
 666              		.type	cfg_memset_list.5003, %object
 667              		.size	cfg_memset_list.5003, 54
 668              	cfg_memset_list.5003:
 669 0000 004F0040 		.word	1073762048
 670 0004 0C00     		.short	12
 671 0006 40510040 		.4byte	1073762624
 672 000a 3000     		.short	48
 673 000c C0510040 		.word	1073762752
 674 0010 1000     		.short	16
 675 0012 F0510040 		.4byte	1073762800
 676 0016 1000     		.short	16
 677 0018 00000140 		.word	1073807360
 678 001c 0010     		.short	4096
 679 001e 00140140 		.4byte	1073812480
 680 0022 0008     		.short	2048
 681 0024 00400140 		.word	1073823744
 682 0028 000A     		.short	2560
 683 002a 004C0140 		.4byte	1073826816
 684 002e 0002     		.short	512
 685 0030 00500140 		.word	1073827840
 686 0034 2000     		.short	32
 687              		.text
 688              	.Letext0:
 689              		.file 2 "c:\\program files (x86)\\cypress\\psoc creator\\4.1\\psoc creator\\import\\gnu\\arm\\5.4.
 690              		.file 3 "Generated_Source\\PSoC5\\cytypes.h"
 691              		.file 4 "Generated_Source\\PSoC5\\CyLib.h"