ARM GAS  C:\Users\sdysart\AppData\Local\Temp\ccvXTqAv.s 			page 1


   1              		.syntax unified
   2              		.cpu cortex-m3
   3              		.fpu softvfp
   4              		.eabi_attribute 20, 1
   5              		.eabi_attribute 21, 1
   6              		.eabi_attribute 23, 3
   7              		.eabi_attribute 24, 1
   8              		.eabi_attribute 25, 1
   9              		.eabi_attribute 26, 1
  10              		.eabi_attribute 30, 1
  11              		.eabi_attribute 34, 1
  12              		.eabi_attribute 18, 4
  13              		.thumb
  14              		.syntax unified
  15              		.file	"main.c"
  16              		.text
  17              	.Ltext0:
  18              		.cfi_sections	.debug_frame
  19              		.section	.text.LevelCount,"ax",%progbits
  20              		.align	2
  21              		.global	LevelCount
  22              		.thumb
  23              		.thumb_func
  24              		.type	LevelCount, %function
  25              	LevelCount:
  26              	.LFB65:
  27              		.file 1 "main.c"
   1:main.c        **** /* ========================================
   2:main.c        ****  *
   3:main.c        ****  * Copyright YOUR COMPANY, THE YEAR
   4:main.c        ****  * All Rights Reserved
   5:main.c        ****  * UNPUBLISHED, LICENSED SOFTWARE.
   6:main.c        ****  *
   7:main.c        ****  * CONFIDENTIAL AND PROPRIETARY INFORMATION
   8:main.c        ****  * WHICH IS THE PROPERTY OF your company.
   9:main.c        ****  *
  10:main.c        ****  * ========================================
  11:main.c        **** */
  12:main.c        **** #include "project.h"
  13:main.c        **** #include <stdio.h>
  14:main.c        **** 
  15:main.c        **** CY_ISR_PROTO(LevelCount);
  16:main.c        **** static uint16 levelCounter = 0;
  17:main.c        **** static uint8 zeroCount = 0; 
  18:main.c        **** static uint8 oneCount = 0; 
  19:main.c        **** //static uint8 messageBit = 0; 
  20:main.c        **** static uint8 currentBit = 0;
  21:main.c        **** static uint8 dataCount = 0;
  22:main.c        **** static uint8 data = 0;
  23:main.c        **** static uint8 dataFlag = 0;
  24:main.c        **** static uint8 lcdFlag = 0;
  25:main.c        **** 
  26:main.c        **** int main(void)
  27:main.c        **** {
  28:main.c        ****     CyGlobalIntEnable; /* Enable global interrupts. */
  29:main.c        ****     BPF_Comp_Start();
  30:main.c        ****     ShiftReg_Start();
ARM GAS  C:\Users\sdysart\AppData\Local\Temp\ccvXTqAv.s 			page 2


  31:main.c        ****     Ref_OpAmp_Start();
  32:main.c        ****     PGA_Start() ; 
  33:main.c        ****     OutComp_Start();
  34:main.c        ****     LevelCount_Start();
  35:main.c        ****     LevelCountISR_StartEx(LevelCount);
  36:main.c        ****     
  37:main.c        ****     HighF_BPF_Comp_Start();
  38:main.c        ****     HighF_ShiftReg_Start();
  39:main.c        ****     HighF_Ref_OpAmp_Start();
  40:main.c        ****     HighF_PGA_Start() ; 
  41:main.c        ****     HighF_OutComp_Start();
  42:main.c        ****     HighF_LevelCount_Start();
  43:main.c        ****     LCD_Char_Start();
  44:main.c        ****     //LeveCountISR_StartEx(LevelCheck);
  45:main.c        ****     /* Place your initialization/startup code here (e.g. MyInst_Start()) */
  46:main.c        **** 
  47:main.c        ****     for(;;)
  48:main.c        ****     {
  49:main.c        ****         
  50:main.c        ****         /* Place your application code here. */
  51:main.c        ****         if(lcdFlag == 1){
  52:main.c        **** 
  53:main.c        ****         char OutputString[12];
  54:main.c        **** 
  55:main.c        ****         sprintf(OutputString, "%i", data);
  56:main.c        ****         LCD_Char_Position(0u,0u);
  57:main.c        ****         LCD_Char_PrintString(OutputString);
  58:main.c        ****         }
  59:main.c        ****     }
  60:main.c        **** }
  61:main.c        **** //Bit length = 0.5s
  62:main.c        **** //counter period = 0.05s
  63:main.c        **** //will check bit 10 times, to debounce
  64:main.c        **** //will set bit after 0.4s (8 checks) 
  65:main.c        **** CY_ISR(LevelCount){
  28              		.loc 1 65 0
  29              		.cfi_startproc
  30              		@ args = 0, pretend = 0, frame = 0
  31              		@ frame_needed = 0, uses_anonymous_args = 0
  32 0000 08B5     		push	{r3, lr}
  33              		.cfi_def_cfa_offset 8
  34              		.cfi_offset 3, -8
  35              		.cfi_offset 14, -4
  66:main.c        ****     levelCounter++;
  36              		.loc 1 66 0
  37 0002 2A4A     		ldr	r2, .L10
  38 0004 1388     		ldrh	r3, [r2]
  39 0006 0133     		adds	r3, r3, #1
  40 0008 1380     		strh	r3, [r2]	@ movhi
  67:main.c        ****     
  68:main.c        ****     if(OutComp_GetCompare() != 0){
  41              		.loc 1 68 0
  42 000a FFF7FEFF 		bl	OutComp_GetCompare
  43              	.LVL0:
  44 000e 20B1     		cbz	r0, .L2
  69:main.c        ****         oneCount++;
  45              		.loc 1 69 0
ARM GAS  C:\Users\sdysart\AppData\Local\Temp\ccvXTqAv.s 			page 3


  46 0010 264A     		ldr	r2, .L10
  47 0012 9378     		ldrb	r3, [r2, #2]	@ zero_extendqisi2
  48 0014 0133     		adds	r3, r3, #1
  49 0016 9370     		strb	r3, [r2, #2]
  50 0018 03E0     		b	.L3
  51              	.L2:
  70:main.c        ****     }else{
  71:main.c        ****         zeroCount++;
  52              		.loc 1 71 0
  53 001a 244A     		ldr	r2, .L10
  54 001c D378     		ldrb	r3, [r2, #3]	@ zero_extendqisi2
  55 001e 0133     		adds	r3, r3, #1
  56 0020 D370     		strb	r3, [r2, #3]
  57              	.L3:
  72:main.c        ****     }
  73:main.c        ****     
  74:main.c        ****     //debouncing every 0.4s, with a check of 7/8 hits 
  75:main.c        ****     if(levelCounter == 8){
  58              		.loc 1 75 0
  59 0022 224B     		ldr	r3, .L10
  60 0024 1B88     		ldrh	r3, [r3]
  61 0026 082B     		cmp	r3, #8
  62 0028 3FD1     		bne	.L1
  76:main.c        ****         if(oneCount >= 7){
  63              		.loc 1 76 0
  64 002a 204B     		ldr	r3, .L10
  65 002c 9B78     		ldrb	r3, [r3, #2]	@ zero_extendqisi2
  66 002e 062B     		cmp	r3, #6
  67 0030 04D9     		bls	.L5
  77:main.c        ****             currentBit = 0x01;
  68              		.loc 1 77 0
  69 0032 1E4B     		ldr	r3, .L10
  70 0034 0122     		movs	r2, #1
  71 0036 1A71     		strb	r2, [r3, #4]
  78:main.c        ****             oneCount = 0;
  72              		.loc 1 78 0
  73 0038 0022     		movs	r2, #0
  74 003a 9A70     		strb	r2, [r3, #2]
  75              	.L5:
  79:main.c        ****         
  80:main.c        ****         }if(zeroCount >= 7){
  76              		.loc 1 80 0
  77 003c 1B4B     		ldr	r3, .L10
  78 003e DB78     		ldrb	r3, [r3, #3]	@ zero_extendqisi2
  79 0040 062B     		cmp	r3, #6
  80 0042 03D9     		bls	.L6
  81:main.c        ****             currentBit = 0x00; 
  81              		.loc 1 81 0
  82 0044 194B     		ldr	r3, .L10
  83 0046 0022     		movs	r2, #0
  84 0048 1A71     		strb	r2, [r3, #4]
  82:main.c        ****             zeroCount = 0; 
  85              		.loc 1 82 0
  86 004a DA70     		strb	r2, [r3, #3]
  87              	.L6:
  83:main.c        ****         }
  84:main.c        ****         dataCount++;
ARM GAS  C:\Users\sdysart\AppData\Local\Temp\ccvXTqAv.s 			page 4


  88              		.loc 1 84 0
  89 004c 174B     		ldr	r3, .L10
  90 004e 5A79     		ldrb	r2, [r3, #5]	@ zero_extendqisi2
  91 0050 0132     		adds	r2, r2, #1
  92 0052 D2B2     		uxtb	r2, r2
  93 0054 5A71     		strb	r2, [r3, #5]
  85:main.c        ****         levelCounter = 0;
  94              		.loc 1 85 0
  95 0056 0021     		movs	r1, #0
  96 0058 1980     		strh	r1, [r3]	@ movhi
  86:main.c        ****         //CountOut_Write(currentBit);
  87:main.c        ****         
  88:main.c        ****         //Look for pre-fix
  89:main.c        ****         data = data << 1;
  97              		.loc 1 89 0
  98 005a 9979     		ldrb	r1, [r3, #6]	@ zero_extendqisi2
  99 005c 4900     		lsls	r1, r1, #1
 100 005e C9B2     		uxtb	r1, r1
  90:main.c        ****         data = data | currentBit;
 101              		.loc 1 90 0
 102 0060 1879     		ldrb	r0, [r3, #4]	@ zero_extendqisi2
 103 0062 0143     		orrs	r1, r1, r0
 104 0064 9971     		strb	r1, [r3, #6]
  91:main.c        ****         if((data == 0xff) && (dataFlag == 0)){
 105              		.loc 1 91 0
 106 0066 FF29     		cmp	r1, #255
 107 0068 0BD1     		bne	.L7
 108              		.loc 1 91 0 is_stmt 0 discriminator 1
 109 006a DB79     		ldrb	r3, [r3, #7]	@ zero_extendqisi2
 110 006c 4BB9     		cbnz	r3, .L7
  92:main.c        ****             CountOut_Write(1);
 111              		.loc 1 92 0 is_stmt 1
 112 006e 0120     		movs	r0, #1
 113 0070 FFF7FEFF 		bl	CountOut_Write
 114              	.LVL1:
  93:main.c        ****             dataCount = 0;
 115              		.loc 1 93 0
 116 0074 0D4B     		ldr	r3, .L10
 117 0076 0022     		movs	r2, #0
 118 0078 5A71     		strb	r2, [r3, #5]
  94:main.c        ****             data = 0x00;
 119              		.loc 1 94 0
 120 007a 9A71     		strb	r2, [r3, #6]
  95:main.c        ****             dataFlag = 1;
 121              		.loc 1 95 0
 122 007c 0122     		movs	r2, #1
 123 007e DA71     		strb	r2, [r3, #7]
 124 0080 08BD     		pop	{r3, pc}
 125              	.L7:
  96:main.c        ****         // Look for data
  97:main.c        ****         }else if ((dataFlag == 1) && (dataCount < 4)){
 126              		.loc 1 97 0
 127 0082 0A4B     		ldr	r3, .L10
 128 0084 DB79     		ldrb	r3, [r3, #7]	@ zero_extendqisi2
 129 0086 012B     		cmp	r3, #1
 130 0088 05D1     		bne	.L8
 131              		.loc 1 97 0 is_stmt 0 discriminator 1
ARM GAS  C:\Users\sdysart\AppData\Local\Temp\ccvXTqAv.s 			page 5


 132 008a 032A     		cmp	r2, #3
 133 008c 03D8     		bhi	.L8
  98:main.c        ****             dataCount++;
 134              		.loc 1 98 0 is_stmt 1
 135 008e 0132     		adds	r2, r2, #1
 136 0090 064B     		ldr	r3, .L10
 137 0092 5A71     		strb	r2, [r3, #5]
 138 0094 08BD     		pop	{r3, pc}
 139              	.L8:
  99:main.c        ****         }else if((dataFlag == 1) && (dataCount > 4)){
 140              		.loc 1 99 0
 141 0096 012B     		cmp	r3, #1
 142 0098 07D1     		bne	.L1
 143              		.loc 1 99 0 is_stmt 0 discriminator 1
 144 009a 042A     		cmp	r2, #4
 145 009c 05D9     		bls	.L1
 100:main.c        ****             dataCount = 0;
 146              		.loc 1 100 0 is_stmt 1
 147 009e 034B     		ldr	r3, .L10
 148 00a0 0022     		movs	r2, #0
 149 00a2 5A71     		strb	r2, [r3, #5]
 101:main.c        ****             dataFlag = 0;
 150              		.loc 1 101 0
 151 00a4 DA71     		strb	r2, [r3, #7]
 102:main.c        ****             lcdFlag = 1;
 152              		.loc 1 102 0
 153 00a6 0122     		movs	r2, #1
 154 00a8 1A72     		strb	r2, [r3, #8]
 155              	.L1:
 156 00aa 08BD     		pop	{r3, pc}
 157              	.L11:
 158              		.align	2
 159              	.L10:
 160 00ac 00000000 		.word	.LANCHOR0
 161              		.cfi_endproc
 162              	.LFE65:
 163              		.size	LevelCount, .-LevelCount
 164              		.section	.text.main,"ax",%progbits
 165              		.align	2
 166              		.global	main
 167              		.thumb
 168              		.thumb_func
 169              		.type	main, %function
 170              	main:
 171              	.LFB64:
  27:main.c        ****     CyGlobalIntEnable; /* Enable global interrupts. */
 172              		.loc 1 27 0
 173              		.cfi_startproc
 174              		@ args = 0, pretend = 0, frame = 16
 175              		@ frame_needed = 0, uses_anonymous_args = 0
 176 0000 00B5     		push	{lr}
 177              		.cfi_def_cfa_offset 4
 178              		.cfi_offset 14, -4
 179 0002 85B0     		sub	sp, sp, #20
 180              		.cfi_def_cfa_offset 24
  28:main.c        ****     BPF_Comp_Start();
 181              		.loc 1 28 0
ARM GAS  C:\Users\sdysart\AppData\Local\Temp\ccvXTqAv.s 			page 6


 182              		.syntax unified
 183              	@ 28 "main.c" 1
 184 0004 62B6     		CPSIE   i
 185              	@ 0 "" 2
  29:main.c        ****     ShiftReg_Start();
 186              		.loc 1 29 0
 187              		.thumb
 188              		.syntax unified
 189 0006 FFF7FEFF 		bl	BPF_Comp_Start
 190              	.LVL2:
  30:main.c        ****     Ref_OpAmp_Start();
 191              		.loc 1 30 0
 192 000a FFF7FEFF 		bl	ShiftReg_Start
 193              	.LVL3:
  31:main.c        ****     PGA_Start() ; 
 194              		.loc 1 31 0
 195 000e FFF7FEFF 		bl	Ref_OpAmp_Start
 196              	.LVL4:
  32:main.c        ****     OutComp_Start();
 197              		.loc 1 32 0
 198 0012 FFF7FEFF 		bl	PGA_Start
 199              	.LVL5:
  33:main.c        ****     LevelCount_Start();
 200              		.loc 1 33 0
 201 0016 FFF7FEFF 		bl	OutComp_Start
 202              	.LVL6:
  34:main.c        ****     LevelCountISR_StartEx(LevelCount);
 203              		.loc 1 34 0
 204 001a FFF7FEFF 		bl	LevelCount_Start
 205              	.LVL7:
  35:main.c        ****     
 206              		.loc 1 35 0
 207 001e 1148     		ldr	r0, .L16
 208 0020 FFF7FEFF 		bl	LevelCountISR_StartEx
 209              	.LVL8:
  37:main.c        ****     HighF_ShiftReg_Start();
 210              		.loc 1 37 0
 211 0024 FFF7FEFF 		bl	HighF_BPF_Comp_Start
 212              	.LVL9:
  38:main.c        ****     HighF_Ref_OpAmp_Start();
 213              		.loc 1 38 0
 214 0028 FFF7FEFF 		bl	HighF_ShiftReg_Start
 215              	.LVL10:
  39:main.c        ****     HighF_PGA_Start() ; 
 216              		.loc 1 39 0
 217 002c FFF7FEFF 		bl	HighF_Ref_OpAmp_Start
 218              	.LVL11:
  40:main.c        ****     HighF_OutComp_Start();
 219              		.loc 1 40 0
 220 0030 FFF7FEFF 		bl	HighF_PGA_Start
 221              	.LVL12:
  41:main.c        ****     HighF_LevelCount_Start();
 222              		.loc 1 41 0
 223 0034 FFF7FEFF 		bl	HighF_OutComp_Start
 224              	.LVL13:
  42:main.c        ****     LCD_Char_Start();
 225              		.loc 1 42 0
ARM GAS  C:\Users\sdysart\AppData\Local\Temp\ccvXTqAv.s 			page 7


 226 0038 FFF7FEFF 		bl	HighF_LevelCount_Start
 227              	.LVL14:
  43:main.c        ****     //LeveCountISR_StartEx(LevelCheck);
 228              		.loc 1 43 0
 229 003c FFF7FEFF 		bl	LCD_Char_Start
 230              	.LVL15:
 231              	.L13:
  51:main.c        **** 
 232              		.loc 1 51 0
 233 0040 094B     		ldr	r3, .L16+4
 234 0042 1B7A     		ldrb	r3, [r3, #8]	@ zero_extendqisi2
 235 0044 012B     		cmp	r3, #1
 236 0046 FBD1     		bne	.L13
 237              	.LBB2:
  55:main.c        ****         LCD_Char_Position(0u,0u);
 238              		.loc 1 55 0
 239 0048 074B     		ldr	r3, .L16+4
 240 004a 9A79     		ldrb	r2, [r3, #6]	@ zero_extendqisi2
 241 004c 0749     		ldr	r1, .L16+8
 242 004e 01A8     		add	r0, sp, #4
 243 0050 FFF7FEFF 		bl	sprintf
 244              	.LVL16:
  56:main.c        ****         LCD_Char_PrintString(OutputString);
 245              		.loc 1 56 0
 246 0054 0021     		movs	r1, #0
 247 0056 0846     		mov	r0, r1
 248 0058 FFF7FEFF 		bl	LCD_Char_Position
 249              	.LVL17:
  57:main.c        ****         }
 250              		.loc 1 57 0
 251 005c 01A8     		add	r0, sp, #4
 252 005e FFF7FEFF 		bl	LCD_Char_PrintString
 253              	.LVL18:
 254 0062 EDE7     		b	.L13
 255              	.L17:
 256              		.align	2
 257              	.L16:
 258 0064 00000000 		.word	LevelCount
 259 0068 00000000 		.word	.LANCHOR0
 260 006c 00000000 		.word	.LC0
 261              	.LBE2:
 262              		.cfi_endproc
 263              	.LFE64:
 264              		.size	main, .-main
 265              		.section	.rodata.str1.4,"aMS",%progbits,1
 266              		.align	2
 267              	.LC0:
 268 0000 256900   		.ascii	"%i\000"
 269              		.bss
 270              		.align	1
 271              		.set	.LANCHOR0,. + 0
 272              		.type	levelCounter, %object
 273              		.size	levelCounter, 2
 274              	levelCounter:
 275 0000 0000     		.space	2
 276              		.type	oneCount, %object
 277              		.size	oneCount, 1
ARM GAS  C:\Users\sdysart\AppData\Local\Temp\ccvXTqAv.s 			page 8


 278              	oneCount:
 279 0002 00       		.space	1
 280              		.type	zeroCount, %object
 281              		.size	zeroCount, 1
 282              	zeroCount:
 283 0003 00       		.space	1
 284              		.type	currentBit, %object
 285              		.size	currentBit, 1
 286              	currentBit:
 287 0004 00       		.space	1
 288              		.type	dataCount, %object
 289              		.size	dataCount, 1
 290              	dataCount:
 291 0005 00       		.space	1
 292              		.type	data, %object
 293              		.size	data, 1
 294              	data:
 295 0006 00       		.space	1
 296              		.type	dataFlag, %object
 297              		.size	dataFlag, 1
 298              	dataFlag:
 299 0007 00       		.space	1
 300              		.type	lcdFlag, %object
 301              		.size	lcdFlag, 1
 302              	lcdFlag:
 303 0008 00       		.space	1
 304              		.text
 305              	.Letext0:
 306              		.file 2 "c:\\program files (x86)\\cypress\\psoc creator\\4.1\\psoc creator\\import\\gnu\\arm\\5.4.
 307              		.file 3 "c:\\program files (x86)\\cypress\\psoc creator\\4.1\\psoc creator\\import\\gnu\\arm\\5.4.
 308              		.file 4 "Generated_Source\\PSoC5/cytypes.h"
 309              		.file 5 "Generated_Source\\PSoC5/OutComp.h"
 310              		.file 6 "Generated_Source\\PSoC5/CountOut.h"
 311              		.file 7 "c:\\program files (x86)\\cypress\\psoc creator\\4.1\\psoc creator\\import\\gnu\\arm\\5.4.
 312              		.file 8 "Generated_Source\\PSoC5/LCD_Char.h"
 313              		.file 9 "Generated_Source\\PSoC5/BPF_Comp.h"
 314              		.file 10 "Generated_Source\\PSoC5/ShiftReg.h"
 315              		.file 11 "Generated_Source\\PSoC5/Ref_OpAmp.h"
 316              		.file 12 "Generated_Source\\PSoC5/PGA.h"
 317              		.file 13 "Generated_Source\\PSoC5/LevelCount.h"
 318              		.file 14 "Generated_Source\\PSoC5/LevelCountISR.h"
 319              		.file 15 "Generated_Source\\PSoC5/HighF_BPF_Comp.h"
 320              		.file 16 "Generated_Source\\PSoC5/HighF_ShiftReg.h"
 321              		.file 17 "Generated_Source\\PSoC5/HighF_Ref_OpAmp.h"
 322              		.file 18 "Generated_Source\\PSoC5/HighF_PGA.h"
 323              		.file 19 "Generated_Source\\PSoC5/HighF_OutComp.h"
 324              		.file 20 "Generated_Source\\PSoC5/HighF_LevelCount.h"
 325              		.file 21 "Generated_Source\\PSoC5/core_cm3.h"