ARM GAS  C:\Users\User\AppData\Local\Temp\cc96lCPY.s 			page 1


   1              		.cpu cortex-m0
   2              		.fpu softvfp
   3              		.eabi_attribute 20, 1
   4              		.eabi_attribute 21, 1
   5              		.eabi_attribute 23, 3
   6              		.eabi_attribute 24, 1
   7              		.eabi_attribute 25, 1
   8              		.eabi_attribute 26, 1
   9              		.eabi_attribute 30, 4
  10              		.eabi_attribute 34, 0
  11              		.eabi_attribute 18, 4
  12              		.code	16
  13              		.file	"cyfitter_cfg.c"
  14              		.text
  15              	.Ltext0:
  16              		.cfi_sections	.debug_frame
  17              		.section	.text.SetAnalogRoutingPumps,"ax",%progbits
  18              		.align	1
  19              		.global	SetAnalogRoutingPumps
  20              		.code	16
  21              		.thumb_func
  22              		.type	SetAnalogRoutingPumps, %function
  23              	SetAnalogRoutingPumps:
  24              	.LFB6:
  25              		.file 1 ".\\Generated_Source\\PSoC4\\cyfitter_cfg.c"
   1:.\Generated_Source\PSoC4/cyfitter_cfg.c **** /*******************************************************************************
   2:.\Generated_Source\PSoC4/cyfitter_cfg.c **** * File Name: cyfitter_cfg.c
   3:.\Generated_Source\PSoC4/cyfitter_cfg.c **** * 
   4:.\Generated_Source\PSoC4/cyfitter_cfg.c **** * PSoC Creator  3.3 CP3
   5:.\Generated_Source\PSoC4/cyfitter_cfg.c **** *
   6:.\Generated_Source\PSoC4/cyfitter_cfg.c **** * Description:
   7:.\Generated_Source\PSoC4/cyfitter_cfg.c **** * This file contains device initialization code.
   8:.\Generated_Source\PSoC4/cyfitter_cfg.c **** * Except for the user defined sections in CyClockStartupError(), this file should not be modified.
   9:.\Generated_Source\PSoC4/cyfitter_cfg.c **** * This file is automatically generated by PSoC Creator.
  10:.\Generated_Source\PSoC4/cyfitter_cfg.c **** *
  11:.\Generated_Source\PSoC4/cyfitter_cfg.c **** ********************************************************************************
  12:.\Generated_Source\PSoC4/cyfitter_cfg.c **** * Copyright (c) 2007-2016 Cypress Semiconductor.  All rights reserved.
  13:.\Generated_Source\PSoC4/cyfitter_cfg.c **** * You may use this file only in accordance with the license, terms, conditions, 
  14:.\Generated_Source\PSoC4/cyfitter_cfg.c **** * disclaimers, and limitations in the end user license agreement accompanying 
  15:.\Generated_Source\PSoC4/cyfitter_cfg.c **** * the software package with which this file was provided.
  16:.\Generated_Source\PSoC4/cyfitter_cfg.c **** ********************************************************************************/
  17:.\Generated_Source\PSoC4/cyfitter_cfg.c **** 
  18:.\Generated_Source\PSoC4/cyfitter_cfg.c **** #include <string.h>
  19:.\Generated_Source\PSoC4/cyfitter_cfg.c **** #include "cytypes.h"
  20:.\Generated_Source\PSoC4/cyfitter_cfg.c **** #include "cydevice_trm.h"
  21:.\Generated_Source\PSoC4/cyfitter_cfg.c **** #include "cyfitter.h"
  22:.\Generated_Source\PSoC4/cyfitter_cfg.c **** #include "CyLib.h"
  23:.\Generated_Source\PSoC4/cyfitter_cfg.c **** #include "CyLFClk.h"
  24:.\Generated_Source\PSoC4/cyfitter_cfg.c **** #include "cyfitter_cfg.h"
  25:.\Generated_Source\PSoC4/cyfitter_cfg.c **** 
  26:.\Generated_Source\PSoC4/cyfitter_cfg.c **** 
  27:.\Generated_Source\PSoC4/cyfitter_cfg.c **** #if defined(__GNUC__) || defined(__ARMCC_VERSION)
  28:.\Generated_Source\PSoC4/cyfitter_cfg.c ****     #define CYPACKED 
  29:.\Generated_Source\PSoC4/cyfitter_cfg.c ****     #define CYPACKED_ATTR __attribute__ ((packed))
  30:.\Generated_Source\PSoC4/cyfitter_cfg.c ****     #define CYALIGNED __attribute__ ((aligned))
  31:.\Generated_Source\PSoC4/cyfitter_cfg.c ****     #define CY_CFG_UNUSED __attribute__ ((unused))
  32:.\Generated_Source\PSoC4/cyfitter_cfg.c ****     #ifndef CY_CFG_SECTION
ARM GAS  C:\Users\User\AppData\Local\Temp\cc96lCPY.s 			page 2


  33:.\Generated_Source\PSoC4/cyfitter_cfg.c ****         #define CY_CFG_SECTION __attribute__ ((section(".psocinit")))
  34:.\Generated_Source\PSoC4/cyfitter_cfg.c ****     #endif
  35:.\Generated_Source\PSoC4/cyfitter_cfg.c ****     
  36:.\Generated_Source\PSoC4/cyfitter_cfg.c ****     #if defined(__ARMCC_VERSION)
  37:.\Generated_Source\PSoC4/cyfitter_cfg.c ****         #define CY_CFG_MEMORY_BARRIER() __memory_changed()
  38:.\Generated_Source\PSoC4/cyfitter_cfg.c ****     #else
  39:.\Generated_Source\PSoC4/cyfitter_cfg.c ****         #define CY_CFG_MEMORY_BARRIER() __sync_synchronize()
  40:.\Generated_Source\PSoC4/cyfitter_cfg.c ****     #endif
  41:.\Generated_Source\PSoC4/cyfitter_cfg.c ****     
  42:.\Generated_Source\PSoC4/cyfitter_cfg.c **** #elif defined(__ICCARM__)
  43:.\Generated_Source\PSoC4/cyfitter_cfg.c ****     #include <intrinsics.h>
  44:.\Generated_Source\PSoC4/cyfitter_cfg.c **** 
  45:.\Generated_Source\PSoC4/cyfitter_cfg.c ****     #define CYPACKED __packed
  46:.\Generated_Source\PSoC4/cyfitter_cfg.c ****     #define CYPACKED_ATTR 
  47:.\Generated_Source\PSoC4/cyfitter_cfg.c ****     #define CYALIGNED _Pragma("data_alignment=4")
  48:.\Generated_Source\PSoC4/cyfitter_cfg.c ****     #define CY_CFG_UNUSED _Pragma("diag_suppress=Pe177")
  49:.\Generated_Source\PSoC4/cyfitter_cfg.c ****     #define CY_CFG_SECTION _Pragma("location=\".psocinit\"")
  50:.\Generated_Source\PSoC4/cyfitter_cfg.c ****     
  51:.\Generated_Source\PSoC4/cyfitter_cfg.c ****     #define CY_CFG_MEMORY_BARRIER() __DMB()
  52:.\Generated_Source\PSoC4/cyfitter_cfg.c ****     
  53:.\Generated_Source\PSoC4/cyfitter_cfg.c **** #else
  54:.\Generated_Source\PSoC4/cyfitter_cfg.c ****     #error Unsupported toolchain
  55:.\Generated_Source\PSoC4/cyfitter_cfg.c **** #endif
  56:.\Generated_Source\PSoC4/cyfitter_cfg.c **** 
  57:.\Generated_Source\PSoC4/cyfitter_cfg.c **** 
  58:.\Generated_Source\PSoC4/cyfitter_cfg.c **** CY_CFG_UNUSED
  59:.\Generated_Source\PSoC4/cyfitter_cfg.c **** static void CYMEMZERO(void *s, size_t n);
  60:.\Generated_Source\PSoC4/cyfitter_cfg.c **** CY_CFG_UNUSED
  61:.\Generated_Source\PSoC4/cyfitter_cfg.c **** static void CYMEMZERO(void *s, size_t n)
  62:.\Generated_Source\PSoC4/cyfitter_cfg.c **** {
  63:.\Generated_Source\PSoC4/cyfitter_cfg.c **** 	(void)memset(s, 0, n);
  64:.\Generated_Source\PSoC4/cyfitter_cfg.c **** }
  65:.\Generated_Source\PSoC4/cyfitter_cfg.c **** CY_CFG_UNUSED
  66:.\Generated_Source\PSoC4/cyfitter_cfg.c **** static void CYCONFIGCPY(void *dest, const void *src, size_t n);
  67:.\Generated_Source\PSoC4/cyfitter_cfg.c **** CY_CFG_UNUSED
  68:.\Generated_Source\PSoC4/cyfitter_cfg.c **** static void CYCONFIGCPY(void *dest, const void *src, size_t n)
  69:.\Generated_Source\PSoC4/cyfitter_cfg.c **** {
  70:.\Generated_Source\PSoC4/cyfitter_cfg.c **** 	(void)memcpy(dest, src, n);
  71:.\Generated_Source\PSoC4/cyfitter_cfg.c **** }
  72:.\Generated_Source\PSoC4/cyfitter_cfg.c **** CY_CFG_UNUSED
  73:.\Generated_Source\PSoC4/cyfitter_cfg.c **** static void CYCONFIGCPYCODE(void *dest, const void *src, size_t n);
  74:.\Generated_Source\PSoC4/cyfitter_cfg.c **** CY_CFG_UNUSED
  75:.\Generated_Source\PSoC4/cyfitter_cfg.c **** static void CYCONFIGCPYCODE(void *dest, const void *src, size_t n)
  76:.\Generated_Source\PSoC4/cyfitter_cfg.c **** {
  77:.\Generated_Source\PSoC4/cyfitter_cfg.c **** 	(void)memcpy(dest, src, n);
  78:.\Generated_Source\PSoC4/cyfitter_cfg.c **** }
  79:.\Generated_Source\PSoC4/cyfitter_cfg.c **** 
  80:.\Generated_Source\PSoC4/cyfitter_cfg.c **** 
  81:.\Generated_Source\PSoC4/cyfitter_cfg.c **** 
  82:.\Generated_Source\PSoC4/cyfitter_cfg.c **** /* Clock startup error codes                                                   */
  83:.\Generated_Source\PSoC4/cyfitter_cfg.c **** #define CYCLOCKSTART_NO_ERROR    0u
  84:.\Generated_Source\PSoC4/cyfitter_cfg.c **** #define CYCLOCKSTART_XTAL_ERROR  1u
  85:.\Generated_Source\PSoC4/cyfitter_cfg.c **** #define CYCLOCKSTART_32KHZ_ERROR 2u
  86:.\Generated_Source\PSoC4/cyfitter_cfg.c **** #define CYCLOCKSTART_PLL_ERROR   3u
  87:.\Generated_Source\PSoC4/cyfitter_cfg.c **** 
  88:.\Generated_Source\PSoC4/cyfitter_cfg.c **** #ifdef CY_NEED_CYCLOCKSTARTUPERROR
  89:.\Generated_Source\PSoC4/cyfitter_cfg.c **** /*******************************************************************************
ARM GAS  C:\Users\User\AppData\Local\Temp\cc96lCPY.s 			page 3


  90:.\Generated_Source\PSoC4/cyfitter_cfg.c **** * Function Name: CyClockStartupError
  91:.\Generated_Source\PSoC4/cyfitter_cfg.c **** ********************************************************************************
  92:.\Generated_Source\PSoC4/cyfitter_cfg.c **** * Summary:
  93:.\Generated_Source\PSoC4/cyfitter_cfg.c **** *  If an error is encountered during clock configuration (crystal startup error,
  94:.\Generated_Source\PSoC4/cyfitter_cfg.c **** *  PLL lock error, etc.), the system will end up here.  Unless reimplemented by
  95:.\Generated_Source\PSoC4/cyfitter_cfg.c **** *  the customer, this function will stop in an infinite loop.
  96:.\Generated_Source\PSoC4/cyfitter_cfg.c **** *
  97:.\Generated_Source\PSoC4/cyfitter_cfg.c **** * Parameters:
  98:.\Generated_Source\PSoC4/cyfitter_cfg.c **** *   void
  99:.\Generated_Source\PSoC4/cyfitter_cfg.c **** *
 100:.\Generated_Source\PSoC4/cyfitter_cfg.c **** * Return:
 101:.\Generated_Source\PSoC4/cyfitter_cfg.c **** *   void
 102:.\Generated_Source\PSoC4/cyfitter_cfg.c **** *
 103:.\Generated_Source\PSoC4/cyfitter_cfg.c **** *******************************************************************************/
 104:.\Generated_Source\PSoC4/cyfitter_cfg.c **** CY_CFG_UNUSED
 105:.\Generated_Source\PSoC4/cyfitter_cfg.c **** static void CyClockStartupError(uint8 errorCode);
 106:.\Generated_Source\PSoC4/cyfitter_cfg.c **** CY_CFG_UNUSED
 107:.\Generated_Source\PSoC4/cyfitter_cfg.c **** static void CyClockStartupError(uint8 errorCode)
 108:.\Generated_Source\PSoC4/cyfitter_cfg.c **** {
 109:.\Generated_Source\PSoC4/cyfitter_cfg.c ****     /* To remove the compiler warning if errorCode not used.                */
 110:.\Generated_Source\PSoC4/cyfitter_cfg.c ****     errorCode = errorCode;
 111:.\Generated_Source\PSoC4/cyfitter_cfg.c **** 
 112:.\Generated_Source\PSoC4/cyfitter_cfg.c ****     /* `#START CyClockStartupError` */
 113:.\Generated_Source\PSoC4/cyfitter_cfg.c **** 
 114:.\Generated_Source\PSoC4/cyfitter_cfg.c ****     /* If we have a clock startup error (bad MHz crystal, PLL lock, etc.),  */
 115:.\Generated_Source\PSoC4/cyfitter_cfg.c ****     /* we will end up here to allow the customer to implement something to  */
 116:.\Generated_Source\PSoC4/cyfitter_cfg.c ****     /* deal with the clock condition.                                       */
 117:.\Generated_Source\PSoC4/cyfitter_cfg.c **** 
 118:.\Generated_Source\PSoC4/cyfitter_cfg.c ****     /* `#END` */
 119:.\Generated_Source\PSoC4/cyfitter_cfg.c **** 
 120:.\Generated_Source\PSoC4/cyfitter_cfg.c ****     /* If nothing else, stop here since the clocks have not started         */
 121:.\Generated_Source\PSoC4/cyfitter_cfg.c ****     /* correctly.                                                           */
 122:.\Generated_Source\PSoC4/cyfitter_cfg.c ****     while(1) {}
 123:.\Generated_Source\PSoC4/cyfitter_cfg.c **** }
 124:.\Generated_Source\PSoC4/cyfitter_cfg.c **** #endif
 125:.\Generated_Source\PSoC4/cyfitter_cfg.c **** 
 126:.\Generated_Source\PSoC4/cyfitter_cfg.c **** #define CY_CFG_BASE_ADDR_COUNT 5u
 127:.\Generated_Source\PSoC4/cyfitter_cfg.c **** CYPACKED typedef struct
 128:.\Generated_Source\PSoC4/cyfitter_cfg.c **** {
 129:.\Generated_Source\PSoC4/cyfitter_cfg.c **** 	uint8 offset;
 130:.\Generated_Source\PSoC4/cyfitter_cfg.c **** 	uint8 value;
 131:.\Generated_Source\PSoC4/cyfitter_cfg.c **** } CYPACKED_ATTR cy_cfg_addrvalue_t;
 132:.\Generated_Source\PSoC4/cyfitter_cfg.c **** 
 133:.\Generated_Source\PSoC4/cyfitter_cfg.c **** 
 134:.\Generated_Source\PSoC4/cyfitter_cfg.c **** 
 135:.\Generated_Source\PSoC4/cyfitter_cfg.c **** /*******************************************************************************
 136:.\Generated_Source\PSoC4/cyfitter_cfg.c **** * Function Name: cfg_write_bytes32
 137:.\Generated_Source\PSoC4/cyfitter_cfg.c **** ********************************************************************************
 138:.\Generated_Source\PSoC4/cyfitter_cfg.c **** * Summary:
 139:.\Generated_Source\PSoC4/cyfitter_cfg.c **** *  This function is used for setting up the chip configuration areas that
 140:.\Generated_Source\PSoC4/cyfitter_cfg.c **** *  contain relatively sparse data.
 141:.\Generated_Source\PSoC4/cyfitter_cfg.c **** *
 142:.\Generated_Source\PSoC4/cyfitter_cfg.c **** * Parameters:
 143:.\Generated_Source\PSoC4/cyfitter_cfg.c **** *   void
 144:.\Generated_Source\PSoC4/cyfitter_cfg.c **** *
 145:.\Generated_Source\PSoC4/cyfitter_cfg.c **** * Return:
 146:.\Generated_Source\PSoC4/cyfitter_cfg.c **** *   void
ARM GAS  C:\Users\User\AppData\Local\Temp\cc96lCPY.s 			page 4


 147:.\Generated_Source\PSoC4/cyfitter_cfg.c **** *
 148:.\Generated_Source\PSoC4/cyfitter_cfg.c **** *******************************************************************************/
 149:.\Generated_Source\PSoC4/cyfitter_cfg.c **** static void cfg_write_bytes32(const uint32 addr_table[], const cy_cfg_addrvalue_t data_table[]);
 150:.\Generated_Source\PSoC4/cyfitter_cfg.c **** static void cfg_write_bytes32(const uint32 addr_table[], const cy_cfg_addrvalue_t data_table[])
 151:.\Generated_Source\PSoC4/cyfitter_cfg.c **** {
 152:.\Generated_Source\PSoC4/cyfitter_cfg.c **** 	/* For 32-bit little-endian architectures */
 153:.\Generated_Source\PSoC4/cyfitter_cfg.c **** 	uint32 i, j = 0u;
 154:.\Generated_Source\PSoC4/cyfitter_cfg.c **** 	for (i = 0u; i < CY_CFG_BASE_ADDR_COUNT; i++)
 155:.\Generated_Source\PSoC4/cyfitter_cfg.c **** 	{
 156:.\Generated_Source\PSoC4/cyfitter_cfg.c **** 		uint32 baseAddr = addr_table[i];
 157:.\Generated_Source\PSoC4/cyfitter_cfg.c **** 		uint8 count = (uint8)baseAddr;
 158:.\Generated_Source\PSoC4/cyfitter_cfg.c **** 		baseAddr &= 0xFFFFFF00u;
 159:.\Generated_Source\PSoC4/cyfitter_cfg.c **** 		while (count != 0u)
 160:.\Generated_Source\PSoC4/cyfitter_cfg.c **** 		{
 161:.\Generated_Source\PSoC4/cyfitter_cfg.c **** 			CY_SET_XTND_REG8((void CYFAR *)(baseAddr + data_table[j].offset), data_table[j].value);
 162:.\Generated_Source\PSoC4/cyfitter_cfg.c **** 			j++;
 163:.\Generated_Source\PSoC4/cyfitter_cfg.c **** 			count--;
 164:.\Generated_Source\PSoC4/cyfitter_cfg.c **** 		}
 165:.\Generated_Source\PSoC4/cyfitter_cfg.c **** 	}
 166:.\Generated_Source\PSoC4/cyfitter_cfg.c **** }
 167:.\Generated_Source\PSoC4/cyfitter_cfg.c **** 
 168:.\Generated_Source\PSoC4/cyfitter_cfg.c **** 
 169:.\Generated_Source\PSoC4/cyfitter_cfg.c **** /*******************************************************************************
 170:.\Generated_Source\PSoC4/cyfitter_cfg.c **** * Function Name: ClockSetup
 171:.\Generated_Source\PSoC4/cyfitter_cfg.c **** ********************************************************************************
 172:.\Generated_Source\PSoC4/cyfitter_cfg.c **** *
 173:.\Generated_Source\PSoC4/cyfitter_cfg.c **** * Summary:
 174:.\Generated_Source\PSoC4/cyfitter_cfg.c **** *   Performs the initialization of all of the clocks in the device based on the
 175:.\Generated_Source\PSoC4/cyfitter_cfg.c **** *   settings in the Clock tab of the DWR.  This includes enabling the requested
 176:.\Generated_Source\PSoC4/cyfitter_cfg.c **** *   clocks and setting the necessary dividers to produce the desired frequency. 
 177:.\Generated_Source\PSoC4/cyfitter_cfg.c **** *
 178:.\Generated_Source\PSoC4/cyfitter_cfg.c **** * Parameters:
 179:.\Generated_Source\PSoC4/cyfitter_cfg.c **** *   void
 180:.\Generated_Source\PSoC4/cyfitter_cfg.c **** *
 181:.\Generated_Source\PSoC4/cyfitter_cfg.c **** * Return:
 182:.\Generated_Source\PSoC4/cyfitter_cfg.c **** *   void
 183:.\Generated_Source\PSoC4/cyfitter_cfg.c **** *
 184:.\Generated_Source\PSoC4/cyfitter_cfg.c **** *******************************************************************************/
 185:.\Generated_Source\PSoC4/cyfitter_cfg.c **** static void ClockSetup(void);
 186:.\Generated_Source\PSoC4/cyfitter_cfg.c **** CY_CFG_SECTION
 187:.\Generated_Source\PSoC4/cyfitter_cfg.c **** static void ClockSetup(void)
 188:.\Generated_Source\PSoC4/cyfitter_cfg.c **** {
 189:.\Generated_Source\PSoC4/cyfitter_cfg.c **** 	/* Enable HALF_EN before trimming for the flash accelerator. */
 190:.\Generated_Source\PSoC4/cyfitter_cfg.c **** 	CY_SET_REG32((void CYXDATA *)(CYREG_CLK_SELECT), (CY_GET_REG32((void *)CYREG_CLK_SELECT) | 0x00040
 191:.\Generated_Source\PSoC4/cyfitter_cfg.c **** 
 192:.\Generated_Source\PSoC4/cyfitter_cfg.c **** 	/* Setup and trim IMO based on desired frequency. */
 193:.\Generated_Source\PSoC4/cyfitter_cfg.c **** 	CySysClkWriteImoFreq(48u);
 194:.\Generated_Source\PSoC4/cyfitter_cfg.c **** 	/* CYDEV_CLK_ILO_CONFIG Starting address: CYDEV_CLK_ILO_CONFIG */
 195:.\Generated_Source\PSoC4/cyfitter_cfg.c **** 	CY_SET_XTND_REG32((void CYFAR *)(CYREG_CLK_ILO_CONFIG), 0x80000006u);
 196:.\Generated_Source\PSoC4/cyfitter_cfg.c **** 
 197:.\Generated_Source\PSoC4/cyfitter_cfg.c **** 
 198:.\Generated_Source\PSoC4/cyfitter_cfg.c **** 	/* CYDEV_CLK_SELECT00 Starting address: CYDEV_CLK_SELECT00 */
 199:.\Generated_Source\PSoC4/cyfitter_cfg.c **** 	CY_SET_XTND_REG32((void CYFAR *)(CYREG_CLK_SELECT02), 0x00000010u);
 200:.\Generated_Source\PSoC4/cyfitter_cfg.c **** 	CY_SET_XTND_REG32((void CYFAR *)(CYREG_CLK_SELECT07), 0x00000020u);
 201:.\Generated_Source\PSoC4/cyfitter_cfg.c **** 
 202:.\Generated_Source\PSoC4/cyfitter_cfg.c **** 	/* CYDEV_CLK_IMO_CONFIG Starting address: CYDEV_CLK_IMO_CONFIG */
 203:.\Generated_Source\PSoC4/cyfitter_cfg.c **** 	CY_SET_XTND_REG32((void CYFAR *)(CYREG_CLK_IMO_CONFIG), 0x82000000u);
ARM GAS  C:\Users\User\AppData\Local\Temp\cc96lCPY.s 			page 5


 204:.\Generated_Source\PSoC4/cyfitter_cfg.c **** 
 205:.\Generated_Source\PSoC4/cyfitter_cfg.c **** 	/* CYDEV_CLK_SELECT Starting address: CYDEV_CLK_SELECT */
 206:.\Generated_Source\PSoC4/cyfitter_cfg.c **** 	CY_SET_XTND_REG32((void CYFAR *)(CYREG_CLK_SELECT), 0x00040000u);
 207:.\Generated_Source\PSoC4/cyfitter_cfg.c **** 
 208:.\Generated_Source\PSoC4/cyfitter_cfg.c **** 	/* CYDEV_CLK_DIVIDER_A00 Starting address: CYDEV_CLK_DIVIDER_A00 */
 209:.\Generated_Source\PSoC4/cyfitter_cfg.c **** 	CY_SET_XTND_REG32((void CYFAR *)(CYREG_CLK_DIVIDER_A00), 0x80000002u);
 210:.\Generated_Source\PSoC4/cyfitter_cfg.c **** 
 211:.\Generated_Source\PSoC4/cyfitter_cfg.c **** 	/* CYDEV_CLK_DIVIDER_B00 Starting address: CYDEV_CLK_DIVIDER_B00 */
 212:.\Generated_Source\PSoC4/cyfitter_cfg.c **** 	CY_SET_XTND_REG32((void CYFAR *)(CYREG_CLK_DIVIDER_B00), 0x8000002Fu);
 213:.\Generated_Source\PSoC4/cyfitter_cfg.c **** 
 214:.\Generated_Source\PSoC4/cyfitter_cfg.c **** 	(void)CyIntSetVector(9u, &CySysWdtIsr);
 215:.\Generated_Source\PSoC4/cyfitter_cfg.c **** 	CyIntEnable(9u);
 216:.\Generated_Source\PSoC4/cyfitter_cfg.c **** 	CY_SET_XTND_REG32((void CYFAR *)(CYREG_WDT_CONFIG), 0x00000000u);
 217:.\Generated_Source\PSoC4/cyfitter_cfg.c **** }
 218:.\Generated_Source\PSoC4/cyfitter_cfg.c **** 
 219:.\Generated_Source\PSoC4/cyfitter_cfg.c **** 
 220:.\Generated_Source\PSoC4/cyfitter_cfg.c **** /* Analog API Functions */
 221:.\Generated_Source\PSoC4/cyfitter_cfg.c **** 
 222:.\Generated_Source\PSoC4/cyfitter_cfg.c **** 
 223:.\Generated_Source\PSoC4/cyfitter_cfg.c **** /*******************************************************************************
 224:.\Generated_Source\PSoC4/cyfitter_cfg.c **** * Function Name: AnalogSetDefault
 225:.\Generated_Source\PSoC4/cyfitter_cfg.c **** ********************************************************************************
 226:.\Generated_Source\PSoC4/cyfitter_cfg.c **** *
 227:.\Generated_Source\PSoC4/cyfitter_cfg.c **** * Summary:
 228:.\Generated_Source\PSoC4/cyfitter_cfg.c **** *  Sets up the analog portions of the chip to default values based on chip
 229:.\Generated_Source\PSoC4/cyfitter_cfg.c **** *  configuration options from the project.
 230:.\Generated_Source\PSoC4/cyfitter_cfg.c **** *
 231:.\Generated_Source\PSoC4/cyfitter_cfg.c **** * Parameters:
 232:.\Generated_Source\PSoC4/cyfitter_cfg.c **** *  void
 233:.\Generated_Source\PSoC4/cyfitter_cfg.c **** *
 234:.\Generated_Source\PSoC4/cyfitter_cfg.c **** * Return:
 235:.\Generated_Source\PSoC4/cyfitter_cfg.c **** *  void
 236:.\Generated_Source\PSoC4/cyfitter_cfg.c **** *
 237:.\Generated_Source\PSoC4/cyfitter_cfg.c **** *******************************************************************************/
 238:.\Generated_Source\PSoC4/cyfitter_cfg.c **** static void AnalogSetDefault(void);
 239:.\Generated_Source\PSoC4/cyfitter_cfg.c **** static void AnalogSetDefault(void)
 240:.\Generated_Source\PSoC4/cyfitter_cfg.c **** {
 241:.\Generated_Source\PSoC4/cyfitter_cfg.c **** 	CY_SET_XTND_REG32((void CYFAR *)CYREG_CTBM_OA0_SW, 0x00044001u);
 242:.\Generated_Source\PSoC4/cyfitter_cfg.c **** 	CY_SET_XTND_REG32((void CYFAR *)CYREG_CTBM_OA1_SW, 0x00084002u);
 243:.\Generated_Source\PSoC4/cyfitter_cfg.c **** 	CY_SET_XTND_REG32((void CYFAR *)CYREG_SAR_MUX_SWITCH0, 0x02400000u);
 244:.\Generated_Source\PSoC4/cyfitter_cfg.c **** 	SetAnalogRoutingPumps(1);
 245:.\Generated_Source\PSoC4/cyfitter_cfg.c **** }
 246:.\Generated_Source\PSoC4/cyfitter_cfg.c **** 
 247:.\Generated_Source\PSoC4/cyfitter_cfg.c **** 
 248:.\Generated_Source\PSoC4/cyfitter_cfg.c **** /*******************************************************************************
 249:.\Generated_Source\PSoC4/cyfitter_cfg.c **** * Function Name: SetAnalogRoutingPumps
 250:.\Generated_Source\PSoC4/cyfitter_cfg.c **** ********************************************************************************
 251:.\Generated_Source\PSoC4/cyfitter_cfg.c **** *
 252:.\Generated_Source\PSoC4/cyfitter_cfg.c **** * Summary:
 253:.\Generated_Source\PSoC4/cyfitter_cfg.c **** * Enables or disables the analog pumps feeding analog routing switches.
 254:.\Generated_Source\PSoC4/cyfitter_cfg.c **** * Intended to be called at startup, based on the Vdda system configuration;
 255:.\Generated_Source\PSoC4/cyfitter_cfg.c **** * may be called during operation when the user informs us that the Vdda voltage crossed the pump th
 256:.\Generated_Source\PSoC4/cyfitter_cfg.c **** *
 257:.\Generated_Source\PSoC4/cyfitter_cfg.c **** * Parameters:
 258:.\Generated_Source\PSoC4/cyfitter_cfg.c **** *  enabled - 1 to enable the pumps, 0 to disable the pumps
 259:.\Generated_Source\PSoC4/cyfitter_cfg.c **** *
 260:.\Generated_Source\PSoC4/cyfitter_cfg.c **** * Return:
ARM GAS  C:\Users\User\AppData\Local\Temp\cc96lCPY.s 			page 6


 261:.\Generated_Source\PSoC4/cyfitter_cfg.c **** *  void
 262:.\Generated_Source\PSoC4/cyfitter_cfg.c **** *
 263:.\Generated_Source\PSoC4/cyfitter_cfg.c **** *******************************************************************************/
 264:.\Generated_Source\PSoC4/cyfitter_cfg.c **** void SetAnalogRoutingPumps(uint8 enabled)
 265:.\Generated_Source\PSoC4/cyfitter_cfg.c **** {
  26              		.loc 1 265 0
  27              		.cfi_startproc
  28              	.LVL0:
 266:.\Generated_Source\PSoC4/cyfitter_cfg.c **** 	uint32 regValue = CY_GET_XTND_REG32((void *)(CYREG_SAR_PUMP_CTRL));
  29              		.loc 1 266 0
  30 0000 054A     		ldr	r2, .L5
  31 0002 1368     		ldr	r3, [r2]
  32              	.LVL1:
 267:.\Generated_Source\PSoC4/cyfitter_cfg.c **** 	if (enabled != 0u)
  33              		.loc 1 267 0
  34 0004 0028     		cmp	r0, #0
  35 0006 03D0     		beq	.L2
 268:.\Generated_Source\PSoC4/cyfitter_cfg.c **** 	{
 269:.\Generated_Source\PSoC4/cyfitter_cfg.c **** 		regValue |= 0x80000000u;
  36              		.loc 1 269 0
  37 0008 8021     		mov	r1, #128
  38 000a 0906     		lsl	r1, r1, #24
  39 000c 0B43     		orr	r3, r1
  40              	.LVL2:
  41 000e 01E0     		b	.L3
  42              	.L2:
 270:.\Generated_Source\PSoC4/cyfitter_cfg.c **** 	}
 271:.\Generated_Source\PSoC4/cyfitter_cfg.c **** 	else
 272:.\Generated_Source\PSoC4/cyfitter_cfg.c **** 	{
 273:.\Generated_Source\PSoC4/cyfitter_cfg.c **** 		regValue &= ~0x80000000u;
  43              		.loc 1 273 0
  44 0010 5B00     		lsl	r3, r3, #1
  45              	.LVL3:
  46 0012 5B08     		lsr	r3, r3, #1
  47              	.LVL4:
  48              	.L3:
 274:.\Generated_Source\PSoC4/cyfitter_cfg.c **** 	}
 275:.\Generated_Source\PSoC4/cyfitter_cfg.c **** 	CY_SET_XTND_REG32((void *)(CYREG_SAR_PUMP_CTRL), regValue);
  49              		.loc 1 275 0
  50 0014 1360     		str	r3, [r2]
 276:.\Generated_Source\PSoC4/cyfitter_cfg.c **** }
  51              		.loc 1 276 0
  52              		@ sp needed
  53 0016 7047     		bx	lr
  54              	.L6:
  55              		.align	2
  56              	.L5:
  57 0018 80031A40 		.word	1075446656
  58              		.cfi_endproc
  59              	.LFE6:
  60              		.size	SetAnalogRoutingPumps, .-SetAnalogRoutingPumps
  61              		.section	.psocinit,"ax",%progbits
  62              		.align	1
  63              		.global	cyfitter_cfg
  64              		.code	16
  65              		.thumb_func
  66              		.type	cyfitter_cfg, %function
ARM GAS  C:\Users\User\AppData\Local\Temp\cc96lCPY.s 			page 7


  67              	cyfitter_cfg:
  68              	.LFB7:
 277:.\Generated_Source\PSoC4/cyfitter_cfg.c **** 
 278:.\Generated_Source\PSoC4/cyfitter_cfg.c **** #define CY_AMUX_UNUSED CYREG_CM0_ROM_DWT
 279:.\Generated_Source\PSoC4/cyfitter_cfg.c **** 
 280:.\Generated_Source\PSoC4/cyfitter_cfg.c **** 
 281:.\Generated_Source\PSoC4/cyfitter_cfg.c **** /*******************************************************************************
 282:.\Generated_Source\PSoC4/cyfitter_cfg.c **** * Function Name: cyfitter_cfg
 283:.\Generated_Source\PSoC4/cyfitter_cfg.c **** ********************************************************************************
 284:.\Generated_Source\PSoC4/cyfitter_cfg.c **** * Summary:
 285:.\Generated_Source\PSoC4/cyfitter_cfg.c **** *  This function is called by the start-up code for the selected device. It
 286:.\Generated_Source\PSoC4/cyfitter_cfg.c **** *  performs all of the necessary device configuration based on the design
 287:.\Generated_Source\PSoC4/cyfitter_cfg.c **** *  settings.  This includes settings from the Design Wide Resources (DWR) such
 288:.\Generated_Source\PSoC4/cyfitter_cfg.c **** *  as Clocks and Pins as well as any component configuration that is necessary.
 289:.\Generated_Source\PSoC4/cyfitter_cfg.c **** *
 290:.\Generated_Source\PSoC4/cyfitter_cfg.c **** * Parameters:  
 291:.\Generated_Source\PSoC4/cyfitter_cfg.c **** *   void
 292:.\Generated_Source\PSoC4/cyfitter_cfg.c **** *
 293:.\Generated_Source\PSoC4/cyfitter_cfg.c **** * Return:
 294:.\Generated_Source\PSoC4/cyfitter_cfg.c **** *   void
 295:.\Generated_Source\PSoC4/cyfitter_cfg.c **** *
 296:.\Generated_Source\PSoC4/cyfitter_cfg.c **** *******************************************************************************/
 297:.\Generated_Source\PSoC4/cyfitter_cfg.c **** CY_CFG_SECTION
 298:.\Generated_Source\PSoC4/cyfitter_cfg.c **** void cyfitter_cfg(void)
 299:.\Generated_Source\PSoC4/cyfitter_cfg.c **** {
  69              		.loc 1 299 0
  70              		.cfi_startproc
  71 0000 F8B5     		push	{r3, r4, r5, r6, r7, lr}
  72              		.cfi_def_cfa_offset 24
  73              		.cfi_offset 3, -24
  74              		.cfi_offset 4, -20
  75              		.cfi_offset 5, -16
  76              		.cfi_offset 6, -12
  77              		.cfi_offset 7, -8
  78              		.cfi_offset 14, -4
 300:.\Generated_Source\PSoC4/cyfitter_cfg.c **** 	/* Disable interrupts by default. Let user enable if/when they want. */
 301:.\Generated_Source\PSoC4/cyfitter_cfg.c **** 	CyGlobalIntDisable;
  79              		.loc 1 301 0
  80              	@ 301 ".\Generated_Source\PSoC4\cyfitter_cfg.c" 1
  81 0002 72B6     		CPSID   i
  82              	@ 0 "" 2
 302:.\Generated_Source\PSoC4/cyfitter_cfg.c **** 
 303:.\Generated_Source\PSoC4/cyfitter_cfg.c **** 	/* Enable the clock in the interrupt controller for the routed interrupts */
 304:.\Generated_Source\PSoC4/cyfitter_cfg.c **** 	CY_SET_REG8((void *)CYREG_UDB_UDBIF_INT_CLK_CTL, 0x01u);
  83              		.loc 1 304 0
  84              		.code	16
  85 0004 0122     		mov	r2, #1
  86 0006 4A4B     		ldr	r3, .L12
  87              	.LBB14:
  88              	.LBB15:
  89              	.LBB16:
  90              	.LBB17:
  63:.\Generated_Source\PSoC4/cyfitter_cfg.c **** }
  91              		.loc 1 63 0
  92 0008 0021     		mov	r1, #0
  93              	.LBE17:
  94              	.LBE16:
ARM GAS  C:\Users\User\AppData\Local\Temp\cc96lCPY.s 			page 8


  95              	.LBE15:
  96              	.LBE14:
  97              		.loc 1 304 0
  98 000a 1A70     		strb	r2, [r3]
  99              	.LVL5:
 100              	.LBB24:
 101              	.LBB20:
 102              	.LBB19:
 103              	.LBB18:
  63:.\Generated_Source\PSoC4/cyfitter_cfg.c **** }
 104              		.loc 1 63 0
 105 000c 8022     		mov	r2, #128
 106 000e 4948     		ldr	r0, .L12+4
 107 0010 D200     		lsl	r2, r2, #3
 108 0012 FFF7FEFF 		bl	memset
 109              	.LVL6:
 110 0016 8022     		mov	r2, #128
 111 0018 4748     		ldr	r0, .L12+8
 112 001a D200     		lsl	r2, r2, #3
 113 001c 0021     		mov	r1, #0
 114 001e FFF7FEFF 		bl	memset
 115              	.LVL7:
 116 0022 0022     		mov	r2, #0
 117 0024 141C     		mov	r4, r2
 118              	.LVL8:
 119              	.L10:
 120              	.LBE18:
 121              	.LBE19:
 122              	.LBE20:
 123              	.LBB21:
 124              	.LBB22:
 125              	.LBB23:
 156:.\Generated_Source\PSoC4/cyfitter_cfg.c **** 		uint8 count = (uint8)baseAddr;
 126              		.loc 1 156 0
 127 0026 4549     		ldr	r1, .L12+12
 158:.\Generated_Source\PSoC4/cyfitter_cfg.c **** 		while (count != 0u)
 128              		.loc 1 158 0
 129 0028 FF25     		mov	r5, #255
 156:.\Generated_Source\PSoC4/cyfitter_cfg.c **** 		uint8 count = (uint8)baseAddr;
 130              		.loc 1 156 0
 131 002a 5758     		ldr	r7, [r2, r1]
 132              	.LVL9:
 133 002c 1431     		add	r1, r1, #20
 158:.\Generated_Source\PSoC4/cyfitter_cfg.c **** 		while (count != 0u)
 134              		.loc 1 158 0
 135 002e 3E1C     		mov	r6, r7
 136 0030 081C     		mov	r0, r1
 137 0032 6300     		lsl	r3, r4, #1
 138 0034 AE43     		bic	r6, r5
 139              	.LVL10:
 140 0036 3D40     		and	r5, r7
 141 0038 0133     		add	r3, r3, #1
 142 003a 6419     		add	r4, r4, r5
 143              	.LVL11:
 144 003c CB18     		add	r3, r1, r3
 145 003e 6100     		lsl	r1, r4, #1
 146 0040 0131     		add	r1, r1, #1
ARM GAS  C:\Users\User\AppData\Local\Temp\cc96lCPY.s 			page 9


 147 0042 4118     		add	r1, r0, r1
 148              	.LVL12:
 149              	.L8:
 159:.\Generated_Source\PSoC4/cyfitter_cfg.c **** 		{
 150              		.loc 1 159 0
 151 0044 8B42     		cmp	r3, r1
 152 0046 06D0     		beq	.L11
 153 0048 581E     		sub	r0, r3, #1
 161:.\Generated_Source\PSoC4/cyfitter_cfg.c **** 			j++;
 154              		.loc 1 161 0
 155 004a 0078     		ldrb	r0, [r0]
 156 004c 1D78     		ldrb	r5, [r3]
 157 004e 8019     		add	r0, r0, r6
 158 0050 0570     		strb	r5, [r0]
 159 0052 0233     		add	r3, r3, #2
 160 0054 F6E7     		b	.L8
 161              	.L11:
 162              	.LVL13:
 163 0056 0432     		add	r2, r2, #4
 164              	.LBE23:
 154:.\Generated_Source\PSoC4/cyfitter_cfg.c **** 	{
 165              		.loc 1 154 0
 166 0058 142A     		cmp	r2, #20
 167 005a E4D1     		bne	.L10
 168              	.LBE22:
 169              	.LBE21:
 305:.\Generated_Source\PSoC4/cyfitter_cfg.c **** 	{
 306:.\Generated_Source\PSoC4/cyfitter_cfg.c **** 		static const uint32 CYCODE cy_cfg_addr_table[] = {
 307:.\Generated_Source\PSoC4/cyfitter_cfg.c **** 			0x400F3004u, /* Base address: 0x400F3000 Count: 4 */
 308:.\Generated_Source\PSoC4/cyfitter_cfg.c **** 			0x400F3101u, /* Base address: 0x400F3100 Count: 1 */
 309:.\Generated_Source\PSoC4/cyfitter_cfg.c **** 			0x400F3301u, /* Base address: 0x400F3300 Count: 1 */
 310:.\Generated_Source\PSoC4/cyfitter_cfg.c **** 			0x400F4004u, /* Base address: 0x400F4000 Count: 4 */
 311:.\Generated_Source\PSoC4/cyfitter_cfg.c **** 			0x400F4105u, /* Base address: 0x400F4100 Count: 5 */
 312:.\Generated_Source\PSoC4/cyfitter_cfg.c **** 		};
 313:.\Generated_Source\PSoC4/cyfitter_cfg.c **** 
 314:.\Generated_Source\PSoC4/cyfitter_cfg.c **** 		static const cy_cfg_addrvalue_t CYCODE cy_cfg_data_table[] = {
 315:.\Generated_Source\PSoC4/cyfitter_cfg.c **** 			{0x30u, 0x01u},
 316:.\Generated_Source\PSoC4/cyfitter_cfg.c **** 			{0x3Eu, 0x01u},
 317:.\Generated_Source\PSoC4/cyfitter_cfg.c **** 			{0x58u, 0x04u},
 318:.\Generated_Source\PSoC4/cyfitter_cfg.c **** 			{0x5Fu, 0x01u},
 319:.\Generated_Source\PSoC4/cyfitter_cfg.c **** 			{0x1Au, 0x80u},
 320:.\Generated_Source\PSoC4/cyfitter_cfg.c **** 			{0xAAu, 0x40u},
 321:.\Generated_Source\PSoC4/cyfitter_cfg.c **** 			{0x2Fu, 0x20u},
 322:.\Generated_Source\PSoC4/cyfitter_cfg.c **** 			{0x6Fu, 0x20u},
 323:.\Generated_Source\PSoC4/cyfitter_cfg.c **** 			{0xCAu, 0x80u},
 324:.\Generated_Source\PSoC4/cyfitter_cfg.c **** 			{0xDAu, 0x80u},
 325:.\Generated_Source\PSoC4/cyfitter_cfg.c **** 			{0x62u, 0x20u},
 326:.\Generated_Source\PSoC4/cyfitter_cfg.c **** 			{0xA2u, 0x20u},
 327:.\Generated_Source\PSoC4/cyfitter_cfg.c **** 			{0xAAu, 0x20u},
 328:.\Generated_Source\PSoC4/cyfitter_cfg.c **** 			{0xD8u, 0x40u},
 329:.\Generated_Source\PSoC4/cyfitter_cfg.c **** 			{0xEEu, 0x80u},
 330:.\Generated_Source\PSoC4/cyfitter_cfg.c **** 		};
 331:.\Generated_Source\PSoC4/cyfitter_cfg.c **** 
 332:.\Generated_Source\PSoC4/cyfitter_cfg.c **** 
 333:.\Generated_Source\PSoC4/cyfitter_cfg.c **** 
 334:.\Generated_Source\PSoC4/cyfitter_cfg.c **** 		CYPACKED typedef struct {
 335:.\Generated_Source\PSoC4/cyfitter_cfg.c **** 			void CYFAR *address;
ARM GAS  C:\Users\User\AppData\Local\Temp\cc96lCPY.s 			page 10


 336:.\Generated_Source\PSoC4/cyfitter_cfg.c **** 			uint16 size;
 337:.\Generated_Source\PSoC4/cyfitter_cfg.c **** 		} CYPACKED_ATTR cfg_memset_t;
 338:.\Generated_Source\PSoC4/cyfitter_cfg.c **** 
 339:.\Generated_Source\PSoC4/cyfitter_cfg.c **** 		static const cfg_memset_t CYCODE cfg_memset_list [] = {
 340:.\Generated_Source\PSoC4/cyfitter_cfg.c **** 			/* address, size */
 341:.\Generated_Source\PSoC4/cyfitter_cfg.c **** 			{(void CYFAR *)(CYDEV_UDB_P0_U0_BASE), 1024u},
 342:.\Generated_Source\PSoC4/cyfitter_cfg.c **** 			{(void CYFAR *)(CYDEV_UDB_DSI0_BASE), 1024u},
 343:.\Generated_Source\PSoC4/cyfitter_cfg.c **** 		};
 344:.\Generated_Source\PSoC4/cyfitter_cfg.c **** 
 345:.\Generated_Source\PSoC4/cyfitter_cfg.c **** 		uint8 CYDATA i;
 346:.\Generated_Source\PSoC4/cyfitter_cfg.c **** 
 347:.\Generated_Source\PSoC4/cyfitter_cfg.c **** 		/* Zero out critical memory blocks before beginning configuration */
 348:.\Generated_Source\PSoC4/cyfitter_cfg.c **** 		for (i = 0u; i < (sizeof(cfg_memset_list)/sizeof(cfg_memset_list[0])); i++)
 349:.\Generated_Source\PSoC4/cyfitter_cfg.c **** 		{
 350:.\Generated_Source\PSoC4/cyfitter_cfg.c **** 			const cfg_memset_t CYCODE * CYDATA ms = &cfg_memset_list[i];
 351:.\Generated_Source\PSoC4/cyfitter_cfg.c **** 			CYMEMZERO(ms->address, (size_t)(uint32)(ms->size));
 352:.\Generated_Source\PSoC4/cyfitter_cfg.c **** 		}
 353:.\Generated_Source\PSoC4/cyfitter_cfg.c **** 
 354:.\Generated_Source\PSoC4/cyfitter_cfg.c **** 		cfg_write_bytes32(cy_cfg_addr_table, cy_cfg_data_table);
 355:.\Generated_Source\PSoC4/cyfitter_cfg.c **** 
 356:.\Generated_Source\PSoC4/cyfitter_cfg.c **** 		/* HSIOM Starting address: CYDEV_HSIOM_BASE */
 357:.\Generated_Source\PSoC4/cyfitter_cfg.c **** 		CY_SET_XTND_REG32((void CYFAR *)(CYREG_HSIOM_PORT_SEL1), 0x00060000u);
 170              		.loc 1 357 0
 171 005c C021     		mov	r1, #192
 172 005e 384B     		ldr	r3, .L12+16
 173 0060 C902     		lsl	r1, r1, #11
 174 0062 1960     		str	r1, [r3]
 358:.\Generated_Source\PSoC4/cyfitter_cfg.c **** 		CY_SET_XTND_REG32((void CYFAR *)(CYREG_HSIOM_PORT_SEL3), 0x0000EE00u);
 175              		.loc 1 358 0
 176 0064 EE21     		mov	r1, #238
 177 0066 374B     		ldr	r3, .L12+20
 178 0068 0902     		lsl	r1, r1, #8
 179 006a 1960     		str	r1, [r3]
 359:.\Generated_Source\PSoC4/cyfitter_cfg.c **** 		CY_SET_XTND_REG32((void CYFAR *)(CYREG_HSIOM_PORT_SEL4), 0x000000EEu);
 180              		.loc 1 359 0
 181 006c EE21     		mov	r1, #238
 182 006e 364B     		ldr	r3, .L12+24
 360:.\Generated_Source\PSoC4/cyfitter_cfg.c **** 
 361:.\Generated_Source\PSoC4/cyfitter_cfg.c **** 		/* UDB_PA_1 Starting address: CYDEV_UDB_PA1_BASE */
 362:.\Generated_Source\PSoC4/cyfitter_cfg.c **** 		CY_SET_XTND_REG32((void CYFAR *)(CYDEV_UDB_PA1_BASE), 0x00990000u);
 363:.\Generated_Source\PSoC4/cyfitter_cfg.c **** 		CY_SET_XTND_REG32((void CYFAR *)(CYREG_UDB_PA1_CFG8), 0x02000000u);
 183              		.loc 1 363 0
 184 0070 8020     		mov	r0, #128
 359:.\Generated_Source\PSoC4/cyfitter_cfg.c **** 		CY_SET_XTND_REG32((void CYFAR *)(CYREG_HSIOM_PORT_SEL4), 0x000000EEu);
 185              		.loc 1 359 0
 186 0072 1960     		str	r1, [r3]
 362:.\Generated_Source\PSoC4/cyfitter_cfg.c **** 		CY_SET_XTND_REG32((void CYFAR *)(CYREG_UDB_PA1_CFG8), 0x02000000u);
 187              		.loc 1 362 0
 188 0074 9923     		mov	r3, #153
 189 0076 3549     		ldr	r1, .L12+28
 190 0078 1B04     		lsl	r3, r3, #16
 364:.\Generated_Source\PSoC4/cyfitter_cfg.c **** 
 365:.\Generated_Source\PSoC4/cyfitter_cfg.c **** 		/* UDB_PA_3 Starting address: CYDEV_UDB_PA3_BASE */
 366:.\Generated_Source\PSoC4/cyfitter_cfg.c **** 		CY_SET_XTND_REG32((void CYFAR *)(CYDEV_UDB_PA3_BASE), 0x00990000u);
 367:.\Generated_Source\PSoC4/cyfitter_cfg.c **** 
 368:.\Generated_Source\PSoC4/cyfitter_cfg.c **** 		/* INT_SELECT Starting address: CYDEV_CPUSS_INTR_SELECT */
 369:.\Generated_Source\PSoC4/cyfitter_cfg.c **** 		CY_SET_XTND_REG32((void CYFAR *)(CYREG_CPUSS_INTR_SELECT), 0x00000001u);
ARM GAS  C:\Users\User\AppData\Local\Temp\cc96lCPY.s 			page 11


 191              		.loc 1 369 0
 192 007a 0124     		mov	r4, #1
 193              	.LVL14:
 362:.\Generated_Source\PSoC4/cyfitter_cfg.c **** 		CY_SET_XTND_REG32((void CYFAR *)(CYREG_UDB_PA1_CFG8), 0x02000000u);
 194              		.loc 1 362 0
 195 007c 0B60     		str	r3, [r1]
 363:.\Generated_Source\PSoC4/cyfitter_cfg.c **** 
 196              		.loc 1 363 0
 197 007e 3449     		ldr	r1, .L12+32
 198 0080 8004     		lsl	r0, r0, #18
 199 0082 0860     		str	r0, [r1]
 370:.\Generated_Source\PSoC4/cyfitter_cfg.c **** 
 371:.\Generated_Source\PSoC4/cyfitter_cfg.c **** 		/* Enable digital routing */
 372:.\Generated_Source\PSoC4/cyfitter_cfg.c **** 		CY_SET_XTND_REG8((void *)CYREG_UDB_UDBIF_BANK_CTL, CY_GET_XTND_REG8((void *)CYREG_UDB_UDBIF_BANK_
 200              		.loc 1 372 0
 201 0084 0220     		mov	r0, #2
 373:.\Generated_Source\PSoC4/cyfitter_cfg.c **** 
 374:.\Generated_Source\PSoC4/cyfitter_cfg.c **** 		/* Enable UDB array */
 375:.\Generated_Source\PSoC4/cyfitter_cfg.c **** 		CY_SET_XTND_REG8((void *)CYREG_UDB_UDBIF_WAIT_CFG, (uint8)((CY_GET_XTND_REG8((void *)CYREG_UDB_UD
 202              		.loc 1 375 0
 203 0086 3C25     		mov	r5, #60
 366:.\Generated_Source\PSoC4/cyfitter_cfg.c **** 
 204              		.loc 1 366 0
 205 0088 3249     		ldr	r1, .L12+36
 206              	.LBE24:
 207              	.LBB25:
 208              	.LBB26:
 190:.\Generated_Source\PSoC4/cyfitter_cfg.c **** 
 209              		.loc 1 190 0
 210 008a 8026     		mov	r6, #128
 211              	.LVL15:
 212              	.LBE26:
 213              	.LBE25:
 214              	.LBB31:
 366:.\Generated_Source\PSoC4/cyfitter_cfg.c **** 
 215              		.loc 1 366 0
 216 008c 0B60     		str	r3, [r1]
 369:.\Generated_Source\PSoC4/cyfitter_cfg.c **** 
 217              		.loc 1 369 0
 218 008e 324B     		ldr	r3, .L12+40
 372:.\Generated_Source\PSoC4/cyfitter_cfg.c **** 
 219              		.loc 1 372 0
 220 0090 3249     		ldr	r1, .L12+44
 369:.\Generated_Source\PSoC4/cyfitter_cfg.c **** 
 221              		.loc 1 369 0
 222 0092 1C60     		str	r4, [r3]
 372:.\Generated_Source\PSoC4/cyfitter_cfg.c **** 
 223              		.loc 1 372 0
 224 0094 0B78     		ldrb	r3, [r1]
 225              	.LBE31:
 226              	.LBB32:
 227              	.LBB27:
 190:.\Generated_Source\PSoC4/cyfitter_cfg.c **** 
 228              		.loc 1 190 0
 229 0096 F602     		lsl	r6, r6, #11
 230              	.LBE27:
 231              	.LBE32:
ARM GAS  C:\Users\User\AppData\Local\Temp\cc96lCPY.s 			page 12


 232              	.LBB33:
 372:.\Generated_Source\PSoC4/cyfitter_cfg.c **** 
 233              		.loc 1 372 0
 234 0098 0343     		orr	r3, r0
 235              		.loc 1 375 0
 236 009a 3148     		ldr	r0, .L12+48
 372:.\Generated_Source\PSoC4/cyfitter_cfg.c **** 
 237              		.loc 1 372 0
 238 009c 0B70     		strb	r3, [r1]
 239              		.loc 1 375 0
 240 009e 0378     		ldrb	r3, [r0]
 241              	.LBE33:
 376:.\Generated_Source\PSoC4/cyfitter_cfg.c **** 		CY_SET_XTND_REG8((void *)CYREG_UDB_UDBIF_BANK_CTL, (uint8)(CY_GET_XTND_REG8((void *)CYREG_UDB_UDB
 377:.\Generated_Source\PSoC4/cyfitter_cfg.c **** 	}
 378:.\Generated_Source\PSoC4/cyfitter_cfg.c **** 
 379:.\Generated_Source\PSoC4/cyfitter_cfg.c **** 	/* Perform second pass device configuration. These items must be configured in specific order afte
 380:.\Generated_Source\PSoC4/cyfitter_cfg.c **** 	/* IOPINS0_1 Starting address: CYDEV_PRT1_BASE */
 381:.\Generated_Source\PSoC4/cyfitter_cfg.c **** 	CY_SET_XTND_REG32((void CYFAR *)(CYREG_PRT1_PC2), 0x00000030u);
 382:.\Generated_Source\PSoC4/cyfitter_cfg.c **** 
 383:.\Generated_Source\PSoC4/cyfitter_cfg.c **** 	/* IOPINS0_3 Starting address: CYDEV_PRT3_BASE */
 384:.\Generated_Source\PSoC4/cyfitter_cfg.c **** 	CY_SET_XTND_REG32((void CYFAR *)(CYREG_PRT3_PC), 0x00000D80u);
 385:.\Generated_Source\PSoC4/cyfitter_cfg.c **** 
 386:.\Generated_Source\PSoC4/cyfitter_cfg.c **** 	/* IOPINS0_4 Starting address: CYDEV_PRT4_BASE */
 387:.\Generated_Source\PSoC4/cyfitter_cfg.c **** 	CY_SET_XTND_REG32((void CYFAR *)(CYDEV_PRT4_BASE), 0x00000003u);
 388:.\Generated_Source\PSoC4/cyfitter_cfg.c **** 	CY_SET_XTND_REG32((void CYFAR *)(CYREG_PRT4_PC), 0x00000024u);
 389:.\Generated_Source\PSoC4/cyfitter_cfg.c **** 
 390:.\Generated_Source\PSoC4/cyfitter_cfg.c **** 
 391:.\Generated_Source\PSoC4/cyfitter_cfg.c **** 	/* Setup clocks based on selections from Clock DWR */
 392:.\Generated_Source\PSoC4/cyfitter_cfg.c **** 	ClockSetup();
 393:.\Generated_Source\PSoC4/cyfitter_cfg.c **** 
 394:.\Generated_Source\PSoC4/cyfitter_cfg.c **** 	/* Perform basic analog initialization to defaults */
 395:.\Generated_Source\PSoC4/cyfitter_cfg.c **** 	AnalogSetDefault();
 396:.\Generated_Source\PSoC4/cyfitter_cfg.c **** 
 397:.\Generated_Source\PSoC4/cyfitter_cfg.c **** }
 242              		.loc 1 397 0
 243              		@ sp needed
 244              	.LBB34:
 375:.\Generated_Source\PSoC4/cyfitter_cfg.c **** 		CY_SET_XTND_REG8((void *)CYREG_UDB_UDBIF_BANK_CTL, (uint8)(CY_GET_XTND_REG8((void *)CYREG_UDB_UDB
 245              		.loc 1 375 0
 246 00a0 AB43     		bic	r3, r5
 247 00a2 1343     		orr	r3, r2
 248 00a4 DBB2     		uxtb	r3, r3
 249 00a6 0370     		strb	r3, [r0]
 376:.\Generated_Source\PSoC4/cyfitter_cfg.c **** 		CY_SET_XTND_REG8((void *)CYREG_UDB_UDBIF_BANK_CTL, (uint8)(CY_GET_XTND_REG8((void *)CYREG_UDB_UDB
 250              		.loc 1 376 0
 251 00a8 0B78     		ldrb	r3, [r1]
 252              	.LBE34:
 381:.\Generated_Source\PSoC4/cyfitter_cfg.c **** 
 253              		.loc 1 381 0
 254 00aa 3020     		mov	r0, #48
 255              	.LBB35:
 376:.\Generated_Source\PSoC4/cyfitter_cfg.c **** 		CY_SET_XTND_REG8((void *)CYREG_UDB_UDBIF_BANK_CTL, (uint8)(CY_GET_XTND_REG8((void *)CYREG_UDB_UDB
 256              		.loc 1 376 0
 257 00ac 0232     		add	r2, r2, #2
 258 00ae 1343     		orr	r3, r2
 259              	.LBE35:
 384:.\Generated_Source\PSoC4/cyfitter_cfg.c **** 
ARM GAS  C:\Users\User\AppData\Local\Temp\cc96lCPY.s 			page 13


 260              		.loc 1 384 0
 261 00b0 D822     		mov	r2, #216
 262              	.LBB36:
 376:.\Generated_Source\PSoC4/cyfitter_cfg.c **** 	}
 263              		.loc 1 376 0
 264 00b2 0B70     		strb	r3, [r1]
 265              	.LBE36:
 381:.\Generated_Source\PSoC4/cyfitter_cfg.c **** 
 266              		.loc 1 381 0
 267 00b4 2B4B     		ldr	r3, .L12+52
 384:.\Generated_Source\PSoC4/cyfitter_cfg.c **** 
 268              		.loc 1 384 0
 269 00b6 1201     		lsl	r2, r2, #4
 381:.\Generated_Source\PSoC4/cyfitter_cfg.c **** 
 270              		.loc 1 381 0
 271 00b8 1860     		str	r0, [r3]
 384:.\Generated_Source\PSoC4/cyfitter_cfg.c **** 
 272              		.loc 1 384 0
 273 00ba 2B4B     		ldr	r3, .L12+56
 274              	.LBB37:
 275              	.LBB28:
 190:.\Generated_Source\PSoC4/cyfitter_cfg.c **** 
 276              		.loc 1 190 0
 277 00bc 2B4D     		ldr	r5, .L12+60
 278              	.LBE28:
 279              	.LBE37:
 384:.\Generated_Source\PSoC4/cyfitter_cfg.c **** 
 280              		.loc 1 384 0
 281 00be 1A60     		str	r2, [r3]
 387:.\Generated_Source\PSoC4/cyfitter_cfg.c **** 	CY_SET_XTND_REG32((void CYFAR *)(CYREG_PRT4_PC), 0x00000024u);
 282              		.loc 1 387 0
 283 00c0 0322     		mov	r2, #3
 284 00c2 2B4B     		ldr	r3, .L12+64
 285 00c4 1A60     		str	r2, [r3]
 388:.\Generated_Source\PSoC4/cyfitter_cfg.c **** 
 286              		.loc 1 388 0
 287 00c6 2B4B     		ldr	r3, .L12+68
 288 00c8 2132     		add	r2, r2, #33
 289 00ca 1A60     		str	r2, [r3]
 290              	.LBB38:
 291              	.LBB29:
 190:.\Generated_Source\PSoC4/cyfitter_cfg.c **** 
 292              		.loc 1 190 0
 293 00cc 2B68     		ldr	r3, [r5]
 294 00ce 3343     		orr	r3, r6
 295 00d0 2B60     		str	r3, [r5]
 193:.\Generated_Source\PSoC4/cyfitter_cfg.c **** 	/* CYDEV_CLK_ILO_CONFIG Starting address: CYDEV_CLK_ILO_CONFIG */
 296              		.loc 1 193 0
 297 00d2 FFF7FEFF 		bl	CySysClkWriteImoFreq
 298              	.LVL16:
 195:.\Generated_Source\PSoC4/cyfitter_cfg.c **** 
 299              		.loc 1 195 0
 300 00d6 284A     		ldr	r2, .L12+72
 301 00d8 284B     		ldr	r3, .L12+76
 214:.\Generated_Source\PSoC4/cyfitter_cfg.c **** 	CyIntEnable(9u);
 302              		.loc 1 214 0
 303 00da 2949     		ldr	r1, .L12+80
ARM GAS  C:\Users\User\AppData\Local\Temp\cc96lCPY.s 			page 14


 195:.\Generated_Source\PSoC4/cyfitter_cfg.c **** 
 304              		.loc 1 195 0
 305 00dc 1A60     		str	r2, [r3]
 199:.\Generated_Source\PSoC4/cyfitter_cfg.c **** 	CY_SET_XTND_REG32((void CYFAR *)(CYREG_CLK_SELECT07), 0x00000020u);
 306              		.loc 1 199 0
 307 00de 1022     		mov	r2, #16
 308 00e0 284B     		ldr	r3, .L12+84
 214:.\Generated_Source\PSoC4/cyfitter_cfg.c **** 	CyIntEnable(9u);
 309              		.loc 1 214 0
 310 00e2 0920     		mov	r0, #9
 199:.\Generated_Source\PSoC4/cyfitter_cfg.c **** 	CY_SET_XTND_REG32((void CYFAR *)(CYREG_CLK_SELECT07), 0x00000020u);
 311              		.loc 1 199 0
 312 00e4 1A60     		str	r2, [r3]
 200:.\Generated_Source\PSoC4/cyfitter_cfg.c **** 
 313              		.loc 1 200 0
 314 00e6 284B     		ldr	r3, .L12+88
 315 00e8 9218     		add	r2, r2, r2
 316 00ea 1A60     		str	r2, [r3]
 203:.\Generated_Source\PSoC4/cyfitter_cfg.c **** 
 317              		.loc 1 203 0
 318 00ec 8222     		mov	r2, #130
 319 00ee 274B     		ldr	r3, .L12+92
 320 00f0 1206     		lsl	r2, r2, #24
 321 00f2 1A60     		str	r2, [r3]
 209:.\Generated_Source\PSoC4/cyfitter_cfg.c **** 
 322              		.loc 1 209 0
 323 00f4 264A     		ldr	r2, .L12+96
 324 00f6 274B     		ldr	r3, .L12+100
 206:.\Generated_Source\PSoC4/cyfitter_cfg.c **** 
 325              		.loc 1 206 0
 326 00f8 2E60     		str	r6, [r5]
 209:.\Generated_Source\PSoC4/cyfitter_cfg.c **** 
 327              		.loc 1 209 0
 328 00fa 1A60     		str	r2, [r3]
 212:.\Generated_Source\PSoC4/cyfitter_cfg.c **** 
 329              		.loc 1 212 0
 330 00fc 264A     		ldr	r2, .L12+104
 331 00fe 274B     		ldr	r3, .L12+108
 332 0100 1A60     		str	r2, [r3]
 214:.\Generated_Source\PSoC4/cyfitter_cfg.c **** 	CyIntEnable(9u);
 333              		.loc 1 214 0
 334 0102 FFF7FEFF 		bl	CyIntSetVector
 335              	.LVL17:
 215:.\Generated_Source\PSoC4/cyfitter_cfg.c **** 	CY_SET_XTND_REG32((void CYFAR *)(CYREG_WDT_CONFIG), 0x00000000u);
 336              		.loc 1 215 0
 337 0106 0920     		mov	r0, #9
 338 0108 FFF7FEFF 		bl	CyIntEnable
 339              	.LVL18:
 216:.\Generated_Source\PSoC4/cyfitter_cfg.c **** }
 340              		.loc 1 216 0
 341 010c 0022     		mov	r2, #0
 342 010e 244B     		ldr	r3, .L12+112
 343              	.LBE29:
 344              	.LBE38:
 345              	.LBB39:
 346              	.LBB40:
 244:.\Generated_Source\PSoC4/cyfitter_cfg.c **** }
ARM GAS  C:\Users\User\AppData\Local\Temp\cc96lCPY.s 			page 15


 347              		.loc 1 244 0
 348 0110 201C     		mov	r0, r4
 349              	.LBE40:
 350              	.LBE39:
 351              	.LBB42:
 352              	.LBB30:
 216:.\Generated_Source\PSoC4/cyfitter_cfg.c **** }
 353              		.loc 1 216 0
 354 0112 1A60     		str	r2, [r3]
 355              	.LBE30:
 356              	.LBE42:
 357              	.LBB43:
 358              	.LBB41:
 241:.\Generated_Source\PSoC4/cyfitter_cfg.c **** 	CY_SET_XTND_REG32((void CYFAR *)CYREG_CTBM_OA1_SW, 0x00084002u);
 359              		.loc 1 241 0
 360 0114 234A     		ldr	r2, .L12+116
 361 0116 244B     		ldr	r3, .L12+120
 362 0118 1A60     		str	r2, [r3]
 242:.\Generated_Source\PSoC4/cyfitter_cfg.c **** 	CY_SET_XTND_REG32((void CYFAR *)CYREG_SAR_MUX_SWITCH0, 0x02400000u);
 363              		.loc 1 242 0
 364 011a 244A     		ldr	r2, .L12+124
 365 011c 244B     		ldr	r3, .L12+128
 366 011e 1A60     		str	r2, [r3]
 243:.\Generated_Source\PSoC4/cyfitter_cfg.c **** 	SetAnalogRoutingPumps(1);
 367              		.loc 1 243 0
 368 0120 9022     		mov	r2, #144
 369 0122 244B     		ldr	r3, .L12+132
 370 0124 9204     		lsl	r2, r2, #18
 371 0126 1A60     		str	r2, [r3]
 244:.\Generated_Source\PSoC4/cyfitter_cfg.c **** }
 372              		.loc 1 244 0
 373 0128 FFF7FEFF 		bl	SetAnalogRoutingPumps
 374              	.LVL19:
 375              	.LVL20:
 376              	.LBE41:
 377              	.LBE43:
 378              		.loc 1 397 0
 379 012c F8BD     		pop	{r3, r4, r5, r6, r7, pc}
 380              	.L13:
 381 012e C046     		.align	2
 382              	.L12:
 383 0130 1C700F40 		.word	1074753564
 384 0134 00300F40 		.word	1074737152
 385 0138 00400F40 		.word	1074741248
 386 013c 00000000 		.word	.LANCHOR0
 387 0140 04000140 		.word	1073807364
 388 0144 0C000140 		.word	1073807372
 389 0148 10000140 		.word	1073807376
 390 014c 10500F40 		.word	1074745360
 391 0150 18500F40 		.word	1074745368
 392 0154 30500F40 		.word	1074745392
 393 0158 20000040 		.word	1073741856
 394 015c 00700F40 		.word	1074753536
 395 0160 01700F40 		.word	1074753537
 396 0164 18010440 		.word	1074004248
 397 0168 08030440 		.word	1074004744
 398 016c 00010B40 		.word	1074462976
ARM GAS  C:\Users\User\AppData\Local\Temp\cc96lCPY.s 			page 16


 399 0170 00040440 		.word	1074004992
 400 0174 08040440 		.word	1074005000
 401 0178 06000080 		.word	-2147483642
 402 017c 04010B40 		.word	1074462980
 403 0180 00000000 		.word	CySysWdtIsr
 404 0184 08020240 		.word	1073873416
 405 0188 1C020240 		.word	1073873436
 406 018c 08010B40 		.word	1074462984
 407 0190 02000080 		.word	-2147483646
 408 0194 00000240 		.word	1073872896
 409 0198 2F000080 		.word	-2147483601
 410 019c 40000240 		.word	1073872960
 411 01a0 0C020B40 		.word	1074463244
 412 01a4 01400400 		.word	278529
 413 01a8 80001040 		.word	1074790528
 414 01ac 02400800 		.word	540674
 415 01b0 88001040 		.word	1074790536
 416 01b4 00031A40 		.word	1075446528
 417              		.cfi_endproc
 418              	.LFE7:
 419              		.size	cyfitter_cfg, .-cyfitter_cfg
 420              		.section	.rodata
 421              		.align	2
 422              		.set	.LANCHOR0,. + 0
 423              		.type	cy_cfg_addr_table.4739, %object
 424              		.size	cy_cfg_addr_table.4739, 20
 425              	cy_cfg_addr_table.4739:
 426 0000 04300F40 		.word	1074737156
 427 0004 01310F40 		.word	1074737409
 428 0008 01330F40 		.word	1074737921
 429 000c 04400F40 		.word	1074741252
 430 0010 05410F40 		.word	1074741509
 431              		.type	cy_cfg_data_table.4740, %object
 432              		.size	cy_cfg_data_table.4740, 30
 433              	cy_cfg_data_table.4740:
 434 0014 30       		.byte	48
 435 0015 01       		.byte	1
 436 0016 3E       		.byte	62
 437 0017 01       		.byte	1
 438 0018 58       		.byte	88
 439 0019 04       		.byte	4
 440 001a 5F       		.byte	95
 441 001b 01       		.byte	1
 442 001c 1A       		.byte	26
 443 001d 80       		.byte	-128
 444 001e AA       		.byte	-86
 445 001f 40       		.byte	64
 446 0020 2F       		.byte	47
 447 0021 20       		.byte	32
 448 0022 6F       		.byte	111
 449 0023 20       		.byte	32
 450 0024 CA       		.byte	-54
 451 0025 80       		.byte	-128
 452 0026 DA       		.byte	-38
 453 0027 80       		.byte	-128
 454 0028 62       		.byte	98
 455 0029 20       		.byte	32
ARM GAS  C:\Users\User\AppData\Local\Temp\cc96lCPY.s 			page 17


 456 002a A2       		.byte	-94
 457 002b 20       		.byte	32
 458 002c AA       		.byte	-86
 459 002d 20       		.byte	32
 460 002e D8       		.byte	-40
 461 002f 40       		.byte	64
 462 0030 EE       		.byte	-18
 463 0031 80       		.byte	-128
 464 0032 0000     		.text
 465              	.Letext0:
 466              		.file 2 "d:\\cypress\\psoc creator\\3.3\\psoc creator\\import\\gnu\\arm\\4.9.3\\lib\\gcc\\arm-none
 467              		.file 3 ".\\Generated_Source\\PSoC4\\cytypes.h"
 468              		.file 4 ".\\Generated_Source\\PSoC4\\CyLib.h"