ARM GAS  C:\Users\User\AppData\Local\Temp\ccuPQVSu.s 			page 1


   1              		.cpu cortex-m0
   2              		.fpu softvfp
   3              		.eabi_attribute 20, 1
   4              		.eabi_attribute 21, 1
   5              		.eabi_attribute 23, 3
   6              		.eabi_attribute 24, 1
   7              		.eabi_attribute 25, 1
   8              		.eabi_attribute 26, 1
   9              		.eabi_attribute 30, 4
  10              		.eabi_attribute 34, 0
  11              		.eabi_attribute 18, 4
  12              		.code	16
  13              		.file	"isr_adc.c"
  14              		.text
  15              	.Ltext0:
  16              		.cfi_sections	.debug_frame
  17              		.section	.text.isr_adc_Interrupt,"ax",%progbits
  18              		.align	1
  19              		.global	isr_adc_Interrupt
  20              		.code	16
  21              		.thumb_func
  22              		.type	isr_adc_Interrupt, %function
  23              	isr_adc_Interrupt:
  24              	.LFB3:
  25              		.file 1 ".\\Generated_Source\\PSoC4\\isr_adc.c"
   1:.\Generated_Source\PSoC4/isr_adc.c **** /*******************************************************************************
   2:.\Generated_Source\PSoC4/isr_adc.c **** * File Name: isr_adc.c  
   3:.\Generated_Source\PSoC4/isr_adc.c **** * Version 1.70
   4:.\Generated_Source\PSoC4/isr_adc.c **** *
   5:.\Generated_Source\PSoC4/isr_adc.c **** *  Description:
   6:.\Generated_Source\PSoC4/isr_adc.c **** *   API for controlling the state of an interrupt.
   7:.\Generated_Source\PSoC4/isr_adc.c **** *
   8:.\Generated_Source\PSoC4/isr_adc.c **** *
   9:.\Generated_Source\PSoC4/isr_adc.c **** *  Note:
  10:.\Generated_Source\PSoC4/isr_adc.c **** *
  11:.\Generated_Source\PSoC4/isr_adc.c **** ********************************************************************************
  12:.\Generated_Source\PSoC4/isr_adc.c **** * Copyright 2008-2015, Cypress Semiconductor Corporation.  All rights reserved.
  13:.\Generated_Source\PSoC4/isr_adc.c **** * You may use this file only in accordance with the license, terms, conditions, 
  14:.\Generated_Source\PSoC4/isr_adc.c **** * disclaimers, and limitations in the end user license agreement accompanying 
  15:.\Generated_Source\PSoC4/isr_adc.c **** * the software package with which this file was provided.
  16:.\Generated_Source\PSoC4/isr_adc.c **** *******************************************************************************/
  17:.\Generated_Source\PSoC4/isr_adc.c **** 
  18:.\Generated_Source\PSoC4/isr_adc.c **** 
  19:.\Generated_Source\PSoC4/isr_adc.c **** #include <cydevice_trm.h>
  20:.\Generated_Source\PSoC4/isr_adc.c **** #include <CyLib.h>
  21:.\Generated_Source\PSoC4/isr_adc.c **** #include <isr_adc.h>
  22:.\Generated_Source\PSoC4/isr_adc.c **** #include "cyapicallbacks.h"
  23:.\Generated_Source\PSoC4/isr_adc.c **** 
  24:.\Generated_Source\PSoC4/isr_adc.c **** #if !defined(isr_adc__REMOVED) /* Check for removal by optimization */
  25:.\Generated_Source\PSoC4/isr_adc.c **** 
  26:.\Generated_Source\PSoC4/isr_adc.c **** /*******************************************************************************
  27:.\Generated_Source\PSoC4/isr_adc.c **** *  Place your includes, defines and code here 
  28:.\Generated_Source\PSoC4/isr_adc.c **** ********************************************************************************/
  29:.\Generated_Source\PSoC4/isr_adc.c **** /* `#START isr_adc_intc` */
  30:.\Generated_Source\PSoC4/isr_adc.c **** 
  31:.\Generated_Source\PSoC4/isr_adc.c **** /* `#END` */
  32:.\Generated_Source\PSoC4/isr_adc.c **** 
ARM GAS  C:\Users\User\AppData\Local\Temp\ccuPQVSu.s 			page 2


  33:.\Generated_Source\PSoC4/isr_adc.c **** extern cyisraddress CyRamVectors[CYINT_IRQ_BASE + CY_NUM_INTERRUPTS];
  34:.\Generated_Source\PSoC4/isr_adc.c **** 
  35:.\Generated_Source\PSoC4/isr_adc.c **** /* Declared in startup, used to set unused interrupts to. */
  36:.\Generated_Source\PSoC4/isr_adc.c **** CY_ISR_PROTO(IntDefaultHandler);
  37:.\Generated_Source\PSoC4/isr_adc.c **** 
  38:.\Generated_Source\PSoC4/isr_adc.c **** 
  39:.\Generated_Source\PSoC4/isr_adc.c **** /*******************************************************************************
  40:.\Generated_Source\PSoC4/isr_adc.c **** * Function Name: isr_adc_Start
  41:.\Generated_Source\PSoC4/isr_adc.c **** ********************************************************************************
  42:.\Generated_Source\PSoC4/isr_adc.c **** *
  43:.\Generated_Source\PSoC4/isr_adc.c **** * Summary:
  44:.\Generated_Source\PSoC4/isr_adc.c **** *  Set up the interrupt and enable it. This function disables the interrupt, 
  45:.\Generated_Source\PSoC4/isr_adc.c **** *  sets the default interrupt vector, sets the priority from the value in the
  46:.\Generated_Source\PSoC4/isr_adc.c **** *  Design Wide Resources Interrupt Editor, then enables the interrupt to the 
  47:.\Generated_Source\PSoC4/isr_adc.c **** *  interrupt controller.
  48:.\Generated_Source\PSoC4/isr_adc.c **** *
  49:.\Generated_Source\PSoC4/isr_adc.c **** * Parameters:  
  50:.\Generated_Source\PSoC4/isr_adc.c **** *   None
  51:.\Generated_Source\PSoC4/isr_adc.c **** *
  52:.\Generated_Source\PSoC4/isr_adc.c **** * Return:
  53:.\Generated_Source\PSoC4/isr_adc.c **** *   None
  54:.\Generated_Source\PSoC4/isr_adc.c **** *
  55:.\Generated_Source\PSoC4/isr_adc.c **** *******************************************************************************/
  56:.\Generated_Source\PSoC4/isr_adc.c **** void isr_adc_Start(void)
  57:.\Generated_Source\PSoC4/isr_adc.c **** {
  58:.\Generated_Source\PSoC4/isr_adc.c ****     /* For all we know the interrupt is active. */
  59:.\Generated_Source\PSoC4/isr_adc.c ****     isr_adc_Disable();
  60:.\Generated_Source\PSoC4/isr_adc.c **** 
  61:.\Generated_Source\PSoC4/isr_adc.c ****     /* Set the ISR to point to the isr_adc Interrupt. */
  62:.\Generated_Source\PSoC4/isr_adc.c ****     isr_adc_SetVector(&isr_adc_Interrupt);
  63:.\Generated_Source\PSoC4/isr_adc.c **** 
  64:.\Generated_Source\PSoC4/isr_adc.c ****     /* Set the priority. */
  65:.\Generated_Source\PSoC4/isr_adc.c ****     isr_adc_SetPriority((uint8)isr_adc_INTC_PRIOR_NUMBER);
  66:.\Generated_Source\PSoC4/isr_adc.c **** 
  67:.\Generated_Source\PSoC4/isr_adc.c ****     /* Enable it. */
  68:.\Generated_Source\PSoC4/isr_adc.c ****     isr_adc_Enable();
  69:.\Generated_Source\PSoC4/isr_adc.c **** }
  70:.\Generated_Source\PSoC4/isr_adc.c **** 
  71:.\Generated_Source\PSoC4/isr_adc.c **** 
  72:.\Generated_Source\PSoC4/isr_adc.c **** /*******************************************************************************
  73:.\Generated_Source\PSoC4/isr_adc.c **** * Function Name: isr_adc_StartEx
  74:.\Generated_Source\PSoC4/isr_adc.c **** ********************************************************************************
  75:.\Generated_Source\PSoC4/isr_adc.c **** *
  76:.\Generated_Source\PSoC4/isr_adc.c **** * Summary:
  77:.\Generated_Source\PSoC4/isr_adc.c **** *  Sets up the interrupt and enables it. This function disables the interrupt,
  78:.\Generated_Source\PSoC4/isr_adc.c **** *  sets the interrupt vector based on the address passed in, sets the priority 
  79:.\Generated_Source\PSoC4/isr_adc.c **** *  from the value in the Design Wide Resources Interrupt Editor, then enables 
  80:.\Generated_Source\PSoC4/isr_adc.c **** *  the interrupt to the interrupt controller.
  81:.\Generated_Source\PSoC4/isr_adc.c **** *  
  82:.\Generated_Source\PSoC4/isr_adc.c **** *  When defining ISR functions, the CY_ISR and CY_ISR_PROTO macros should be 
  83:.\Generated_Source\PSoC4/isr_adc.c **** *  used to provide consistent definition across compilers:
  84:.\Generated_Source\PSoC4/isr_adc.c **** *  
  85:.\Generated_Source\PSoC4/isr_adc.c **** *  Function definition example:
  86:.\Generated_Source\PSoC4/isr_adc.c **** *   CY_ISR(MyISR)
  87:.\Generated_Source\PSoC4/isr_adc.c **** *   {
  88:.\Generated_Source\PSoC4/isr_adc.c **** *   }
  89:.\Generated_Source\PSoC4/isr_adc.c **** *   Function prototype example:
ARM GAS  C:\Users\User\AppData\Local\Temp\ccuPQVSu.s 			page 3


  90:.\Generated_Source\PSoC4/isr_adc.c **** *   CY_ISR_PROTO(MyISR);
  91:.\Generated_Source\PSoC4/isr_adc.c **** *
  92:.\Generated_Source\PSoC4/isr_adc.c **** * Parameters:  
  93:.\Generated_Source\PSoC4/isr_adc.c **** *   address: Address of the ISR to set in the interrupt vector table.
  94:.\Generated_Source\PSoC4/isr_adc.c **** *
  95:.\Generated_Source\PSoC4/isr_adc.c **** * Return:
  96:.\Generated_Source\PSoC4/isr_adc.c **** *   None
  97:.\Generated_Source\PSoC4/isr_adc.c **** *
  98:.\Generated_Source\PSoC4/isr_adc.c **** *******************************************************************************/
  99:.\Generated_Source\PSoC4/isr_adc.c **** void isr_adc_StartEx(cyisraddress address)
 100:.\Generated_Source\PSoC4/isr_adc.c **** {
 101:.\Generated_Source\PSoC4/isr_adc.c ****     /* For all we know the interrupt is active. */
 102:.\Generated_Source\PSoC4/isr_adc.c ****     isr_adc_Disable();
 103:.\Generated_Source\PSoC4/isr_adc.c **** 
 104:.\Generated_Source\PSoC4/isr_adc.c ****     /* Set the ISR to point to the isr_adc Interrupt. */
 105:.\Generated_Source\PSoC4/isr_adc.c ****     isr_adc_SetVector(address);
 106:.\Generated_Source\PSoC4/isr_adc.c **** 
 107:.\Generated_Source\PSoC4/isr_adc.c ****     /* Set the priority. */
 108:.\Generated_Source\PSoC4/isr_adc.c ****     isr_adc_SetPriority((uint8)isr_adc_INTC_PRIOR_NUMBER);
 109:.\Generated_Source\PSoC4/isr_adc.c **** 
 110:.\Generated_Source\PSoC4/isr_adc.c ****     /* Enable it. */
 111:.\Generated_Source\PSoC4/isr_adc.c ****     isr_adc_Enable();
 112:.\Generated_Source\PSoC4/isr_adc.c **** }
 113:.\Generated_Source\PSoC4/isr_adc.c **** 
 114:.\Generated_Source\PSoC4/isr_adc.c **** 
 115:.\Generated_Source\PSoC4/isr_adc.c **** /*******************************************************************************
 116:.\Generated_Source\PSoC4/isr_adc.c **** * Function Name: isr_adc_Stop
 117:.\Generated_Source\PSoC4/isr_adc.c **** ********************************************************************************
 118:.\Generated_Source\PSoC4/isr_adc.c **** *
 119:.\Generated_Source\PSoC4/isr_adc.c **** * Summary:
 120:.\Generated_Source\PSoC4/isr_adc.c **** *   Disables and removes the interrupt.
 121:.\Generated_Source\PSoC4/isr_adc.c **** *
 122:.\Generated_Source\PSoC4/isr_adc.c **** * Parameters:  
 123:.\Generated_Source\PSoC4/isr_adc.c **** *   None
 124:.\Generated_Source\PSoC4/isr_adc.c **** *
 125:.\Generated_Source\PSoC4/isr_adc.c **** * Return:
 126:.\Generated_Source\PSoC4/isr_adc.c **** *   None
 127:.\Generated_Source\PSoC4/isr_adc.c **** *
 128:.\Generated_Source\PSoC4/isr_adc.c **** *******************************************************************************/
 129:.\Generated_Source\PSoC4/isr_adc.c **** void isr_adc_Stop(void)
 130:.\Generated_Source\PSoC4/isr_adc.c **** {
 131:.\Generated_Source\PSoC4/isr_adc.c ****     /* Disable this interrupt. */
 132:.\Generated_Source\PSoC4/isr_adc.c ****     isr_adc_Disable();
 133:.\Generated_Source\PSoC4/isr_adc.c **** 
 134:.\Generated_Source\PSoC4/isr_adc.c ****     /* Set the ISR to point to the passive one. */
 135:.\Generated_Source\PSoC4/isr_adc.c ****     isr_adc_SetVector(&IntDefaultHandler);
 136:.\Generated_Source\PSoC4/isr_adc.c **** }
 137:.\Generated_Source\PSoC4/isr_adc.c **** 
 138:.\Generated_Source\PSoC4/isr_adc.c **** 
 139:.\Generated_Source\PSoC4/isr_adc.c **** /*******************************************************************************
 140:.\Generated_Source\PSoC4/isr_adc.c **** * Function Name: isr_adc_Interrupt
 141:.\Generated_Source\PSoC4/isr_adc.c **** ********************************************************************************
 142:.\Generated_Source\PSoC4/isr_adc.c **** *
 143:.\Generated_Source\PSoC4/isr_adc.c **** * Summary:
 144:.\Generated_Source\PSoC4/isr_adc.c **** *   The default Interrupt Service Routine for isr_adc.
 145:.\Generated_Source\PSoC4/isr_adc.c **** *
 146:.\Generated_Source\PSoC4/isr_adc.c **** *   Add custom code between the START and END comments to keep the next version
ARM GAS  C:\Users\User\AppData\Local\Temp\ccuPQVSu.s 			page 4


 147:.\Generated_Source\PSoC4/isr_adc.c **** *   of this file from over-writing your code.
 148:.\Generated_Source\PSoC4/isr_adc.c **** *
 149:.\Generated_Source\PSoC4/isr_adc.c **** *   Note You may use either the default ISR by using this API, or you may define
 150:.\Generated_Source\PSoC4/isr_adc.c **** *   your own separate ISR through ISR_StartEx().
 151:.\Generated_Source\PSoC4/isr_adc.c **** *
 152:.\Generated_Source\PSoC4/isr_adc.c **** * Parameters:  
 153:.\Generated_Source\PSoC4/isr_adc.c **** *   None
 154:.\Generated_Source\PSoC4/isr_adc.c **** *
 155:.\Generated_Source\PSoC4/isr_adc.c **** * Return:
 156:.\Generated_Source\PSoC4/isr_adc.c **** *   None
 157:.\Generated_Source\PSoC4/isr_adc.c **** *
 158:.\Generated_Source\PSoC4/isr_adc.c **** *******************************************************************************/
 159:.\Generated_Source\PSoC4/isr_adc.c **** CY_ISR(isr_adc_Interrupt)
 160:.\Generated_Source\PSoC4/isr_adc.c **** {
  26              		.loc 1 160 0
  27              		.cfi_startproc
 161:.\Generated_Source\PSoC4/isr_adc.c ****     #ifdef isr_adc_INTERRUPT_INTERRUPT_CALLBACK
 162:.\Generated_Source\PSoC4/isr_adc.c ****         isr_adc_Interrupt_InterruptCallback();
 163:.\Generated_Source\PSoC4/isr_adc.c ****     #endif /* isr_adc_INTERRUPT_INTERRUPT_CALLBACK */ 
 164:.\Generated_Source\PSoC4/isr_adc.c **** 
 165:.\Generated_Source\PSoC4/isr_adc.c ****     /*  Place your Interrupt code here. */
 166:.\Generated_Source\PSoC4/isr_adc.c ****     /* `#START isr_adc_Interrupt` */
 167:.\Generated_Source\PSoC4/isr_adc.c **** 
 168:.\Generated_Source\PSoC4/isr_adc.c ****     /* `#END` */
 169:.\Generated_Source\PSoC4/isr_adc.c **** }
  28              		.loc 1 169 0
  29              		@ sp needed
  30 0000 7047     		bx	lr
  31              		.cfi_endproc
  32              	.LFE3:
  33              		.size	isr_adc_Interrupt, .-isr_adc_Interrupt
  34              		.section	.text.isr_adc_Stop,"ax",%progbits
  35              		.align	1
  36              		.global	isr_adc_Stop
  37              		.code	16
  38              		.thumb_func
  39              		.type	isr_adc_Stop, %function
  40              	isr_adc_Stop:
  41              	.LFB2:
 130:.\Generated_Source\PSoC4/isr_adc.c ****     /* Disable this interrupt. */
  42              		.loc 1 130 0
  43              		.cfi_startproc
  44              	.LBB18:
  45              	.LBB19:
 170:.\Generated_Source\PSoC4/isr_adc.c **** 
 171:.\Generated_Source\PSoC4/isr_adc.c **** 
 172:.\Generated_Source\PSoC4/isr_adc.c **** /*******************************************************************************
 173:.\Generated_Source\PSoC4/isr_adc.c **** * Function Name: isr_adc_SetVector
 174:.\Generated_Source\PSoC4/isr_adc.c **** ********************************************************************************
 175:.\Generated_Source\PSoC4/isr_adc.c **** *
 176:.\Generated_Source\PSoC4/isr_adc.c **** * Summary:
 177:.\Generated_Source\PSoC4/isr_adc.c **** *   Change the ISR vector for the Interrupt. Note calling isr_adc_Start
 178:.\Generated_Source\PSoC4/isr_adc.c **** *   will override any effect this method would have had. To set the vector 
 179:.\Generated_Source\PSoC4/isr_adc.c **** *   before the component has been started use isr_adc_StartEx instead.
 180:.\Generated_Source\PSoC4/isr_adc.c **** * 
 181:.\Generated_Source\PSoC4/isr_adc.c **** *   When defining ISR functions, the CY_ISR and CY_ISR_PROTO macros should be 
 182:.\Generated_Source\PSoC4/isr_adc.c **** *   used to provide consistent definition across compilers:
ARM GAS  C:\Users\User\AppData\Local\Temp\ccuPQVSu.s 			page 5


 183:.\Generated_Source\PSoC4/isr_adc.c **** *
 184:.\Generated_Source\PSoC4/isr_adc.c **** *   Function definition example:
 185:.\Generated_Source\PSoC4/isr_adc.c **** *   CY_ISR(MyISR)
 186:.\Generated_Source\PSoC4/isr_adc.c **** *   {
 187:.\Generated_Source\PSoC4/isr_adc.c **** *   }
 188:.\Generated_Source\PSoC4/isr_adc.c **** *
 189:.\Generated_Source\PSoC4/isr_adc.c **** *   Function prototype example:
 190:.\Generated_Source\PSoC4/isr_adc.c **** *     CY_ISR_PROTO(MyISR);
 191:.\Generated_Source\PSoC4/isr_adc.c **** *
 192:.\Generated_Source\PSoC4/isr_adc.c **** * Parameters:
 193:.\Generated_Source\PSoC4/isr_adc.c **** *   address: Address of the ISR to set in the interrupt vector table.
 194:.\Generated_Source\PSoC4/isr_adc.c **** *
 195:.\Generated_Source\PSoC4/isr_adc.c **** * Return:
 196:.\Generated_Source\PSoC4/isr_adc.c **** *   None
 197:.\Generated_Source\PSoC4/isr_adc.c **** *
 198:.\Generated_Source\PSoC4/isr_adc.c **** *******************************************************************************/
 199:.\Generated_Source\PSoC4/isr_adc.c **** void isr_adc_SetVector(cyisraddress address)
 200:.\Generated_Source\PSoC4/isr_adc.c **** {
 201:.\Generated_Source\PSoC4/isr_adc.c ****     CyRamVectors[CYINT_IRQ_BASE + isr_adc__INTC_NUMBER] = address;
 202:.\Generated_Source\PSoC4/isr_adc.c **** }
 203:.\Generated_Source\PSoC4/isr_adc.c **** 
 204:.\Generated_Source\PSoC4/isr_adc.c **** 
 205:.\Generated_Source\PSoC4/isr_adc.c **** /*******************************************************************************
 206:.\Generated_Source\PSoC4/isr_adc.c **** * Function Name: isr_adc_GetVector
 207:.\Generated_Source\PSoC4/isr_adc.c **** ********************************************************************************
 208:.\Generated_Source\PSoC4/isr_adc.c **** *
 209:.\Generated_Source\PSoC4/isr_adc.c **** * Summary:
 210:.\Generated_Source\PSoC4/isr_adc.c **** *   Gets the "address" of the current ISR vector for the Interrupt.
 211:.\Generated_Source\PSoC4/isr_adc.c **** *
 212:.\Generated_Source\PSoC4/isr_adc.c **** * Parameters:
 213:.\Generated_Source\PSoC4/isr_adc.c **** *   None
 214:.\Generated_Source\PSoC4/isr_adc.c **** *
 215:.\Generated_Source\PSoC4/isr_adc.c **** * Return:
 216:.\Generated_Source\PSoC4/isr_adc.c **** *   Address of the ISR in the interrupt vector table.
 217:.\Generated_Source\PSoC4/isr_adc.c **** *
 218:.\Generated_Source\PSoC4/isr_adc.c **** *******************************************************************************/
 219:.\Generated_Source\PSoC4/isr_adc.c **** cyisraddress isr_adc_GetVector(void)
 220:.\Generated_Source\PSoC4/isr_adc.c **** {
 221:.\Generated_Source\PSoC4/isr_adc.c ****     return CyRamVectors[CYINT_IRQ_BASE + isr_adc__INTC_NUMBER];
 222:.\Generated_Source\PSoC4/isr_adc.c **** }
 223:.\Generated_Source\PSoC4/isr_adc.c **** 
 224:.\Generated_Source\PSoC4/isr_adc.c **** 
 225:.\Generated_Source\PSoC4/isr_adc.c **** /*******************************************************************************
 226:.\Generated_Source\PSoC4/isr_adc.c **** * Function Name: isr_adc_SetPriority
 227:.\Generated_Source\PSoC4/isr_adc.c **** ********************************************************************************
 228:.\Generated_Source\PSoC4/isr_adc.c **** *
 229:.\Generated_Source\PSoC4/isr_adc.c **** * Summary:
 230:.\Generated_Source\PSoC4/isr_adc.c **** *   Sets the Priority of the Interrupt. 
 231:.\Generated_Source\PSoC4/isr_adc.c **** *
 232:.\Generated_Source\PSoC4/isr_adc.c **** *   Note calling isr_adc_Start or isr_adc_StartEx will 
 233:.\Generated_Source\PSoC4/isr_adc.c **** *   override any effect this API would have had. This API should only be called
 234:.\Generated_Source\PSoC4/isr_adc.c **** *   after isr_adc_Start or isr_adc_StartEx has been called. 
 235:.\Generated_Source\PSoC4/isr_adc.c **** *   To set the initial priority for the component, use the Design-Wide Resources
 236:.\Generated_Source\PSoC4/isr_adc.c **** *   Interrupt Editor.
 237:.\Generated_Source\PSoC4/isr_adc.c **** *
 238:.\Generated_Source\PSoC4/isr_adc.c **** *   Note This API has no effect on Non-maskable interrupt NMI).
 239:.\Generated_Source\PSoC4/isr_adc.c **** *
ARM GAS  C:\Users\User\AppData\Local\Temp\ccuPQVSu.s 			page 6


 240:.\Generated_Source\PSoC4/isr_adc.c **** * Parameters:
 241:.\Generated_Source\PSoC4/isr_adc.c **** *   priority: Priority of the interrupt, 0 being the highest priority
 242:.\Generated_Source\PSoC4/isr_adc.c **** *             PSoC 3 and PSoC 5LP: Priority is from 0 to 7.
 243:.\Generated_Source\PSoC4/isr_adc.c **** *             PSoC 4: Priority is from 0 to 3.
 244:.\Generated_Source\PSoC4/isr_adc.c **** *
 245:.\Generated_Source\PSoC4/isr_adc.c **** * Return:
 246:.\Generated_Source\PSoC4/isr_adc.c **** *   None
 247:.\Generated_Source\PSoC4/isr_adc.c **** *
 248:.\Generated_Source\PSoC4/isr_adc.c **** *******************************************************************************/
 249:.\Generated_Source\PSoC4/isr_adc.c **** void isr_adc_SetPriority(uint8 priority)
 250:.\Generated_Source\PSoC4/isr_adc.c **** {
 251:.\Generated_Source\PSoC4/isr_adc.c **** 	uint8 interruptState;
 252:.\Generated_Source\PSoC4/isr_adc.c ****     uint32 priorityOffset = ((isr_adc__INTC_NUMBER % 4u) * 8u) + 6u;
 253:.\Generated_Source\PSoC4/isr_adc.c ****     
 254:.\Generated_Source\PSoC4/isr_adc.c **** 	interruptState = CyEnterCriticalSection();
 255:.\Generated_Source\PSoC4/isr_adc.c ****     *isr_adc_INTC_PRIOR = (*isr_adc_INTC_PRIOR & (uint32)(~isr_adc__INTC_PRIOR_MASK)) |
 256:.\Generated_Source\PSoC4/isr_adc.c ****                                     ((uint32)priority << priorityOffset);
 257:.\Generated_Source\PSoC4/isr_adc.c **** 	CyExitCriticalSection(interruptState);
 258:.\Generated_Source\PSoC4/isr_adc.c **** }
 259:.\Generated_Source\PSoC4/isr_adc.c **** 
 260:.\Generated_Source\PSoC4/isr_adc.c **** 
 261:.\Generated_Source\PSoC4/isr_adc.c **** /*******************************************************************************
 262:.\Generated_Source\PSoC4/isr_adc.c **** * Function Name: isr_adc_GetPriority
 263:.\Generated_Source\PSoC4/isr_adc.c **** ********************************************************************************
 264:.\Generated_Source\PSoC4/isr_adc.c **** *
 265:.\Generated_Source\PSoC4/isr_adc.c **** * Summary:
 266:.\Generated_Source\PSoC4/isr_adc.c **** *   Gets the Priority of the Interrupt.
 267:.\Generated_Source\PSoC4/isr_adc.c **** *
 268:.\Generated_Source\PSoC4/isr_adc.c **** * Parameters:
 269:.\Generated_Source\PSoC4/isr_adc.c **** *   None
 270:.\Generated_Source\PSoC4/isr_adc.c **** *
 271:.\Generated_Source\PSoC4/isr_adc.c **** * Return:
 272:.\Generated_Source\PSoC4/isr_adc.c **** *   Priority of the interrupt, 0 being the highest priority
 273:.\Generated_Source\PSoC4/isr_adc.c **** *    PSoC 3 and PSoC 5LP: Priority is from 0 to 7.
 274:.\Generated_Source\PSoC4/isr_adc.c **** *    PSoC 4: Priority is from 0 to 3.
 275:.\Generated_Source\PSoC4/isr_adc.c **** *
 276:.\Generated_Source\PSoC4/isr_adc.c **** *******************************************************************************/
 277:.\Generated_Source\PSoC4/isr_adc.c **** uint8 isr_adc_GetPriority(void)
 278:.\Generated_Source\PSoC4/isr_adc.c **** {
 279:.\Generated_Source\PSoC4/isr_adc.c ****     uint32 priority;
 280:.\Generated_Source\PSoC4/isr_adc.c **** 	uint32 priorityOffset = ((isr_adc__INTC_NUMBER % 4u) * 8u) + 6u;
 281:.\Generated_Source\PSoC4/isr_adc.c **** 
 282:.\Generated_Source\PSoC4/isr_adc.c ****     priority = (*isr_adc_INTC_PRIOR & isr_adc__INTC_PRIOR_MASK) >> priorityOffset;
 283:.\Generated_Source\PSoC4/isr_adc.c **** 
 284:.\Generated_Source\PSoC4/isr_adc.c ****     return (uint8)priority;
 285:.\Generated_Source\PSoC4/isr_adc.c **** }
 286:.\Generated_Source\PSoC4/isr_adc.c **** 
 287:.\Generated_Source\PSoC4/isr_adc.c **** 
 288:.\Generated_Source\PSoC4/isr_adc.c **** /*******************************************************************************
 289:.\Generated_Source\PSoC4/isr_adc.c **** * Function Name: isr_adc_Enable
 290:.\Generated_Source\PSoC4/isr_adc.c **** ********************************************************************************
 291:.\Generated_Source\PSoC4/isr_adc.c **** *
 292:.\Generated_Source\PSoC4/isr_adc.c **** * Summary:
 293:.\Generated_Source\PSoC4/isr_adc.c **** *   Enables the interrupt to the interrupt controller. Do not call this function
 294:.\Generated_Source\PSoC4/isr_adc.c **** *   unless ISR_Start() has been called or the functionality of the ISR_Start() 
 295:.\Generated_Source\PSoC4/isr_adc.c **** *   function, which sets the vector and the priority, has been called.
 296:.\Generated_Source\PSoC4/isr_adc.c **** *
ARM GAS  C:\Users\User\AppData\Local\Temp\ccuPQVSu.s 			page 7


 297:.\Generated_Source\PSoC4/isr_adc.c **** * Parameters:
 298:.\Generated_Source\PSoC4/isr_adc.c **** *   None
 299:.\Generated_Source\PSoC4/isr_adc.c **** *
 300:.\Generated_Source\PSoC4/isr_adc.c **** * Return:
 301:.\Generated_Source\PSoC4/isr_adc.c **** *   None
 302:.\Generated_Source\PSoC4/isr_adc.c **** *
 303:.\Generated_Source\PSoC4/isr_adc.c **** *******************************************************************************/
 304:.\Generated_Source\PSoC4/isr_adc.c **** void isr_adc_Enable(void)
 305:.\Generated_Source\PSoC4/isr_adc.c **** {
 306:.\Generated_Source\PSoC4/isr_adc.c ****     /* Enable the general interrupt. */
 307:.\Generated_Source\PSoC4/isr_adc.c ****     *isr_adc_INTC_SET_EN = isr_adc__INTC_MASK;
 308:.\Generated_Source\PSoC4/isr_adc.c **** }
 309:.\Generated_Source\PSoC4/isr_adc.c **** 
 310:.\Generated_Source\PSoC4/isr_adc.c **** 
 311:.\Generated_Source\PSoC4/isr_adc.c **** /*******************************************************************************
 312:.\Generated_Source\PSoC4/isr_adc.c **** * Function Name: isr_adc_GetState
 313:.\Generated_Source\PSoC4/isr_adc.c **** ********************************************************************************
 314:.\Generated_Source\PSoC4/isr_adc.c **** *
 315:.\Generated_Source\PSoC4/isr_adc.c **** * Summary:
 316:.\Generated_Source\PSoC4/isr_adc.c **** *   Gets the state (enabled, disabled) of the Interrupt.
 317:.\Generated_Source\PSoC4/isr_adc.c **** *
 318:.\Generated_Source\PSoC4/isr_adc.c **** * Parameters:
 319:.\Generated_Source\PSoC4/isr_adc.c **** *   None
 320:.\Generated_Source\PSoC4/isr_adc.c **** *
 321:.\Generated_Source\PSoC4/isr_adc.c **** * Return:
 322:.\Generated_Source\PSoC4/isr_adc.c **** *   1 if enabled, 0 if disabled.
 323:.\Generated_Source\PSoC4/isr_adc.c **** *
 324:.\Generated_Source\PSoC4/isr_adc.c **** *******************************************************************************/
 325:.\Generated_Source\PSoC4/isr_adc.c **** uint8 isr_adc_GetState(void)
 326:.\Generated_Source\PSoC4/isr_adc.c **** {
 327:.\Generated_Source\PSoC4/isr_adc.c ****     /* Get the state of the general interrupt. */
 328:.\Generated_Source\PSoC4/isr_adc.c ****     return ((*isr_adc_INTC_SET_EN & (uint32)isr_adc__INTC_MASK) != 0u) ? 1u:0u;
 329:.\Generated_Source\PSoC4/isr_adc.c **** }
 330:.\Generated_Source\PSoC4/isr_adc.c **** 
 331:.\Generated_Source\PSoC4/isr_adc.c **** 
 332:.\Generated_Source\PSoC4/isr_adc.c **** /*******************************************************************************
 333:.\Generated_Source\PSoC4/isr_adc.c **** * Function Name: isr_adc_Disable
 334:.\Generated_Source\PSoC4/isr_adc.c **** ********************************************************************************
 335:.\Generated_Source\PSoC4/isr_adc.c **** *
 336:.\Generated_Source\PSoC4/isr_adc.c **** * Summary:
 337:.\Generated_Source\PSoC4/isr_adc.c **** *   Disables the Interrupt in the interrupt controller.
 338:.\Generated_Source\PSoC4/isr_adc.c **** *
 339:.\Generated_Source\PSoC4/isr_adc.c **** * Parameters:
 340:.\Generated_Source\PSoC4/isr_adc.c **** *   None
 341:.\Generated_Source\PSoC4/isr_adc.c **** *
 342:.\Generated_Source\PSoC4/isr_adc.c **** * Return:
 343:.\Generated_Source\PSoC4/isr_adc.c **** *   None
 344:.\Generated_Source\PSoC4/isr_adc.c **** *
 345:.\Generated_Source\PSoC4/isr_adc.c **** *******************************************************************************/
 346:.\Generated_Source\PSoC4/isr_adc.c **** void isr_adc_Disable(void)
 347:.\Generated_Source\PSoC4/isr_adc.c **** {
 348:.\Generated_Source\PSoC4/isr_adc.c ****     /* Disable the general interrupt. */
 349:.\Generated_Source\PSoC4/isr_adc.c ****     *isr_adc_INTC_CLR_EN = isr_adc__INTC_MASK;
  46              		.loc 1 349 0
  47 0000 0122     		mov	r2, #1
  48 0002 034B     		ldr	r3, .L3
  49              	.LBE19:
ARM GAS  C:\Users\User\AppData\Local\Temp\ccuPQVSu.s 			page 8


  50              	.LBE18:
 136:.\Generated_Source\PSoC4/isr_adc.c **** 
  51              		.loc 1 136 0
  52              		@ sp needed
  53              	.LBB21:
  54              	.LBB20:
  55              		.loc 1 349 0
  56 0004 1A60     		str	r2, [r3]
  57              	.LVL0:
  58              	.LBE20:
  59              	.LBE21:
  60              	.LBB22:
  61              	.LBB23:
 201:.\Generated_Source\PSoC4/isr_adc.c **** }
  62              		.loc 1 201 0
  63 0006 034A     		ldr	r2, .L3+4
  64 0008 034B     		ldr	r3, .L3+8
  65 000a 1A64     		str	r2, [r3, #64]
  66              	.LBE23:
  67              	.LBE22:
 136:.\Generated_Source\PSoC4/isr_adc.c **** 
  68              		.loc 1 136 0
  69 000c 7047     		bx	lr
  70              	.L4:
  71 000e C046     		.align	2
  72              	.L3:
  73 0010 80E100E0 		.word	-536813184
  74 0014 00000000 		.word	IntDefaultHandler
  75 0018 00000000 		.word	CyRamVectors
  76              		.cfi_endproc
  77              	.LFE2:
  78              		.size	isr_adc_Stop, .-isr_adc_Stop
  79              		.section	.text.isr_adc_SetVector,"ax",%progbits
  80              		.align	1
  81              		.global	isr_adc_SetVector
  82              		.code	16
  83              		.thumb_func
  84              		.type	isr_adc_SetVector, %function
  85              	isr_adc_SetVector:
  86              	.LFB4:
 200:.\Generated_Source\PSoC4/isr_adc.c ****     CyRamVectors[CYINT_IRQ_BASE + isr_adc__INTC_NUMBER] = address;
  87              		.loc 1 200 0
  88              		.cfi_startproc
  89              	.LVL1:
 201:.\Generated_Source\PSoC4/isr_adc.c **** }
  90              		.loc 1 201 0
  91 0000 014B     		ldr	r3, .L6
 202:.\Generated_Source\PSoC4/isr_adc.c **** 
  92              		.loc 1 202 0
  93              		@ sp needed
 201:.\Generated_Source\PSoC4/isr_adc.c **** }
  94              		.loc 1 201 0
  95 0002 1864     		str	r0, [r3, #64]
 202:.\Generated_Source\PSoC4/isr_adc.c **** 
  96              		.loc 1 202 0
  97 0004 7047     		bx	lr
  98              	.L7:
ARM GAS  C:\Users\User\AppData\Local\Temp\ccuPQVSu.s 			page 9


  99 0006 C046     		.align	2
 100              	.L6:
 101 0008 00000000 		.word	CyRamVectors
 102              		.cfi_endproc
 103              	.LFE4:
 104              		.size	isr_adc_SetVector, .-isr_adc_SetVector
 105              		.section	.text.isr_adc_GetVector,"ax",%progbits
 106              		.align	1
 107              		.global	isr_adc_GetVector
 108              		.code	16
 109              		.thumb_func
 110              		.type	isr_adc_GetVector, %function
 111              	isr_adc_GetVector:
 112              	.LFB5:
 220:.\Generated_Source\PSoC4/isr_adc.c ****     return CyRamVectors[CYINT_IRQ_BASE + isr_adc__INTC_NUMBER];
 113              		.loc 1 220 0
 114              		.cfi_startproc
 221:.\Generated_Source\PSoC4/isr_adc.c **** }
 115              		.loc 1 221 0
 116 0000 014B     		ldr	r3, .L9
 222:.\Generated_Source\PSoC4/isr_adc.c **** 
 117              		.loc 1 222 0
 118              		@ sp needed
 221:.\Generated_Source\PSoC4/isr_adc.c **** }
 119              		.loc 1 221 0
 120 0002 186C     		ldr	r0, [r3, #64]
 222:.\Generated_Source\PSoC4/isr_adc.c **** 
 121              		.loc 1 222 0
 122 0004 7047     		bx	lr
 123              	.L10:
 124 0006 C046     		.align	2
 125              	.L9:
 126 0008 00000000 		.word	CyRamVectors
 127              		.cfi_endproc
 128              	.LFE5:
 129              		.size	isr_adc_GetVector, .-isr_adc_GetVector
 130              		.section	.text.isr_adc_SetPriority,"ax",%progbits
 131              		.align	1
 132              		.global	isr_adc_SetPriority
 133              		.code	16
 134              		.thumb_func
 135              		.type	isr_adc_SetPriority, %function
 136              	isr_adc_SetPriority:
 137              	.LFB6:
 250:.\Generated_Source\PSoC4/isr_adc.c **** 	uint8 interruptState;
 138              		.loc 1 250 0
 139              		.cfi_startproc
 140              	.LVL2:
 141 0000 10B5     		push	{r4, lr}
 142              		.cfi_def_cfa_offset 8
 143              		.cfi_offset 4, -8
 144              		.cfi_offset 14, -4
 250:.\Generated_Source\PSoC4/isr_adc.c **** 	uint8 interruptState;
 145              		.loc 1 250 0
 146 0002 041C     		mov	r4, r0
 254:.\Generated_Source\PSoC4/isr_adc.c ****     *isr_adc_INTC_PRIOR = (*isr_adc_INTC_PRIOR & (uint32)(~isr_adc__INTC_PRIOR_MASK)) |
 147              		.loc 1 254 0
ARM GAS  C:\Users\User\AppData\Local\Temp\ccuPQVSu.s 			page 10


 148 0004 FFF7FEFF 		bl	CyEnterCriticalSection
 149              	.LVL3:
 255:.\Generated_Source\PSoC4/isr_adc.c ****                                     ((uint32)priority << priorityOffset);
 150              		.loc 1 255 0
 151 0008 C021     		mov	r1, #192
 152 000a 044A     		ldr	r2, .L12
 256:.\Generated_Source\PSoC4/isr_adc.c **** 	CyExitCriticalSection(interruptState);
 153              		.loc 1 256 0
 154 000c A401     		lsl	r4, r4, #6
 255:.\Generated_Source\PSoC4/isr_adc.c ****                                     ((uint32)priority << priorityOffset);
 155              		.loc 1 255 0
 156 000e 1368     		ldr	r3, [r2]
 258:.\Generated_Source\PSoC4/isr_adc.c **** 
 157              		.loc 1 258 0
 158              		@ sp needed
 255:.\Generated_Source\PSoC4/isr_adc.c ****                                     ((uint32)priority << priorityOffset);
 159              		.loc 1 255 0
 160 0010 8B43     		bic	r3, r1
 161 0012 2343     		orr	r3, r4
 162 0014 1360     		str	r3, [r2]
 257:.\Generated_Source\PSoC4/isr_adc.c **** }
 163              		.loc 1 257 0
 164 0016 FFF7FEFF 		bl	CyExitCriticalSection
 165              	.LVL4:
 258:.\Generated_Source\PSoC4/isr_adc.c **** 
 166              		.loc 1 258 0
 167 001a 10BD     		pop	{r4, pc}
 168              	.L13:
 169              		.align	2
 170              	.L12:
 171 001c 00E400E0 		.word	-536812544
 172              		.cfi_endproc
 173              	.LFE6:
 174              		.size	isr_adc_SetPriority, .-isr_adc_SetPriority
 175              		.section	.text.isr_adc_Start,"ax",%progbits
 176              		.align	1
 177              		.global	isr_adc_Start
 178              		.code	16
 179              		.thumb_func
 180              		.type	isr_adc_Start, %function
 181              	isr_adc_Start:
 182              	.LFB0:
  57:.\Generated_Source\PSoC4/isr_adc.c ****     /* For all we know the interrupt is active. */
 183              		.loc 1 57 0
 184              		.cfi_startproc
 185 0000 10B5     		push	{r4, lr}
 186              		.cfi_def_cfa_offset 8
 187              		.cfi_offset 4, -8
 188              		.cfi_offset 14, -4
 189              	.LBB24:
 190              	.LBB25:
 191              		.loc 1 349 0
 192 0002 0124     		mov	r4, #1
 193 0004 054B     		ldr	r3, .L15
 194              	.LBE25:
 195              	.LBE24:
 196              	.LBB27:
ARM GAS  C:\Users\User\AppData\Local\Temp\ccuPQVSu.s 			page 11


 197              	.LBB28:
 201:.\Generated_Source\PSoC4/isr_adc.c **** }
 198              		.loc 1 201 0
 199 0006 064A     		ldr	r2, .L15+4
 200              	.LBE28:
 201              	.LBE27:
 202              	.LBB31:
 203              	.LBB26:
 204              		.loc 1 349 0
 205 0008 1C60     		str	r4, [r3]
 206              	.LVL5:
 207              	.LBE26:
 208              	.LBE31:
 209              	.LBB32:
 210              	.LBB29:
 201:.\Generated_Source\PSoC4/isr_adc.c **** }
 211              		.loc 1 201 0
 212 000a 064B     		ldr	r3, .L15+8
 213              	.LBE29:
 214              	.LBE32:
  65:.\Generated_Source\PSoC4/isr_adc.c **** 
 215              		.loc 1 65 0
 216 000c 201C     		mov	r0, r4
 217              	.LBB33:
 218              	.LBB30:
 201:.\Generated_Source\PSoC4/isr_adc.c **** }
 219              		.loc 1 201 0
 220 000e 1A64     		str	r2, [r3, #64]
 221              	.LBE30:
 222              	.LBE33:
  65:.\Generated_Source\PSoC4/isr_adc.c **** 
 223              		.loc 1 65 0
 224 0010 FFF7FEFF 		bl	isr_adc_SetPriority
 225              	.LVL6:
 226              	.LBB34:
 227              	.LBB35:
 307:.\Generated_Source\PSoC4/isr_adc.c **** }
 228              		.loc 1 307 0
 229 0014 044B     		ldr	r3, .L15+12
 230              	.LBE35:
 231              	.LBE34:
  69:.\Generated_Source\PSoC4/isr_adc.c **** 
 232              		.loc 1 69 0
 233              		@ sp needed
 234              	.LBB37:
 235              	.LBB36:
 307:.\Generated_Source\PSoC4/isr_adc.c **** }
 236              		.loc 1 307 0
 237 0016 1C60     		str	r4, [r3]
 238              	.LBE36:
 239              	.LBE37:
  69:.\Generated_Source\PSoC4/isr_adc.c **** 
 240              		.loc 1 69 0
 241 0018 10BD     		pop	{r4, pc}
 242              	.L16:
 243 001a C046     		.align	2
 244              	.L15:
ARM GAS  C:\Users\User\AppData\Local\Temp\ccuPQVSu.s 			page 12


 245 001c 80E100E0 		.word	-536813184
 246 0020 00000000 		.word	isr_adc_Interrupt
 247 0024 00000000 		.word	CyRamVectors
 248 0028 00E100E0 		.word	-536813312
 249              		.cfi_endproc
 250              	.LFE0:
 251              		.size	isr_adc_Start, .-isr_adc_Start
 252              		.section	.text.isr_adc_StartEx,"ax",%progbits
 253              		.align	1
 254              		.global	isr_adc_StartEx
 255              		.code	16
 256              		.thumb_func
 257              		.type	isr_adc_StartEx, %function
 258              	isr_adc_StartEx:
 259              	.LFB1:
 100:.\Generated_Source\PSoC4/isr_adc.c ****     /* For all we know the interrupt is active. */
 260              		.loc 1 100 0
 261              		.cfi_startproc
 262              	.LVL7:
 263 0000 10B5     		push	{r4, lr}
 264              		.cfi_def_cfa_offset 8
 265              		.cfi_offset 4, -8
 266              		.cfi_offset 14, -4
 267              	.LBB38:
 268              	.LBB39:
 269              		.loc 1 349 0
 270 0002 0124     		mov	r4, #1
 271 0004 044B     		ldr	r3, .L18
 272              	.LBE39:
 273              	.LBE38:
 112:.\Generated_Source\PSoC4/isr_adc.c **** 
 274              		.loc 1 112 0
 275              		@ sp needed
 276              	.LBB41:
 277              	.LBB40:
 278              		.loc 1 349 0
 279 0006 1C60     		str	r4, [r3]
 280              	.LVL8:
 281              	.LBE40:
 282              	.LBE41:
 283              	.LBB42:
 284              	.LBB43:
 201:.\Generated_Source\PSoC4/isr_adc.c **** }
 285              		.loc 1 201 0
 286 0008 044B     		ldr	r3, .L18+4
 287 000a 1864     		str	r0, [r3, #64]
 288              	.LBE43:
 289              	.LBE42:
 108:.\Generated_Source\PSoC4/isr_adc.c **** 
 290              		.loc 1 108 0
 291 000c 201C     		mov	r0, r4
 292              	.LVL9:
 293 000e FFF7FEFF 		bl	isr_adc_SetPriority
 294              	.LVL10:
 295              	.LBB44:
 296              	.LBB45:
 307:.\Generated_Source\PSoC4/isr_adc.c **** }
ARM GAS  C:\Users\User\AppData\Local\Temp\ccuPQVSu.s 			page 13


 297              		.loc 1 307 0
 298 0012 034B     		ldr	r3, .L18+8
 299 0014 1C60     		str	r4, [r3]
 300              	.LBE45:
 301              	.LBE44:
 112:.\Generated_Source\PSoC4/isr_adc.c **** 
 302              		.loc 1 112 0
 303 0016 10BD     		pop	{r4, pc}
 304              	.L19:
 305              		.align	2
 306              	.L18:
 307 0018 80E100E0 		.word	-536813184
 308 001c 00000000 		.word	CyRamVectors
 309 0020 00E100E0 		.word	-536813312
 310              		.cfi_endproc
 311              	.LFE1:
 312              		.size	isr_adc_StartEx, .-isr_adc_StartEx
 313              		.section	.text.isr_adc_GetPriority,"ax",%progbits
 314              		.align	1
 315              		.global	isr_adc_GetPriority
 316              		.code	16
 317              		.thumb_func
 318              		.type	isr_adc_GetPriority, %function
 319              	isr_adc_GetPriority:
 320              	.LFB7:
 278:.\Generated_Source\PSoC4/isr_adc.c ****     uint32 priority;
 321              		.loc 1 278 0
 322              		.cfi_startproc
 323              	.LVL11:
 282:.\Generated_Source\PSoC4/isr_adc.c **** 
 324              		.loc 1 282 0
 325 0000 024B     		ldr	r3, .L21
 285:.\Generated_Source\PSoC4/isr_adc.c **** 
 326              		.loc 1 285 0
 327              		@ sp needed
 282:.\Generated_Source\PSoC4/isr_adc.c **** 
 328              		.loc 1 282 0
 329 0002 1868     		ldr	r0, [r3]
 330              	.LVL12:
 331 0004 0006     		lsl	r0, r0, #24
 332              	.LVL13:
 284:.\Generated_Source\PSoC4/isr_adc.c **** }
 333              		.loc 1 284 0
 334 0006 800F     		lsr	r0, r0, #30
 285:.\Generated_Source\PSoC4/isr_adc.c **** 
 335              		.loc 1 285 0
 336 0008 7047     		bx	lr
 337              	.L22:
 338 000a C046     		.align	2
 339              	.L21:
 340 000c 00E400E0 		.word	-536812544
 341              		.cfi_endproc
 342              	.LFE7:
 343              		.size	isr_adc_GetPriority, .-isr_adc_GetPriority
 344              		.section	.text.isr_adc_Enable,"ax",%progbits
 345              		.align	1
 346              		.global	isr_adc_Enable
ARM GAS  C:\Users\User\AppData\Local\Temp\ccuPQVSu.s 			page 14


 347              		.code	16
 348              		.thumb_func
 349              		.type	isr_adc_Enable, %function
 350              	isr_adc_Enable:
 351              	.LFB8:
 305:.\Generated_Source\PSoC4/isr_adc.c ****     /* Enable the general interrupt. */
 352              		.loc 1 305 0
 353              		.cfi_startproc
 307:.\Generated_Source\PSoC4/isr_adc.c **** }
 354              		.loc 1 307 0
 355 0000 0122     		mov	r2, #1
 356 0002 014B     		ldr	r3, .L24
 308:.\Generated_Source\PSoC4/isr_adc.c **** 
 357              		.loc 1 308 0
 358              		@ sp needed
 307:.\Generated_Source\PSoC4/isr_adc.c **** }
 359              		.loc 1 307 0
 360 0004 1A60     		str	r2, [r3]
 308:.\Generated_Source\PSoC4/isr_adc.c **** 
 361              		.loc 1 308 0
 362 0006 7047     		bx	lr
 363              	.L25:
 364              		.align	2
 365              	.L24:
 366 0008 00E100E0 		.word	-536813312
 367              		.cfi_endproc
 368              	.LFE8:
 369              		.size	isr_adc_Enable, .-isr_adc_Enable
 370              		.section	.text.isr_adc_GetState,"ax",%progbits
 371              		.align	1
 372              		.global	isr_adc_GetState
 373              		.code	16
 374              		.thumb_func
 375              		.type	isr_adc_GetState, %function
 376              	isr_adc_GetState:
 377              	.LFB9:
 326:.\Generated_Source\PSoC4/isr_adc.c ****     /* Get the state of the general interrupt. */
 378              		.loc 1 326 0
 379              		.cfi_startproc
 328:.\Generated_Source\PSoC4/isr_adc.c **** }
 380              		.loc 1 328 0
 381 0000 024B     		ldr	r3, .L27
 329:.\Generated_Source\PSoC4/isr_adc.c **** 
 382              		.loc 1 329 0
 383              		@ sp needed
 328:.\Generated_Source\PSoC4/isr_adc.c **** }
 384              		.loc 1 328 0
 385 0002 1868     		ldr	r0, [r3]
 386 0004 0123     		mov	r3, #1
 387 0006 1840     		and	r0, r3
 329:.\Generated_Source\PSoC4/isr_adc.c **** 
 388              		.loc 1 329 0
 389 0008 7047     		bx	lr
 390              	.L28:
 391 000a C046     		.align	2
 392              	.L27:
 393 000c 00E100E0 		.word	-536813312
ARM GAS  C:\Users\User\AppData\Local\Temp\ccuPQVSu.s 			page 15


 394              		.cfi_endproc
 395              	.LFE9:
 396              		.size	isr_adc_GetState, .-isr_adc_GetState
 397              		.section	.text.isr_adc_Disable,"ax",%progbits
 398              		.align	1
 399              		.global	isr_adc_Disable
 400              		.code	16
 401              		.thumb_func
 402              		.type	isr_adc_Disable, %function
 403              	isr_adc_Disable:
 404              	.LFB10:
 347:.\Generated_Source\PSoC4/isr_adc.c ****     /* Disable the general interrupt. */
 405              		.loc 1 347 0
 406              		.cfi_startproc
 407              		.loc 1 349 0
 408 0000 0122     		mov	r2, #1
 409 0002 014B     		ldr	r3, .L30
 350:.\Generated_Source\PSoC4/isr_adc.c **** }
 410              		.loc 1 350 0
 411              		@ sp needed
 349:.\Generated_Source\PSoC4/isr_adc.c **** }
 412              		.loc 1 349 0
 413 0004 1A60     		str	r2, [r3]
 414              		.loc 1 350 0
 415 0006 7047     		bx	lr
 416              	.L31:
 417              		.align	2
 418              	.L30:
 419 0008 80E100E0 		.word	-536813184
 420              		.cfi_endproc
 421              	.LFE10:
 422              		.size	isr_adc_Disable, .-isr_adc_Disable
 423              		.section	.text.isr_adc_SetPending,"ax",%progbits
 424              		.align	1
 425              		.global	isr_adc_SetPending
 426              		.code	16
 427              		.thumb_func
 428              		.type	isr_adc_SetPending, %function
 429              	isr_adc_SetPending:
 430              	.LFB11:
 351:.\Generated_Source\PSoC4/isr_adc.c **** 
 352:.\Generated_Source\PSoC4/isr_adc.c **** 
 353:.\Generated_Source\PSoC4/isr_adc.c **** /*******************************************************************************
 354:.\Generated_Source\PSoC4/isr_adc.c **** * Function Name: isr_adc_SetPending
 355:.\Generated_Source\PSoC4/isr_adc.c **** ********************************************************************************
 356:.\Generated_Source\PSoC4/isr_adc.c **** *
 357:.\Generated_Source\PSoC4/isr_adc.c **** * Summary:
 358:.\Generated_Source\PSoC4/isr_adc.c **** *   Causes the Interrupt to enter the pending state, a software method of
 359:.\Generated_Source\PSoC4/isr_adc.c **** *   generating the interrupt.
 360:.\Generated_Source\PSoC4/isr_adc.c **** *
 361:.\Generated_Source\PSoC4/isr_adc.c **** * Parameters:
 362:.\Generated_Source\PSoC4/isr_adc.c **** *   None
 363:.\Generated_Source\PSoC4/isr_adc.c **** *
 364:.\Generated_Source\PSoC4/isr_adc.c **** * Return:
 365:.\Generated_Source\PSoC4/isr_adc.c **** *   None
 366:.\Generated_Source\PSoC4/isr_adc.c **** *
 367:.\Generated_Source\PSoC4/isr_adc.c **** * Side Effects:
ARM GAS  C:\Users\User\AppData\Local\Temp\ccuPQVSu.s 			page 16


 368:.\Generated_Source\PSoC4/isr_adc.c **** *   If interrupts are enabled and the interrupt is set up properly, the ISR is
 369:.\Generated_Source\PSoC4/isr_adc.c **** *   entered (depending on the priority of this interrupt and other pending 
 370:.\Generated_Source\PSoC4/isr_adc.c **** *   interrupts).
 371:.\Generated_Source\PSoC4/isr_adc.c **** *
 372:.\Generated_Source\PSoC4/isr_adc.c **** *******************************************************************************/
 373:.\Generated_Source\PSoC4/isr_adc.c **** void isr_adc_SetPending(void)
 374:.\Generated_Source\PSoC4/isr_adc.c **** {
 431              		.loc 1 374 0
 432              		.cfi_startproc
 375:.\Generated_Source\PSoC4/isr_adc.c ****     *isr_adc_INTC_SET_PD = isr_adc__INTC_MASK;
 433              		.loc 1 375 0
 434 0000 0122     		mov	r2, #1
 435 0002 014B     		ldr	r3, .L33
 376:.\Generated_Source\PSoC4/isr_adc.c **** }
 436              		.loc 1 376 0
 437              		@ sp needed
 375:.\Generated_Source\PSoC4/isr_adc.c ****     *isr_adc_INTC_SET_PD = isr_adc__INTC_MASK;
 438              		.loc 1 375 0
 439 0004 1A60     		str	r2, [r3]
 440              		.loc 1 376 0
 441 0006 7047     		bx	lr
 442              	.L34:
 443              		.align	2
 444              	.L33:
 445 0008 00E200E0 		.word	-536813056
 446              		.cfi_endproc
 447              	.LFE11:
 448              		.size	isr_adc_SetPending, .-isr_adc_SetPending
 449              		.section	.text.isr_adc_ClearPending,"ax",%progbits
 450              		.align	1
 451              		.global	isr_adc_ClearPending
 452              		.code	16
 453              		.thumb_func
 454              		.type	isr_adc_ClearPending, %function
 455              	isr_adc_ClearPending:
 456              	.LFB12:
 377:.\Generated_Source\PSoC4/isr_adc.c **** 
 378:.\Generated_Source\PSoC4/isr_adc.c **** 
 379:.\Generated_Source\PSoC4/isr_adc.c **** /*******************************************************************************
 380:.\Generated_Source\PSoC4/isr_adc.c **** * Function Name: isr_adc_ClearPending
 381:.\Generated_Source\PSoC4/isr_adc.c **** ********************************************************************************
 382:.\Generated_Source\PSoC4/isr_adc.c **** *
 383:.\Generated_Source\PSoC4/isr_adc.c **** * Summary:
 384:.\Generated_Source\PSoC4/isr_adc.c **** *   Clears a pending interrupt in the interrupt controller.
 385:.\Generated_Source\PSoC4/isr_adc.c **** *
 386:.\Generated_Source\PSoC4/isr_adc.c **** *   Note Some interrupt sources are clear-on-read and require the block 
 387:.\Generated_Source\PSoC4/isr_adc.c **** *   interrupt/status register to be read/cleared with the appropriate block API 
 388:.\Generated_Source\PSoC4/isr_adc.c **** *   (GPIO, UART, and so on). Otherwise the ISR will continue to remain in 
 389:.\Generated_Source\PSoC4/isr_adc.c **** *   pending state even though the interrupt itself is cleared using this API.
 390:.\Generated_Source\PSoC4/isr_adc.c **** *
 391:.\Generated_Source\PSoC4/isr_adc.c **** * Parameters:
 392:.\Generated_Source\PSoC4/isr_adc.c **** *   None
 393:.\Generated_Source\PSoC4/isr_adc.c **** *
 394:.\Generated_Source\PSoC4/isr_adc.c **** * Return:
 395:.\Generated_Source\PSoC4/isr_adc.c **** *   None
 396:.\Generated_Source\PSoC4/isr_adc.c **** *
 397:.\Generated_Source\PSoC4/isr_adc.c **** *******************************************************************************/
ARM GAS  C:\Users\User\AppData\Local\Temp\ccuPQVSu.s 			page 17


 398:.\Generated_Source\PSoC4/isr_adc.c **** void isr_adc_ClearPending(void)
 399:.\Generated_Source\PSoC4/isr_adc.c **** {
 457              		.loc 1 399 0
 458              		.cfi_startproc
 400:.\Generated_Source\PSoC4/isr_adc.c ****     *isr_adc_INTC_CLR_PD = isr_adc__INTC_MASK;
 459              		.loc 1 400 0
 460 0000 0122     		mov	r2, #1
 461 0002 014B     		ldr	r3, .L36
 401:.\Generated_Source\PSoC4/isr_adc.c **** }
 462              		.loc 1 401 0
 463              		@ sp needed
 400:.\Generated_Source\PSoC4/isr_adc.c ****     *isr_adc_INTC_CLR_PD = isr_adc__INTC_MASK;
 464              		.loc 1 400 0
 465 0004 1A60     		str	r2, [r3]
 466              		.loc 1 401 0
 467 0006 7047     		bx	lr
 468              	.L37:
 469              		.align	2
 470              	.L36:
 471 0008 80E200E0 		.word	-536812928
 472              		.cfi_endproc
 473              	.LFE12:
 474              		.size	isr_adc_ClearPending, .-isr_adc_ClearPending
 475              		.text
 476              	.Letext0:
 477              		.file 2 "Generated_Source\\PSoC4/cytypes.h"
 478              		.file 3 "Generated_Source\\PSoC4/CyLib.h"