ARM GAS  C:\Users\User\AppData\Local\Temp\ccu2Rf1b.s 			page 1


   1              		.cpu cortex-m0
   2              		.fpu softvfp
   3              		.eabi_attribute 20, 1
   4              		.eabi_attribute 21, 1
   5              		.eabi_attribute 23, 3
   6              		.eabi_attribute 24, 1
   7              		.eabi_attribute 25, 1
   8              		.eabi_attribute 26, 1
   9              		.eabi_attribute 30, 4
  10              		.eabi_attribute 34, 0
  11              		.eabi_attribute 18, 4
  12              		.code	16
  13              		.file	"main.c"
  14              		.text
  15              	.Ltext0:
  16              		.cfi_sections	.debug_frame
  17              		.global	__aeabi_i2d
  18              		.global	__aeabi_dmul
  19              		.global	__aeabi_d2f
  20              		.global	__aeabi_fmul
  21              		.global	__aeabi_f2iz
  22              		.section	.text.startup.main,"ax",%progbits
  23              		.align	1
  24              		.global	main
  25              		.code	16
  26              		.thumb_func
  27              		.type	main, %function
  28              	main:
  29              	.LFB34:
  30              		.file 1 ".\\main.c"
   1:.\main.c      **** /**************
   2:.\main.c      ****  * FFT on PSoC4
   3:.\main.c      ****  **************
   4:.\main.c      ****  * A project by @KaiserHaz
   5:.\main.c      ****  * 
   6:.\main.c      ****  * Description:
   7:.\main.c      ****  * ************
   8:.\main.c      ****  *  
   9:.\main.c      ****  *  This project aims to demonstrate an FFT algorithm running on Cortex-M0.
  10:.\main.c      ****  *  In order to make things interesting, we will use it in the case of an audio
  11:.\main.c      ****  *   spectrum visualizer. It will be displayed on an OLED screen (SSD1306).
  12:.\main.c      ****  *  The FFT algorithm is based (most-probably) on Sorensen et al. (RFFT).
  13:.\main.c      ****  *  Initially I planned to implement an FFT on hardware using PSoC, but the PSoC 4200
  14:.\main.c      ****  *   I have does not contain enough resources to be able to do that, so I had to
  15:.\main.c      ****  *   make do with a software implementation.
  16:.\main.c      ****  *  But hey, at least I could make a (semi-)complete processing chain.
  17:.\main.c      ****  *
  18:.\main.c      ****  * Details:
  19:.\main.c      ****  * ********
  20:.\main.c      ****  *
  21:.\main.c      ****  * Signal input : Differential Mono (v1.0)
  22:.\main.c      ****  * FFT Length   : 16                (v1.0)
  23:.\main.c      ****  * FFT Algorithm: Radix-2 DIT FFT   (vSandbox)
  24:.\main.c      ****  * 
  25:.\main.c      ****  * Libraries:
  26:.\main.c      ****  * **********
  27:.\main.c      ****  *
ARM GAS  C:\Users\User\AppData\Local\Temp\ccu2Rf1b.s 			page 2


  28:.\main.c      ****  * Several 'libraries' (actually they're PSoC projects) have been used in this project, namely:
  29:.\main.c      ****  * * 64-point FFT library (http://www.cypress.com/comment/240586#comment-240586) (vSandbox)
  30:.\main.c      ****  * * OLED Library for I2C (https://github.com/derkst/Cypress-PSOC-OLED)          (v1.0)
  31:.\main.c      ****  *
  32:.\main.c      ****  * Credits to these people for working hard and developing something useful for the community.
  33:.\main.c      ****  * 
  34:.\main.c      ****  */
  35:.\main.c      **** 
  36:.\main.c      **** /** Includes **/
  37:.\main.c      **** #include <project.h>
  38:.\main.c      **** #include <stdlib.h>
  39:.\main.c      **** #include <math.h>                                          // Put m in settings
  40:.\main.c      **** #include "ssd1306x.h"
  41:.\main.c      **** 
  42:.\main.c      **** /** Constant defines **/
  43:.\main.c      **** #define _FFT_PI_ 3.14159
  44:.\main.c      **** #define _FFT_LEN_ 16
  45:.\main.c      **** #define _OLED_DISP_ADDR_ 0x3C // 011110+SA0+RW - 0x3C or 0x3D
  46:.\main.c      **** 
  47:.\main.c      **** /** Global vars **/
  48:.\main.c      **** extern oled_eq_chan* _oled_eq_chan_tab_;
  49:.\main.c      **** 
  50:.\main.c      **** int16_t samples[_FFT_LEN_] = /*{ 0, 8, 14, 18, 20, 18, 14, 8,
  51:.\main.c      ****                                0, -8, -14, -18, -20, -18, -14, -8 }; // Sinusoid*/
  52:.\main.c      ****                              { 0, 2, 3, 5, 6, 8, 10,
  53:.\main.c      ****                                1, 3, 4, 6, 8, 9, 1, 2, 4 }; // Sawtooth
  54:.\main.c      **** 
  55:.\main.c      **** 	
  56:.\main.c      **** int revsamples[_FFT_LEN_];
  57:.\main.c      **** 
  58:.\main.c      **** int16 real0[_FFT_LEN_];		/* Array to hold the real value of samples */
  59:.\main.c      **** int16 img0[_FFT_LEN_];			/* Array to hold the img value of samples */
  60:.\main.c      **** 
  61:.\main.c      **** int16 real1[_FFT_LEN_];		/* Array to hold the real value of samples */
  62:.\main.c      **** int16 img1[_FFT_LEN_];			/* Array to hold the img value of samples */
  63:.\main.c      **** 
  64:.\main.c      **** int16 twiddlereal[_FFT_LEN_];	/* Array to hold the real value of twiddle factor */
  65:.\main.c      **** int16 twiddleimg[_FFT_LEN_];	/* Array to hold the img value of twiddle factor */
  66:.\main.c      **** 
  67:.\main.c      **** int16 interreal[_FFT_LEN_];	/* Array to hold the real product of intermediate multiplication */
  68:.\main.c      **** int16 interimg[_FFT_LEN_];		/* Array to hold the img product of intermediate multiplication */
  69:.\main.c      **** 
  70:.\main.c      **** float product;
  71:.\main.c      **** 
  72:.\main.c      **** ///** Complex number structure **/
  73:.\main.c      **** //typedef struct { double _real; double _imag; } complex;
  74:.\main.c      **** //
  75:.\main.c      **** ///** Twiddle factor function **/
  76:.\main.c      **** //complex twiddle_factor( uint8_t k, uint8_t n, uint8_t N ){
  77:.\main.c      **** //    
  78:.\main.c      **** //    complex tf = { ._real=1.0, ._imag=0.0 };
  79:.\main.c      **** //    
  80:.\main.c      **** //    // Case k&n = 0: no need to calculate anything, just return
  81:.\main.c      **** //    if(k && n){
  82:.\main.c      **** //        
  83:.\main.c      **** //        tf._real = cos(2.0*_FFT_PI_*k*n/N);
  84:.\main.c      **** //        tf._imag = (-1)*sin(2.0*_FFT_PI_*k*n/N);
ARM GAS  C:\Users\User\AppData\Local\Temp\ccu2Rf1b.s 			page 3


  85:.\main.c      **** //
  86:.\main.c      **** //    }
  87:.\main.c      **** //    
  88:.\main.c      **** //    return tf;
  89:.\main.c      **** //    
  90:.\main.c      **** //}
  91:.\main.c      **** 
  92:.\main.c      **** int main(){
  31              		.loc 1 92 0
  32              		.cfi_startproc
  33 0000 F0B5     		push	{r4, r5, r6, r7, lr}
  34              		.cfi_def_cfa_offset 20
  35              		.cfi_offset 4, -20
  36              		.cfi_offset 5, -16
  37              		.cfi_offset 6, -12
  38              		.cfi_offset 7, -8
  39              		.cfi_offset 14, -4
  40 0002 A5B0     		sub	sp, sp, #148
  41              		.cfi_def_cfa_offset 168
  93:.\main.c      ****     
  94:.\main.c      ****     // Enable interrupts
  95:.\main.c      ****     
  96:.\main.c      ****     CyGlobalIntEnable;
  42              		.loc 1 96 0
  43              	@ 96 ".\main.c" 1
  44 0004 62B6     		CPSIE   i
  45              	@ 0 "" 2
  97:.\main.c      ****     
  98:.\main.c      ****     // OLED start routine
  99:.\main.c      ****     
 100:.\main.c      ****     I2COLED_Start();                                       // Start
  46              		.loc 1 100 0
  47              		.code	16
  48 0006 FFF7FEFF 		bl	I2COLED_Start
  49              	.LVL0:
 101:.\main.c      **** 
 102:.\main.c      ****     display_init(_OLED_DISP_ADDR_);                        // Initialize display
  50              		.loc 1 102 0
  51 000a 3C20     		mov	r0, #60
  52 000c FFF7FEFF 		bl	display_init
  53              	.LVL1:
 103:.\main.c      ****                                                            //  with address
 104:.\main.c      ****     
 105:.\main.c      ****     oled_eq_chan_init();                                   // Initialize
  54              		.loc 1 105 0
  55 0010 0024     		mov	r4, #0
  56 0012 FFF7FEFF 		bl	oled_eq_chan_init
  57              	.LVL2:
  58              	.L2:
 106:.\main.c      ****                                                            //  equalizer
 107:.\main.c      ****                                                            //  display
 108:.\main.c      ****     
 109:.\main.c      ****     uint8 i, j; 
 110:.\main.c      **** 	uint8 revi;
 111:.\main.c      **** 	uint8 localcounter;
 112:.\main.c      **** 	
 113:.\main.c      ****     /* Calculate the twiddle factors */
ARM GAS  C:\Users\User\AppData\Local\Temp\ccu2Rf1b.s 			page 4


 114:.\main.c      **** 	for(i=0; i<(_FFT_LEN_/2); i++)
 115:.\main.c      **** 	{
 116:.\main.c      **** 		product = cos(2 * _FFT_PI_ * i / _FFT_LEN_);
  59              		.loc 1 116 0 discriminator 3
  60 0016 201C     		mov	r0, r4
  61 0018 FFF7FEFF 		bl	__aeabi_i2d
  62              	.LVL3:
  63 001c 9E4A     		ldr	r2, .L17
  64 001e 9F4B     		ldr	r3, .L17+4
  65 0020 FFF7FEFF 		bl	__aeabi_dmul
  66              	.LVL4:
  67 0024 0022     		mov	r2, #0
  68 0026 9E4B     		ldr	r3, .L17+8
  69 0028 FFF7FEFF 		bl	__aeabi_dmul
  70              	.LVL5:
  71 002c 061C     		mov	r6, r0
  72 002e 0F1C     		mov	r7, r1
  73 0030 FFF7FEFF 		bl	cos
  74              	.LVL6:
 117:.\main.c      ****         twiddlereal[i] = (int16) (product *256);           // Possibly a gain
  75              		.loc 1 117 0 discriminator 3
  76 0034 9B4B     		ldr	r3, .L17+12
  77 0036 6500     		lsl	r5, r4, #1
  78 0038 EB18     		add	r3, r5, r3
  79 003a 0093     		str	r3, [sp]
 116:.\main.c      ****         twiddlereal[i] = (int16) (product *256);           // Possibly a gain
  80              		.loc 1 116 0 discriminator 3
  81 003c FFF7FEFF 		bl	__aeabi_d2f
  82              	.LVL7:
  83              		.loc 1 117 0 discriminator 3
  84 0040 8721     		mov	r1, #135
  85 0042 C905     		lsl	r1, r1, #23
  86 0044 FFF7FEFF 		bl	__aeabi_fmul
  87              	.LVL8:
  88 0048 FFF7FEFF 		bl	__aeabi_f2iz
  89              	.LVL9:
  90 004c 009B     		ldr	r3, [sp]
 118:.\main.c      **** 		product = sin(2 * _FFT_PI_ * i / _FFT_LEN_);
  91              		.loc 1 118 0 discriminator 3
  92 004e 391C     		mov	r1, r7
 117:.\main.c      ****         twiddlereal[i] = (int16) (product *256);           // Possibly a gain
  93              		.loc 1 117 0 discriminator 3
  94 0050 1880     		strh	r0, [r3]
  95              		.loc 1 118 0 discriminator 3
  96 0052 301C     		mov	r0, r6
  97 0054 FFF7FEFF 		bl	sin
  98              	.LVL10:
  99 0058 FFF7FEFF 		bl	__aeabi_d2f
 100              	.LVL11:
 119:.\main.c      **** 		twiddleimg[i] = (int16)(product *(-256));
 101              		.loc 1 119 0 discriminator 3
 102 005c 924B     		ldr	r3, .L17+16
 103 005e 9349     		ldr	r1, .L17+20
 104 0060 ED18     		add	r5, r5, r3
 118:.\main.c      **** 		product = sin(2 * _FFT_PI_ * i / _FFT_LEN_);
 105              		.loc 1 118 0 discriminator 3
 106 0062 061C     		add	r6, r0, #0
ARM GAS  C:\Users\User\AppData\Local\Temp\ccu2Rf1b.s 			page 5


 107              		.loc 1 119 0 discriminator 3
 108 0064 FFF7FEFF 		bl	__aeabi_fmul
 109              	.LVL12:
 110 0068 FFF7FEFF 		bl	__aeabi_f2iz
 111              	.LVL13:
 112 006c 0134     		add	r4, r4, #1
 113              	.LVL14:
 114 006e 2880     		strh	r0, [r5]
 114:.\main.c      **** 	{
 115              		.loc 1 114 0 discriminator 3
 116 0070 082C     		cmp	r4, #8
 117 0072 D0D1     		bne	.L2
 114:.\main.c      **** 	{
 118              		.loc 1 114 0 is_stmt 0
 119 0074 0021     		mov	r1, #0
 120 0076 8E4B     		ldr	r3, .L17+24
 121 0078 1E60     		str	r6, [r3]
 122              	.L3:
 123 007a C8B2     		uxtb	r0, r1
 124              	.LVL15:
 120:.\main.c      **** 	}
 121:.\main.c      **** 	
 122:.\main.c      ****     /* First phase of FFT is arranging the input samples in bit reversed format */
 123:.\main.c      **** 	for(i=0; i< _FFT_LEN_; i++)
 124:.\main.c      **** 	{
 125:.\main.c      ****         revi = (((i >> 1) & 0x5) | ((i & 0x5) << 1));
 125              		.loc 1 125 0 is_stmt 1 discriminator 3
 126 007c 0522     		mov	r2, #5
 127 007e 031C     		mov	r3, r0
 128 0080 4008     		lsr	r0, r0, #1
 129              	.LVL16:
 130 0082 1340     		and	r3, r2
 131              	.LVL17:
 132 0084 5B00     		lsl	r3, r3, #1
 133 0086 0240     		and	r2, r0
 134 0088 1343     		orr	r3, r2
 135              	.LVL18:
 126:.\main.c      ****         revi = (((revi >> 2) & 0x3) | ((revi & 0x3) << 2));
 136              		.loc 1 126 0 discriminator 3
 137 008a 0322     		mov	r2, #3
 138 008c 1A40     		and	r2, r3
 139 008e 9200     		lsl	r2, r2, #2
 140 0090 9B08     		lsr	r3, r3, #2
 141              	.LVL19:
 127:.\main.c      **** 		
 128:.\main.c      **** 		revsamples[i] = samples[revi];
 142              		.loc 1 128 0 discriminator 3
 143 0092 1343     		orr	r3, r2
 144 0094 874A     		ldr	r2, .L17+28
 145 0096 5B00     		lsl	r3, r3, #1
 146 0098 9A5E     		ldrsh	r2, [r3, r2]
 147 009a 874B     		ldr	r3, .L17+32
 148 009c 8800     		lsl	r0, r1, #2
 149              	.LVL20:
 150 009e 0131     		add	r1, r1, #1
 151              	.LVL21:
 152 00a0 1A50     		str	r2, [r3, r0]
ARM GAS  C:\Users\User\AppData\Local\Temp\ccu2Rf1b.s 			page 6


 123:.\main.c      **** 	{
 153              		.loc 1 123 0 discriminator 3
 154 00a2 1029     		cmp	r1, #16
 155 00a4 E9D1     		bne	.L3
 156              	.L14:
 157              	.LVL22:
 114:.\main.c      **** 	{
 158              		.loc 1 114 0
 159 00a6 0022     		mov	r2, #0
 160              	.LVL23:
 161              	.L4:
 162              	.LBB2:
 129:.\main.c      **** 	}
 130:.\main.c      **** 	
 131:.\main.c      **** 	for(;;)
 132:.\main.c      **** 	{
 133:.\main.c      **** 	
 134:.\main.c      ****     	/* First stage of FFT radix 2 implementation */
 135:.\main.c      ****     	
 136:.\main.c      ****     	for(i=0; i< _FFT_LEN_; )
 137:.\main.c      ****     	{
 138:.\main.c      ****     		real0[i] = revsamples[i] + revsamples[i+1];
 163              		.loc 1 138 0
 164 00a8 834B     		ldr	r3, .L17+32
 165 00aa 5100     		lsl	r1, r2, #1
 166 00ac C918     		add	r1, r1, r3
 167 00ae 4868     		ldr	r0, [r1, #4]
 168 00b0 0B88     		ldrh	r3, [r1]
 169 00b2 8249     		ldr	r1, .L17+36
 170 00b4 80B2     		uxth	r0, r0
 171 00b6 5118     		add	r1, r2, r1
 172 00b8 C418     		add	r4, r0, r3
 173 00ba 0432     		add	r2, r2, #4
 139:.\main.c      ****     		real0[i+1] = revsamples[i] - revsamples[i+1];
 174              		.loc 1 139 0
 175 00bc 1B1A     		sub	r3, r3, r0
 138:.\main.c      ****     		real0[i+1] = revsamples[i] - revsamples[i+1];
 176              		.loc 1 138 0
 177 00be 0C80     		strh	r4, [r1]
 178              		.loc 1 139 0
 179 00c0 4B80     		strh	r3, [r1, #2]
 136:.\main.c      ****     	{
 180              		.loc 1 136 0
 181 00c2 202A     		cmp	r2, #32
 182 00c4 F0D1     		bne	.L4
 183 00c6 0023     		mov	r3, #0
 184 00c8 7D4E     		ldr	r6, .L17+40
 185 00ca 7E4D     		ldr	r5, .L17+44
 186 00cc 7E4C     		ldr	r4, .L17+48
 187 00ce 7F48     		ldr	r0, .L17+52
 188              	.L5:
 140:.\main.c      ****     		i = i+2;
 141:.\main.c      ****     	}
 142:.\main.c      ****     	
 143:.\main.c      ****     	/* Second stage of FFT radix 2 implementation */
 144:.\main.c      ****     	for(i=0; i<_FFT_LEN_; )
 145:.\main.c      ****     	{
ARM GAS  C:\Users\User\AppData\Local\Temp\ccu2Rf1b.s 			page 7


 146:.\main.c      ****     		real1[i] = real0[i] + real0[i+2];
 189              		.loc 1 146 0
 190 00d0 7A4A     		ldr	r2, .L17+36
 191 00d2 D25A     		ldrh	r2, [r2, r3]
 192 00d4 0092     		str	r2, [sp]
 193 00d6 0099     		ldr	r1, [sp]
 194 00d8 7288     		ldrh	r2, [r6, #2]
 195 00da 5118     		add	r1, r2, r1
 196 00dc 0192     		str	r2, [sp, #4]
 197 00de 7C4A     		ldr	r2, .L17+56
 198 00e0 D152     		strh	r1, [r2, r3]
 147:.\main.c      ****     		img1[i] = img0[i] + img0[i+2];
 199              		.loc 1 147 0
 200 00e2 7C4A     		ldr	r2, .L17+60
 201 00e4 4188     		ldrh	r1, [r0, #2]
 202 00e6 D75A     		ldrh	r7, [r2, r3]
 203 00e8 7B4A     		ldr	r2, .L17+64
 204 00ea 7918     		add	r1, r7, r1
 205 00ec 89B2     		uxth	r1, r1
 206 00ee D152     		strh	r1, [r2, r3]
 148:.\main.c      ****     		
 149:.\main.c      ****     		real1[i+1] = real0[i+1] + real0[i+3];
 207              		.loc 1 149 0
 208 00f0 B288     		ldrh	r2, [r6, #4]
 209 00f2 0833     		add	r3, r3, #8
 210 00f4 9446     		mov	ip, r2
 211 00f6 3288     		ldrh	r2, [r6]
 150:.\main.c      ****     		img1[i+1] = img0[i] - img0[i+3];
 151:.\main.c      ****     		
 152:.\main.c      ****     		real1[i+2] = real0[i] - real0[i+2];
 153:.\main.c      ****     		img1[i+2] = img0[i] + img0[i+2];
 212              		.loc 1 153 0
 213 00f8 6180     		strh	r1, [r4, #2]
 149:.\main.c      ****     		img1[i+1] = img0[i] - img0[i+3];
 214              		.loc 1 149 0
 215 00fa 6244     		add	r2, r2, ip
 216 00fc 92B2     		uxth	r2, r2
 217 00fe 0292     		str	r2, [sp, #8]
 218 0100 6A46     		mov	r2, sp
 219 0102 1289     		ldrh	r2, [r2, #8]
 220 0104 0836     		add	r6, r6, #8
 221 0106 2A80     		strh	r2, [r5]
 150:.\main.c      ****     		img1[i+1] = img0[i] - img0[i+3];
 222              		.loc 1 150 0
 223 0108 8288     		ldrh	r2, [r0, #4]
 224 010a BF1A     		sub	r7, r7, r2
 225 010c 9446     		mov	ip, r2
 226 010e 2780     		strh	r7, [r4]
 152:.\main.c      ****     		img1[i+2] = img0[i] + img0[i+2];
 227              		.loc 1 152 0
 228 0110 009A     		ldr	r2, [sp]
 229 0112 019F     		ldr	r7, [sp, #4]
 230 0114 D71B     		sub	r7, r2, r7
 154:.\main.c      ****     		
 155:.\main.c      ****     		real1[i+3] = real0[i+1] + real0[i+3];
 231              		.loc 1 155 0
 232 0116 6A46     		mov	r2, sp
ARM GAS  C:\Users\User\AppData\Local\Temp\ccu2Rf1b.s 			page 8


 233 0118 1289     		ldrh	r2, [r2, #8]
 152:.\main.c      ****     		img1[i+2] = img0[i] + img0[i+2];
 234              		.loc 1 152 0
 235 011a 6F80     		strh	r7, [r5, #2]
 236              		.loc 1 155 0
 237 011c AA80     		strh	r2, [r5, #4]
 156:.\main.c      ****     		img1[i+3] = img0[i+1] + img0[i+3];
 238              		.loc 1 156 0
 239 011e 0288     		ldrh	r2, [r0]
 240 0120 0835     		add	r5, r5, #8
 241 0122 6244     		add	r2, r2, ip
 242 0124 A280     		strh	r2, [r4, #4]
 243 0126 0830     		add	r0, r0, #8
 244 0128 0834     		add	r4, r4, #8
 144:.\main.c      ****     	{
 245              		.loc 1 144 0
 246 012a 202B     		cmp	r3, #32
 247 012c D0D1     		bne	.L5
 248 012e 0022     		mov	r2, #0
 249              	.L6:
 250              	.LVL24:
 136:.\main.c      ****     	{
 251              		.loc 1 136 0
 252 0130 0023     		mov	r3, #0
 253              	.LVL25:
 254              	.L7:
 255 0132 674D     		ldr	r5, .L17+56
 256 0134 5800     		lsl	r0, r3, #1
 257 0136 5519     		add	r5, r2, r5
 258 0138 E918     		add	r1, r5, r3
 157:.\main.c      ****     		
 158:.\main.c      ****     		i = i + 4;
 159:.\main.c      ****     	}
 160:.\main.c      ****     	
 161:.\main.c      ****     	/* Third stage of FFT radix 2 implementation */
 162:.\main.c      ****     	for(i=0; i<_FFT_LEN_; )
 163:.\main.c      ****     	{
 164:.\main.c      ****             // Compute product of twiddle with data
 165:.\main.c      ****     		for(j=0; j<4; j++)
 166:.\main.c      ****     		{
 167:.\main.c      ****     			interreal[j] = (real1[i + j + 4] * twiddlereal[2*j])>>8;
 259              		.loc 1 167 0 discriminator 3
 260 013a 0824     		mov	r4, #8
 261 013c 0C5F     		ldrsh	r4, [r1, r4]
 262 013e 5949     		ldr	r1, .L17+12
 263 0140 095E     		ldrsh	r1, [r1, r0]
 264 0142 6143     		mul	r1, r4
 265 0144 654C     		ldr	r4, .L17+68
 266 0146 0912     		asr	r1, r1, #8
 267 0148 E152     		strh	r1, [r4, r3]
 268 014a 6349     		ldr	r1, .L17+64
 269 014c 5118     		add	r1, r2, r1
 270 014e 0091     		str	r1, [sp]
 271 0150 C918     		add	r1, r1, r3
 168:.\main.c      ****     			interimg[j] = (img1[i + j + 4] * twiddleimg[2*j])>>8;
 272              		.loc 1 168 0 discriminator 3
 273 0152 0824     		mov	r4, #8
ARM GAS  C:\Users\User\AppData\Local\Temp\ccu2Rf1b.s 			page 9


 274 0154 0C5F     		ldrsh	r4, [r1, r4]
 275 0156 5449     		ldr	r1, .L17+16
 276 0158 095E     		ldrsh	r1, [r1, r0]
 277 015a 6148     		ldr	r0, .L17+72
 278 015c 6143     		mul	r1, r4
 279 015e 0912     		asr	r1, r1, #8
 280 0160 C152     		strh	r1, [r0, r3]
 281 0162 0233     		add	r3, r3, #2
 165:.\main.c      ****     		{
 282              		.loc 1 165 0 discriminator 3
 283 0164 082B     		cmp	r3, #8
 284 0166 E4D1     		bne	.L7
 285 0168 0023     		mov	r3, #0
 286              	.L8:
 287 016a 5449     		ldr	r1, .L17+36
 169:.\main.c      ****     		}
 170:.\main.c      ****     		
 171:.\main.c      ****     		// Non-returned part/Non-looped part
 172:.\main.c      ****     		for(localcounter=0; localcounter<4; localcounter++)
 173:.\main.c      ****     		{
 174:.\main.c      ****     			real0[i + localcounter] = real1[i + localcounter] + interreal[localcounter];
 288              		.loc 1 174 0 discriminator 3
 289 016c 5B48     		ldr	r0, .L17+68
 290 016e 8918     		add	r1, r1, r2
 291 0170 C45A     		ldrh	r4, [r0, r3]
 292 0172 0291     		str	r1, [sp, #8]
 293 0174 E95A     		ldrh	r1, [r5, r3]
 294 0176 0190     		str	r0, [sp, #4]
 295 0178 6118     		add	r1, r4, r1
 296 017a 029C     		ldr	r4, [sp, #8]
 297 017c E152     		strh	r1, [r4, r3]
 298 017e 5549     		ldr	r1, .L17+60
 299 0180 5118     		add	r1, r2, r1
 300 0182 0391     		str	r1, [sp, #12]
 175:.\main.c      ****     			img0[i + localcounter] = img1[i + localcounter] + interimg[localcounter];
 301              		.loc 1 175 0 discriminator 3
 302 0184 5649     		ldr	r1, .L17+72
 303 0186 CC5A     		ldrh	r4, [r1, r3]
 304 0188 0099     		ldr	r1, [sp]
 305 018a C95A     		ldrh	r1, [r1, r3]
 306 018c 6118     		add	r1, r4, r1
 307 018e 039C     		ldr	r4, [sp, #12]
 308 0190 E152     		strh	r1, [r4, r3]
 309              	.LVL26:
 310 0192 0233     		add	r3, r3, #2
 172:.\main.c      ****     		{
 311              		.loc 1 172 0 discriminator 3
 312 0194 082B     		cmp	r3, #8
 313 0196 E8D1     		bne	.L8
 314 0198 0020     		mov	r0, #0
 315 019a 043B     		sub	r3, r3, #4
 316              	.L9:
 317              	.LVL27:
 176:.\main.c      ****     		}
 177:.\main.c      ****     		
 178:.\main.c      ****             // Returned part/Looped part
 179:.\main.c      ****     		for(localcounter = 4; localcounter<8; localcounter++)
ARM GAS  C:\Users\User\AppData\Local\Temp\ccu2Rf1b.s 			page 10


 180:.\main.c      ****     		{
 181:.\main.c      ****     			real0[i + localcounter] = real1[i + localcounter - 4] - interreal[localcounter % 4];
 318              		.loc 1 181 0 discriminator 3
 319 019c 0324     		mov	r4, #3
 320 019e 0299     		ldr	r1, [sp, #8]
 321 01a0 1C40     		and	r4, r3
 322 01a2 4E4F     		ldr	r7, .L17+68
 323 01a4 6400     		lsl	r4, r4, #1
 324 01a6 0E18     		add	r6, r1, r0
 325 01a8 E75B     		ldrh	r7, [r4, r7]
 326 01aa 295A     		ldrh	r1, [r5, r0]
 179:.\main.c      ****     		{
 327              		.loc 1 179 0 discriminator 3
 328 01ac 0133     		add	r3, r3, #1
 329              	.LVL28:
 330              		.loc 1 181 0 discriminator 3
 331 01ae C91B     		sub	r1, r1, r7
 332 01b0 3181     		strh	r1, [r6, #8]
 333 01b2 0399     		ldr	r1, [sp, #12]
 182:.\main.c      ****     			img0[i + localcounter] = img1[i + localcounter - 4] - interimg[localcounter % 4];
 334              		.loc 1 182 0 discriminator 3
 335 01b4 009E     		ldr	r6, [sp]
 336 01b6 8C46     		mov	ip, r1
 337 01b8 4949     		ldr	r1, .L17+72
 338 01ba 365A     		ldrh	r6, [r6, r0]
 339 01bc 645A     		ldrh	r4, [r4, r1]
 340 01be 8444     		add	ip, ip, r0
 341 01c0 361B     		sub	r6, r6, r4
 342 01c2 6446     		mov	r4, ip
 179:.\main.c      ****     		{
 343              		.loc 1 179 0 discriminator 3
 344 01c4 DBB2     		uxtb	r3, r3
 345              	.LVL29:
 346              		.loc 1 182 0 discriminator 3
 347 01c6 2681     		strh	r6, [r4, #8]
 348 01c8 0230     		add	r0, r0, #2
 179:.\main.c      ****     		{
 349              		.loc 1 179 0 discriminator 3
 350 01ca 082B     		cmp	r3, #8
 351 01cc E6D1     		bne	.L9
 352 01ce 1032     		add	r2, r2, #16
 162:.\main.c      ****     	{
 353              		.loc 1 162 0
 354 01d0 202A     		cmp	r2, #32
 355 01d2 ADD1     		bne	.L6
 356 01d4 0022     		mov	r2, #0
 357              	.L10:
 358 01d6 3948     		ldr	r0, .L17+36
 359 01d8 8018     		add	r0, r0, r2
 183:.\main.c      ****     		}
 184:.\main.c      ****             
 185:.\main.c      ****     		i = i+8;
 186:.\main.c      ****     	}
 187:.\main.c      ****     	
 188:.\main.c      ****     	/* Fourth stage of FFT radix 2 implementation */
 189:.\main.c      ****     	for(i=0; i< _FFT_LEN_;  )
 190:.\main.c      ****     	{
ARM GAS  C:\Users\User\AppData\Local\Temp\ccu2Rf1b.s 			page 11


 191:.\main.c      ****     		// Compute product of twiddle with data
 192:.\main.c      ****     		for(j=0; j<8; j++)
 193:.\main.c      ****     		{
 194:.\main.c      ****     			interreal[j] = (real0[i + j + 8] * twiddlereal[j])>>8;
 360              		.loc 1 194 0
 361 01da 1024     		mov	r4, #16
 362 01dc 045F     		ldrsh	r4, [r0, r4]
 363 01de 3148     		ldr	r0, .L17+12
 364 01e0 805E     		ldrsh	r0, [r0, r2]
 365 01e2 6043     		mul	r0, r4
 366 01e4 019C     		ldr	r4, [sp, #4]
 367 01e6 0012     		asr	r0, r0, #8
 368 01e8 A052     		strh	r0, [r4, r2]
 369 01ea 3A4C     		ldr	r4, .L17+60
 370 01ec 1019     		add	r0, r2, r4
 195:.\main.c      ****     			interimg[j] = (img0[i + j + 8] * twiddleimg[j])>>8;
 371              		.loc 1 195 0
 372 01ee 1025     		mov	r5, #16
 373 01f0 455F     		ldrsh	r5, [r0, r5]
 374 01f2 2D48     		ldr	r0, .L17+16
 375 01f4 805E     		ldrsh	r0, [r0, r2]
 376 01f6 6843     		mul	r0, r5
 377 01f8 0012     		asr	r0, r0, #8
 378 01fa 8852     		strh	r0, [r1, r2]
 379 01fc 0232     		add	r2, r2, #2
 380 01fe 201C     		mov	r0, r4
 192:.\main.c      ****     		{
 381              		.loc 1 192 0
 382 0200 102A     		cmp	r2, #16
 383 0202 E8D1     		bne	.L10
 384 0204 0022     		mov	r2, #0
 385              	.LVL30:
 386              	.L11:
 196:.\main.c      ****     		}
 197:.\main.c      ****     		
 198:.\main.c      ****     		// Non-returned part/Non-looped part
 199:.\main.c      ****     		for(localcounter = 0; localcounter<8; localcounter++)
 200:.\main.c      ****     		{
 201:.\main.c      ****     			real1[i + localcounter] = real0[i + localcounter] + interreal[localcounter];
 387              		.loc 1 201 0
 388 0206 019C     		ldr	r4, [sp, #4]
 389 0208 A55A     		ldrh	r5, [r4, r2]
 390 020a 2C4C     		ldr	r4, .L17+36
 391 020c A45A     		ldrh	r4, [r4, r2]
 392 020e 2C19     		add	r4, r5, r4
 393 0210 2F4D     		ldr	r5, .L17+56
 394 0212 AC52     		strh	r4, [r5, r2]
 202:.\main.c      ****     			img1[i + localcounter] = img0[i + localcounter] + interimg[localcounter];
 395              		.loc 1 202 0
 396 0214 8D5A     		ldrh	r5, [r1, r2]
 397 0216 845A     		ldrh	r4, [r0, r2]
 398 0218 2C19     		add	r4, r5, r4
 399 021a 2F4D     		ldr	r5, .L17+64
 400 021c AC52     		strh	r4, [r5, r2]
 401 021e 0232     		add	r2, r2, #2
 199:.\main.c      ****     		{
 402              		.loc 1 199 0
ARM GAS  C:\Users\User\AppData\Local\Temp\ccu2Rf1b.s 			page 12


 403 0220 102A     		cmp	r2, #16
 404 0222 F0D1     		bne	.L11
 405 0224 0022     		mov	r2, #0
 406              	.L12:
 407              	.LVL31:
 203:.\main.c      ****     		}
 204:.\main.c      ****     		
 205:.\main.c      ****             // Returned part/Looped part
 206:.\main.c      ****     		for(localcounter = 8; localcounter<16; localcounter++)
 207:.\main.c      ****     		{
 208:.\main.c      ****     			real1[i + localcounter] = real0[i + localcounter - 8] - interreal[localcounter % 8];
 408              		.loc 1 208 0
 409 0226 0720     		mov	r0, #7
 410 0228 244D     		ldr	r5, .L17+36
 411 022a 1840     		and	r0, r3
 412 022c 019F     		ldr	r7, [sp, #4]
 413 022e 4000     		lsl	r0, r0, #1
 414 0230 AD5A     		ldrh	r5, [r5, r2]
 415 0232 3F5A     		ldrh	r7, [r7, r0]
 416 0234 264C     		ldr	r4, .L17+56
 417 0236 ED1B     		sub	r5, r5, r7
 418 0238 1619     		add	r6, r2, r4
 419 023a 3582     		strh	r5, [r6, #16]
 420 023c 264D     		ldr	r5, .L17+64
 209:.\main.c      ****     			img1[i + localcounter] = img0[i + localcounter - 8] - interimg[localcounter % 8];
 421              		.loc 1 209 0
 422 023e 085A     		ldrh	r0, [r1, r0]
 423 0240 5619     		add	r6, r2, r5
 424 0242 B446     		mov	ip, r6
 425 0244 234E     		ldr	r6, .L17+60
 206:.\main.c      ****     		{
 426              		.loc 1 206 0
 427 0246 0133     		add	r3, r3, #1
 428              	.LVL32:
 429              		.loc 1 209 0
 430 0248 B65A     		ldrh	r6, [r6, r2]
 206:.\main.c      ****     		{
 431              		.loc 1 206 0
 432 024a DBB2     		uxtb	r3, r3
 433              	.LVL33:
 434              		.loc 1 209 0
 435 024c 361A     		sub	r6, r6, r0
 436 024e 6046     		mov	r0, ip
 437 0250 0232     		add	r2, r2, #2
 438 0252 0682     		strh	r6, [r0, #16]
 206:.\main.c      ****     		{
 439              		.loc 1 206 0
 440 0254 102B     		cmp	r3, #16
 441 0256 E6D1     		bne	.L12
 442 0258 0026     		mov	r6, #0
 443              	.LVL34:
 444              	.L13:
 210:.\main.c      ****     		}
 211:.\main.c      ****             
 212:.\main.c      ****     		i = i+16;
 213:.\main.c      ****     	}
 214:.\main.c      ****         
ARM GAS  C:\Users\User\AppData\Local\Temp\ccu2Rf1b.s 			page 13


 215:.\main.c      ****         double fft_abs[_FFT_LEN_];
 216:.\main.c      ****         
 217:.\main.c      ****         for(i=0; i<_FFT_LEN_; i++)
 218:.\main.c      ****             fft_abs[i] = sqrt(real1[i]*real1[i] + img1[i]*img1[i]);
 445              		.loc 1 218 0 discriminator 3
 446 025a A05F     		ldrsh	r0, [r4, r6]
 447 025c AB5F     		ldrsh	r3, [r5, r6]
 448 025e 4043     		mul	r0, r0
 449 0260 5B43     		mul	r3, r3
 450 0262 C018     		add	r0, r0, r3
 451 0264 FFF7FEFF 		bl	__aeabi_i2d
 452              	.LVL35:
 453 0268 FFF7FEFF 		bl	sqrt
 454              	.LVL36:
 455 026c B300     		lsl	r3, r6, #2
 456 026e 04AA     		add	r2, sp, #16
 457 0270 9B18     		add	r3, r3, r2
 458 0272 0236     		add	r6, r6, #2
 459 0274 1860     		str	r0, [r3]
 460 0276 5960     		str	r1, [r3, #4]
 217:.\main.c      ****             fft_abs[i] = sqrt(real1[i]*real1[i] + img1[i]*img1[i]);
 461              		.loc 1 217 0 discriminator 3
 462 0278 202E     		cmp	r6, #32
 463 027a EED1     		bne	.L13
 219:.\main.c      ****         
 220:.\main.c      ****         oled_normalize_channels_mag(fft_abs, real1);
 464              		.loc 1 220 0
 465 027c 101C     		mov	r0, r2
 466 027e 211C     		mov	r1, r4
 467 0280 FFF7FEFF 		bl	oled_normalize_channels_mag
 468              	.LVL37:
 221:.\main.c      ****         
 222:.\main.c      ****         oled_update_channels_mag(real1);
 469              		.loc 1 222 0
 470 0284 201C     		mov	r0, r4
 471 0286 FFF7FEFF 		bl	oled_update_channels_mag
 472              	.LVL38:
 223:.\main.c      ****         
 224:.\main.c      ****         oled_update_channel();
 473              		.loc 1 224 0
 474 028a FFF7FEFF 		bl	oled_update_channel
 475              	.LVL39:
 225:.\main.c      ****         
 226:.\main.c      ****         CyDelay(41);
 476              		.loc 1 226 0
 477 028e 2920     		mov	r0, #41
 478 0290 FFF7FEFF 		bl	CyDelay
 479              	.LVL40:
 480              	.LBE2:
 227:.\main.c      ****         
 228:.\main.c      ****     }
 481              		.loc 1 228 0
 482 0294 07E7     		b	.L14
 483              	.L18:
 484 0296 C046     		.align	2
 485              	.L17:
 486 0298 6E861BF0 		.word	-266631570
ARM GAS  C:\Users\User\AppData\Local\Temp\ccu2Rf1b.s 			page 14


 487 029c F9211940 		.word	1075388921
 488 02a0 0000B03F 		.word	1068498944
 489 02a4 00000000 		.word	twiddlereal
 490 02a8 00000000 		.word	twiddleimg
 491 02ac 000080C3 		.word	-1015021568
 492 02b0 00000000 		.word	product
 493 02b4 00000000 		.word	.LANCHOR0
 494 02b8 00000000 		.word	revsamples
 495 02bc 00000000 		.word	real0
 496 02c0 02000000 		.word	real0+2
 497 02c4 02000000 		.word	real1+2
 498 02c8 02000000 		.word	img1+2
 499 02cc 02000000 		.word	img0+2
 500 02d0 00000000 		.word	real1
 501 02d4 00000000 		.word	img0
 502 02d8 00000000 		.word	img1
 503 02dc 00000000 		.word	interreal
 504 02e0 00000000 		.word	interimg
 505              		.cfi_endproc
 506              	.LFE34:
 507              		.size	main, .-main
 508              		.comm	product,4,4
 509              		.comm	interimg,32,2
 510              		.comm	interreal,32,2
 511              		.comm	twiddleimg,32,2
 512              		.comm	twiddlereal,32,2
 513              		.comm	img1,32,2
 514              		.comm	real1,32,2
 515              		.comm	img0,32,2
 516              		.comm	real0,32,2
 517              		.comm	revsamples,64,4
 518              		.global	samples
 519              		.data
 520              		.align	1
 521              		.set	.LANCHOR0,. + 0
 522              		.type	samples, %object
 523              		.size	samples, 32
 524              	samples:
 525 0000 0000     		.short	0
 526 0002 0200     		.short	2
 527 0004 0300     		.short	3
 528 0006 0500     		.short	5
 529 0008 0600     		.short	6
 530 000a 0800     		.short	8
 531 000c 0A00     		.short	10
 532 000e 0100     		.short	1
 533 0010 0300     		.short	3
 534 0012 0400     		.short	4
 535 0014 0600     		.short	6
 536 0016 0800     		.short	8
 537 0018 0900     		.short	9
 538 001a 0100     		.short	1
 539 001c 0200     		.short	2
 540 001e 0400     		.short	4
 541              		.text
 542              	.Letext0:
 543              		.file 2 "d:\\cypress\\psoc creator\\3.3\\psoc creator\\import\\gnu\\arm\\4.9.3\\arm-none-eabi\\inc
ARM GAS  C:\Users\User\AppData\Local\Temp\ccu2Rf1b.s 			page 15


 544              		.file 3 "d:\\cypress\\psoc creator\\3.3\\psoc creator\\import\\gnu\\arm\\4.9.3\\arm-none-eabi\\inc
 545              		.file 4 "Generated_Source\\PSoC4/cytypes.h"
 546              		.file 5 ".\\ssd1306x.h"
 547              		.file 6 "Generated_Source\\PSoC4/CyLib.h"
 548              		.file 7 ".\\ssd1306.h"
 549              		.file 8 "d:\\cypress\\psoc creator\\3.3\\psoc creator\\import\\gnu\\arm\\4.9.3\\arm-none-eabi\\inc
 550              		.file 9 "Generated_Source\\PSoC4/I2COLED.h"