ARM GAS  C:\Users\User\AppData\Local\Temp\cchbw8OR.s 			page 1


   1              		.cpu cortex-m0
   2              		.fpu softvfp
   3              		.eabi_attribute 20, 1
   4              		.eabi_attribute 21, 1
   5              		.eabi_attribute 23, 3
   6              		.eabi_attribute 24, 1
   7              		.eabi_attribute 25, 1
   8              		.eabi_attribute 26, 1
   9              		.eabi_attribute 30, 4
  10              		.eabi_attribute 34, 0
  11              		.eabi_attribute 18, 4
  12              		.code	16
  13              		.file	"ssd1306x.c"
  14              		.text
  15              	.Ltext0:
  16              		.cfi_sections	.debug_frame
  17              		.section	.text.oled_draw_channel0,"ax",%progbits
  18              		.align	1
  19              		.global	oled_draw_channel0
  20              		.code	16
  21              		.thumb_func
  22              		.type	oled_draw_channel0, %function
  23              	oled_draw_channel0:
  24              	.LFB34:
  25              		.file 1 ".\\ssd1306x.c"
   1:.\ssd1306x.c  **** /**************
   2:.\ssd1306x.c  ****  * FFT on PSoC4
   3:.\ssd1306x.c  ****  **************
   4:.\ssd1306x.c  ****  * A project by @KaiserHaz
   5:.\ssd1306x.c  ****  * 
   6:.\ssd1306x.c  ****  * Extra display libraries. Extension to ssd1306.h. Function implementations
   7:.\ssd1306x.c  ****  * 
   8:.\ssd1306x.c  ****  */
   9:.\ssd1306x.c  **** 
  10:.\ssd1306x.c  **** #include <project.h>
  11:.\ssd1306x.c  **** #include <stdlib.h>
  12:.\ssd1306x.c  **** #include <math.h>
  13:.\ssd1306x.c  **** #include "ssd1306x.h"
  14:.\ssd1306x.c  **** 
  15:.\ssd1306x.c  **** oled_eq_chan* _oled_eq_chan_tab_;
  16:.\ssd1306x.c  **** 
  17:.\ssd1306x.c  **** /**
  18:.\ssd1306x.c  ****  * Method : oled_draw_channel0
  19:.\ssd1306x.c  ****  * Args   : int16_t chan  : Channel number
  20:.\ssd1306x.c  ****  *          int16_t mag   : Magnitude
  21:.\ssd1306x.c  ****  *          uint16_t color: Display color
  22:.\ssd1306x.c  ****  * Returns: -
  23:.\ssd1306x.c  ****  * Descr  : Draws channel chan with the given magnitude mag. Standalone ver
  24:.\ssd1306x.c  ****  *
  25:.\ssd1306x.c  ****  */
  26:.\ssd1306x.c  **** void oled_draw_channel0( int16_t chan, int16_t mag, uint16_t color ){
  26              		.loc 1 26 0
  27              		.cfi_startproc
  28              	.LVL0:
  29 0000 F0B5     		push	{r4, r5, r6, r7, lr}
  30              		.cfi_def_cfa_offset 20
  31              		.cfi_offset 4, -20
ARM GAS  C:\Users\User\AppData\Local\Temp\cchbw8OR.s 			page 2


  32              		.cfi_offset 5, -16
  33              		.cfi_offset 6, -12
  34              		.cfi_offset 7, -8
  35              		.cfi_offset 14, -4
  36 0002 041C     		mov	r4, r0
  27:.\ssd1306x.c  ****     
  28:.\ssd1306x.c  ****     uint8_t ii = 0;
  29:.\ssd1306x.c  ****     
  30:.\ssd1306x.c  ****     display_clear();
  31:.\ssd1306x.c  ****     
  32:.\ssd1306x.c  ****     for( ii = 0 ; ii < mag ; ii++ ){
  37              		.loc 1 32 0
  38 0004 0025     		mov	r5, #0
  33:.\ssd1306x.c  ****         gfx_drawLine( (chan*_OLED_EQ_CHAN_MULT_)+_OLED_EQ_ACT_OFF_, ii,
  39              		.loc 1 33 0
  40 0006 E400     		lsl	r4, r4, #3
  26:.\ssd1306x.c  ****     
  41              		.loc 1 26 0
  42 0008 85B0     		sub	sp, sp, #20
  43              		.cfi_def_cfa_offset 40
  44              		.loc 1 33 0
  45 000a A4B2     		uxth	r4, r4
  26:.\ssd1306x.c  ****     
  46              		.loc 1 26 0
  47 000c 0E1C     		mov	r6, r1
  48 000e 171C     		mov	r7, r2
  30:.\ssd1306x.c  ****     
  49              		.loc 1 30 0
  50 0010 FFF7FEFF 		bl	display_clear
  51              	.LVL1:
  52              		.loc 1 33 0
  53 0014 631C     		add	r3, r4, #1
  54 0016 9BB2     		uxth	r3, r3
  55 0018 0634     		add	r4, r4, #6
  56 001a 0393     		str	r3, [sp, #12]
  57 001c A4B2     		uxth	r4, r4
  58              	.LVL2:
  59              	.L2:
  32:.\ssd1306x.c  ****         gfx_drawLine( (chan*_OLED_EQ_CHAN_MULT_)+_OLED_EQ_ACT_OFF_, ii,
  60              		.loc 1 32 0 discriminator 1
  61 001e B542     		cmp	r5, r6
  62 0020 0BDA     		bge	.L5
  63              		.loc 1 33 0 discriminator 3
  64 0022 6B46     		mov	r3, sp
  65 0024 291C     		mov	r1, r5
  66 0026 0C20     		mov	r0, #12
  67 0028 185E     		ldrsh	r0, [r3, r0]
  68 002a 22B2     		sxth	r2, r4
  69 002c 2B1C     		mov	r3, r5
  70 002e 0097     		str	r7, [sp]
  32:.\ssd1306x.c  ****         gfx_drawLine( (chan*_OLED_EQ_CHAN_MULT_)+_OLED_EQ_ACT_OFF_, ii,
  71              		.loc 1 32 0 discriminator 3
  72 0030 0135     		add	r5, r5, #1
  73              	.LVL3:
  74              		.loc 1 33 0 discriminator 3
  75 0032 FFF7FEFF 		bl	gfx_drawLine
  76              	.LVL4:
ARM GAS  C:\Users\User\AppData\Local\Temp\cchbw8OR.s 			page 3


  32:.\ssd1306x.c  ****         gfx_drawLine( (chan*_OLED_EQ_CHAN_MULT_)+_OLED_EQ_ACT_OFF_, ii,
  77              		.loc 1 32 0 discriminator 3
  78 0036 EDB2     		uxtb	r5, r5
  79              	.LVL5:
  80 0038 F1E7     		b	.L2
  81              	.L5:
  34:.\ssd1306x.c  ****                       (chan*_OLED_EQ_CHAN_MULT_)+_OLED_EQ_BBUF_OFF_-_OLED_EQ_ACT_OFF_, ii, color );
  35:.\ssd1306x.c  ****     }
  36:.\ssd1306x.c  ****     
  37:.\ssd1306x.c  ****     display_update();
  82              		.loc 1 37 0
  83 003a FFF7FEFF 		bl	display_update
  84              	.LVL6:
  38:.\ssd1306x.c  ****     
  39:.\ssd1306x.c  **** }
  85              		.loc 1 39 0
  86 003e 05B0     		add	sp, sp, #20
  87              		@ sp needed
  88              	.LVL7:
  89 0040 F0BD     		pop	{r4, r5, r6, r7, pc}
  90              		.cfi_endproc
  91              	.LFE34:
  92              		.size	oled_draw_channel0, .-oled_draw_channel0
  93              		.section	.text.oled_draw_channel1,"ax",%progbits
  94              		.align	1
  95              		.global	oled_draw_channel1
  96              		.code	16
  97              		.thumb_func
  98              		.type	oled_draw_channel1, %function
  99              	oled_draw_channel1:
 100              	.LFB35:
  40:.\ssd1306x.c  **** 
  41:.\ssd1306x.c  **** /**
  42:.\ssd1306x.c  ****  * Method : oled_draw_channel1
  43:.\ssd1306x.c  ****  * Args   : int16_t chan  : Channel number
  44:.\ssd1306x.c  ****  *          int16_t mag   : Magnitude
  45:.\ssd1306x.c  ****  *          uint16_t color: Display color
  46:.\ssd1306x.c  ****  * Returns: -
  47:.\ssd1306x.c  ****  * Descr  : Draws channel chan with the given magnitude mag
  48:.\ssd1306x.c  ****  *
  49:.\ssd1306x.c  ****  */
  50:.\ssd1306x.c  **** void oled_draw_channel1( int16_t chan, int16_t mag, uint16_t color ){
 101              		.loc 1 50 0
 102              		.cfi_startproc
 103              	.LVL8:
 104 0000 F0B5     		push	{r4, r5, r6, r7, lr}
 105              		.cfi_def_cfa_offset 20
 106              		.cfi_offset 4, -20
 107              		.cfi_offset 5, -16
 108              		.cfi_offset 6, -12
 109              		.cfi_offset 7, -8
 110              		.cfi_offset 14, -4
 111 0002 0E1C     		mov	r6, r1
 112 0004 171C     		mov	r7, r2
  51:.\ssd1306x.c  ****     
  52:.\ssd1306x.c  ****     uint8_t ii = 0;
  53:.\ssd1306x.c  ****     
ARM GAS  C:\Users\User\AppData\Local\Temp\cchbw8OR.s 			page 4


  54:.\ssd1306x.c  ****     for( ii = 0 ; ii < mag ; ii++ ){
 113              		.loc 1 54 0
 114 0006 0025     		mov	r5, #0
  55:.\ssd1306x.c  ****         gfx_drawLine( (chan*_OLED_EQ_CHAN_MULT_)+_OLED_EQ_ACT_OFF_, ii,
 115              		.loc 1 55 0
 116 0008 C000     		lsl	r0, r0, #3
 117              	.LVL9:
 118 000a 84B2     		uxth	r4, r0
 119 000c 631C     		add	r3, r4, #1
  50:.\ssd1306x.c  ****     
 120              		.loc 1 50 0
 121 000e 85B0     		sub	sp, sp, #20
 122              		.cfi_def_cfa_offset 40
 123              		.loc 1 55 0
 124 0010 9BB2     		uxth	r3, r3
 125 0012 0634     		add	r4, r4, #6
 126 0014 0393     		str	r3, [sp, #12]
 127 0016 A4B2     		uxth	r4, r4
 128              	.LVL10:
 129              	.L7:
  54:.\ssd1306x.c  ****         gfx_drawLine( (chan*_OLED_EQ_CHAN_MULT_)+_OLED_EQ_ACT_OFF_, ii,
 130              		.loc 1 54 0 discriminator 1
 131 0018 B542     		cmp	r5, r6
 132 001a 0BDA     		bge	.L9
 133              		.loc 1 55 0 discriminator 3
 134 001c 6B46     		mov	r3, sp
 135 001e 291C     		mov	r1, r5
 136 0020 0C20     		mov	r0, #12
 137 0022 185E     		ldrsh	r0, [r3, r0]
 138 0024 22B2     		sxth	r2, r4
 139 0026 2B1C     		mov	r3, r5
 140 0028 0097     		str	r7, [sp]
  54:.\ssd1306x.c  ****         gfx_drawLine( (chan*_OLED_EQ_CHAN_MULT_)+_OLED_EQ_ACT_OFF_, ii,
 141              		.loc 1 54 0 discriminator 3
 142 002a 0135     		add	r5, r5, #1
 143              	.LVL11:
 144              		.loc 1 55 0 discriminator 3
 145 002c FFF7FEFF 		bl	gfx_drawLine
 146              	.LVL12:
  54:.\ssd1306x.c  ****         gfx_drawLine( (chan*_OLED_EQ_CHAN_MULT_)+_OLED_EQ_ACT_OFF_, ii,
 147              		.loc 1 54 0 discriminator 3
 148 0030 EDB2     		uxtb	r5, r5
 149              	.LVL13:
 150 0032 F1E7     		b	.L7
 151              	.L9:
  56:.\ssd1306x.c  ****                       (chan*_OLED_EQ_CHAN_MULT_)+_OLED_EQ_BBUF_OFF_-_OLED_EQ_ACT_OFF_, ii, color );
  57:.\ssd1306x.c  ****     }
  58:.\ssd1306x.c  ****     
  59:.\ssd1306x.c  **** }
 152              		.loc 1 59 0
 153 0034 05B0     		add	sp, sp, #20
 154              		@ sp needed
 155              	.LVL14:
 156 0036 F0BD     		pop	{r4, r5, r6, r7, pc}
 157              		.cfi_endproc
 158              	.LFE35:
 159              		.size	oled_draw_channel1, .-oled_draw_channel1
ARM GAS  C:\Users\User\AppData\Local\Temp\cchbw8OR.s 			page 5


 160              		.section	.text.oled_draw_channel2,"ax",%progbits
 161              		.align	1
 162              		.global	oled_draw_channel2
 163              		.code	16
 164              		.thumb_func
 165              		.type	oled_draw_channel2, %function
 166              	oled_draw_channel2:
 167              	.LFB36:
  60:.\ssd1306x.c  **** 
  61:.\ssd1306x.c  **** /**
  62:.\ssd1306x.c  ****  * Method : oled_draw_channel2
  63:.\ssd1306x.c  ****  * Args   : oled_eq_chan chan  : Channel structure
  64:.\ssd1306x.c  ****  *          uint16_t color     : Display color
  65:.\ssd1306x.c  ****  * Returns: -
  66:.\ssd1306x.c  ****  * Descr  : Draws channel chan. Just calls the above method really
  67:.\ssd1306x.c  ****  *
  68:.\ssd1306x.c  ****  */
  69:.\ssd1306x.c  **** void oled_draw_channel2( oled_eq_chan chan, uint16_t color ){
 168              		.loc 1 69 0
 169              		.cfi_startproc
 170              	.LVL15:
 171 0000 031C     		mov	r3, r0
 172 0002 13B5     		push	{r0, r1, r4, lr}
 173              		.cfi_def_cfa_offset 16
 174              		.cfi_offset 0, -16
 175              		.cfi_offset 1, -12
 176              		.cfi_offset 4, -8
 177              		.cfi_offset 14, -4
 178              		.loc 1 69 0
 179 0004 0A1C     		mov	r2, r1
 180 0006 0190     		str	r0, [sp, #4]
  70:.\ssd1306x.c  ****     oled_draw_channel1(chan._oled_eq_chan_num,
 181              		.loc 1 70 0
 182 0008 1914     		asr	r1, r3, #16
 183              	.LVL16:
 184 000a 00B2     		sxth	r0, r0
 185 000c FFF7FEFF 		bl	oled_draw_channel1
 186              	.LVL17:
  71:.\ssd1306x.c  ****                        chan._oled_eq_chan_mag, color);
  72:.\ssd1306x.c  **** }
 187              		.loc 1 72 0
 188              		@ sp needed
 189 0010 13BD     		pop	{r0, r1, r4, pc}
 190              		.cfi_endproc
 191              	.LFE36:
 192              		.size	oled_draw_channel2, .-oled_draw_channel2
 193              		.section	.text.oled_eq_chan_init,"ax",%progbits
 194              		.align	1
 195              		.global	oled_eq_chan_init
 196              		.code	16
 197              		.thumb_func
 198              		.type	oled_eq_chan_init, %function
 199              	oled_eq_chan_init:
 200              	.LFB37:
  73:.\ssd1306x.c  **** 
  74:.\ssd1306x.c  **** /**
  75:.\ssd1306x.c  ****  * Method : oled_eq_chan_init
ARM GAS  C:\Users\User\AppData\Local\Temp\cchbw8OR.s 			page 6


  76:.\ssd1306x.c  ****  * Args   : -
  77:.\ssd1306x.c  ****  * Returns: -
  78:.\ssd1306x.c  ****  * Descr  : Initializes channel structure array
  79:.\ssd1306x.c  ****  *
  80:.\ssd1306x.c  ****  */
  81:.\ssd1306x.c  **** void oled_eq_chan_init(){
 201              		.loc 1 81 0
 202              		.cfi_startproc
 203 0000 38B5     		push	{r3, r4, r5, lr}
 204              		.cfi_def_cfa_offset 16
 205              		.cfi_offset 3, -16
 206              		.cfi_offset 4, -12
 207              		.cfi_offset 5, -8
 208              		.cfi_offset 14, -4
  82:.\ssd1306x.c  ****     
  83:.\ssd1306x.c  ****     uint8_t ii;
  84:.\ssd1306x.c  ****     
  85:.\ssd1306x.c  ****     _oled_eq_chan_tab_ = (oled_eq_chan*) malloc(_OLED_EQ_CHAN_CNT_*sizeof(oled_eq_chan));
 209              		.loc 1 85 0
 210 0002 4020     		mov	r0, #64
 211 0004 FFF7FEFF 		bl	malloc
 212              	.LVL18:
 213 0008 0024     		mov	r4, #0
 214 000a 0A4D     		ldr	r5, .L13
 215 000c 2860     		str	r0, [r5]
 216              	.LVL19:
 217              	.L12:
  86:.\ssd1306x.c  ****     
  87:.\ssd1306x.c  ****     for(ii = 0; ii < _OLED_EQ_CHAN_CNT_; ii++){
  88:.\ssd1306x.c  ****         
  89:.\ssd1306x.c  ****         _oled_eq_chan_tab_[ii]._oled_eq_chan_num = ii;     // Should be consts
  90:.\ssd1306x.c  ****                                                            //  here but meh...
  91:.\ssd1306x.c  ****         _oled_eq_chan_tab_[ii]._oled_eq_chan_mag = 1;
 218              		.loc 1 91 0 discriminator 3
 219 000e 0121     		mov	r1, #1
  92:.\ssd1306x.c  ****     
  93:.\ssd1306x.c  ****         oled_draw_channel2(_oled_eq_chan_tab_[ii], WHITE);
 220              		.loc 1 93 0 discriminator 3
 221 0010 8020     		mov	r0, #128
  89:.\ssd1306x.c  ****                                                            //  here but meh...
 222              		.loc 1 89 0 discriminator 3
 223 0012 2A68     		ldr	r2, [r5]
 224 0014 A300     		lsl	r3, r4, #2
 225 0016 D318     		add	r3, r2, r3
 226 0018 1C80     		strh	r4, [r3]
  91:.\ssd1306x.c  ****     
 227              		.loc 1 91 0 discriminator 3
 228 001a 5980     		strh	r1, [r3, #2]
 229              		.loc 1 93 0 discriminator 3
 230 001c 4002     		lsl	r0, r0, #9
 231 001e A3B2     		uxth	r3, r4
 232 0020 1843     		orr	r0, r3
 233 0022 0134     		add	r4, r4, #1
 234              	.LVL20:
 235 0024 FFF7FEFF 		bl	oled_draw_channel2
 236              	.LVL21:
  87:.\ssd1306x.c  ****         
ARM GAS  C:\Users\User\AppData\Local\Temp\cchbw8OR.s 			page 7


 237              		.loc 1 87 0 discriminator 3
 238 0028 102C     		cmp	r4, #16
 239 002a F0D1     		bne	.L12
  94:.\ssd1306x.c  ****         
  95:.\ssd1306x.c  ****     }
  96:.\ssd1306x.c  ****     
  97:.\ssd1306x.c  ****     display_update();
 240              		.loc 1 97 0
 241 002c FFF7FEFF 		bl	display_update
 242              	.LVL22:
  98:.\ssd1306x.c  ****     
  99:.\ssd1306x.c  **** }
 243              		.loc 1 99 0
 244              		@ sp needed
 245 0030 38BD     		pop	{r3, r4, r5, pc}
 246              	.L14:
 247 0032 C046     		.align	2
 248              	.L13:
 249 0034 00000000 		.word	_oled_eq_chan_tab_
 250              		.cfi_endproc
 251              	.LFE37:
 252              		.size	oled_eq_chan_init, .-oled_eq_chan_init
 253              		.section	.text.oled_update_channel_mag,"ax",%progbits
 254              		.align	1
 255              		.global	oled_update_channel_mag
 256              		.code	16
 257              		.thumb_func
 258              		.type	oled_update_channel_mag, %function
 259              	oled_update_channel_mag:
 260              	.LFB38:
 100:.\ssd1306x.c  **** 
 101:.\ssd1306x.c  **** /**
 102:.\ssd1306x.c  ****  * Method : oled_update_channel_mag
 103:.\ssd1306x.c  ****  * Args   : int16_t chan
 104:.\ssd1306x.c  ****  *          int16_t mag
 105:.\ssd1306x.c  ****  * Returns: -
 106:.\ssd1306x.c  ****  * Descr  : Update channel magnitude for specified channel
 107:.\ssd1306x.c  ****  *
 108:.\ssd1306x.c  ****  */
 109:.\ssd1306x.c  **** void oled_update_channel_mag( int16_t chan, int16_t mag ){
 261              		.loc 1 109 0
 262              		.cfi_startproc
 263              	.LVL23:
 110:.\ssd1306x.c  ****     
 111:.\ssd1306x.c  ****     _oled_eq_chan_tab_[chan]._oled_eq_chan_mag = mag;      // Hardcoded 8 to
 264              		.loc 1 111 0
 265 0000 024B     		ldr	r3, .L16
 266 0002 8000     		lsl	r0, r0, #2
 267              	.LVL24:
 268 0004 1B68     		ldr	r3, [r3]
 112:.\ssd1306x.c  ****                                                            //  save process
 113:.\ssd1306x.c  ****                                                            //  time?
 114:.\ssd1306x.c  ****     
 115:.\ssd1306x.c  **** }
 269              		.loc 1 115 0
 270              		@ sp needed
 111:.\ssd1306x.c  ****                                                            //  save process
ARM GAS  C:\Users\User\AppData\Local\Temp\cchbw8OR.s 			page 8


 271              		.loc 1 111 0
 272 0006 1818     		add	r0, r3, r0
 273 0008 4180     		strh	r1, [r0, #2]
 274              		.loc 1 115 0
 275 000a 7047     		bx	lr
 276              	.L17:
 277              		.align	2
 278              	.L16:
 279 000c 00000000 		.word	_oled_eq_chan_tab_
 280              		.cfi_endproc
 281              	.LFE38:
 282              		.size	oled_update_channel_mag, .-oled_update_channel_mag
 283              		.section	.text.oled_update_channels_mag,"ax",%progbits
 284              		.align	1
 285              		.global	oled_update_channels_mag
 286              		.code	16
 287              		.thumb_func
 288              		.type	oled_update_channels_mag, %function
 289              	oled_update_channels_mag:
 290              	.LFB39:
 116:.\ssd1306x.c  **** 
 117:.\ssd1306x.c  **** /**
 118:.\ssd1306x.c  ****  * Method : oled_update_channels_mag
 119:.\ssd1306x.c  ****  * Args   : int16_t chan
 120:.\ssd1306x.c  ****  *          int16_t mag
 121:.\ssd1306x.c  ****  * Returns: -
 122:.\ssd1306x.c  ****  * Descr  : Update all channel magnitudes
 123:.\ssd1306x.c  ****  *
 124:.\ssd1306x.c  ****  */
 125:.\ssd1306x.c  **** void oled_update_channels_mag( int16_t* mag ){
 291              		.loc 1 125 0
 292              		.cfi_startproc
 293              	.LVL25:
 294 0000 38B5     		push	{r3, r4, r5, lr}
 295              		.cfi_def_cfa_offset 16
 296              		.cfi_offset 3, -16
 297              		.cfi_offset 4, -12
 298              		.cfi_offset 5, -8
 299              		.cfi_offset 14, -4
 300              		.loc 1 125 0
 301 0002 051C     		mov	r5, r0
 302 0004 0024     		mov	r4, #0
 303              	.LVL26:
 304              	.L19:
 305 0006 6300     		lsl	r3, r4, #1
 126:.\ssd1306x.c  ****     
 127:.\ssd1306x.c  ****     uint8_t ii;
 128:.\ssd1306x.c  ****     
 129:.\ssd1306x.c  ****     for( ii = 0; ii < _OLED_EQ_CHAN_CNT_; ii++ ){
 130:.\ssd1306x.c  ****         
 131:.\ssd1306x.c  ****         oled_update_channel_mag(ii, (int16_t)mag[ii]);
 306              		.loc 1 131 0 discriminator 3
 307 0008 20B2     		sxth	r0, r4
 308 000a E95E     		ldrsh	r1, [r5, r3]
 309 000c 0134     		add	r4, r4, #1
 310              	.LVL27:
 311 000e FFF7FEFF 		bl	oled_update_channel_mag
ARM GAS  C:\Users\User\AppData\Local\Temp\cchbw8OR.s 			page 9


 312              	.LVL28:
 129:.\ssd1306x.c  ****         
 313              		.loc 1 129 0 discriminator 3
 314 0012 102C     		cmp	r4, #16
 315 0014 F7D1     		bne	.L19
 132:.\ssd1306x.c  ****         
 133:.\ssd1306x.c  ****     }
 134:.\ssd1306x.c  ****     
 135:.\ssd1306x.c  **** }
 316              		.loc 1 135 0
 317              		@ sp needed
 318              	.LVL29:
 319 0016 38BD     		pop	{r3, r4, r5, pc}
 320              		.cfi_endproc
 321              	.LFE39:
 322              		.size	oled_update_channels_mag, .-oled_update_channels_mag
 323              		.section	.text.oled_update_channel,"ax",%progbits
 324              		.align	1
 325              		.global	oled_update_channel
 326              		.code	16
 327              		.thumb_func
 328              		.type	oled_update_channel, %function
 329              	oled_update_channel:
 330              	.LFB40:
 136:.\ssd1306x.c  **** 
 137:.\ssd1306x.c  **** /**
 138:.\ssd1306x.c  ****  * Method : oled_update_channel
 139:.\ssd1306x.c  ****  * Args   : -
 140:.\ssd1306x.c  ****  * Returns: -
 141:.\ssd1306x.c  ****  * Descr  : Update channel display. Basically redraws the whole display
 142:.\ssd1306x.c  ****  *
 143:.\ssd1306x.c  ****  */
 144:.\ssd1306x.c  **** void oled_update_channel(){
 331              		.loc 1 144 0
 332              		.cfi_startproc
 333 0000 10B5     		push	{r4, lr}
 334              		.cfi_def_cfa_offset 8
 335              		.cfi_offset 4, -8
 336              		.cfi_offset 14, -4
 145:.\ssd1306x.c  ****     
 146:.\ssd1306x.c  ****     uint8_t ii;
 147:.\ssd1306x.c  ****     
 148:.\ssd1306x.c  ****     display_clear();
 337              		.loc 1 148 0
 338 0002 FFF7FEFF 		bl	display_clear
 339              	.LVL30:
 340 0006 0024     		mov	r4, #0
 341              	.LVL31:
 342              	.L21:
 149:.\ssd1306x.c  ****     
 150:.\ssd1306x.c  ****     for( ii = 0; ii < _OLED_EQ_CHAN_CNT_; ii++ ){
 151:.\ssd1306x.c  ****         
 152:.\ssd1306x.c  ****         oled_draw_channel2(_oled_eq_chan_tab_[ii], WHITE);
 343              		.loc 1 152 0 discriminator 3
 344 0008 074B     		ldr	r3, .L22
 345 000a 0121     		mov	r1, #1
 346 000c 1B68     		ldr	r3, [r3]
ARM GAS  C:\Users\User\AppData\Local\Temp\cchbw8OR.s 			page 10


 347 000e 1A5B     		ldrh	r2, [r3, r4]
 348 0010 1B19     		add	r3, r3, r4
 349 0012 5888     		ldrh	r0, [r3, #2]
 350 0014 0434     		add	r4, r4, #4
 351 0016 0004     		lsl	r0, r0, #16
 352 0018 1043     		orr	r0, r2
 353 001a FFF7FEFF 		bl	oled_draw_channel2
 354              	.LVL32:
 150:.\ssd1306x.c  ****         
 355              		.loc 1 150 0 discriminator 3
 356 001e 402C     		cmp	r4, #64
 357 0020 F2D1     		bne	.L21
 153:.\ssd1306x.c  ****         
 154:.\ssd1306x.c  ****     }
 155:.\ssd1306x.c  ****     
 156:.\ssd1306x.c  ****     display_update();
 358              		.loc 1 156 0
 359 0022 FFF7FEFF 		bl	display_update
 360              	.LVL33:
 157:.\ssd1306x.c  ****     
 158:.\ssd1306x.c  **** }
 361              		.loc 1 158 0
 362              		@ sp needed
 363 0026 10BD     		pop	{r4, pc}
 364              	.L23:
 365              		.align	2
 366              	.L22:
 367 0028 00000000 		.word	_oled_eq_chan_tab_
 368              		.cfi_endproc
 369              	.LFE40:
 370              		.size	oled_update_channel, .-oled_update_channel
 371              		.global	__aeabi_dmul
 372              		.section	.text.oled_normalize_channel_mag,"ax",%progbits
 373              		.align	1
 374              		.global	oled_normalize_channel_mag
 375              		.code	16
 376              		.thumb_func
 377              		.type	oled_normalize_channel_mag, %function
 378              	oled_normalize_channel_mag:
 379              	.LFB41:
 159:.\ssd1306x.c  **** 
 160:.\ssd1306x.c  **** /**
 161:.\ssd1306x.c  ****  * Method : oled_normalize_channel_mag
 162:.\ssd1306x.c  ****  * Args   : double mag
 163:.\ssd1306x.c  ****  * Returns: double
 164:.\ssd1306x.c  ****  * Descr  : Normalize channel magnitude to follow a 20 log scale
 165:.\ssd1306x.c  ****  *
 166:.\ssd1306x.c  ****  */
 167:.\ssd1306x.c  **** double oled_normalize_channel_mag( double mag ){
 380              		.loc 1 167 0
 381              		.cfi_startproc
 382              	.LVL34:
 383 0000 08B5     		push	{r3, lr}
 384              		.cfi_def_cfa_offset 8
 385              		.cfi_offset 3, -8
 386              		.cfi_offset 14, -4
 168:.\ssd1306x.c  ****     
ARM GAS  C:\Users\User\AppData\Local\Temp\cchbw8OR.s 			page 11


 169:.\ssd1306x.c  ****     double res;
 170:.\ssd1306x.c  ****     
 171:.\ssd1306x.c  ****     res = 20*log(mag);
 387              		.loc 1 171 0
 388 0002 FFF7FEFF 		bl	log
 389              	.LVL35:
 390 0006 0022     		mov	r2, #0
 391 0008 014B     		ldr	r3, .L25
 392 000a FFF7FEFF 		bl	__aeabi_dmul
 393              	.LVL36:
 172:.\ssd1306x.c  ****     
 173:.\ssd1306x.c  ****     return res;
 174:.\ssd1306x.c  ****     
 175:.\ssd1306x.c  **** }
 394              		.loc 1 175 0
 395              		@ sp needed
 396 000e 08BD     		pop	{r3, pc}
 397              	.L26:
 398              		.align	2
 399              	.L25:
 400 0010 00003440 		.word	1077149696
 401              		.cfi_endproc
 402              	.LFE41:
 403              		.size	oled_normalize_channel_mag, .-oled_normalize_channel_mag
 404              		.global	__aeabi_dcmplt
 405              		.global	__aeabi_ddiv
 406              		.global	__aeabi_i2d
 407              		.global	__aeabi_d2iz
 408              		.section	.text.oled_normalize_channels_mag,"ax",%progbits
 409              		.align	1
 410              		.global	oled_normalize_channels_mag
 411              		.code	16
 412              		.thumb_func
 413              		.type	oled_normalize_channels_mag, %function
 414              	oled_normalize_channels_mag:
 415              	.LFB42:
 176:.\ssd1306x.c  **** 
 177:.\ssd1306x.c  **** /**
 178:.\ssd1306x.c  ****  * Method : oled_normalize_channels_mag
 179:.\ssd1306x.c  ****  * Args   : double* mag
 180:.\ssd1306x.c  ****  *          int16_t* nmag 
 181:.\ssd1306x.c  ****  * Returns: -
 182:.\ssd1306x.c  ****  * Descr  : Normalize all channel magnitudes and log-limits them
 183:.\ssd1306x.c  ****  *
 184:.\ssd1306x.c  ****  */
 185:.\ssd1306x.c  **** void oled_normalize_channels_mag( double* mag, int16_t* nmag ){
 416              		.loc 1 185 0
 417              		.cfi_startproc
 418              	.LVL37:
 419 0000 F0B5     		push	{r4, r5, r6, r7, lr}
 420              		.cfi_def_cfa_offset 20
 421              		.cfi_offset 4, -20
 422              		.cfi_offset 5, -16
 423              		.cfi_offset 6, -12
 424              		.cfi_offset 7, -8
 425              		.cfi_offset 14, -4
 426 0002 071C     		mov	r7, r0
ARM GAS  C:\Users\User\AppData\Local\Temp\cchbw8OR.s 			page 12


 427 0004 041C     		mov	r4, r0
 428 0006 051C     		mov	r5, r0
 429 0008 061C     		mov	r6, r0
 430 000a 87B0     		sub	sp, sp, #28
 431              		.cfi_def_cfa_offset 48
 432              		.loc 1 185 0
 433 000c 0591     		str	r1, [sp, #20]
 434 000e 8037     		add	r7, r7, #128
 435              	.LVL38:
 436              	.L28:
 186:.\ssd1306x.c  ****     
 187:.\ssd1306x.c  ****     uint8 ii;
 188:.\ssd1306x.c  ****     double max = 0;
 189:.\ssd1306x.c  ****     
 190:.\ssd1306x.c  ****     for(ii=0; ii<_OLED_EQ_CHAN_CNT_; ii++){
 191:.\ssd1306x.c  ****         mag[ii] = oled_normalize_channel_mag(mag[ii]);
 437              		.loc 1 191 0 discriminator 3
 438 0010 3068     		ldr	r0, [r6]
 439 0012 7168     		ldr	r1, [r6, #4]
 440 0014 FFF7FEFF 		bl	oled_normalize_channel_mag
 441              	.LVL39:
 442 0018 03C6     		stmia	r6!, {r0, r1}
 190:.\ssd1306x.c  ****         mag[ii] = oled_normalize_channel_mag(mag[ii]);
 443              		.loc 1 190 0 discriminator 3
 444 001a BE42     		cmp	r6, r7
 445 001c F8D1     		bne	.L28
 446 001e 0022     		mov	r2, #0
 447 0020 0023     		mov	r3, #0
 448 0022 261C     		mov	r6, r4
 449 0024 0092     		str	r2, [sp]
 450 0026 0193     		str	r3, [sp, #4]
 451              	.LVL40:
 452              	.L30:
 192:.\ssd1306x.c  ****     }
 193:.\ssd1306x.c  ****     for(ii=0; ii<_OLED_EQ_CHAN_CNT_; ii++){
 194:.\ssd1306x.c  ****         max = (max < mag[ii]) ? mag[ii]:max;
 453              		.loc 1 194 0
 454 0028 3268     		ldr	r2, [r6]
 455 002a 7368     		ldr	r3, [r6, #4]
 456 002c 0098     		ldr	r0, [sp]
 457 002e 0199     		ldr	r1, [sp, #4]
 458 0030 0292     		str	r2, [sp, #8]
 459 0032 0393     		str	r3, [sp, #12]
 460 0034 FFF7FEFF 		bl	__aeabi_dcmplt
 461              	.LVL41:
 462 0038 0028     		cmp	r0, #0
 463 003a 03D0     		beq	.L29
 464 003c 029A     		ldr	r2, [sp, #8]
 465 003e 039B     		ldr	r3, [sp, #12]
 466 0040 0092     		str	r2, [sp]
 467 0042 0193     		str	r3, [sp, #4]
 468              	.LVL42:
 469              	.L29:
 470 0044 0836     		add	r6, r6, #8
 193:.\ssd1306x.c  ****         max = (max < mag[ii]) ? mag[ii]:max;
 471              		.loc 1 193 0 discriminator 4
 472 0046 BE42     		cmp	r6, r7
ARM GAS  C:\Users\User\AppData\Local\Temp\cchbw8OR.s 			page 13


 473 0048 EED1     		bne	.L30
 474              	.LVL43:
 475              	.L31:
 195:.\ssd1306x.c  ****     }
 196:.\ssd1306x.c  ****     for(ii=0; ii<_OLED_EQ_CHAN_CNT_; ii++){
 197:.\ssd1306x.c  ****         mag[ii] = (mag[ii]/max)*((double)gfx_height());
 476              		.loc 1 197 0 discriminator 3
 477 004a 009A     		ldr	r2, [sp]
 478 004c 019B     		ldr	r3, [sp, #4]
 479 004e 2068     		ldr	r0, [r4]
 480 0050 6168     		ldr	r1, [r4, #4]
 481 0052 FFF7FEFF 		bl	__aeabi_ddiv
 482              	.LVL44:
 483 0056 0290     		str	r0, [sp, #8]
 484 0058 0391     		str	r1, [sp, #12]
 485 005a FFF7FEFF 		bl	gfx_height
 486              	.LVL45:
 487 005e FFF7FEFF 		bl	__aeabi_i2d
 488              	.LVL46:
 489 0062 021C     		mov	r2, r0
 490 0064 0B1C     		mov	r3, r1
 491 0066 0298     		ldr	r0, [sp, #8]
 492 0068 0399     		ldr	r1, [sp, #12]
 493 006a FFF7FEFF 		bl	__aeabi_dmul
 494              	.LVL47:
 495 006e 03C4     		stmia	r4!, {r0, r1}
 196:.\ssd1306x.c  ****         mag[ii] = (mag[ii]/max)*((double)gfx_height());
 496              		.loc 1 196 0 discriminator 3
 497 0070 BC42     		cmp	r4, r7
 498 0072 EAD1     		bne	.L31
 499 0074 059C     		ldr	r4, [sp, #20]
 500              	.LVL48:
 501              	.L32:
 198:.\ssd1306x.c  ****     }
 199:.\ssd1306x.c  ****     for(ii=0; ii<_OLED_EQ_CHAN_CNT_; ii++){
 200:.\ssd1306x.c  ****         nmag[ii] = (int16_t) mag[ii];
 502              		.loc 1 200 0 discriminator 3
 503 0076 03CD     		ldmia	r5!, {r0, r1}
 504 0078 FFF7FEFF 		bl	__aeabi_d2iz
 505              	.LVL49:
 506 007c 2080     		strh	r0, [r4]
 507 007e 0234     		add	r4, r4, #2
 199:.\ssd1306x.c  ****         nmag[ii] = (int16_t) mag[ii];
 508              		.loc 1 199 0 discriminator 3
 509 0080 BD42     		cmp	r5, r7
 510 0082 F8D1     		bne	.L32
 201:.\ssd1306x.c  ****     }
 202:.\ssd1306x.c  ****     
 203:.\ssd1306x.c  **** }
 511              		.loc 1 203 0
 512 0084 07B0     		add	sp, sp, #28
 513              	.LVL50:
 514              		@ sp needed
 515              	.LVL51:
 516 0086 F0BD     		pop	{r4, r5, r6, r7, pc}
 517              		.cfi_endproc
 518              	.LFE42:
ARM GAS  C:\Users\User\AppData\Local\Temp\cchbw8OR.s 			page 14


 519              		.size	oled_normalize_channels_mag, .-oled_normalize_channels_mag
 520              		.comm	_oled_eq_chan_tab_,4,4
 521              		.text
 522              	.Letext0:
 523              		.file 2 "d:\\cypress\\psoc creator\\3.3\\psoc creator\\import\\gnu\\arm\\4.9.3\\arm-none-eabi\\inc
 524              		.file 3 "d:\\cypress\\psoc creator\\3.3\\psoc creator\\import\\gnu\\arm\\4.9.3\\arm-none-eabi\\inc
 525              		.file 4 "Generated_Source\\PSoC4/cytypes.h"
 526              		.file 5 "d:\\cypress\\psoc creator\\3.3\\psoc creator\\import\\gnu\\arm\\4.9.3\\lib\\gcc\\arm-none
 527              		.file 6 ".\\ssd1306x.h"
 528              		.file 7 ".\\ssd1306.h"
 529              		.file 8 "d:\\cypress\\psoc creator\\3.3\\psoc creator\\import\\gnu\\arm\\4.9.3\\arm-none-eabi\\inc
 530              		.file 9 "d:\\cypress\\psoc creator\\3.3\\psoc creator\\import\\gnu\\arm\\4.9.3\\arm-none-eabi\\inc