ARM GAS  C:\Users\ipfajard\AppData\Local\Temp\ccL7tIwn.s 			page 1


   1              		.syntax unified
   2              		.cpu cortex-m3
   3              		.fpu softvfp
   4              		.eabi_attribute 20, 1
   5              		.eabi_attribute 21, 1
   6              		.eabi_attribute 23, 3
   7              		.eabi_attribute 24, 1
   8              		.eabi_attribute 25, 1
   9              		.eabi_attribute 26, 1
  10              		.eabi_attribute 30, 1
  11              		.eabi_attribute 34, 1
  12              		.eabi_attribute 18, 4
  13              		.thumb
  14              		.syntax unified
  15              		.file	"main.c"
  16              		.text
  17              	.Ltext0:
  18              		.cfi_sections	.debug_frame
  19              		.section	.text.isr_sec,"ax",%progbits
  20              		.align	2
  21              		.global	isr_sec
  22              		.thumb
  23              		.thumb_func
  24              		.type	isr_sec, %function
  25              	isr_sec:
  26              	.LFB65:
  27              		.file 1 "main.c"
   1:main.c        **** /*****************************************************************************
   2:main.c        **** * File Name: main.c
   3:main.c        **** *
   4:main.c        **** * Created: 5/16/18
   5:main.c        **** * Revised: 5/17/18
   6:main.c        **** * Revised by: Stephanie Salazar
   7:main.c        **** *
   8:main.c        **** * Description: 
   9:main.c        **** *  This project communicates via UART in Full duplex mode. The UART has
  10:main.c        **** * receiver(RX) and transmitter(TX)]. The data received by RX is used for
  11:main.c        **** * FSK transmission. 
  12:main.c        **** *
  13:main.c        **** *  This code has been modified from PSoC's UART_Full_Duplex example code.
  14:main.c        **** *  This code example project demonstrates how to communicate between 
  15:main.c        **** *  the PC and UART component in Full duplex mode. The UART has receiver(RX) and 
  16:main.c        **** *  transmitter(TX) part. The data received by RX is looped back to the TX.
  17:main.c        **** *
  18:main.c        **** *******************************************************************************
  19:main.c        **** * Copyright (2017), Cypress Semiconductor Corporation. All rights reserved.
  20:main.c        **** *******************************************************************************
  21:main.c        **** *
  22:main.c        **** * Related Document: 
  23:main.c        **** * CE210741_UART_Full_Duplex_and_printf_Support_with_PSoC_3_4_5LP.pdf
  24:main.c        **** *
  25:main.c        **** * Hardware Dependency: See 
  26:main.c        **** * CE210741_UART_Full_Duplex_and_printf_Support_with_PSoC_3_4_5LP.pdf
  27:main.c        **** *
  28:main.c        **** *******************************************************************************
  29:main.c        **** */
  30:main.c        **** 
ARM GAS  C:\Users\ipfajard\AppData\Local\Temp\ccL7tIwn.s 			page 2


  31:main.c        **** #include <project.h>
  32:main.c        **** #include <stdio.h>
  33:main.c        **** #include "stdlib.h"
  34:main.c        **** 
  35:main.c        **** /***************************************
  36:main.c        **** * Conditional Compilation Parameters
  37:main.c        **** ***************************************/
  38:main.c        **** #define UART    ENABLED
  39:main.c        **** 
  40:main.c        **** /* Character LCD String Length */
  41:main.c        **** #define LINE_STR_LENGTH     (20u)
  42:main.c        **** /* Change data size for sending longer data (n-1) */
  43:main.c        **** #define DATA_SIZE           (7u)
  44:main.c        **** /* Change max crabs to correlate with data size 2^(n) - 1 */
  45:main.c        **** #define MAX_CRABS           (15)
  46:main.c        **** /* Error used for user error */
  47:main.c        **** #define ERROR               (333u)
  48:main.c        **** 
  49:main.c        **** /*Definitions*/
  50:main.c        **** #define CLOCK_FREQ 1000000
  51:main.c        **** #define FREQ(x) (CLOCK_FREQ/x)-1
  52:main.c        **** 
  53:main.c        **** /*PWM Frequencies*/
  54:main.c        **** #define ONE_FREQ     42000
  55:main.c        **** #define ZERO_FREQ    37000
  56:main.c        **** #define AUDIBLE_FREQ 12000
  57:main.c        **** 
  58:main.c        **** #define BIT_0_MASK 0x01
  59:main.c        **** #define BIT_1_MASK 0x02
  60:main.c        **** #define BIT_2_MASK 0x04
  61:main.c        **** #define BIT_3_MASK 0x08
  62:main.c        **** #define BIT_4_MASK 0x10
  63:main.c        **** #define BIT_5_MASK 0x20
  64:main.c        **** #define BIT_6_MASK 0x40
  65:main.c        **** #define BIT_7_MASK 0x80
  66:main.c        **** 
  67:main.c        **** #define ZERO              0x0
  68:main.c        **** #define ONE               0x1
  69:main.c        **** #define TRUE              0x1
  70:main.c        **** #define FALSE             0x0
  71:main.c        **** #define ENABLED           1u
  72:main.c        **** #define DISABLED          0u
  73:main.c        **** #define DATA_LENGTH       4
  74:main.c        **** #define DECODE_VALUE      0x01
  75:main.c        **** #define PREFIX_BIT_LENGTH 6
  76:main.c        **** #define PREFIX_MESSAGE    0xFF
  77:main.c        **** #define FiveSecs 5000
  78:main.c        **** #define ON  1
  79:main.c        **** #define OFF 0
  80:main.c        **** 
  81:main.c        **** /*Function Prototypes*/
  82:main.c        **** int Data(unsigned int hex_value, int bT);
  83:main.c        **** int Decode(unsigned int hex_value, int bT);
  84:main.c        **** int PreFix(unsigned int hex_value, int prefixCount);
  85:main.c        **** void goToSleep(void);
  86:main.c        **** void wakeUp(void);
  87:main.c        **** 
ARM GAS  C:\Users\ipfajard\AppData\Local\Temp\ccL7tIwn.s 			page 3


  88:main.c        **** CY_ISR_PROTO(isr_sec); // High F Interrupt
  89:main.c        **** CY_ISR_PROTO(watchDogCheck); //reset watchDog timer before reset
  90:main.c        **** CY_ISR_PROTO(RxIsr); // High F Interrupt
  91:main.c        **** CY_ISR_PROTO(wakeUpIsr); // High F Interrupt
  92:main.c        **** 
  93:main.c        **** /*Global Variables*/
  94:main.c        **** int error = 0; // flag for input error
  95:main.c        **** int i = 2; // to iterate through data array
  96:main.c        **** uint16 count;
  97:main.c        **** char8 lineStr[LINE_STR_LENGTH];
  98:main.c        **** char8 data[LINE_STR_LENGTH];
  99:main.c        **** uint8 newDataflag = 0;
 100:main.c        **** static int bitTime = 0;
 101:main.c        **** static int prefixTime = 0;
 102:main.c        **** 
 103:main.c        **** /* UART Global Variables */
 104:main.c        **** uint8 errorStatus = 0u;
 105:main.c        **** uint8 crabsToSend = 1;
 106:main.c        **** 
 107:main.c        **** 
 108:main.c        **** 
 109:main.c        **** 
 110:main.c        **** 
 111:main.c        **** /*******************************************************************************
 112:main.c        **** * Function Name: main()
 113:main.c        **** *******************************************************************************/
 114:main.c        **** int main()
 115:main.c        **** {
 116:main.c        ****     /*Variable initializations*/
 117:main.c        ****     int bitCase = 0;
 118:main.c        ****     int data_turn = 0;
 119:main.c        **** 
 120:main.c        **** #if(UART == ENABLED)
 121:main.c        ****     isr_rx_StartEx(RxIsr);
 122:main.c        **** #endif /* INTERRUPT_CODE_ENABLED == ENABLED */
 123:main.c        ****     
 124:main.c        ****     /* Enable global interrupts. */   
 125:main.c        **** 
 126:main.c        ****         
 127:main.c        **** 
 128:main.c        ****     CyGlobalIntEnable;
 129:main.c        ****     CyWdtStart(CYWDT_2_TICKS, CYWDT_LPMODE_NOCHANGE); 
 130:main.c        ****     checkWatchDogTimer_Start();
 131:main.c        ****     watchDogCheck_StartEx(watchDogCheck);
 132:main.c        ****     
 133:main.c        ****     
 134:main.c        ****     /*Block initializations*/
 135:main.c        ****     
 136:main.c        ****     
 137:main.c        ****     UART_Start(); 
 138:main.c        ****     LCD_Start();
 139:main.c        ****     PWM_Modulator_Start();
 140:main.c        ****     PWM_1_Start();
 141:main.c        ****     PWM_2_Start();
 142:main.c        ****     PWM_3_Start();
 143:main.c        ****     PWM_Switch_Timer_Start();
 144:main.c        ****     
ARM GAS  C:\Users\ipfajard\AppData\Local\Temp\ccL7tIwn.s 			page 4


 145:main.c        ****     isr_sec_StartEx(isr_sec);
 146:main.c        ****     Sleep_ISR_StartEx(wakeUpIsr);
 147:main.c        ****     
 148:main.c        **** 
 149:main.c        ****     
 150:main.c        ****     // Set PWM to AUDIBLE_FREQ
 151:main.c        ****     PWM_1_WritePeriod(FREQ(AUDIBLE_FREQ));
 152:main.c        ****     PWM_1_WriteCompare((FREQ(AUDIBLE_FREQ))/2); // Sets pulse width to half
 153:main.c        ****     
 154:main.c        ****     // Set PWM to ONE_FREQ
 155:main.c        ****     PWM_2_WritePeriod(FREQ(ONE_FREQ));
 156:main.c        ****     PWM_2_WriteCompare((FREQ(ONE_FREQ))/2); // Sets pulse width to half
 157:main.c        ****     
 158:main.c        ****     // Set PWM to ZERO_FREQ
 159:main.c        ****     PWM_3_WritePeriod(FREQ(ZERO_FREQ));
 160:main.c        ****     PWM_3_WriteCompare((FREQ(ZERO_FREQ))/2); // Sets pulse width to half
 161:main.c        ****     
 162:main.c        ****     /* Clear LCD line. */
 163:main.c        ****     //LCD_Position(0u, 0u);
 164:main.c        ****     //LCD_PrintString("                    ");
 165:main.c        **** 
 166:main.c        **** 
 167:main.c        **** 
 168:main.c        ****     for(;;)
 169:main.c        ****     {   
 170:main.c        ****           
 171:main.c        ****         
 172:main.c        ****           CyDelay(500);
 173:main.c        ****         
 174:main.c        **** //        sleepToggle_Write(OFF);
 175:main.c        **** //            /* Clear LCD line. */
 176:main.c        **** //        LCD_Position(0u, 0u);
 177:main.c        **** //        LCD_PrintString("                    ");
 178:main.c        **** //        
 179:main.c        **** //        LCD_Position(0u, 0u);
 180:main.c        **** //        LCD_PrintString("Start");
 181:main.c        **** //        CyDelay(2000);
 182:main.c        ****         
 183:main.c        ****         
 184:main.c        ****         
 185:main.c        ****         
 186:main.c        ****         
 187:main.c        ****         if(errorStatus != 0u)
 188:main.c        ****         {
 189:main.c        ****             /* Clear error status */
 190:main.c        ****             errorStatus = 0u;
 191:main.c        ****         }
 192:main.c        ****         switch(bitTime){
 193:main.c        ****             // ENCODE
 194:main.c        ****             case 0:
 195:main.c        ****                 bitCase = PreFix(PREFIX_MESSAGE , prefixTime);
 196:main.c        ****                 break; 
 197:main.c        ****             // DATA
 198:main.c        ****             case 1:
 199:main.c        ****             case 2:
 200:main.c        ****             case 3:
 201:main.c        ****             case 4:
ARM GAS  C:\Users\ipfajard\AppData\Local\Temp\ccL7tIwn.s 			page 5


 202:main.c        ****                 //rxData is data received from UART
 203:main.c        ****                 bitCase = Data(crabsToSend, bitTime); 
 204:main.c        ****                 break; 
 205:main.c        ****             // DECODE
 206:main.c        ****             case 5:    
 207:main.c        ****             case 6:
 208:main.c        ****             case 7:    
 209:main.c        ****             case 8:
 210:main.c        ****             case 9:
 211:main.c        ****             case 10:
 212:main.c        ****             case 11:
 213:main.c        ****             case 12:
 214:main.c        ****                 bitCase = Decode(DECODE_VALUE, bitTime);
 215:main.c        ****                 break;
 216:main.c        ****             case 13:
 217:main.c        ****                 // Turn sending off until new data
 218:main.c        ****                 newDataflag = 0;
 219:main.c        ****                 //encode used to transmit 7 1's for the prefix 
 220:main.c        ****                 //reset here to be ready for case 0 
 221:main.c        ****                 prefixTime = 0;
 222:main.c        ****                 data_turn++;
 223:main.c        ****                 
 224:main.c        ****                 goToSleep();
 225:main.c        ****                 SleepTimer_Start();
 226:main.c        ****                 // PSoC Sleep command. To adjust sleep time, change in the hardware
 227:main.c        ****                 //  block. No sleep time parameters taken in PSoC5LP.
 228:main.c        ****                 //  PM_SLEEP_TIME_NONE is a relic of PSoC3
 229:main.c        ****                 CyPmSleep(PM_SLEEP_TIME_NONE, PM_SLEEP_SRC_CTW);
 230:main.c        ****                 
 231:main.c        **** #if(UART == ENABLED)
 232:main.c        ****                 if (data_turn == DATA_LENGTH) {
 233:main.c        ****                     data_turn = 0;
 234:main.c        ****                 }
 235:main.c        ****                 crabsToSend <<= 1; 
 236:main.c        **** #else 
 237:main.c        ****                 //Once data to be sent can't be contained in a nibble, reset to 0x1
 238:main.c        ****                 if (data_turn == DATA_LENGTH) {
 239:main.c        ****                     data_turn = 0;
 240:main.c        ****                     crabsToSend = ONE;
 241:main.c        ****                 }
 242:main.c        **** #endif /* UART == ENABLED */
 243:main.c        **** 
 244:main.c        ****                 PWM_Modulator_Stop();
 245:main.c        ****                 // Turn High Voltage off while delaying
 246:main.c        ****                 PWM_Switch_Timer_Stop();
 247:main.c        ****                 // Turn High Voltage Back On
 248:main.c        ****                 HighVoltage_Write(0);
 249:main.c        ****                 CyDelay(20);
 250:main.c        ****                 SignalBase_Write(0);
 251:main.c        ****                 
 252:main.c        ****                 goToSleep();
 253:main.c        ****  
 254:main.c        **** #if(UART == ENABLED)
 255:main.c        ****                 /* Wait for new data before sending out data */
 256:main.c        ****                 while(newDataflag == 0){
 257:main.c        ****                      SleepTimer_Start();
 258:main.c        ****                     // PSoC Sleep command. To adjust sleep time, change in the hardware
ARM GAS  C:\Users\ipfajard\AppData\Local\Temp\ccL7tIwn.s 			page 6


 259:main.c        ****                     //  block. No sleep time parameters taken in PSoC5LP.
 260:main.c        ****                     //  PM_SLEEP_TIME_NONE is a relic of PSoC3
 261:main.c        ****                     CyPmSleep(PM_SLEEP_TIME_NONE, PM_SLEEP_SRC_CTW);                
 262:main.c        **** 
 263:main.c        ****                 }
 264:main.c        ****                 
 265:main.c        ****                 //New Transmission, wake up PSOC
 266:main.c        ****                 SleepTimer_Stop();
 267:main.c        ****                 wakeUp(); 
 268:main.c        **** #else 
 269:main.c        ****                 /* Delay in ms and send data after without waiting for UART */
 270:main.c        ****                 CyDelay(1000);
 271:main.c        **** #endif /* UART == ENABLED */
 272:main.c        **** 
 273:main.c        ****                 /* New data: Turn on circuitry and begin transmission */
 274:main.c        ****                 HighVoltage_Write(1);
 275:main.c        ****                 CyDelay(20); // Give voltage booster time to charge up
 276:main.c        ****                 SignalBase_Write(1);
 277:main.c        ****                 /* Reset PWM blocks and bitTime for new transmission */
 278:main.c        ****                 bitTime = 0; 
 279:main.c        ****                 PWM_Modulator_Start();
 280:main.c        ****                 PWM_Switch_Timer_Start();
 281:main.c        ****                 break;
 282:main.c        ****             default:
 283:main.c        ****                 break; 
 284:main.c        ****          } //end switch(bitTime) 
 285:main.c        ****         
 286:main.c        ****         /* Send out frequency depending on bit is 1 or 0 */
 287:main.c        ****         if(bitCase == ONE){
 288:main.c        ****             PWM_Modulator_WritePeriod(FREQ(ONE_FREQ));
 289:main.c        ****             PWM_Modulator_WriteCompare((FREQ(ONE_FREQ))/2); // Sets pulse width
 290:main.c        ****         }else if(bitCase == ZERO){
 291:main.c        ****             PWM_Modulator_WritePeriod(FREQ(ZERO_FREQ));
 292:main.c        ****             PWM_Modulator_WriteCompare((FREQ(ZERO_FREQ))/2); // Sets pulse width
 293:main.c        ****         }
 294:main.c        ****         
 295:main.c        **** 
 296:main.c        ****         
 297:main.c        ****        
 298:main.c        ****        
 299:main.c        ****     }
 300:main.c        **** }
 301:main.c        **** /*******************************************************************************
 302:main.c        **** * Function Name: isr_sec
 303:main.c        **** ********************************************************************************
 304:main.c        **** *
 305:main.c        **** * Summary:
 306:main.c        **** * Interrupt triggered on a 0.1s timer timeout
 307:main.c        **** * Will increment prefixTime counter for the 1st 8 bits
 308:main.c        **** * Then move on to incrementing the message bit counter
 309:main.c        **** *
 310:main.c        **** * Parameters:
 311:main.c        **** *  None.
 312:main.c        **** *
 313:main.c        **** * Return:
 314:main.c        **** *  None.
 315:main.c        **** *
ARM GAS  C:\Users\ipfajard\AppData\Local\Temp\ccL7tIwn.s 			page 7


 316:main.c        **** *******************************************************************************/
 317:main.c        **** CY_ISR(isr_sec)
 318:main.c        **** {
  28              		.loc 1 318 0
  29              		.cfi_startproc
  30              		@ args = 0, pretend = 0, frame = 0
  31              		@ frame_needed = 0, uses_anonymous_args = 0
  32              		@ link register save eliminated.
 319:main.c        ****     if((bitTime == 0) && (prefixTime <= PREFIX_BIT_LENGTH)){
  33              		.loc 1 319 0
  34 0000 094B     		ldr	r3, .L4
  35 0002 1B68     		ldr	r3, [r3]
  36 0004 3BB9     		cbnz	r3, .L2
  37              		.loc 1 319 0 is_stmt 0 discriminator 1
  38 0006 084A     		ldr	r2, .L4
  39 0008 5268     		ldr	r2, [r2, #4]
  40 000a 062A     		cmp	r2, #6
  41 000c 03DC     		bgt	.L2
 320:main.c        ****         prefixTime++;
  42              		.loc 1 320 0 is_stmt 1
  43 000e 0132     		adds	r2, r2, #1
  44 0010 054B     		ldr	r3, .L4
  45 0012 5A60     		str	r2, [r3, #4]
  46 0014 7047     		bx	lr
  47              	.L2:
 321:main.c        ****     }
 322:main.c        ****     else if(prefixTime > PREFIX_BIT_LENGTH){
  48              		.loc 1 322 0
  49 0016 044A     		ldr	r2, .L4
  50 0018 5268     		ldr	r2, [r2, #4]
  51 001a 062A     		cmp	r2, #6
  52 001c 02DD     		ble	.L1
 323:main.c        ****         bitTime++;
  53              		.loc 1 323 0
  54 001e 0133     		adds	r3, r3, #1
  55 0020 014A     		ldr	r2, .L4
  56 0022 1360     		str	r3, [r2]
  57              	.L1:
  58 0024 7047     		bx	lr
  59              	.L5:
  60 0026 00BF     		.align	2
  61              	.L4:
  62 0028 00000000 		.word	.LANCHOR0
  63              		.cfi_endproc
  64              	.LFE65:
  65              		.size	isr_sec, .-isr_sec
  66              		.section	.text.watchDogCheck,"ax",%progbits
  67              		.align	2
  68              		.global	watchDogCheck
  69              		.thumb
  70              		.thumb_func
  71              		.type	watchDogCheck, %function
  72              	watchDogCheck:
  73              	.LFB66:
 324:main.c        ****     }
 325:main.c        **** }//end CY_ISR(isr_sec)
 326:main.c        **** /*******************************************************************************
ARM GAS  C:\Users\ipfajard\AppData\Local\Temp\ccL7tIwn.s 			page 8


 327:main.c        **** * Function Name: watchDogCheck
 328:main.c        **** ********************************************************************************
 329:main.c        **** *
 330:main.c        **** * Summary:
 331:main.c        **** * Reset watchDog timer every 2.1ms
 332:main.c        **** * Watchdog should reset system between 12 - 24ms
 333:main.c        **** * Should not get triggered if system experiencing drift 
 334:main.c        **** *
 335:main.c        **** * Parameters:
 336:main.c        **** *  None.
 337:main.c        **** *
 338:main.c        **** * Return:
 339:main.c        **** *  None.
 340:main.c        **** *
 341:main.c        **** *******************************************************************************/
 342:main.c        **** CY_ISR(watchDogCheck){
  74              		.loc 1 342 0
  75              		.cfi_startproc
  76              		@ args = 0, pretend = 0, frame = 0
  77              		@ frame_needed = 0, uses_anonymous_args = 0
  78 0000 08B5     		push	{r3, lr}
  79              		.cfi_def_cfa_offset 8
  80              		.cfi_offset 3, -8
  81              		.cfi_offset 14, -4
 343:main.c        ****     
 344:main.c        ****     //CyDelay(100);
 345:main.c        ****     CyWdtClear(); 
  82              		.loc 1 345 0
  83 0002 FFF7FEFF 		bl	CyWdtClear
  84              	.LVL0:
  85 0006 08BD     		pop	{r3, pc}
  86              		.cfi_endproc
  87              	.LFE66:
  88              		.size	watchDogCheck, .-watchDogCheck
  89              		.section	.text.RxIsr,"ax",%progbits
  90              		.align	2
  91              		.global	RxIsr
  92              		.thumb
  93              		.thumb_func
  94              		.type	RxIsr, %function
  95              	RxIsr:
  96              	.LFB67:
 346:main.c        **** 
 347:main.c        ****         
 348:main.c        **** 
 349:main.c        **** }
 350:main.c        **** 
 351:main.c        **** /*******************************************************************************
 352:main.c        **** * Function Name: RxIsr
 353:main.c        **** ********************************************************************************
 354:main.c        **** *
 355:main.c        **** * Summary:
 356:main.c        **** *  Interrupt Service Routine for RX portion of the UART taken from
 357:main.c        **** *  example code and edited for storing data to send
 358:main.c        **** *
 359:main.c        **** * Parameters:
 360:main.c        **** *  None.
ARM GAS  C:\Users\ipfajard\AppData\Local\Temp\ccL7tIwn.s 			page 9


 361:main.c        **** *
 362:main.c        **** * Return:
 363:main.c        **** *  None.
 364:main.c        **** *
 365:main.c        **** *******************************************************************************/
 366:main.c        **** CY_ISR(RxIsr)
 367:main.c        **** {
  97              		.loc 1 367 0
  98              		.cfi_startproc
  99              		@ args = 0, pretend = 0, frame = 0
 100              		@ frame_needed = 0, uses_anonymous_args = 0
 101 0000 38B5     		push	{r3, r4, r5, lr}
 102              		.cfi_def_cfa_offset 16
 103              		.cfi_offset 3, -16
 104              		.cfi_offset 4, -12
 105              		.cfi_offset 5, -8
 106              		.cfi_offset 14, -4
 368:main.c        ****     uint8 rxStatus;         
 369:main.c        ****     newDataflag = 1;
 107              		.loc 1 369 0
 108 0002 0122     		movs	r2, #1
 109 0004 1A4B     		ldr	r3, .L13
 110 0006 1A72     		strb	r2, [r3, #8]
 111              	.L11:
 370:main.c        ****     do
 371:main.c        ****     {
 372:main.c        ****         /* Read receiver status register */
 373:main.c        ****         rxStatus = UART_RXSTATUS_REG;
 112              		.loc 1 373 0
 113 0008 1A4B     		ldr	r3, .L13+4
 114 000a 1B78     		ldrb	r3, [r3]	@ zero_extendqisi2
 115 000c DBB2     		uxtb	r3, r3
 116              	.LVL1:
 374:main.c        **** 
 375:main.c        ****         if((rxStatus & (UART_RX_STS_BREAK      | UART_RX_STS_PAR_ERROR |
 117              		.loc 1 375 0
 118 000e 13F01E0F 		tst	r3, #30
 119 0012 05D0     		beq	.L9
 376:main.c        ****                         UART_RX_STS_STOP_ERROR | UART_RX_STS_OVERRUN)) != 0u)
 377:main.c        ****         {
 378:main.c        ****             /* ERROR handling. */
 379:main.c        ****             errorStatus |= rxStatus & ( UART_RX_STS_BREAK      | UART_RX_STS_PAR_ERROR | 
 120              		.loc 1 379 0
 121 0014 1648     		ldr	r0, .L13
 122 0016 03F01E02 		and	r2, r3, #30
 123 001a 417A     		ldrb	r1, [r0, #9]	@ zero_extendqisi2
 124 001c 0A43     		orrs	r2, r2, r1
 125 001e 4272     		strb	r2, [r0, #9]
 126              	.L9:
 127 0020 03F02003 		and	r3, r3, #32
 128              	.LVL2:
 380:main.c        ****                                         UART_RX_STS_STOP_ERROR | UART_RX_STS_OVERRUN);
 381:main.c        ****         }
 382:main.c        ****         
 383:main.c        ****         if((rxStatus & UART_RX_STS_FIFO_NOTEMPTY) != 0u)
 129              		.loc 1 383 0
 130 0024 03F0FF04 		and	r4, r3, #255
ARM GAS  C:\Users\ipfajard\AppData\Local\Temp\ccL7tIwn.s 			page 10


 131 0028 F3B1     		cbz	r3, .L10
 384:main.c        ****         {
 385:main.c        ****             /* Read data from the RX data register */
 386:main.c        ****             crabsToSend = UART_RXDATA_REG;
 132              		.loc 1 386 0
 133 002a 134B     		ldr	r3, .L13+8
 134 002c 1B78     		ldrb	r3, [r3]	@ zero_extendqisi2
 135 002e DBB2     		uxtb	r3, r3
 136 0030 124A     		ldr	r2, .L13+12
 137 0032 1370     		strb	r3, [r2]
 387:main.c        ****             if(errorStatus == 0u)
 138              		.loc 1 387 0
 139 0034 0E4A     		ldr	r2, .L13
 140 0036 527A     		ldrb	r2, [r2, #9]	@ zero_extendqisi2
 141 0038 B2B9     		cbnz	r2, .L10
 388:main.c        ****             {
 389:main.c        ****                 /* Send data backward */
 390:main.c        ****                 UART_TXDATA_REG = crabsToSend;
 142              		.loc 1 390 0
 143 003a 114A     		ldr	r2, .L13+16
 144 003c 1370     		strb	r3, [r2]
 391:main.c        ****                 /* Clear LCD line. */
 392:main.c        ****                 LCD_Position(0u, 0u);
 145              		.loc 1 392 0
 146 003e 0021     		movs	r1, #0
 147 0040 0846     		mov	r0, r1
 148 0042 FFF7FEFF 		bl	LCD_Position
 149              	.LVL3:
 393:main.c        ****                 sprintf(data,"Crabs: %d", crabsToSend);
 150              		.loc 1 393 0
 151 0046 0F4D     		ldr	r5, .L13+20
 152 0048 0C4B     		ldr	r3, .L13+12
 153 004a 1A78     		ldrb	r2, [r3]	@ zero_extendqisi2
 154 004c 0E49     		ldr	r1, .L13+24
 155 004e 2846     		mov	r0, r5
 156 0050 FFF7FEFF 		bl	sprintf
 157              	.LVL4:
 394:main.c        ****                 LCD_PrintString("             ");
 158              		.loc 1 394 0
 159 0054 0D48     		ldr	r0, .L13+28
 160 0056 FFF7FEFF 		bl	LCD_PrintString
 161              	.LVL5:
 395:main.c        **** 
 396:main.c        ****                 /* Output string on LCD. */
 397:main.c        ****                 LCD_Position(0u, 0u);
 162              		.loc 1 397 0
 163 005a 0021     		movs	r1, #0
 164 005c 0846     		mov	r0, r1
 165 005e FFF7FEFF 		bl	LCD_Position
 166              	.LVL6:
 398:main.c        ****                 LCD_PrintString(data);
 167              		.loc 1 398 0
 168 0062 2846     		mov	r0, r5
 169 0064 FFF7FEFF 		bl	LCD_PrintString
 170              	.LVL7:
 171              	.L10:
 399:main.c        ****             }
ARM GAS  C:\Users\ipfajard\AppData\Local\Temp\ccL7tIwn.s 			page 11


 400:main.c        ****         }
 401:main.c        ****     }while((rxStatus & UART_RX_STS_FIFO_NOTEMPTY) != 0u);
 172              		.loc 1 401 0
 173 0068 002C     		cmp	r4, #0
 174 006a CDD1     		bne	.L11
 402:main.c        **** }// End RXIsr
 175              		.loc 1 402 0
 176 006c 38BD     		pop	{r3, r4, r5, pc}
 177              	.L14:
 178 006e 00BF     		.align	2
 179              	.L13:
 180 0070 00000000 		.word	.LANCHOR0
 181 0074 6C640040 		.word	1073767532
 182 0078 48650040 		.word	1073767752
 183 007c 00000000 		.word	.LANCHOR1
 184 0080 4B650040 		.word	1073767755
 185 0084 00000000 		.word	data
 186 0088 00000000 		.word	.LC0
 187 008c 0C000000 		.word	.LC1
 188              		.cfi_endproc
 189              	.LFE67:
 190              		.size	RxIsr, .-RxIsr
 191              		.section	.text.wakeUpIsr,"ax",%progbits
 192              		.align	2
 193              		.global	wakeUpIsr
 194              		.thumb
 195              		.thumb_func
 196              		.type	wakeUpIsr, %function
 197              	wakeUpIsr:
 198              	.LFB68:
 403:main.c        **** 
 404:main.c        **** /*******************************************************************************
 405:main.c        **** * Function Name: wakeUpIsr
 406:main.c        **** ********************************************************************************
 407:main.c        **** *
 408:main.c        **** * Summary:
 409:main.c        **** *  Clears sleep timer interrupt and
 410:main.c        **** *  toggles pin to show Sleep timer 
 411:main.c        **** *
 412:main.c        **** * Parameters:
 413:main.c        **** *  None.
 414:main.c        **** *
 415:main.c        **** * Return:
 416:main.c        **** *  None.
 417:main.c        **** *
 418:main.c        **** *******************************************************************************/
 419:main.c        **** 
 420:main.c        **** CY_ISR(wakeUpIsr){
 199              		.loc 1 420 0
 200              		.cfi_startproc
 201              		@ args = 0, pretend = 0, frame = 0
 202              		@ frame_needed = 0, uses_anonymous_args = 0
 203 0000 08B5     		push	{r3, lr}
 204              		.cfi_def_cfa_offset 8
 205              		.cfi_offset 3, -8
 206              		.cfi_offset 14, -4
 421:main.c        ****     SleepTimer_GetStatus(); // Clears the sleep timer interrupt
ARM GAS  C:\Users\ipfajard\AppData\Local\Temp\ccL7tIwn.s 			page 12


 207              		.loc 1 421 0
 208 0002 FFF7FEFF 		bl	SleepTimer_GetStatus
 209              	.LVL8:
 210 0006 08BD     		pop	{r3, pc}
 211              		.cfi_endproc
 212              	.LFE68:
 213              		.size	wakeUpIsr, .-wakeUpIsr
 214              		.section	.text.Data,"ax",%progbits
 215              		.align	2
 216              		.global	Data
 217              		.thumb
 218              		.thumb_func
 219              		.type	Data, %function
 220              	Data:
 221              	.LFB69:
 422:main.c        ****     //sleepToggle_Write(ON); //Turns pin on upon waking up.
 423:main.c        ****         /* Output string on LCD. */
 424:main.c        **** //    LCD_Position(0u, 0u);
 425:main.c        **** //    LCD_PrintString("                    ");
 426:main.c        **** //    LCD_Position(0u, 0u);
 427:main.c        **** //    LCD_PrintString("Awake");
 428:main.c        ****     
 429:main.c        **** 
 430:main.c        **** } //end CY_ISR(wakeUpIsr)
 431:main.c        ****     
 432:main.c        **** 
 433:main.c        **** 
 434:main.c        **** /*
 435:main.c        ****  * function: int Data(unsigned int hex_value, int bT)
 436:main.c        ****  * parameters: hex_value - a four bit value specifying what data you want to send
 437:main.c        ****  *             bT - the current bit time
 438:main.c        ****  * returns: bitCase - a high or low signal to be sent to an output pin
 439:main.c        ****  * description: This function takes in a hex value and sends it out a bit at a time as a high or
 440:main.c        ****  *  low signal depending on the bit time. Used only to set desired data nibble.
 441:main.c        ****  */
 442:main.c        **** int Data(unsigned int hex_value, int bT)
 443:main.c        **** {
 222              		.loc 1 443 0
 223              		.cfi_startproc
 224              		@ args = 0, pretend = 0, frame = 0
 225              		@ frame_needed = 0, uses_anonymous_args = 0
 226              		@ link register save eliminated.
 227              	.LVL9:
 444:main.c        ****     int bitCase;
 445:main.c        ****     switch(bT){
 228              		.loc 1 445 0
 229 0000 0139     		subs	r1, r1, #1
 230              	.LVL10:
 231 0002 0329     		cmp	r1, #3
 232 0004 0ED8     		bhi	.L18
 233 0006 DFE801F0 		tbb	[pc, r1]
 234              	.L20:
 235 000a 02       		.byte	(.L19-.L20)/2
 236 000b 05       		.byte	(.L21-.L20)/2
 237 000c 08       		.byte	(.L22-.L20)/2
 238 000d 0B       		.byte	(.L23-.L20)/2
 239              		.p2align 1
ARM GAS  C:\Users\ipfajard\AppData\Local\Temp\ccL7tIwn.s 			page 13


 240              	.L19:
 446:main.c        ****         case 1:
 447:main.c        ****             bitCase = (hex_value & BIT_3_MASK) >> 3;
 241              		.loc 1 447 0
 242 000e C0F3C003 		ubfx	r3, r0, #3, #1
 243              	.LVL11:
 448:main.c        ****             break; 
 244              		.loc 1 448 0
 245 0012 07E0     		b	.L18
 246              	.LVL12:
 247              	.L21:
 449:main.c        ****         case 2:
 450:main.c        ****             bitCase = (hex_value & BIT_2_MASK) >> 2;
 248              		.loc 1 450 0
 249 0014 C0F38003 		ubfx	r3, r0, #2, #1
 250              	.LVL13:
 451:main.c        ****             break; 
 251              		.loc 1 451 0
 252 0018 04E0     		b	.L18
 253              	.LVL14:
 254              	.L22:
 452:main.c        ****         case 3:
 453:main.c        ****             bitCase = (hex_value & BIT_1_MASK) >> 1;
 255              		.loc 1 453 0
 256 001a C0F34003 		ubfx	r3, r0, #1, #1
 257              	.LVL15:
 454:main.c        ****             break; 
 258              		.loc 1 454 0
 259 001e 01E0     		b	.L18
 260              	.LVL16:
 261              	.L23:
 455:main.c        ****         case 4:
 456:main.c        ****             bitCase = (hex_value & BIT_0_MASK);
 262              		.loc 1 456 0
 263 0020 00F00103 		and	r3, r0, #1
 264              	.LVL17:
 265              	.L18:
 457:main.c        ****             break;
 458:main.c        ****         default:
 459:main.c        ****             break;
 460:main.c        ****     } //end switch(bT)
 461:main.c        ****     return bitCase;
 462:main.c        **** }//end Data()
 266              		.loc 1 462 0
 267 0024 1846     		mov	r0, r3
 268              	.LVL18:
 269 0026 7047     		bx	lr
 270              		.cfi_endproc
 271              	.LFE69:
 272              		.size	Data, .-Data
 273              		.section	.text.Decode,"ax",%progbits
 274              		.align	2
 275              		.global	Decode
 276              		.thumb
 277              		.thumb_func
 278              		.type	Decode, %function
 279              	Decode:
ARM GAS  C:\Users\ipfajard\AppData\Local\Temp\ccL7tIwn.s 			page 14


 280              	.LFB70:
 463:main.c        **** 
 464:main.c        **** 
 465:main.c        **** /*
 466:main.c        ****  * function: int Decode(unsigned int hex_value, int bT)
 467:main.c        ****  * parameters: hex_value - an 8 bit (1 byte) value specifying what data you want to send
 468:main.c        ****  *             bT - the current bit time
 469:main.c        ****  * returns: bitCase - a high or low signal to be sent to an output pin
 470:main.c        ****  * description: This function takes in a hex value and sends it out a bit at a time as a high or
 471:main.c        ****  *  low signal depending on the bit time. Used only to set desired decode encryption.
 472:main.c        ****  */
 473:main.c        **** int Decode(unsigned int hex_value, int bT)
 474:main.c        **** {
 281              		.loc 1 474 0
 282              		.cfi_startproc
 283              		@ args = 0, pretend = 0, frame = 0
 284              		@ frame_needed = 0, uses_anonymous_args = 0
 285              		@ link register save eliminated.
 286              	.LVL19:
 475:main.c        ****     int bitCase;
 476:main.c        ****     switch(bT){
 287              		.loc 1 476 0
 288 0000 0539     		subs	r1, r1, #5
 289              	.LVL20:
 290 0002 0729     		cmp	r1, #7
 291 0004 1CD8     		bhi	.L25
 292 0006 DFE801F0 		tbb	[pc, r1]
 293              	.L27:
 294 000a 04       		.byte	(.L26-.L27)/2
 295 000b 07       		.byte	(.L28-.L27)/2
 296 000c 0A       		.byte	(.L29-.L27)/2
 297 000d 0D       		.byte	(.L30-.L27)/2
 298 000e 10       		.byte	(.L31-.L27)/2
 299 000f 13       		.byte	(.L32-.L27)/2
 300 0010 16       		.byte	(.L33-.L27)/2
 301 0011 19       		.byte	(.L34-.L27)/2
 302              		.p2align 1
 303              	.L26:
 477:main.c        ****         case 5:
 478:main.c        ****             bitCase = (hex_value & BIT_7_MASK) >> 7;
 304              		.loc 1 478 0
 305 0012 C0F3C013 		ubfx	r3, r0, #7, #1
 306              	.LVL21:
 479:main.c        ****             break;
 307              		.loc 1 479 0
 308 0016 13E0     		b	.L25
 309              	.LVL22:
 310              	.L28:
 480:main.c        ****         case 6:
 481:main.c        ****             bitCase = (hex_value & BIT_6_MASK) >> 6;
 311              		.loc 1 481 0
 312 0018 C0F38013 		ubfx	r3, r0, #6, #1
 313              	.LVL23:
 482:main.c        ****             break; 
 314              		.loc 1 482 0
 315 001c 10E0     		b	.L25
 316              	.LVL24:
ARM GAS  C:\Users\ipfajard\AppData\Local\Temp\ccL7tIwn.s 			page 15


 317              	.L29:
 483:main.c        ****         case 7:
 484:main.c        ****             bitCase = (hex_value & BIT_5_MASK) >> 5;
 318              		.loc 1 484 0
 319 001e C0F34013 		ubfx	r3, r0, #5, #1
 320              	.LVL25:
 485:main.c        ****             break; 
 321              		.loc 1 485 0
 322 0022 0DE0     		b	.L25
 323              	.LVL26:
 324              	.L30:
 486:main.c        ****         case 8:
 487:main.c        ****             bitCase = (hex_value & BIT_4_MASK) >> 4;
 325              		.loc 1 487 0
 326 0024 C0F30013 		ubfx	r3, r0, #4, #1
 327              	.LVL27:
 488:main.c        ****             break;
 328              		.loc 1 488 0
 329 0028 0AE0     		b	.L25
 330              	.LVL28:
 331              	.L31:
 489:main.c        ****         case 9:
 490:main.c        ****             bitCase = (hex_value & BIT_3_MASK) >> 3;
 332              		.loc 1 490 0
 333 002a C0F3C003 		ubfx	r3, r0, #3, #1
 334              	.LVL29:
 491:main.c        ****             break; 
 335              		.loc 1 491 0
 336 002e 07E0     		b	.L25
 337              	.LVL30:
 338              	.L32:
 492:main.c        ****         case 10:
 493:main.c        ****             bitCase = (hex_value & BIT_2_MASK) >> 2;
 339              		.loc 1 493 0
 340 0030 C0F38003 		ubfx	r3, r0, #2, #1
 341              	.LVL31:
 494:main.c        ****             break; 
 342              		.loc 1 494 0
 343 0034 04E0     		b	.L25
 344              	.LVL32:
 345              	.L33:
 495:main.c        ****         case 11:
 496:main.c        ****             bitCase = (hex_value & BIT_1_MASK) >> 1;
 346              		.loc 1 496 0
 347 0036 C0F34003 		ubfx	r3, r0, #1, #1
 348              	.LVL33:
 497:main.c        ****             break; 
 349              		.loc 1 497 0
 350 003a 01E0     		b	.L25
 351              	.LVL34:
 352              	.L34:
 498:main.c        ****         case 12:
 499:main.c        ****             bitCase = (hex_value & BIT_0_MASK);
 353              		.loc 1 499 0
 354 003c 00F00103 		and	r3, r0, #1
 355              	.LVL35:
 356              	.L25:
ARM GAS  C:\Users\ipfajard\AppData\Local\Temp\ccL7tIwn.s 			page 16


 500:main.c        ****             break;
 501:main.c        ****         default:
 502:main.c        ****             break;
 503:main.c        ****     } //end switch(bT)
 504:main.c        ****     return bitCase;
 505:main.c        **** }//end Decode()
 357              		.loc 1 505 0
 358 0040 1846     		mov	r0, r3
 359              	.LVL36:
 360 0042 7047     		bx	lr
 361              		.cfi_endproc
 362              	.LFE70:
 363              		.size	Decode, .-Decode
 364              		.section	.text.PreFix,"ax",%progbits
 365              		.align	2
 366              		.global	PreFix
 367              		.thumb
 368              		.thumb_func
 369              		.type	PreFix, %function
 370              	PreFix:
 371              	.LFB71:
 506:main.c        **** 
 507:main.c        **** 
 508:main.c        **** /*
 509:main.c        ****  * function: int PreFix(unsigned int hex_value, int bT)
 510:main.c        ****  * parameters: hex_value - an 8 bit (1 byte) value specifying what data you want to send
 511:main.c        ****  *             bT - the current bit time
 512:main.c        ****  * returns: bitCase - a high or low signal to be sent to an output pin
 513:main.c        ****  * description: This function takes in a hex value and sends it out a bit at a time as a high or
 514:main.c        ****  *  low signal depending on the bit time. Used only to set desired decode encryption.
 515:main.c        ****  */
 516:main.c        **** int PreFix(unsigned int hex_value, int prefixCount)
 517:main.c        **** {   
 372              		.loc 1 517 0
 373              		.cfi_startproc
 374              		@ args = 0, pretend = 0, frame = 0
 375              		@ frame_needed = 0, uses_anonymous_args = 0
 376              		@ link register save eliminated.
 377              	.LVL37:
 518:main.c        ****     int prefixBit;
 519:main.c        ****     
 520:main.c        ****     switch(prefixCount){
 378              		.loc 1 520 0
 379 0000 0729     		cmp	r1, #7
 380 0002 1CD8     		bhi	.L36
 381 0004 DFE801F0 		tbb	[pc, r1]
 382              	.L38:
 383 0008 04       		.byte	(.L37-.L38)/2
 384 0009 07       		.byte	(.L39-.L38)/2
 385 000a 0A       		.byte	(.L40-.L38)/2
 386 000b 0D       		.byte	(.L41-.L38)/2
 387 000c 10       		.byte	(.L42-.L38)/2
 388 000d 13       		.byte	(.L43-.L38)/2
 389 000e 16       		.byte	(.L44-.L38)/2
 390 000f 19       		.byte	(.L45-.L38)/2
 391              		.p2align 1
 392              	.L37:
ARM GAS  C:\Users\ipfajard\AppData\Local\Temp\ccL7tIwn.s 			page 17


 521:main.c        ****         case 0:
 522:main.c        ****            prefixBit = (hex_value & BIT_7_MASK) >> 7;
 393              		.loc 1 522 0
 394 0010 C0F3C013 		ubfx	r3, r0, #7, #1
 395              	.LVL38:
 523:main.c        ****             break;
 396              		.loc 1 523 0
 397 0014 13E0     		b	.L36
 398              	.LVL39:
 399              	.L39:
 524:main.c        ****         case 1:
 525:main.c        ****             prefixBit = (hex_value & BIT_6_MASK) >> 6;
 400              		.loc 1 525 0
 401 0016 C0F38013 		ubfx	r3, r0, #6, #1
 402              	.LVL40:
 526:main.c        ****             break; 
 403              		.loc 1 526 0
 404 001a 10E0     		b	.L36
 405              	.LVL41:
 406              	.L40:
 527:main.c        ****         case 2:
 528:main.c        ****             prefixBit = (hex_value & BIT_5_MASK) >> 5;
 407              		.loc 1 528 0
 408 001c C0F34013 		ubfx	r3, r0, #5, #1
 409              	.LVL42:
 529:main.c        ****             break; 
 410              		.loc 1 529 0
 411 0020 0DE0     		b	.L36
 412              	.LVL43:
 413              	.L41:
 530:main.c        ****         case 3:
 531:main.c        ****             prefixBit = (hex_value & BIT_4_MASK) >> 4;
 414              		.loc 1 531 0
 415 0022 C0F30013 		ubfx	r3, r0, #4, #1
 416              	.LVL44:
 532:main.c        ****             break;
 417              		.loc 1 532 0
 418 0026 0AE0     		b	.L36
 419              	.LVL45:
 420              	.L42:
 533:main.c        ****         case 4:
 534:main.c        ****             prefixBit = (hex_value & BIT_3_MASK) >> 3;
 421              		.loc 1 534 0
 422 0028 C0F3C003 		ubfx	r3, r0, #3, #1
 423              	.LVL46:
 535:main.c        ****             break; 
 424              		.loc 1 535 0
 425 002c 07E0     		b	.L36
 426              	.LVL47:
 427              	.L43:
 536:main.c        ****         case 5:
 537:main.c        ****             prefixBit = (hex_value & BIT_2_MASK) >> 2;
 428              		.loc 1 537 0
 429 002e C0F38003 		ubfx	r3, r0, #2, #1
 430              	.LVL48:
 538:main.c        ****             break; 
 431              		.loc 1 538 0
ARM GAS  C:\Users\ipfajard\AppData\Local\Temp\ccL7tIwn.s 			page 18


 432 0032 04E0     		b	.L36
 433              	.LVL49:
 434              	.L44:
 539:main.c        ****         case 6:
 540:main.c        ****             prefixBit = (hex_value & BIT_1_MASK) >> 1;
 435              		.loc 1 540 0
 436 0034 C0F34003 		ubfx	r3, r0, #1, #1
 437              	.LVL50:
 541:main.c        ****             break; 
 438              		.loc 1 541 0
 439 0038 01E0     		b	.L36
 440              	.LVL51:
 441              	.L45:
 542:main.c        ****         case 7:
 543:main.c        ****             prefixBit = (hex_value & BIT_0_MASK);
 442              		.loc 1 543 0
 443 003a 00F00103 		and	r3, r0, #1
 444              	.LVL52:
 445              	.L36:
 544:main.c        ****             break;
 545:main.c        ****         default:
 546:main.c        ****             break;
 547:main.c        ****  
 548:main.c        ****     }
 549:main.c        ****     
 550:main.c        ****     return prefixBit; 
 551:main.c        **** 
 552:main.c        **** }
 446              		.loc 1 552 0
 447 003e 1846     		mov	r0, r3
 448              	.LVL53:
 449 0040 7047     		bx	lr
 450              		.cfi_endproc
 451              	.LFE71:
 452              		.size	PreFix, .-PreFix
 453 0042 00BF     		.section	.text.goToSleep,"ax",%progbits
 454              		.align	2
 455              		.global	goToSleep
 456              		.thumb
 457              		.thumb_func
 458              		.type	goToSleep, %function
 459              	goToSleep:
 460              	.LFB72:
 553:main.c        **** 
 554:main.c        **** /*
 555:main.c        ****  * function: void goToSleep(void)
 556:main.c        ****  * parameters: none
 557:main.c        ****  * returns: none
 558:main.c        ****  * description: puts all modules to sleep and svae clocks
 559:main.c        ****  *  
 560:main.c        ****  */
 561:main.c        **** 
 562:main.c        **** void goToSleep(void){
 461              		.loc 1 562 0
 462              		.cfi_startproc
 463              		@ args = 0, pretend = 0, frame = 0
 464              		@ frame_needed = 0, uses_anonymous_args = 0
ARM GAS  C:\Users\ipfajard\AppData\Local\Temp\ccL7tIwn.s 			page 19


 465 0000 08B5     		push	{r3, lr}
 466              		.cfi_def_cfa_offset 8
 467              		.cfi_offset 3, -8
 468              		.cfi_offset 14, -4
 563:main.c        ****     
 564:main.c        ****     LCD_Sleep();
 469              		.loc 1 564 0
 470 0002 FFF7FEFF 		bl	LCD_Sleep
 471              	.LVL54:
 565:main.c        ****     PWM_Modulator_Sleep();
 472              		.loc 1 565 0
 473 0006 FFF7FEFF 		bl	PWM_Modulator_Sleep
 474              	.LVL55:
 566:main.c        ****     PWM_Switch_Timer_Sleep();
 475              		.loc 1 566 0
 476 000a FFF7FEFF 		bl	PWM_Switch_Timer_Sleep
 477              	.LVL56:
 567:main.c        ****     //UART_Sleep() ;
 568:main.c        ****     PWM_1_Sleep() ;
 478              		.loc 1 568 0
 479 000e FFF7FEFF 		bl	PWM_1_Sleep
 480              	.LVL57:
 569:main.c        ****     PWM_2_Sleep() ;
 481              		.loc 1 569 0
 482 0012 FFF7FEFF 		bl	PWM_2_Sleep
 483              	.LVL58:
 570:main.c        ****     PWM_3_Sleep() ;
 484              		.loc 1 570 0
 485 0016 FFF7FEFF 		bl	PWM_3_Sleep
 486              	.LVL59:
 571:main.c        ****     checkWatchDogTimer_Sleep()  ;
 487              		.loc 1 571 0
 488 001a FFF7FEFF 		bl	checkWatchDogTimer_Sleep
 489              	.LVL60:
 572:main.c        ****     CyPmSaveClocks();
 490              		.loc 1 572 0
 491 001e FFF7FEFF 		bl	CyPmSaveClocks
 492              	.LVL61:
 493 0022 08BD     		pop	{r3, pc}
 494              		.cfi_endproc
 495              	.LFE72:
 496              		.size	goToSleep, .-goToSleep
 497              		.section	.text.wakeUp,"ax",%progbits
 498              		.align	2
 499              		.global	wakeUp
 500              		.thumb
 501              		.thumb_func
 502              		.type	wakeUp, %function
 503              	wakeUp:
 504              	.LFB73:
 573:main.c        **** 
 574:main.c        **** }
 575:main.c        **** 
 576:main.c        **** /*
 577:main.c        ****  * function: void wakeUp(void)
 578:main.c        ****  * parameters: none
 579:main.c        ****  * returns: none
ARM GAS  C:\Users\ipfajard\AppData\Local\Temp\ccL7tIwn.s 			page 20


 580:main.c        ****  * description: wakes up all modules and restores clocks
 581:main.c        ****  *  
 582:main.c        ****  */
 583:main.c        **** 
 584:main.c        **** void wakeUp(void){
 505              		.loc 1 584 0
 506              		.cfi_startproc
 507              		@ args = 0, pretend = 0, frame = 0
 508              		@ frame_needed = 0, uses_anonymous_args = 0
 509 0000 08B5     		push	{r3, lr}
 510              		.cfi_def_cfa_offset 8
 511              		.cfi_offset 3, -8
 512              		.cfi_offset 14, -4
 585:main.c        ****     
 586:main.c        ****     CyPmRestoreClocks();
 513              		.loc 1 586 0
 514 0002 FFF7FEFF 		bl	CyPmRestoreClocks
 515              	.LVL62:
 587:main.c        ****     
 588:main.c        ****     LCD_Wakeup();
 516              		.loc 1 588 0
 517 0006 FFF7FEFF 		bl	LCD_Wakeup
 518              	.LVL63:
 589:main.c        ****     PWM_Modulator_Wakeup();
 519              		.loc 1 589 0
 520 000a FFF7FEFF 		bl	PWM_Modulator_Wakeup
 521              	.LVL64:
 590:main.c        ****     PWM_Switch_Timer_Wakeup();
 522              		.loc 1 590 0
 523 000e FFF7FEFF 		bl	PWM_Switch_Timer_Wakeup
 524              	.LVL65:
 591:main.c        ****     //UART_Wakeup() ;
 592:main.c        ****     PWM_1_Wakeup() ;
 525              		.loc 1 592 0
 526 0012 FFF7FEFF 		bl	PWM_1_Wakeup
 527              	.LVL66:
 593:main.c        ****     PWM_2_Wakeup() ;
 528              		.loc 1 593 0
 529 0016 FFF7FEFF 		bl	PWM_2_Wakeup
 530              	.LVL67:
 594:main.c        ****     PWM_3_Wakeup() ;
 531              		.loc 1 594 0
 532 001a FFF7FEFF 		bl	PWM_3_Wakeup
 533              	.LVL68:
 595:main.c        ****     checkWatchDogTimer_Wakeup()  ;   
 534              		.loc 1 595 0
 535 001e FFF7FEFF 		bl	checkWatchDogTimer_Wakeup
 536              	.LVL69:
 537 0022 08BD     		pop	{r3, pc}
 538              		.cfi_endproc
 539              	.LFE73:
 540              		.size	wakeUp, .-wakeUp
 541              		.section	.text.main,"ax",%progbits
 542              		.align	2
 543              		.global	main
 544              		.thumb
 545              		.thumb_func
ARM GAS  C:\Users\ipfajard\AppData\Local\Temp\ccL7tIwn.s 			page 21


 546              		.type	main, %function
 547              	main:
 548              	.LFB64:
 115:main.c        ****     /*Variable initializations*/
 549              		.loc 1 115 0
 550              		.cfi_startproc
 551              		@ args = 0, pretend = 0, frame = 0
 552              		@ frame_needed = 0, uses_anonymous_args = 0
 553 0000 70B5     		push	{r4, r5, r6, lr}
 554              		.cfi_def_cfa_offset 16
 555              		.cfi_offset 4, -16
 556              		.cfi_offset 5, -12
 557              		.cfi_offset 6, -8
 558              		.cfi_offset 14, -4
 559              	.LVL70:
 121:main.c        **** #endif /* INTERRUPT_CODE_ENABLED == ENABLED */
 560              		.loc 1 121 0
 561 0002 5A48     		ldr	r0, .L66
 562 0004 FFF7FEFF 		bl	isr_rx_StartEx
 563              	.LVL71:
 128:main.c        ****     CyWdtStart(CYWDT_2_TICKS, CYWDT_LPMODE_NOCHANGE); 
 564              		.loc 1 128 0
 565              		.syntax unified
 566              	@ 128 "main.c" 1
 567 0008 62B6     		CPSIE   i
 568              	@ 0 "" 2
 129:main.c        ****     checkWatchDogTimer_Start();
 569              		.loc 1 129 0
 570              		.thumb
 571              		.syntax unified
 572 000a 0021     		movs	r1, #0
 573 000c 0846     		mov	r0, r1
 574 000e FFF7FEFF 		bl	CyWdtStart
 575              	.LVL72:
 130:main.c        ****     watchDogCheck_StartEx(watchDogCheck);
 576              		.loc 1 130 0
 577 0012 FFF7FEFF 		bl	checkWatchDogTimer_Start
 578              	.LVL73:
 131:main.c        ****     
 579              		.loc 1 131 0
 580 0016 5648     		ldr	r0, .L66+4
 581 0018 FFF7FEFF 		bl	watchDogCheck_StartEx
 582              	.LVL74:
 137:main.c        ****     LCD_Start();
 583              		.loc 1 137 0
 584 001c FFF7FEFF 		bl	UART_Start
 585              	.LVL75:
 138:main.c        ****     PWM_Modulator_Start();
 586              		.loc 1 138 0
 587 0020 FFF7FEFF 		bl	LCD_Start
 588              	.LVL76:
 139:main.c        ****     PWM_1_Start();
 589              		.loc 1 139 0
 590 0024 FFF7FEFF 		bl	PWM_Modulator_Start
 591              	.LVL77:
 140:main.c        ****     PWM_2_Start();
 592              		.loc 1 140 0
ARM GAS  C:\Users\ipfajard\AppData\Local\Temp\ccL7tIwn.s 			page 22


 593 0028 FFF7FEFF 		bl	PWM_1_Start
 594              	.LVL78:
 141:main.c        ****     PWM_3_Start();
 595              		.loc 1 141 0
 596 002c FFF7FEFF 		bl	PWM_2_Start
 597              	.LVL79:
 142:main.c        ****     PWM_Switch_Timer_Start();
 598              		.loc 1 142 0
 599 0030 FFF7FEFF 		bl	PWM_3_Start
 600              	.LVL80:
 143:main.c        ****     
 601              		.loc 1 143 0
 602 0034 FFF7FEFF 		bl	PWM_Switch_Timer_Start
 603              	.LVL81:
 145:main.c        ****     Sleep_ISR_StartEx(wakeUpIsr);
 604              		.loc 1 145 0
 605 0038 4E48     		ldr	r0, .L66+8
 606 003a FFF7FEFF 		bl	isr_sec_StartEx
 607              	.LVL82:
 146:main.c        ****     
 608              		.loc 1 146 0
 609 003e 4E48     		ldr	r0, .L66+12
 610 0040 FFF7FEFF 		bl	Sleep_ISR_StartEx
 611              	.LVL83:
 151:main.c        ****     PWM_1_WriteCompare((FREQ(AUDIBLE_FREQ))/2); // Sets pulse width to half
 612              		.loc 1 151 0
 613 0044 5220     		movs	r0, #82
 614 0046 FFF7FEFF 		bl	PWM_1_WritePeriod
 615              	.LVL84:
 152:main.c        ****     
 616              		.loc 1 152 0
 617 004a 2920     		movs	r0, #41
 618 004c FFF7FEFF 		bl	PWM_1_WriteCompare
 619              	.LVL85:
 155:main.c        ****     PWM_2_WriteCompare((FREQ(ONE_FREQ))/2); // Sets pulse width to half
 620              		.loc 1 155 0
 621 0050 1620     		movs	r0, #22
 622 0052 FFF7FEFF 		bl	PWM_2_WritePeriod
 623              	.LVL86:
 156:main.c        ****     
 624              		.loc 1 156 0
 625 0056 0B20     		movs	r0, #11
 626 0058 FFF7FEFF 		bl	PWM_2_WriteCompare
 627              	.LVL87:
 159:main.c        ****     PWM_3_WriteCompare((FREQ(ZERO_FREQ))/2); // Sets pulse width to half
 628              		.loc 1 159 0
 629 005c 1A20     		movs	r0, #26
 630 005e FFF7FEFF 		bl	PWM_3_WritePeriod
 631              	.LVL88:
 160:main.c        ****     
 632              		.loc 1 160 0
 633 0062 0D20     		movs	r0, #13
 634 0064 FFF7FEFF 		bl	PWM_3_WriteCompare
 635              	.LVL89:
 118:main.c        **** 
 636              		.loc 1 118 0
 637 0068 0025     		movs	r5, #0
ARM GAS  C:\Users\ipfajard\AppData\Local\Temp\ccL7tIwn.s 			page 23


 117:main.c        ****     int data_turn = 0;
 638              		.loc 1 117 0
 639 006a 2C46     		mov	r4, r5
 640              	.LVL90:
 641              	.L51:
 172:main.c        ****         
 642              		.loc 1 172 0
 643 006c 4FF4FA70 		mov	r0, #500
 644 0070 FFF7FEFF 		bl	CyDelay
 645              	.LVL91:
 187:main.c        ****         {
 646              		.loc 1 187 0
 647 0074 414B     		ldr	r3, .L66+16
 648 0076 5B7A     		ldrb	r3, [r3, #9]	@ zero_extendqisi2
 649 0078 13B1     		cbz	r3, .L52
 190:main.c        ****         }
 650              		.loc 1 190 0
 651 007a 0022     		movs	r2, #0
 652 007c 3F4B     		ldr	r3, .L66+16
 653 007e 5A72     		strb	r2, [r3, #9]
 654              	.L52:
 192:main.c        ****             // ENCODE
 655              		.loc 1 192 0
 656 0080 3E4B     		ldr	r3, .L66+16
 657 0082 1968     		ldr	r1, [r3]
 658 0084 0D29     		cmp	r1, #13
 659 0086 5ED8     		bhi	.L53
 660 0088 DFE801F0 		tbb	[pc, r1]
 661              	.L55:
 662 008c 07       		.byte	(.L54-.L55)/2
 663 008d 0E       		.byte	(.L56-.L55)/2
 664 008e 0E       		.byte	(.L56-.L55)/2
 665 008f 0E       		.byte	(.L56-.L55)/2
 666 0090 0E       		.byte	(.L56-.L55)/2
 667 0091 14       		.byte	(.L57-.L55)/2
 668 0092 14       		.byte	(.L57-.L55)/2
 669 0093 14       		.byte	(.L57-.L55)/2
 670 0094 14       		.byte	(.L57-.L55)/2
 671 0095 14       		.byte	(.L57-.L55)/2
 672 0096 14       		.byte	(.L57-.L55)/2
 673 0097 14       		.byte	(.L57-.L55)/2
 674 0098 14       		.byte	(.L57-.L55)/2
 675 0099 19       		.byte	(.L58-.L55)/2
 676              		.p2align 1
 677              	.L54:
 195:main.c        ****                 break; 
 678              		.loc 1 195 0
 679 009a 384B     		ldr	r3, .L66+16
 680 009c 5968     		ldr	r1, [r3, #4]
 681 009e FF20     		movs	r0, #255
 682 00a0 FFF7FEFF 		bl	PreFix
 683              	.LVL92:
 684 00a4 0446     		mov	r4, r0
 685              	.LVL93:
 196:main.c        ****             // DATA
 686              		.loc 1 196 0
 687 00a6 4EE0     		b	.L53
ARM GAS  C:\Users\ipfajard\AppData\Local\Temp\ccL7tIwn.s 			page 24


 688              	.LVL94:
 689              	.L56:
 203:main.c        ****                 break; 
 690              		.loc 1 203 0
 691 00a8 354B     		ldr	r3, .L66+20
 692 00aa 1878     		ldrb	r0, [r3]	@ zero_extendqisi2
 693 00ac FFF7FEFF 		bl	Data
 694              	.LVL95:
 695 00b0 0446     		mov	r4, r0
 696              	.LVL96:
 204:main.c        ****             // DECODE
 697              		.loc 1 204 0
 698 00b2 48E0     		b	.L53
 699              	.LVL97:
 700              	.L57:
 214:main.c        ****                 break;
 701              		.loc 1 214 0
 702 00b4 0120     		movs	r0, #1
 703 00b6 FFF7FEFF 		bl	Decode
 704              	.LVL98:
 705 00ba 0446     		mov	r4, r0
 706              	.LVL99:
 215:main.c        ****             case 13:
 707              		.loc 1 215 0
 708 00bc 43E0     		b	.L53
 709              	.LVL100:
 710              	.L58:
 218:main.c        ****                 //encode used to transmit 7 1's for the prefix 
 711              		.loc 1 218 0
 712 00be 2F4B     		ldr	r3, .L66+16
 713 00c0 0026     		movs	r6, #0
 714 00c2 1E72     		strb	r6, [r3, #8]
 221:main.c        ****                 data_turn++;
 715              		.loc 1 221 0
 716 00c4 5E60     		str	r6, [r3, #4]
 222:main.c        ****                 
 717              		.loc 1 222 0
 718 00c6 0135     		adds	r5, r5, #1
 719              	.LVL101:
 224:main.c        ****                 SleepTimer_Start();
 720              		.loc 1 224 0
 721 00c8 FFF7FEFF 		bl	goToSleep
 722              	.LVL102:
 225:main.c        ****                 // PSoC Sleep command. To adjust sleep time, change in the hardware
 723              		.loc 1 225 0
 724 00cc FFF7FEFF 		bl	SleepTimer_Start
 725              	.LVL103:
 229:main.c        ****                 
 726              		.loc 1 229 0
 727 00d0 4FF40061 		mov	r1, #2048
 728 00d4 3046     		mov	r0, r6
 729 00d6 FFF7FEFF 		bl	CyPmSleep
 730              	.LVL104:
 232:main.c        ****                     data_turn = 0;
 731              		.loc 1 232 0
 732 00da 042D     		cmp	r5, #4
 733 00dc 00D1     		bne	.L59
ARM GAS  C:\Users\ipfajard\AppData\Local\Temp\ccL7tIwn.s 			page 25


 233:main.c        ****                 }
 734              		.loc 1 233 0
 735 00de 3546     		mov	r5, r6
 736              	.LVL105:
 737              	.L59:
 235:main.c        **** #else 
 738              		.loc 1 235 0
 739 00e0 274A     		ldr	r2, .L66+20
 740 00e2 1378     		ldrb	r3, [r2]	@ zero_extendqisi2
 741 00e4 5B00     		lsls	r3, r3, #1
 742 00e6 1370     		strb	r3, [r2]
 244:main.c        ****                 // Turn High Voltage off while delaying
 743              		.loc 1 244 0
 744 00e8 FFF7FEFF 		bl	PWM_Modulator_Stop
 745              	.LVL106:
 246:main.c        ****                 // Turn High Voltage Back On
 746              		.loc 1 246 0
 747 00ec FFF7FEFF 		bl	PWM_Switch_Timer_Stop
 748              	.LVL107:
 248:main.c        ****                 CyDelay(20);
 749              		.loc 1 248 0
 750 00f0 0020     		movs	r0, #0
 751 00f2 FFF7FEFF 		bl	HighVoltage_Write
 752              	.LVL108:
 249:main.c        ****                 SignalBase_Write(0);
 753              		.loc 1 249 0
 754 00f6 1420     		movs	r0, #20
 755 00f8 FFF7FEFF 		bl	CyDelay
 756              	.LVL109:
 250:main.c        ****                 
 757              		.loc 1 250 0
 758 00fc 0020     		movs	r0, #0
 759 00fe FFF7FEFF 		bl	SignalBase_Write
 760              	.LVL110:
 252:main.c        ****  
 761              		.loc 1 252 0
 762 0102 FFF7FEFF 		bl	goToSleep
 763              	.LVL111:
 256:main.c        ****                      SleepTimer_Start();
 764              		.loc 1 256 0
 765 0106 06E0     		b	.L60
 766              	.L61:
 257:main.c        ****                     // PSoC Sleep command. To adjust sleep time, change in the hardware
 767              		.loc 1 257 0
 768 0108 FFF7FEFF 		bl	SleepTimer_Start
 769              	.LVL112:
 261:main.c        **** 
 770              		.loc 1 261 0
 771 010c 4FF40061 		mov	r1, #2048
 772 0110 0020     		movs	r0, #0
 773 0112 FFF7FEFF 		bl	CyPmSleep
 774              	.LVL113:
 775              	.L60:
 256:main.c        ****                      SleepTimer_Start();
 776              		.loc 1 256 0
 777 0116 194B     		ldr	r3, .L66+16
 778 0118 1B7A     		ldrb	r3, [r3, #8]	@ zero_extendqisi2
ARM GAS  C:\Users\ipfajard\AppData\Local\Temp\ccL7tIwn.s 			page 26


 779 011a 002B     		cmp	r3, #0
 780 011c F4D0     		beq	.L61
 266:main.c        ****                 wakeUp(); 
 781              		.loc 1 266 0
 782 011e FFF7FEFF 		bl	SleepTimer_Stop
 783              	.LVL114:
 267:main.c        **** #else 
 784              		.loc 1 267 0
 785 0122 FFF7FEFF 		bl	wakeUp
 786              	.LVL115:
 274:main.c        ****                 CyDelay(20); // Give voltage booster time to charge up
 787              		.loc 1 274 0
 788 0126 0120     		movs	r0, #1
 789 0128 FFF7FEFF 		bl	HighVoltage_Write
 790              	.LVL116:
 275:main.c        ****                 SignalBase_Write(1);
 791              		.loc 1 275 0
 792 012c 1420     		movs	r0, #20
 793 012e FFF7FEFF 		bl	CyDelay
 794              	.LVL117:
 276:main.c        ****                 /* Reset PWM blocks and bitTime for new transmission */
 795              		.loc 1 276 0
 796 0132 0120     		movs	r0, #1
 797 0134 FFF7FEFF 		bl	SignalBase_Write
 798              	.LVL118:
 278:main.c        ****                 PWM_Modulator_Start();
 799              		.loc 1 278 0
 800 0138 0022     		movs	r2, #0
 801 013a 104B     		ldr	r3, .L66+16
 802 013c 1A60     		str	r2, [r3]
 279:main.c        ****                 PWM_Switch_Timer_Start();
 803              		.loc 1 279 0
 804 013e FFF7FEFF 		bl	PWM_Modulator_Start
 805              	.LVL119:
 280:main.c        ****                 break;
 806              		.loc 1 280 0
 807 0142 FFF7FEFF 		bl	PWM_Switch_Timer_Start
 808              	.LVL120:
 809              	.L53:
 287:main.c        ****             PWM_Modulator_WritePeriod(FREQ(ONE_FREQ));
 810              		.loc 1 287 0
 811 0146 012C     		cmp	r4, #1
 812 0148 06D1     		bne	.L62
 288:main.c        ****             PWM_Modulator_WriteCompare((FREQ(ONE_FREQ))/2); // Sets pulse width
 813              		.loc 1 288 0
 814 014a 1620     		movs	r0, #22
 815 014c FFF7FEFF 		bl	PWM_Modulator_WritePeriod
 816              	.LVL121:
 289:main.c        ****         }else if(bitCase == ZERO){
 817              		.loc 1 289 0
 818 0150 0B20     		movs	r0, #11
 819 0152 FFF7FEFF 		bl	PWM_Modulator_WriteCompare
 820              	.LVL122:
 821 0156 89E7     		b	.L51
 822              	.L62:
 290:main.c        ****             PWM_Modulator_WritePeriod(FREQ(ZERO_FREQ));
 823              		.loc 1 290 0
ARM GAS  C:\Users\ipfajard\AppData\Local\Temp\ccL7tIwn.s 			page 27


 824 0158 002C     		cmp	r4, #0
 825 015a 87D1     		bne	.L51
 291:main.c        ****             PWM_Modulator_WriteCompare((FREQ(ZERO_FREQ))/2); // Sets pulse width
 826              		.loc 1 291 0
 827 015c 1A20     		movs	r0, #26
 828 015e FFF7FEFF 		bl	PWM_Modulator_WritePeriod
 829              	.LVL123:
 292:main.c        ****         }
 830              		.loc 1 292 0
 831 0162 0D20     		movs	r0, #13
 832 0164 FFF7FEFF 		bl	PWM_Modulator_WriteCompare
 833              	.LVL124:
 834 0168 80E7     		b	.L51
 835              	.L67:
 836 016a 00BF     		.align	2
 837              	.L66:
 838 016c 00000000 		.word	RxIsr
 839 0170 00000000 		.word	watchDogCheck
 840 0174 00000000 		.word	isr_sec
 841 0178 00000000 		.word	wakeUpIsr
 842 017c 00000000 		.word	.LANCHOR0
 843 0180 00000000 		.word	.LANCHOR1
 844              		.cfi_endproc
 845              	.LFE64:
 846              		.size	main, .-main
 847              		.global	crabsToSend
 848              		.global	errorStatus
 849              		.global	newDataflag
 850              		.comm	data,20,4
 851              		.comm	lineStr,20,4
 852              		.comm	count,2,2
 853              		.global	i
 854              		.global	error
 855              		.data
 856              		.align	2
 857              		.set	.LANCHOR1,. + 0
 858              		.type	crabsToSend, %object
 859              		.size	crabsToSend, 1
 860              	crabsToSend:
 861 0000 01       		.byte	1
 862 0001 000000   		.space	3
 863              		.type	i, %object
 864              		.size	i, 4
 865              	i:
 866 0004 02000000 		.word	2
 867              		.section	.rodata.str1.4,"aMS",%progbits,1
 868              		.align	2
 869              	.LC0:
 870 0000 43726162 		.ascii	"Crabs: %d\000"
 870      733A2025 
 870      6400
 871 000a 0000     		.space	2
 872              	.LC1:
 873 000c 20202020 		.ascii	"             \000"
 873      20202020 
 873      20202020 
 873      2000
ARM GAS  C:\Users\ipfajard\AppData\Local\Temp\ccL7tIwn.s 			page 28


 874              		.bss
 875              		.align	2
 876              		.set	.LANCHOR0,. + 0
 877              		.type	bitTime, %object
 878              		.size	bitTime, 4
 879              	bitTime:
 880 0000 00000000 		.space	4
 881              		.type	prefixTime, %object
 882              		.size	prefixTime, 4
 883              	prefixTime:
 884 0004 00000000 		.space	4
 885              		.type	newDataflag, %object
 886              		.size	newDataflag, 1
 887              	newDataflag:
 888 0008 00       		.space	1
 889              		.type	errorStatus, %object
 890              		.size	errorStatus, 1
 891              	errorStatus:
 892 0009 00       		.space	1
 893 000a 0000     		.space	2
 894              		.type	error, %object
 895              		.size	error, 4
 896              	error:
 897 000c 00000000 		.space	4
 898              		.text
 899              	.Letext0:
 900              		.file 2 "c:\\program files (x86)\\cypress\\psoc creator\\4.1\\psoc creator\\import\\gnu\\arm\\5.4.
 901              		.file 3 "c:\\program files (x86)\\cypress\\psoc creator\\4.1\\psoc creator\\import\\gnu\\arm\\5.4.
 902              		.file 4 "Generated_Source\\PSoC5/cytypes.h"
 903              		.file 5 "Generated_Source\\PSoC5/core_cm3.h"
 904              		.file 6 "Generated_Source\\PSoC5/CyLib.h"
 905              		.file 7 "Generated_Source\\PSoC5/LCD.h"
 906              		.file 8 "c:\\program files (x86)\\cypress\\psoc creator\\4.1\\psoc creator\\import\\gnu\\arm\\5.4.
 907              		.file 9 "Generated_Source\\PSoC5/SleepTimer.h"
 908              		.file 10 "Generated_Source\\PSoC5/PWM_Modulator.h"
 909              		.file 11 "Generated_Source\\PSoC5/PWM_Switch_Timer.h"
 910              		.file 12 "Generated_Source\\PSoC5/PWM_1.h"
 911              		.file 13 "Generated_Source\\PSoC5/PWM_2.h"
 912              		.file 14 "Generated_Source\\PSoC5/PWM_3.h"
 913              		.file 15 "Generated_Source\\PSoC5/checkWatchDogTimer.h"
 914              		.file 16 "Generated_Source\\PSoC5/cyPm.h"
 915              		.file 17 "Generated_Source\\PSoC5/isr_rx.h"
 916              		.file 18 "Generated_Source\\PSoC5/watchDogCheck.h"
 917              		.file 19 "Generated_Source\\PSoC5/UART.h"
 918              		.file 20 "Generated_Source\\PSoC5/isr_sec.h"
 919              		.file 21 "Generated_Source\\PSoC5/Sleep_ISR.h"
 920              		.file 22 "Generated_Source\\PSoC5/HighVoltage.h"
 921              		.file 23 "Generated_Source\\PSoC5/SignalBase.h"